ARM GAS  /var/folders/hp/45mn71hd0ps5f5pnytxy5bt00000gn/T//ccCIVO9k.s 			page 1


   1              		.cpu cortex-m7
   2              		.arch armv7e-m
   3              		.fpu fpv5-d16
   4              		.eabi_attribute 28, 1
   5              		.eabi_attribute 20, 1
   6              		.eabi_attribute 21, 1
   7              		.eabi_attribute 23, 3
   8              		.eabi_attribute 24, 1
   9              		.eabi_attribute 25, 1
  10              		.eabi_attribute 26, 1
  11              		.eabi_attribute 30, 2
  12              		.eabi_attribute 34, 1
  13              		.eabi_attribute 18, 4
  14              		.file	"SynthV8.cpp"
  15              		.text
  16              	.Ltext0:
  17              		.cfi_sections	.debug_frame
  18              		.section	.text._ZN5daisy9ParameterD2Ev,"axG",%progbits,_ZN5daisy9ParameterD5Ev,comdat
  19              		.align	1
  20              		.p2align 2,,3
  21              		.weak	_ZN5daisy9ParameterD2Ev
  22              		.syntax unified
  23              		.thumb
  24              		.thumb_func
  26              	_ZN5daisy9ParameterD2Ev:
  27              	.LVL0:
  28              	.LFB1715:
  29              		.file 1 "../lib/libDaisy/src/hid/parameter.h"
   1:../lib/libDaisy/src/hid/parameter.h **** #pragma once
   2:../lib/libDaisy/src/hid/parameter.h **** #include <stdint.h>
   3:../lib/libDaisy/src/hid/parameter.h **** #include "hid/ctrl.h"
   4:../lib/libDaisy/src/hid/parameter.h **** 
   5:../lib/libDaisy/src/hid/parameter.h **** namespace daisy
   6:../lib/libDaisy/src/hid/parameter.h **** {
   7:../lib/libDaisy/src/hid/parameter.h **** /** @addtogroup controls
   8:../lib/libDaisy/src/hid/parameter.h ****     @{
   9:../lib/libDaisy/src/hid/parameter.h **** */
  10:../lib/libDaisy/src/hid/parameter.h **** 
  11:../lib/libDaisy/src/hid/parameter.h **** /**      Simple parameter mapping tool that takes a 0-1 input from an hid_ctrl. */
  12:../lib/libDaisy/src/hid/parameter.h **** class Parameter
  13:../lib/libDaisy/src/hid/parameter.h **** {
  14:../lib/libDaisy/src/hid/parameter.h ****   public:
  15:../lib/libDaisy/src/hid/parameter.h ****     /** Curves are applied to the output signal */
  16:../lib/libDaisy/src/hid/parameter.h ****     enum Curve
  17:../lib/libDaisy/src/hid/parameter.h ****     {
  18:../lib/libDaisy/src/hid/parameter.h ****         LINEAR,      /**< Linear curve */
  19:../lib/libDaisy/src/hid/parameter.h ****         EXPONENTIAL, /**< Exponential curve */
  20:../lib/libDaisy/src/hid/parameter.h ****         LOGARITHMIC, /**<  Logarithmic curve */
  21:../lib/libDaisy/src/hid/parameter.h ****         CUBE,        /**< Cubic curve */
  22:../lib/libDaisy/src/hid/parameter.h ****         LAST,        /**< Final enum element. */
  23:../lib/libDaisy/src/hid/parameter.h ****     };
  24:../lib/libDaisy/src/hid/parameter.h ****     /** Constructor */
  25:../lib/libDaisy/src/hid/parameter.h ****     Parameter() {}
  26:../lib/libDaisy/src/hid/parameter.h ****     /** Destructor */
  27:../lib/libDaisy/src/hid/parameter.h ****     ~Parameter() {}
  30              		.loc 1 27 5 view -0
  31              		.cfi_startproc
ARM GAS  /var/folders/hp/45mn71hd0ps5f5pnytxy5bt00000gn/T//ccCIVO9k.s 			page 2


  32              		@ args = 0, pretend = 0, frame = 0
  33              		@ frame_needed = 0, uses_anonymous_args = 0
  34              		@ link register save eliminated.
  35              	.LBB916:
  36              	.LBI916:
  37              		.file 2 "../lib/libDaisy/src/hid/ctrl.h"
   1:../lib/libDaisy/src/hid/ctrl.h **** #pragma once
   2:../lib/libDaisy/src/hid/ctrl.h **** #ifndef DSY_KNOB_H
   3:../lib/libDaisy/src/hid/ctrl.h **** #define DSY_KNOB_H /**< & */
   4:../lib/libDaisy/src/hid/ctrl.h **** #include <stdint.h>
   5:../lib/libDaisy/src/hid/ctrl.h **** 
   6:../lib/libDaisy/src/hid/ctrl.h **** #ifdef __cplusplus
   7:../lib/libDaisy/src/hid/ctrl.h **** namespace daisy
   8:../lib/libDaisy/src/hid/ctrl.h **** {
   9:../lib/libDaisy/src/hid/ctrl.h **** /**
  10:../lib/libDaisy/src/hid/ctrl.h ****     @brief Hardware Interface for control inputs \n
  11:../lib/libDaisy/src/hid/ctrl.h ****     Primarily designed for ADC input controls such as \n
  12:../lib/libDaisy/src/hid/ctrl.h ****     potentiometers, and control voltage. \n
  13:../lib/libDaisy/src/hid/ctrl.h ****     @author Stephen Hensley
  14:../lib/libDaisy/src/hid/ctrl.h ****     @date November 2019
  15:../lib/libDaisy/src/hid/ctrl.h ****     @ingroup controls
  16:../lib/libDaisy/src/hid/ctrl.h **** */
  17:../lib/libDaisy/src/hid/ctrl.h **** class AnalogControl
  18:../lib/libDaisy/src/hid/ctrl.h **** {
  19:../lib/libDaisy/src/hid/ctrl.h ****   public:
  20:../lib/libDaisy/src/hid/ctrl.h ****     /** Constructor */
  21:../lib/libDaisy/src/hid/ctrl.h ****     AnalogControl() {}
  22:../lib/libDaisy/src/hid/ctrl.h ****     /** destructor */
  23:../lib/libDaisy/src/hid/ctrl.h ****     ~AnalogControl() {}
  38              		.loc 2 23 5 view .LVU1
  39              		.loc 2 23 5 is_stmt 0 view .LVU2
  40              	.LBE916:
  41              		.loc 1 27 19 view .LVU3
  42 0000 7047     		bx	lr
  43              		.cfi_endproc
  44              	.LFE1715:
  46              		.weak	_ZN5daisy9ParameterD1Ev
  47              		.thumb_set _ZN5daisy9ParameterD1Ev,_ZN5daisy9ParameterD2Ev
  48 0002 00BF     		.section	.text._ZN5daisy8DaisyPodD2Ev,"axG",%progbits,_ZN5daisy8DaisyPodD5Ev,comdat
  49              		.align	1
  50              		.p2align 2,,3
  51              		.weak	_ZN5daisy8DaisyPodD2Ev
  52              		.syntax unified
  53              		.thumb
  54              		.thumb_func
  56              	_ZN5daisy8DaisyPodD2Ev:
  57              	.LVL1:
  58              	.LFB2655:
  59              		.file 3 "../lib/libDaisy/src/daisy_pod.h"
   1:../lib/libDaisy/src/daisy_pod.h **** #pragma once
   2:../lib/libDaisy/src/daisy_pod.h **** #ifndef DSY_POD_BSP_H
   3:../lib/libDaisy/src/daisy_pod.h **** #define DSY_POD_BSP_H
   4:../lib/libDaisy/src/daisy_pod.h **** 
   5:../lib/libDaisy/src/daisy_pod.h **** #include "daisy_seed.h"
   6:../lib/libDaisy/src/daisy_pod.h **** 
   7:../lib/libDaisy/src/daisy_pod.h **** namespace daisy
   8:../lib/libDaisy/src/daisy_pod.h **** {
ARM GAS  /var/folders/hp/45mn71hd0ps5f5pnytxy5bt00000gn/T//ccCIVO9k.s 			page 3


   9:../lib/libDaisy/src/daisy_pod.h **** /**
  10:../lib/libDaisy/src/daisy_pod.h ****     @brief Class that handles initializing all of the hardware specific to the Daisy Patch Board. \
  11:../lib/libDaisy/src/daisy_pod.h ****     Helper funtions are also in place to provide easy access to built-in controls and peripherals.
  12:../lib/libDaisy/src/daisy_pod.h ****     @author Stephen Hensley
  13:../lib/libDaisy/src/daisy_pod.h ****     @date November 2019
  14:../lib/libDaisy/src/daisy_pod.h ****     @ingroup boards
  15:../lib/libDaisy/src/daisy_pod.h **** */
  16:../lib/libDaisy/src/daisy_pod.h **** class DaisyPod
  17:../lib/libDaisy/src/daisy_pod.h **** {
  18:../lib/libDaisy/src/daisy_pod.h ****   public:
  19:../lib/libDaisy/src/daisy_pod.h ****     /** Switches */
  20:../lib/libDaisy/src/daisy_pod.h ****     enum Sw
  21:../lib/libDaisy/src/daisy_pod.h ****     {
  22:../lib/libDaisy/src/daisy_pod.h ****         BUTTON_1,    /** & */
  23:../lib/libDaisy/src/daisy_pod.h ****         BUTTON_2,    /** & */
  24:../lib/libDaisy/src/daisy_pod.h ****         BUTTON_LAST, /** &  */
  25:../lib/libDaisy/src/daisy_pod.h ****     };
  26:../lib/libDaisy/src/daisy_pod.h **** 
  27:../lib/libDaisy/src/daisy_pod.h ****     /** Knobs */
  28:../lib/libDaisy/src/daisy_pod.h ****     enum Knob
  29:../lib/libDaisy/src/daisy_pod.h ****     {
  30:../lib/libDaisy/src/daisy_pod.h ****         KNOB_1,    /** &  */
  31:../lib/libDaisy/src/daisy_pod.h ****         KNOB_2,    /** & */
  32:../lib/libDaisy/src/daisy_pod.h ****         KNOB_LAST, /** & */
  33:../lib/libDaisy/src/daisy_pod.h ****     };
  34:../lib/libDaisy/src/daisy_pod.h **** 
  35:../lib/libDaisy/src/daisy_pod.h ****     DaisyPod() {}
  36:../lib/libDaisy/src/daisy_pod.h ****     ~DaisyPod() {}
  60              		.loc 3 36 5 is_stmt 1 view -0
  61              		.cfi_startproc
  62              		@ args = 0, pretend = 0, frame = 0
  63              		@ frame_needed = 0, uses_anonymous_args = 0
  64              		@ link register save eliminated.
  65              	.LBB917:
  66              	.LBI917:
  67              		.file 4 "../lib/libDaisy/src/hid/midi.h"
   1:../lib/libDaisy/src/hid/midi.h **** #pragma once
   2:../lib/libDaisy/src/hid/midi.h **** #ifndef DSY_MIDI_H
   3:../lib/libDaisy/src/hid/midi.h **** #define DSY_MIDI_H
   4:../lib/libDaisy/src/hid/midi.h **** 
   5:../lib/libDaisy/src/hid/midi.h **** #include <stdint.h>
   6:../lib/libDaisy/src/hid/midi.h **** #include <stdlib.h>
   7:../lib/libDaisy/src/hid/midi.h **** #include <algorithm>
   8:../lib/libDaisy/src/hid/midi.h **** #include "per/uart.h"
   9:../lib/libDaisy/src/hid/midi.h **** #include "util/ringbuffer.h"
  10:../lib/libDaisy/src/hid/midi.h **** #include "util/FIFO.h"
  11:../lib/libDaisy/src/hid/midi.h **** #include "hid/midi_parser.h"
  12:../lib/libDaisy/src/hid/midi.h **** #include "hid/usb_midi.h"
  13:../lib/libDaisy/src/hid/midi.h **** #include "sys/dma.h"
  14:../lib/libDaisy/src/hid/midi.h **** #include "sys/system.h"
  15:../lib/libDaisy/src/hid/midi.h **** 
  16:../lib/libDaisy/src/hid/midi.h **** namespace daisy
  17:../lib/libDaisy/src/hid/midi.h **** {
  18:../lib/libDaisy/src/hid/midi.h **** /** @brief   Transport layer for sending and receiving MIDI data over UART
  19:../lib/libDaisy/src/hid/midi.h ****  *  @details This is the mode of communication used for TRS and DIN MIDI
  20:../lib/libDaisy/src/hid/midi.h ****  *           There is an additional 2kB of RAM data used within this class
  21:../lib/libDaisy/src/hid/midi.h ****  *           for processing bulk data from the UART peripheral
ARM GAS  /var/folders/hp/45mn71hd0ps5f5pnytxy5bt00000gn/T//ccCIVO9k.s 			page 4


  22:../lib/libDaisy/src/hid/midi.h ****  *  @ingroup midi
  23:../lib/libDaisy/src/hid/midi.h **** */
  24:../lib/libDaisy/src/hid/midi.h **** class MidiUartTransport
  25:../lib/libDaisy/src/hid/midi.h **** {
  26:../lib/libDaisy/src/hid/midi.h ****   public:
  27:../lib/libDaisy/src/hid/midi.h ****     typedef void (*MidiRxParseCallback)(uint8_t* data,
  28:../lib/libDaisy/src/hid/midi.h ****                                         size_t   size,
  29:../lib/libDaisy/src/hid/midi.h ****                                         void*    context);
  30:../lib/libDaisy/src/hid/midi.h **** 
  31:../lib/libDaisy/src/hid/midi.h ****     MidiUartTransport() {}
  32:../lib/libDaisy/src/hid/midi.h ****     ~MidiUartTransport() {}
  33:../lib/libDaisy/src/hid/midi.h **** 
  34:../lib/libDaisy/src/hid/midi.h ****     /** @brief Configuration structure for UART MIDI */
  35:../lib/libDaisy/src/hid/midi.h ****     struct Config
  36:../lib/libDaisy/src/hid/midi.h ****     {
  37:../lib/libDaisy/src/hid/midi.h ****         UartHandler::Config::Peripheral periph;
  38:../lib/libDaisy/src/hid/midi.h ****         Pin                             rx;
  39:../lib/libDaisy/src/hid/midi.h ****         Pin                             tx;
  40:../lib/libDaisy/src/hid/midi.h **** 
  41:../lib/libDaisy/src/hid/midi.h ****         /** Pointer to buffer for DMA UART rx byte transfer in background.
  42:../lib/libDaisy/src/hid/midi.h ****          *
  43:../lib/libDaisy/src/hid/midi.h ****          *  @details By default this uses a shared buffer in DMA_BUFFER_MEM_SECTION,
  44:../lib/libDaisy/src/hid/midi.h ****          *           which can only be utilized for a single UART peripheral. To
  45:../lib/libDaisy/src/hid/midi.h ****          *           use MIDI with multiple UART peripherals, you must provide your own
  46:../lib/libDaisy/src/hid/midi.h ****          *           buffer, allocated to a DMA-capable memory section.
  47:../lib/libDaisy/src/hid/midi.h ****          */
  48:../lib/libDaisy/src/hid/midi.h ****         uint8_t* rx_buffer;
  49:../lib/libDaisy/src/hid/midi.h **** 
  50:../lib/libDaisy/src/hid/midi.h ****         /** Size in bytes of rx_buffer.
  51:../lib/libDaisy/src/hid/midi.h ****          *
  52:../lib/libDaisy/src/hid/midi.h ****          *  @details This size determines the maximum Rx bytes readable by the UART in the backgrou
  53:../lib/libDaisy/src/hid/midi.h ****          *           By default it's set to the size of the default shared rx_buffer (256 bytes).
  54:../lib/libDaisy/src/hid/midi.h ****          *           While much smaller sizes can be used, data can get missed if the buffer is too
  55:../lib/libDaisy/src/hid/midi.h ****          */
  56:../lib/libDaisy/src/hid/midi.h ****         size_t rx_buffer_size;
  57:../lib/libDaisy/src/hid/midi.h **** 
  58:../lib/libDaisy/src/hid/midi.h ****         Config();
  59:../lib/libDaisy/src/hid/midi.h ****     };
  60:../lib/libDaisy/src/hid/midi.h **** 
  61:../lib/libDaisy/src/hid/midi.h ****     /** @brief Initialization of UART using config struct */
  62:../lib/libDaisy/src/hid/midi.h ****     inline void Init(Config config)
  63:../lib/libDaisy/src/hid/midi.h ****     {
  64:../lib/libDaisy/src/hid/midi.h ****         UartHandler::Config uart_config;
  65:../lib/libDaisy/src/hid/midi.h **** 
  66:../lib/libDaisy/src/hid/midi.h ****         //defaults
  67:../lib/libDaisy/src/hid/midi.h ****         uart_config.baudrate   = 31250;
  68:../lib/libDaisy/src/hid/midi.h ****         uart_config.stopbits   = UartHandler::Config::StopBits::BITS_1;
  69:../lib/libDaisy/src/hid/midi.h ****         uart_config.parity     = UartHandler::Config::Parity::NONE;
  70:../lib/libDaisy/src/hid/midi.h ****         uart_config.mode       = UartHandler::Config::Mode::TX_RX;
  71:../lib/libDaisy/src/hid/midi.h ****         uart_config.wordlength = UartHandler::Config::WordLength::BITS_8;
  72:../lib/libDaisy/src/hid/midi.h **** 
  73:../lib/libDaisy/src/hid/midi.h ****         //user settings
  74:../lib/libDaisy/src/hid/midi.h ****         uart_config.periph        = config.periph;
  75:../lib/libDaisy/src/hid/midi.h ****         uart_config.pin_config.rx = config.rx;
  76:../lib/libDaisy/src/hid/midi.h ****         uart_config.pin_config.tx = config.tx;
  77:../lib/libDaisy/src/hid/midi.h **** 
  78:../lib/libDaisy/src/hid/midi.h ****         rx_buffer      = config.rx_buffer;
ARM GAS  /var/folders/hp/45mn71hd0ps5f5pnytxy5bt00000gn/T//ccCIVO9k.s 			page 5


  79:../lib/libDaisy/src/hid/midi.h ****         rx_buffer_size = config.rx_buffer_size;
  80:../lib/libDaisy/src/hid/midi.h **** 
  81:../lib/libDaisy/src/hid/midi.h ****         /** zero the buffer to ensure emptiness regardless of source memory */
  82:../lib/libDaisy/src/hid/midi.h ****         std::fill(rx_buffer, rx_buffer + rx_buffer_size, 0);
  83:../lib/libDaisy/src/hid/midi.h **** 
  84:../lib/libDaisy/src/hid/midi.h ****         uart_.Init(uart_config);
  85:../lib/libDaisy/src/hid/midi.h ****     }
  86:../lib/libDaisy/src/hid/midi.h **** 
  87:../lib/libDaisy/src/hid/midi.h ****     /** @brief Start the UART peripheral in listening mode.
  88:../lib/libDaisy/src/hid/midi.h ****      *  This will fill an internal data structure in the background */
  89:../lib/libDaisy/src/hid/midi.h ****     inline void StartRx(MidiRxParseCallback parse_callback, void* context)
  90:../lib/libDaisy/src/hid/midi.h ****     {
  91:../lib/libDaisy/src/hid/midi.h ****         parse_context_  = context;
  92:../lib/libDaisy/src/hid/midi.h ****         parse_callback_ = parse_callback;
  93:../lib/libDaisy/src/hid/midi.h ****         dsy_dma_clear_cache_for_buffer((uint8_t*)this,
  94:../lib/libDaisy/src/hid/midi.h ****                                        sizeof(MidiUartTransport));
  95:../lib/libDaisy/src/hid/midi.h ****         uart_.DmaListenStart(
  96:../lib/libDaisy/src/hid/midi.h ****             rx_buffer, rx_buffer_size, MidiUartTransport::rxCallback, this);
  97:../lib/libDaisy/src/hid/midi.h ****     }
  98:../lib/libDaisy/src/hid/midi.h **** 
  99:../lib/libDaisy/src/hid/midi.h ****     /** @brief returns whether the UART peripheral is actively listening in the background or not *
 100:../lib/libDaisy/src/hid/midi.h ****     inline bool RxActive() { return uart_.IsListening(); }
 101:../lib/libDaisy/src/hid/midi.h **** 
 102:../lib/libDaisy/src/hid/midi.h ****     /** @brief This is a no-op for UART transport - Rx is via DMA callback with circular buffer */
 103:../lib/libDaisy/src/hid/midi.h ****     inline void FlushRx() {}
 104:../lib/libDaisy/src/hid/midi.h **** 
 105:../lib/libDaisy/src/hid/midi.h ****     /** @brief sends the buffer of bytes out of the UART peripheral */
 106:../lib/libDaisy/src/hid/midi.h ****     inline void Tx(uint8_t* buff, size_t size) { uart_.PollTx(buff, size); }
 107:../lib/libDaisy/src/hid/midi.h **** 
 108:../lib/libDaisy/src/hid/midi.h ****   private:
 109:../lib/libDaisy/src/hid/midi.h ****     UartHandler         uart_;
 110:../lib/libDaisy/src/hid/midi.h ****     uint8_t*            rx_buffer;
 111:../lib/libDaisy/src/hid/midi.h ****     size_t              rx_buffer_size;
 112:../lib/libDaisy/src/hid/midi.h ****     void*               parse_context_;
 113:../lib/libDaisy/src/hid/midi.h ****     MidiRxParseCallback parse_callback_;
 114:../lib/libDaisy/src/hid/midi.h **** 
 115:../lib/libDaisy/src/hid/midi.h ****     /** Static callback for Uart MIDI that occurs when
 116:../lib/libDaisy/src/hid/midi.h ****          *  new data is available from the peripheral.
 117:../lib/libDaisy/src/hid/midi.h ****          *  The new data is transferred from the peripheral to the
 118:../lib/libDaisy/src/hid/midi.h ****          *  MIDI instance's byte FIFO that feeds the MIDI parser.
 119:../lib/libDaisy/src/hid/midi.h ****          *
 120:../lib/libDaisy/src/hid/midi.h ****          *  TODO: Handle UartHandler errors better/at all.
 121:../lib/libDaisy/src/hid/midi.h ****          *  (If there is a UART error, there's not really any recovery
 122:../lib/libDaisy/src/hid/midi.h ****          *  option at the moment)
 123:../lib/libDaisy/src/hid/midi.h ****          */
 124:../lib/libDaisy/src/hid/midi.h ****     static void rxCallback(uint8_t*            data,
 125:../lib/libDaisy/src/hid/midi.h ****                            size_t              size,
 126:../lib/libDaisy/src/hid/midi.h ****                            void*               context,
 127:../lib/libDaisy/src/hid/midi.h ****                            UartHandler::Result res)
 128:../lib/libDaisy/src/hid/midi.h ****     {
 129:../lib/libDaisy/src/hid/midi.h ****         /** Read context as transport type */
 130:../lib/libDaisy/src/hid/midi.h ****         MidiUartTransport* transport
 131:../lib/libDaisy/src/hid/midi.h ****             = reinterpret_cast<MidiUartTransport*>(context);
 132:../lib/libDaisy/src/hid/midi.h ****         if(res == UartHandler::Result::OK)
 133:../lib/libDaisy/src/hid/midi.h ****         {
 134:../lib/libDaisy/src/hid/midi.h ****             if(transport->parse_callback_)
 135:../lib/libDaisy/src/hid/midi.h ****             {
ARM GAS  /var/folders/hp/45mn71hd0ps5f5pnytxy5bt00000gn/T//ccCIVO9k.s 			page 6


 136:../lib/libDaisy/src/hid/midi.h ****                 transport->parse_callback_(
 137:../lib/libDaisy/src/hid/midi.h ****                     data, size, transport->parse_context_);
 138:../lib/libDaisy/src/hid/midi.h ****             }
 139:../lib/libDaisy/src/hid/midi.h ****         }
 140:../lib/libDaisy/src/hid/midi.h ****     }
 141:../lib/libDaisy/src/hid/midi.h **** };
 142:../lib/libDaisy/src/hid/midi.h **** 
 143:../lib/libDaisy/src/hid/midi.h **** /**
 144:../lib/libDaisy/src/hid/midi.h ****     @brief Simple MIDI Handler \n
 145:../lib/libDaisy/src/hid/midi.h ****     Parses bytes from an input into valid MidiEvents. \n
 146:../lib/libDaisy/src/hid/midi.h ****     The MidiEvents fill a FIFO queue that the user can pop messages from.
 147:../lib/libDaisy/src/hid/midi.h ****     @author shensley
 148:../lib/libDaisy/src/hid/midi.h ****     @date March 2020
 149:../lib/libDaisy/src/hid/midi.h ****     @ingroup midi
 150:../lib/libDaisy/src/hid/midi.h **** */
 151:../lib/libDaisy/src/hid/midi.h **** template <typename Transport>
 152:../lib/libDaisy/src/hid/midi.h **** class MidiHandler
 153:../lib/libDaisy/src/hid/midi.h **** {
 154:../lib/libDaisy/src/hid/midi.h ****   public:
 155:../lib/libDaisy/src/hid/midi.h ****     MidiHandler() {}
 156:../lib/libDaisy/src/hid/midi.h ****     ~MidiHandler() {}
  68              		.loc 4 156 5 view .LVU5
  69              	.LBB918:
  70              	.LBI918:
  71              		.file 5 "../lib/libDaisy/src/util/FIFO.h"
   1:../lib/libDaisy/src/util/FIFO.h **** #pragma once
   2:../lib/libDaisy/src/util/FIFO.h **** 
   3:../lib/libDaisy/src/util/FIFO.h **** #include <stdint.h>
   4:../lib/libDaisy/src/util/FIFO.h **** #include <stddef.h>
   5:../lib/libDaisy/src/util/FIFO.h **** #include <initializer_list>
   6:../lib/libDaisy/src/util/FIFO.h **** 
   7:../lib/libDaisy/src/util/FIFO.h **** namespace daisy
   8:../lib/libDaisy/src/util/FIFO.h **** {
   9:../lib/libDaisy/src/util/FIFO.h **** /** Capacity-independent base class for FIFO. Use FIFO instead. */
  10:../lib/libDaisy/src/util/FIFO.h **** template <typename T>
  11:../lib/libDaisy/src/util/FIFO.h **** class FIFOBase
  12:../lib/libDaisy/src/util/FIFO.h **** {
  13:../lib/libDaisy/src/util/FIFO.h ****   protected:
  14:../lib/libDaisy/src/util/FIFO.h ****     FIFOBase(T* buffer, size_t bufferSize)
  15:../lib/libDaisy/src/util/FIFO.h ****     : buffer_(buffer), bufferSize_(bufferSize), bufferIn_(0), bufferOut_(0)
  16:../lib/libDaisy/src/util/FIFO.h ****     {
  17:../lib/libDaisy/src/util/FIFO.h ****     }
  18:../lib/libDaisy/src/util/FIFO.h **** 
  19:../lib/libDaisy/src/util/FIFO.h ****     FIFOBase(T* buffer, size_t bufferSize, std::initializer_list<T> valuesToAdd)
  20:../lib/libDaisy/src/util/FIFO.h ****     : buffer_(buffer), bufferSize_(bufferSize), bufferIn_(0), bufferOut_(0)
  21:../lib/libDaisy/src/util/FIFO.h ****     {
  22:../lib/libDaisy/src/util/FIFO.h ****         PushBack(valuesToAdd);
  23:../lib/libDaisy/src/util/FIFO.h ****     }
  24:../lib/libDaisy/src/util/FIFO.h **** 
  25:../lib/libDaisy/src/util/FIFO.h ****   public:
  26:../lib/libDaisy/src/util/FIFO.h ****     /** Copies all elements from another FIFO */
  27:../lib/libDaisy/src/util/FIFO.h ****     FIFOBase<T>& operator=(const FIFOBase<T>& other)
  28:../lib/libDaisy/src/util/FIFO.h ****     {
  29:../lib/libDaisy/src/util/FIFO.h ****         bufferIn_ = bufferOut_ = 0;
  30:../lib/libDaisy/src/util/FIFO.h ****         if(!other.IsEmpty())
  31:../lib/libDaisy/src/util/FIFO.h ****         {
  32:../lib/libDaisy/src/util/FIFO.h ****             int readPtr = other.bufferOut_;
ARM GAS  /var/folders/hp/45mn71hd0ps5f5pnytxy5bt00000gn/T//ccCIVO9k.s 			page 7


  33:../lib/libDaisy/src/util/FIFO.h ****             while((readPtr != other.bufferIn_) && (bufferIn_ < bufferSize_))
  34:../lib/libDaisy/src/util/FIFO.h ****             {
  35:../lib/libDaisy/src/util/FIFO.h ****                 buffer_[bufferIn_++] = other.buffer_[readPtr++];
  36:../lib/libDaisy/src/util/FIFO.h ****                 if(readPtr >= other.bufferSize_)
  37:../lib/libDaisy/src/util/FIFO.h ****                     readPtr -= other.bufferSize_;
  38:../lib/libDaisy/src/util/FIFO.h ****             }
  39:../lib/libDaisy/src/util/FIFO.h ****         }
  40:../lib/libDaisy/src/util/FIFO.h ****         return *this;
  41:../lib/libDaisy/src/util/FIFO.h ****     }
  42:../lib/libDaisy/src/util/FIFO.h ****     ~FIFOBase() {}
  43:../lib/libDaisy/src/util/FIFO.h **** 
  44:../lib/libDaisy/src/util/FIFO.h ****     /** Removes all elements from the FIFO */
  45:../lib/libDaisy/src/util/FIFO.h ****     void Clear() { bufferIn_ = bufferOut_ = 0; }
  46:../lib/libDaisy/src/util/FIFO.h **** 
  47:../lib/libDaisy/src/util/FIFO.h ****     /** Adds an element to the back of the buffer, returning true on
  48:../lib/libDaisy/src/util/FIFO.h ****         success */
  49:../lib/libDaisy/src/util/FIFO.h ****     bool PushBack(const T& elementToAdd)
  50:../lib/libDaisy/src/util/FIFO.h ****     {
  51:../lib/libDaisy/src/util/FIFO.h ****         if(!IsFull())
  52:../lib/libDaisy/src/util/FIFO.h ****         {
  53:../lib/libDaisy/src/util/FIFO.h ****             buffer_[bufferIn_++] = elementToAdd;
  54:../lib/libDaisy/src/util/FIFO.h ****             if(bufferIn_ >= bufferSize_)
  55:../lib/libDaisy/src/util/FIFO.h ****                 bufferIn_ -= bufferSize_;
  56:../lib/libDaisy/src/util/FIFO.h ****             return true;
  57:../lib/libDaisy/src/util/FIFO.h ****         }
  58:../lib/libDaisy/src/util/FIFO.h ****         return false;
  59:../lib/libDaisy/src/util/FIFO.h ****     }
  60:../lib/libDaisy/src/util/FIFO.h **** 
  61:../lib/libDaisy/src/util/FIFO.h ****     /** Adds multiple elements and returns the number of elements that were added */
  62:../lib/libDaisy/src/util/FIFO.h ****     int PushBack(std::initializer_list<T> valuesToAdd)
  63:../lib/libDaisy/src/util/FIFO.h ****     {
  64:../lib/libDaisy/src/util/FIFO.h ****         int numAdded = 0;
  65:../lib/libDaisy/src/util/FIFO.h ****         for(const auto& v : valuesToAdd)
  66:../lib/libDaisy/src/util/FIFO.h ****         {
  67:../lib/libDaisy/src/util/FIFO.h ****             if(IsFull())
  68:../lib/libDaisy/src/util/FIFO.h ****                 return numAdded;
  69:../lib/libDaisy/src/util/FIFO.h **** 
  70:../lib/libDaisy/src/util/FIFO.h ****             PushBack(v);
  71:../lib/libDaisy/src/util/FIFO.h ****             numAdded++;
  72:../lib/libDaisy/src/util/FIFO.h ****         }
  73:../lib/libDaisy/src/util/FIFO.h ****         return numAdded;
  74:../lib/libDaisy/src/util/FIFO.h ****     }
  75:../lib/libDaisy/src/util/FIFO.h **** 
  76:../lib/libDaisy/src/util/FIFO.h ****     /** returns a reference to the last element */
  77:../lib/libDaisy/src/util/FIFO.h ****     T& Back()
  78:../lib/libDaisy/src/util/FIFO.h ****     {
  79:../lib/libDaisy/src/util/FIFO.h ****         if(IsEmpty())
  80:../lib/libDaisy/src/util/FIFO.h ****             // invalid, but better not pass a temporary T() object as a reference...
  81:../lib/libDaisy/src/util/FIFO.h ****             return buffer_[0];
  82:../lib/libDaisy/src/util/FIFO.h ****         int idx = bufferIn_ - 1;
  83:../lib/libDaisy/src/util/FIFO.h ****         if(idx < 0)
  84:../lib/libDaisy/src/util/FIFO.h ****             idx += bufferSize_;
  85:../lib/libDaisy/src/util/FIFO.h ****         return buffer_[idx];
  86:../lib/libDaisy/src/util/FIFO.h ****     }
  87:../lib/libDaisy/src/util/FIFO.h **** 
  88:../lib/libDaisy/src/util/FIFO.h ****     /** returns a reference to the last element */
  89:../lib/libDaisy/src/util/FIFO.h ****     const T& Back() const
ARM GAS  /var/folders/hp/45mn71hd0ps5f5pnytxy5bt00000gn/T//ccCIVO9k.s 			page 8


  90:../lib/libDaisy/src/util/FIFO.h ****     {
  91:../lib/libDaisy/src/util/FIFO.h ****         if(IsEmpty())
  92:../lib/libDaisy/src/util/FIFO.h ****             // invalid, but better not pass a temporary T() object as a reference...
  93:../lib/libDaisy/src/util/FIFO.h ****             return buffer_[0];
  94:../lib/libDaisy/src/util/FIFO.h ****         int idx = bufferIn_ - 1;
  95:../lib/libDaisy/src/util/FIFO.h ****         if(idx < 0)
  96:../lib/libDaisy/src/util/FIFO.h ****             idx += bufferSize_;
  97:../lib/libDaisy/src/util/FIFO.h ****         return buffer_[idx];
  98:../lib/libDaisy/src/util/FIFO.h ****     }
  99:../lib/libDaisy/src/util/FIFO.h **** 
 100:../lib/libDaisy/src/util/FIFO.h ****     /** removes and returns an element from the front of the buffer */
 101:../lib/libDaisy/src/util/FIFO.h ****     T PopFront()
 102:../lib/libDaisy/src/util/FIFO.h ****     {
 103:../lib/libDaisy/src/util/FIFO.h ****         if(IsEmpty())
 104:../lib/libDaisy/src/util/FIFO.h ****             return T();
 105:../lib/libDaisy/src/util/FIFO.h ****         else
 106:../lib/libDaisy/src/util/FIFO.h ****         {
 107:../lib/libDaisy/src/util/FIFO.h ****             const auto result = buffer_[bufferOut_];
 108:../lib/libDaisy/src/util/FIFO.h ****             bufferOut_++;
 109:../lib/libDaisy/src/util/FIFO.h ****             if(bufferOut_ >= bufferSize_)
 110:../lib/libDaisy/src/util/FIFO.h ****                 bufferOut_ -= bufferSize_;
 111:../lib/libDaisy/src/util/FIFO.h ****             return result;
 112:../lib/libDaisy/src/util/FIFO.h ****         }
 113:../lib/libDaisy/src/util/FIFO.h ****     }
 114:../lib/libDaisy/src/util/FIFO.h **** 
 115:../lib/libDaisy/src/util/FIFO.h ****     /** returns a copy of the first element */
 116:../lib/libDaisy/src/util/FIFO.h ****     T& Front()
 117:../lib/libDaisy/src/util/FIFO.h ****     {
 118:../lib/libDaisy/src/util/FIFO.h ****         if(IsEmpty())
 119:../lib/libDaisy/src/util/FIFO.h ****             // invalid, but better not pass a temporary T() object as a reference...
 120:../lib/libDaisy/src/util/FIFO.h ****             return buffer_[0];
 121:../lib/libDaisy/src/util/FIFO.h ****         return buffer_[bufferOut_];
 122:../lib/libDaisy/src/util/FIFO.h ****     }
 123:../lib/libDaisy/src/util/FIFO.h **** 
 124:../lib/libDaisy/src/util/FIFO.h ****     /** returns a reference to the first element */
 125:../lib/libDaisy/src/util/FIFO.h ****     const T& Front() const
 126:../lib/libDaisy/src/util/FIFO.h ****     {
 127:../lib/libDaisy/src/util/FIFO.h ****         if(IsEmpty())
 128:../lib/libDaisy/src/util/FIFO.h ****             // invalid, but better not pass a temporary T() object as a reference...
 129:../lib/libDaisy/src/util/FIFO.h ****             return buffer_[0];
 130:../lib/libDaisy/src/util/FIFO.h ****         return buffer_[bufferOut_];
 131:../lib/libDaisy/src/util/FIFO.h ****     }
 132:../lib/libDaisy/src/util/FIFO.h **** 
 133:../lib/libDaisy/src/util/FIFO.h ****     /** Returns true if the buffer contains an element equal to the provided value */
 134:../lib/libDaisy/src/util/FIFO.h ****     bool Contains(const T& element)
 135:../lib/libDaisy/src/util/FIFO.h ****     {
 136:../lib/libDaisy/src/util/FIFO.h ****         auto idx = bufferOut_;
 137:../lib/libDaisy/src/util/FIFO.h ****         while(idx != bufferIn_)
 138:../lib/libDaisy/src/util/FIFO.h ****         {
 139:../lib/libDaisy/src/util/FIFO.h ****             if(buffer_[idx] == element)
 140:../lib/libDaisy/src/util/FIFO.h ****                 return true;
 141:../lib/libDaisy/src/util/FIFO.h ****             idx++;
 142:../lib/libDaisy/src/util/FIFO.h ****             if(idx >= bufferSize_)
 143:../lib/libDaisy/src/util/FIFO.h ****                 idx -= bufferSize_;
 144:../lib/libDaisy/src/util/FIFO.h ****         }
 145:../lib/libDaisy/src/util/FIFO.h ****         return false;
 146:../lib/libDaisy/src/util/FIFO.h ****     }
ARM GAS  /var/folders/hp/45mn71hd0ps5f5pnytxy5bt00000gn/T//ccCIVO9k.s 			page 9


 147:../lib/libDaisy/src/util/FIFO.h **** 
 148:../lib/libDaisy/src/util/FIFO.h ****     /** Returns the number of elements in the buffer that are equal to the provided value */
 149:../lib/libDaisy/src/util/FIFO.h ****     size_t CountEqualTo(const T& element)
 150:../lib/libDaisy/src/util/FIFO.h ****     {
 151:../lib/libDaisy/src/util/FIFO.h ****         size_t result = 0;
 152:../lib/libDaisy/src/util/FIFO.h ****         size_t idx    = bufferOut_;
 153:../lib/libDaisy/src/util/FIFO.h ****         while(idx != bufferIn_)
 154:../lib/libDaisy/src/util/FIFO.h ****         {
 155:../lib/libDaisy/src/util/FIFO.h ****             if(buffer_[idx] == element)
 156:../lib/libDaisy/src/util/FIFO.h ****                 result++;
 157:../lib/libDaisy/src/util/FIFO.h ****             idx++;
 158:../lib/libDaisy/src/util/FIFO.h ****             if(idx >= bufferSize_)
 159:../lib/libDaisy/src/util/FIFO.h ****                 idx -= bufferSize_;
 160:../lib/libDaisy/src/util/FIFO.h ****         }
 161:../lib/libDaisy/src/util/FIFO.h ****         return result;
 162:../lib/libDaisy/src/util/FIFO.h ****     }
 163:../lib/libDaisy/src/util/FIFO.h **** 
 164:../lib/libDaisy/src/util/FIFO.h ****     /** returns true, if the buffer is empty */
 165:../lib/libDaisy/src/util/FIFO.h ****     bool IsEmpty() const { return bufferIn_ == bufferOut_; }
 166:../lib/libDaisy/src/util/FIFO.h **** 
 167:../lib/libDaisy/src/util/FIFO.h ****     /** returns true, if the buffer is Full */
 168:../lib/libDaisy/src/util/FIFO.h ****     bool IsFull() const { return GetNumElements() == bufferSize_ - 1; }
 169:../lib/libDaisy/src/util/FIFO.h **** 
 170:../lib/libDaisy/src/util/FIFO.h ****     /** returns the number of elements in the buffer */
 171:../lib/libDaisy/src/util/FIFO.h ****     size_t GetNumElements() const
 172:../lib/libDaisy/src/util/FIFO.h ****     {
 173:../lib/libDaisy/src/util/FIFO.h ****         int32_t numElements = bufferIn_ - bufferOut_;
 174:../lib/libDaisy/src/util/FIFO.h ****         if(numElements < 0)
 175:../lib/libDaisy/src/util/FIFO.h ****             numElements += bufferSize_;
 176:../lib/libDaisy/src/util/FIFO.h ****         return size_t(numElements);
 177:../lib/libDaisy/src/util/FIFO.h ****     }
 178:../lib/libDaisy/src/util/FIFO.h **** 
 179:../lib/libDaisy/src/util/FIFO.h ****     /** inserts an element "idx" positions behind the first element and returns true if successful 
 180:../lib/libDaisy/src/util/FIFO.h ****     bool Insert(size_t idx, const T& element)
 181:../lib/libDaisy/src/util/FIFO.h ****     {
 182:../lib/libDaisy/src/util/FIFO.h ****         if(idx > GetNumElements())
 183:../lib/libDaisy/src/util/FIFO.h ****             return false;
 184:../lib/libDaisy/src/util/FIFO.h ****         if(IsFull())
 185:../lib/libDaisy/src/util/FIFO.h ****             return false;
 186:../lib/libDaisy/src/util/FIFO.h ****         if(idx == GetNumElements())
 187:../lib/libDaisy/src/util/FIFO.h ****         {
 188:../lib/libDaisy/src/util/FIFO.h ****             PushBack(element);
 189:../lib/libDaisy/src/util/FIFO.h ****             return true;
 190:../lib/libDaisy/src/util/FIFO.h ****         }
 191:../lib/libDaisy/src/util/FIFO.h ****         // copy last element
 192:../lib/libDaisy/src/util/FIFO.h ****         PushBack(Back());
 193:../lib/libDaisy/src/util/FIFO.h ****         // move remaining elements: n => n+1
 194:../lib/libDaisy/src/util/FIFO.h ****         for(int i = GetNumElements() - 2; i > int(idx); i--)
 195:../lib/libDaisy/src/util/FIFO.h ****             (*this)[i] = (*this)[i - 1];
 196:../lib/libDaisy/src/util/FIFO.h ****         // insert element
 197:../lib/libDaisy/src/util/FIFO.h ****         (*this)[idx] = element;
 198:../lib/libDaisy/src/util/FIFO.h ****         return true;
 199:../lib/libDaisy/src/util/FIFO.h ****     }
 200:../lib/libDaisy/src/util/FIFO.h **** 
 201:../lib/libDaisy/src/util/FIFO.h ****     /** removes the element "idx" positions behind the first element 
 202:../lib/libDaisy/src/util/FIFO.h ****      *  and returns true if successful */
 203:../lib/libDaisy/src/util/FIFO.h ****     bool Remove(size_t idx)
ARM GAS  /var/folders/hp/45mn71hd0ps5f5pnytxy5bt00000gn/T//ccCIVO9k.s 			page 10


 204:../lib/libDaisy/src/util/FIFO.h ****     {
 205:../lib/libDaisy/src/util/FIFO.h ****         if(idx >= GetNumElements())
 206:../lib/libDaisy/src/util/FIFO.h ****             return false;
 207:../lib/libDaisy/src/util/FIFO.h **** 
 208:../lib/libDaisy/src/util/FIFO.h ****         size_t index = bufferOut_ + idx;
 209:../lib/libDaisy/src/util/FIFO.h ****         if(index >= bufferSize_)
 210:../lib/libDaisy/src/util/FIFO.h ****             index -= bufferSize_;
 211:../lib/libDaisy/src/util/FIFO.h ****         size_t nextIndex = index + 1;
 212:../lib/libDaisy/src/util/FIFO.h ****         if(nextIndex >= bufferSize_)
 213:../lib/libDaisy/src/util/FIFO.h ****             nextIndex -= bufferSize_;
 214:../lib/libDaisy/src/util/FIFO.h **** 
 215:../lib/libDaisy/src/util/FIFO.h ****         while(nextIndex != bufferIn_)
 216:../lib/libDaisy/src/util/FIFO.h ****         {
 217:../lib/libDaisy/src/util/FIFO.h ****             buffer_[index] = buffer_[nextIndex];
 218:../lib/libDaisy/src/util/FIFO.h ****             index++;
 219:../lib/libDaisy/src/util/FIFO.h ****             nextIndex++;
 220:../lib/libDaisy/src/util/FIFO.h ****             if(index >= bufferSize_)
 221:../lib/libDaisy/src/util/FIFO.h ****                 index -= bufferSize_;
 222:../lib/libDaisy/src/util/FIFO.h ****             if(nextIndex >= bufferSize_)
 223:../lib/libDaisy/src/util/FIFO.h ****                 nextIndex -= bufferSize_;
 224:../lib/libDaisy/src/util/FIFO.h ****         }
 225:../lib/libDaisy/src/util/FIFO.h **** 
 226:../lib/libDaisy/src/util/FIFO.h ****         int32_t nextBufferIn = int32_t(bufferIn_) - 1;
 227:../lib/libDaisy/src/util/FIFO.h ****         if(nextBufferIn < 0)
 228:../lib/libDaisy/src/util/FIFO.h ****             nextBufferIn += bufferSize_;
 229:../lib/libDaisy/src/util/FIFO.h ****         bufferIn_ = size_t(nextBufferIn);
 230:../lib/libDaisy/src/util/FIFO.h **** 
 231:../lib/libDaisy/src/util/FIFO.h ****         return true;
 232:../lib/libDaisy/src/util/FIFO.h ****     }
 233:../lib/libDaisy/src/util/FIFO.h **** 
 234:../lib/libDaisy/src/util/FIFO.h ****     /** removes all elements from the buffer for which
 235:../lib/libDaisy/src/util/FIFO.h ****         (buffer(index) == element) returns true and returns the number of
 236:../lib/libDaisy/src/util/FIFO.h ****         elements that were removed. */
 237:../lib/libDaisy/src/util/FIFO.h ****     size_t RemoveAllEqualTo(const T& element)
 238:../lib/libDaisy/src/util/FIFO.h ****     {
 239:../lib/libDaisy/src/util/FIFO.h ****         size_t numRemoved = 0;
 240:../lib/libDaisy/src/util/FIFO.h ****         int    idx        = GetNumElements() - 1;
 241:../lib/libDaisy/src/util/FIFO.h ****         while(idx >= 0)
 242:../lib/libDaisy/src/util/FIFO.h ****         {
 243:../lib/libDaisy/src/util/FIFO.h ****             if((*this)[idx] == element)
 244:../lib/libDaisy/src/util/FIFO.h ****             {
 245:../lib/libDaisy/src/util/FIFO.h ****                 numRemoved++;
 246:../lib/libDaisy/src/util/FIFO.h ****                 Remove(idx);
 247:../lib/libDaisy/src/util/FIFO.h ****                 // was that the last element?
 248:../lib/libDaisy/src/util/FIFO.h ****                 if(idx == int(GetNumElements()) - 1)
 249:../lib/libDaisy/src/util/FIFO.h ****                     idx--;
 250:../lib/libDaisy/src/util/FIFO.h ****             }
 251:../lib/libDaisy/src/util/FIFO.h ****             else
 252:../lib/libDaisy/src/util/FIFO.h ****                 idx--;
 253:../lib/libDaisy/src/util/FIFO.h ****         }
 254:../lib/libDaisy/src/util/FIFO.h ****         return numRemoved;
 255:../lib/libDaisy/src/util/FIFO.h ****     }
 256:../lib/libDaisy/src/util/FIFO.h **** 
 257:../lib/libDaisy/src/util/FIFO.h ****     /** returns the element "idx" positions behind the first element */
 258:../lib/libDaisy/src/util/FIFO.h ****     T& operator[](size_t idx)
 259:../lib/libDaisy/src/util/FIFO.h ****     {
 260:../lib/libDaisy/src/util/FIFO.h ****         if(idx >= GetNumElements())
ARM GAS  /var/folders/hp/45mn71hd0ps5f5pnytxy5bt00000gn/T//ccCIVO9k.s 			page 11


 261:../lib/libDaisy/src/util/FIFO.h ****             // invalid, but better not pass a temporary T() object as a reference...
 262:../lib/libDaisy/src/util/FIFO.h ****             return buffer_[0];
 263:../lib/libDaisy/src/util/FIFO.h **** 
 264:../lib/libDaisy/src/util/FIFO.h ****         size_t index = bufferOut_ + idx;
 265:../lib/libDaisy/src/util/FIFO.h ****         if(index >= bufferSize_)
 266:../lib/libDaisy/src/util/FIFO.h ****             index -= bufferSize_;
 267:../lib/libDaisy/src/util/FIFO.h ****         return buffer_[index];
 268:../lib/libDaisy/src/util/FIFO.h ****     }
 269:../lib/libDaisy/src/util/FIFO.h **** 
 270:../lib/libDaisy/src/util/FIFO.h ****     /** returns the element "idx" positions behind the first element */
 271:../lib/libDaisy/src/util/FIFO.h ****     const T& operator[](size_t idx) const
 272:../lib/libDaisy/src/util/FIFO.h ****     {
 273:../lib/libDaisy/src/util/FIFO.h ****         if(idx >= GetNumElements())
 274:../lib/libDaisy/src/util/FIFO.h ****             // invalid, but better not pass a temporary T() object as a reference...
 275:../lib/libDaisy/src/util/FIFO.h ****             return buffer_[0];
 276:../lib/libDaisy/src/util/FIFO.h **** 
 277:../lib/libDaisy/src/util/FIFO.h ****         size_t index = bufferOut_ + idx;
 278:../lib/libDaisy/src/util/FIFO.h ****         if(index >= bufferSize_)
 279:../lib/libDaisy/src/util/FIFO.h ****             index -= bufferSize_;
 280:../lib/libDaisy/src/util/FIFO.h ****         return buffer_[index];
 281:../lib/libDaisy/src/util/FIFO.h ****     }
 282:../lib/libDaisy/src/util/FIFO.h **** 
 283:../lib/libDaisy/src/util/FIFO.h ****     /** returns the total capacity */
 284:../lib/libDaisy/src/util/FIFO.h ****     size_t GetCapacity() const { return bufferSize_ - 1; }
 285:../lib/libDaisy/src/util/FIFO.h **** 
 286:../lib/libDaisy/src/util/FIFO.h ****   private:
 287:../lib/libDaisy/src/util/FIFO.h ****     FIFOBase(const FIFOBase<T>&) {} // non copyable
 288:../lib/libDaisy/src/util/FIFO.h **** 
 289:../lib/libDaisy/src/util/FIFO.h ****   private:
 290:../lib/libDaisy/src/util/FIFO.h ****     T*           buffer_;
 291:../lib/libDaisy/src/util/FIFO.h ****     const size_t bufferSize_;
 292:../lib/libDaisy/src/util/FIFO.h ****     size_t       bufferIn_;
 293:../lib/libDaisy/src/util/FIFO.h ****     size_t       bufferOut_;
 294:../lib/libDaisy/src/util/FIFO.h **** };
 295:../lib/libDaisy/src/util/FIFO.h **** 
 296:../lib/libDaisy/src/util/FIFO.h **** /** A simple FIFO ring buffer with a fixed size. */
 297:../lib/libDaisy/src/util/FIFO.h **** template <typename T, size_t capacity>
 298:../lib/libDaisy/src/util/FIFO.h **** class FIFO : public FIFOBase<T>
  72              		.loc 5 298 7 view .LVU6
  73              	.LBB919:
  74              	.LBI919:
  42:../lib/libDaisy/src/util/FIFO.h **** 
  75              		.loc 5 42 5 view .LVU7
  42:../lib/libDaisy/src/util/FIFO.h **** 
  76              		.loc 5 42 5 is_stmt 0 view .LVU8
  77              	.LBE919:
  78              	.LBE918:
  79              	.LBB920:
  80              	.LBI920:
  81              		.file 6 "../lib/libDaisy/src/hid/midi_parser.h"
   1:../lib/libDaisy/src/hid/midi_parser.h **** #pragma once
   2:../lib/libDaisy/src/hid/midi_parser.h **** #ifndef DSY_MIDI_PARSER_H
   3:../lib/libDaisy/src/hid/midi_parser.h **** #define DSY_MIDI_PARSER_H
   4:../lib/libDaisy/src/hid/midi_parser.h **** 
   5:../lib/libDaisy/src/hid/midi_parser.h **** #include <stdint.h>
   6:../lib/libDaisy/src/hid/midi_parser.h **** #include <stdlib.h>
   7:../lib/libDaisy/src/hid/midi_parser.h **** #include "hid/MidiEvent.h"
ARM GAS  /var/folders/hp/45mn71hd0ps5f5pnytxy5bt00000gn/T//ccCIVO9k.s 			page 12


   8:../lib/libDaisy/src/hid/midi_parser.h **** 
   9:../lib/libDaisy/src/hid/midi_parser.h **** namespace daisy
  10:../lib/libDaisy/src/hid/midi_parser.h **** {
  11:../lib/libDaisy/src/hid/midi_parser.h **** /** @brief   Utility class for parsing raw byte streams into MIDI messages
  12:../lib/libDaisy/src/hid/midi_parser.h ****  *  @details Implemented as a state machine designed to parse one byte at a time
  13:../lib/libDaisy/src/hid/midi_parser.h ****  *  @ingroup midi
  14:../lib/libDaisy/src/hid/midi_parser.h ****  */
  15:../lib/libDaisy/src/hid/midi_parser.h **** class MidiParser
  16:../lib/libDaisy/src/hid/midi_parser.h **** {
  17:../lib/libDaisy/src/hid/midi_parser.h ****   public:
  18:../lib/libDaisy/src/hid/midi_parser.h ****     MidiParser(){};
  19:../lib/libDaisy/src/hid/midi_parser.h ****     ~MidiParser() {}
  82              		.loc 6 19 5 is_stmt 1 view .LVU9
  83              		.loc 6 19 5 is_stmt 0 view .LVU10
  84              	.LBE920:
  85              	.LBB921:
  86              	.LBI921:
  32:../lib/libDaisy/src/hid/midi.h **** 
  87              		.loc 4 32 5 is_stmt 1 view .LVU11
  32:../lib/libDaisy/src/hid/midi.h **** 
  88              		.loc 4 32 5 is_stmt 0 view .LVU12
  89              	.LBE921:
  90              	.LBE917:
  91              	.LBB922:
  92              	.LBI922:
  93              		.file 7 "../lib/libDaisy/src/hid/rgb_led.h"
   1:../lib/libDaisy/src/hid/rgb_led.h **** #pragma once
   2:../lib/libDaisy/src/hid/rgb_led.h **** #ifndef DSY_RGB_LED_H
   3:../lib/libDaisy/src/hid/rgb_led.h **** #define DSY_RGB_LED_H
   4:../lib/libDaisy/src/hid/rgb_led.h **** #include "hid/led.h"
   5:../lib/libDaisy/src/hid/rgb_led.h **** #include "util/color.h"
   6:../lib/libDaisy/src/hid/rgb_led.h **** 
   7:../lib/libDaisy/src/hid/rgb_led.h **** namespace daisy
   8:../lib/libDaisy/src/hid/rgb_led.h **** {
   9:../lib/libDaisy/src/hid/rgb_led.h **** /** @addtogroup feedback
  10:../lib/libDaisy/src/hid/rgb_led.h ****     @{
  11:../lib/libDaisy/src/hid/rgb_led.h **** */
  12:../lib/libDaisy/src/hid/rgb_led.h **** 
  13:../lib/libDaisy/src/hid/rgb_led.h **** /** 3x LEDs configured as an RGB for ease of use. */
  14:../lib/libDaisy/src/hid/rgb_led.h **** class RgbLed
  15:../lib/libDaisy/src/hid/rgb_led.h **** {
  16:../lib/libDaisy/src/hid/rgb_led.h ****   public:
  17:../lib/libDaisy/src/hid/rgb_led.h ****     RgbLed() {}
  18:../lib/libDaisy/src/hid/rgb_led.h ****     ~RgbLed() {}
  94              		.loc 7 18 5 is_stmt 1 view .LVU13
  95              	.LBB923:
  96              	.LBI923:
  97              		.file 8 "../lib/libDaisy/src/hid/led.h"
   1:../lib/libDaisy/src/hid/led.h **** 
   2:../lib/libDaisy/src/hid/led.h **** #pragma once
   3:../lib/libDaisy/src/hid/led.h **** #ifndef DSY_LED_H
   4:../lib/libDaisy/src/hid/led.h **** #define DSY_LED_H
   5:../lib/libDaisy/src/hid/led.h **** #include "daisy_core.h"
   6:../lib/libDaisy/src/hid/led.h **** #include "per/gpio.h"
   7:../lib/libDaisy/src/hid/led.h **** 
   8:../lib/libDaisy/src/hid/led.h **** /* TODO - Get this set up to work with the dev_leddriver stuff as well
   9:../lib/libDaisy/src/hid/led.h **** - Setup Hardware PWM for pins that have it
ARM GAS  /var/folders/hp/45mn71hd0ps5f5pnytxy5bt00000gn/T//ccCIVO9k.s 			page 13


  10:../lib/libDaisy/src/hid/led.h **** */
  11:../lib/libDaisy/src/hid/led.h **** 
  12:../lib/libDaisy/src/hid/led.h **** namespace daisy
  13:../lib/libDaisy/src/hid/led.h **** {
  14:../lib/libDaisy/src/hid/led.h **** /**
  15:../lib/libDaisy/src/hid/led.h ****     @brief LED Class providing simple Software PWM ability, etc \n 
  16:../lib/libDaisy/src/hid/led.h ****     Eventually this will work with hardware PWM, and external LED Driver devices as well.
  17:../lib/libDaisy/src/hid/led.h ****     @author shensley
  18:../lib/libDaisy/src/hid/led.h ****     @date March 2020
  19:../lib/libDaisy/src/hid/led.h ****     @ingroup feedback
  20:../lib/libDaisy/src/hid/led.h **** */
  21:../lib/libDaisy/src/hid/led.h **** class Led
  22:../lib/libDaisy/src/hid/led.h **** {
  23:../lib/libDaisy/src/hid/led.h ****   public:
  24:../lib/libDaisy/src/hid/led.h ****     Led() {}
  25:../lib/libDaisy/src/hid/led.h ****     ~Led() {}
  98              		.loc 8 25 5 view .LVU14
  99              		.loc 8 25 5 is_stmt 0 view .LVU15
 100              	.LBE923:
 101              	.LBB924:
 102              	.LBI924:
 103              		.loc 8 25 5 is_stmt 1 view .LVU16
 104              		.loc 8 25 5 is_stmt 0 view .LVU17
 105              	.LBE924:
 106              	.LBB925:
 107              	.LBI925:
 108              		.loc 8 25 5 is_stmt 1 view .LVU18
 109              		.loc 8 25 5 is_stmt 0 view .LVU19
 110              	.LBE925:
 111              	.LBE922:
 112              	.LBB926:
 113              	.LBI926:
 114              		.loc 7 18 5 is_stmt 1 view .LVU20
 115              	.LBB927:
 116              	.LBI927:
 117              		.loc 8 25 5 view .LVU21
 118              		.loc 8 25 5 is_stmt 0 view .LVU22
 119              	.LBE927:
 120              	.LBB928:
 121              	.LBI928:
 122              		.loc 8 25 5 is_stmt 1 view .LVU23
 123              		.loc 8 25 5 is_stmt 0 view .LVU24
 124              	.LBE928:
 125              	.LBB929:
 126              	.LBI929:
 127              		.loc 8 25 5 is_stmt 1 view .LVU25
 128              		.loc 8 25 5 is_stmt 0 view .LVU26
 129              	.LBE929:
 130              	.LBE926:
 131              	.LBB930:
 132              	.LBI930:
 133              		.file 9 "../lib/libDaisy/src/hid/switch.h"
   1:../lib/libDaisy/src/hid/switch.h **** #pragma once
   2:../lib/libDaisy/src/hid/switch.h **** #ifndef DSY_SWITCH_H
   3:../lib/libDaisy/src/hid/switch.h **** #define DSY_SWITCH_H
   4:../lib/libDaisy/src/hid/switch.h **** #include "daisy_core.h"
   5:../lib/libDaisy/src/hid/switch.h **** #include "per/gpio.h"
ARM GAS  /var/folders/hp/45mn71hd0ps5f5pnytxy5bt00000gn/T//ccCIVO9k.s 			page 14


   6:../lib/libDaisy/src/hid/switch.h **** #include "sys/system.h"
   7:../lib/libDaisy/src/hid/switch.h **** 
   8:../lib/libDaisy/src/hid/switch.h **** namespace daisy
   9:../lib/libDaisy/src/hid/switch.h **** {
  10:../lib/libDaisy/src/hid/switch.h **** /** 
  11:../lib/libDaisy/src/hid/switch.h ****     Generic Class for handling momentary/latching switches \n 
  12:../lib/libDaisy/src/hid/switch.h ****     Inspired/influenced by Mutable Instruments (pichenettes) Switch classes
  13:../lib/libDaisy/src/hid/switch.h ****     @author Stephen Hensley
  14:../lib/libDaisy/src/hid/switch.h ****     @date December 2019
  15:../lib/libDaisy/src/hid/switch.h ****     @ingroup controls
  16:../lib/libDaisy/src/hid/switch.h **** */
  17:../lib/libDaisy/src/hid/switch.h **** class Switch
  18:../lib/libDaisy/src/hid/switch.h **** {
  19:../lib/libDaisy/src/hid/switch.h ****   public:
  20:../lib/libDaisy/src/hid/switch.h ****     /** Specifies the expected behavior of the switch */
  21:../lib/libDaisy/src/hid/switch.h ****     enum Type
  22:../lib/libDaisy/src/hid/switch.h ****     {
  23:../lib/libDaisy/src/hid/switch.h ****         TYPE_TOGGLE,    /**< & */
  24:../lib/libDaisy/src/hid/switch.h ****         TYPE_MOMENTARY, /**< & */
  25:../lib/libDaisy/src/hid/switch.h ****     };
  26:../lib/libDaisy/src/hid/switch.h ****     /** Specifies whether the pressed is HIGH or LOW. */
  27:../lib/libDaisy/src/hid/switch.h ****     enum Polarity
  28:../lib/libDaisy/src/hid/switch.h ****     {
  29:../lib/libDaisy/src/hid/switch.h ****         POLARITY_NORMAL,   /**< & */
  30:../lib/libDaisy/src/hid/switch.h ****         POLARITY_INVERTED, /**< & */
  31:../lib/libDaisy/src/hid/switch.h ****     };
  32:../lib/libDaisy/src/hid/switch.h **** 
  33:../lib/libDaisy/src/hid/switch.h ****     Switch() {}
  34:../lib/libDaisy/src/hid/switch.h ****     ~Switch() {}
 134              		.loc 9 34 5 is_stmt 1 view .LVU27
 135              		.loc 9 34 5 is_stmt 0 view .LVU28
 136              	.LBE930:
 137              	.LBB931:
 138              	.LBI931:
 139              		.loc 9 34 5 is_stmt 1 view .LVU29
 140              		.loc 9 34 5 is_stmt 0 view .LVU30
 141              	.LBE931:
 142              	.LBB932:
 143              	.LBI932:
 144              		.loc 2 23 5 is_stmt 1 view .LVU31
 145              		.loc 2 23 5 is_stmt 0 view .LVU32
 146              	.LBE932:
 147              	.LBB933:
 148              	.LBI933:
 149              		.loc 2 23 5 is_stmt 1 view .LVU33
 150              		.loc 2 23 5 is_stmt 0 view .LVU34
 151              	.LBE933:
 152              	.LBB934:
 153              	.LBI934:
 154              		.file 10 "../lib/libDaisy/src/hid/encoder.h"
   1:../lib/libDaisy/src/hid/encoder.h **** #pragma once
   2:../lib/libDaisy/src/hid/encoder.h **** #ifndef DSY_ENCODER_H
   3:../lib/libDaisy/src/hid/encoder.h **** #define DSY_ENCODER_H
   4:../lib/libDaisy/src/hid/encoder.h **** #include "daisy_core.h"
   5:../lib/libDaisy/src/hid/encoder.h **** #include "per/gpio.h"
   6:../lib/libDaisy/src/hid/encoder.h **** #include "hid/switch.h"
   7:../lib/libDaisy/src/hid/encoder.h **** 
ARM GAS  /var/folders/hp/45mn71hd0ps5f5pnytxy5bt00000gn/T//ccCIVO9k.s 			page 15


   8:../lib/libDaisy/src/hid/encoder.h **** namespace daisy
   9:../lib/libDaisy/src/hid/encoder.h **** {
  10:../lib/libDaisy/src/hid/encoder.h **** /** 
  11:../lib/libDaisy/src/hid/encoder.h ****     @brief Generic Class for handling Quadrature Encoders \n 
  12:../lib/libDaisy/src/hid/encoder.h ****     Inspired/influenced by Mutable Instruments (pichenettes) Encoder classes
  13:../lib/libDaisy/src/hid/encoder.h ****     @author Stephen Hensley
  14:../lib/libDaisy/src/hid/encoder.h ****     @date December 2019
  15:../lib/libDaisy/src/hid/encoder.h ****     @ingroup controls
  16:../lib/libDaisy/src/hid/encoder.h **** */
  17:../lib/libDaisy/src/hid/encoder.h **** class Encoder
  18:../lib/libDaisy/src/hid/encoder.h **** {
  19:../lib/libDaisy/src/hid/encoder.h ****   public:
  20:../lib/libDaisy/src/hid/encoder.h ****     Encoder() {}
  21:../lib/libDaisy/src/hid/encoder.h ****     ~Encoder() {}
 155              		.loc 10 21 5 is_stmt 1 view .LVU35
 156              	.LBB935:
 157              	.LBI935:
 158              		.loc 9 34 5 view .LVU36
 159              		.loc 9 34 5 is_stmt 0 view .LVU37
 160              	.LBE935:
 161              	.LBE934:
 162              	.LBB936:
 163              	.LBI936:
 164              		.file 11 "../lib/libDaisy/src/daisy_seed.h"
   1:../lib/libDaisy/src/daisy_seed.h **** #pragma once
   2:../lib/libDaisy/src/daisy_seed.h **** #ifndef DSY_SEED_H
   3:../lib/libDaisy/src/daisy_seed.h **** #define DSY_SEED_H
   4:../lib/libDaisy/src/daisy_seed.h **** 
   5:../lib/libDaisy/src/daisy_seed.h **** #include "daisy.h"
   6:../lib/libDaisy/src/daisy_seed.h **** 
   7:../lib/libDaisy/src/daisy_seed.h **** //Uncomment this out if you're still using the rev2 hardware
   8:../lib/libDaisy/src/daisy_seed.h **** //#define SEED_REV2
   9:../lib/libDaisy/src/daisy_seed.h **** 
  10:../lib/libDaisy/src/daisy_seed.h **** namespace daisy
  11:../lib/libDaisy/src/daisy_seed.h **** {
  12:../lib/libDaisy/src/daisy_seed.h **** /**
  13:../lib/libDaisy/src/daisy_seed.h ****    @brief This is the higher-level interface for the Daisy board. \n 
  14:../lib/libDaisy/src/daisy_seed.h ****     All basic peripheral configuration/initialization is setup here. \n
  15:../lib/libDaisy/src/daisy_seed.h **** 
  16:../lib/libDaisy/src/daisy_seed.h ****    @ingroup boards
  17:../lib/libDaisy/src/daisy_seed.h **** */
  18:../lib/libDaisy/src/daisy_seed.h **** class DaisySeed
  19:../lib/libDaisy/src/daisy_seed.h **** {
  20:../lib/libDaisy/src/daisy_seed.h ****   public:
  21:../lib/libDaisy/src/daisy_seed.h ****     DaisySeed() {}
  22:../lib/libDaisy/src/daisy_seed.h ****     ~DaisySeed() {}
 165              		.loc 11 22 5 is_stmt 1 view .LVU38
 166              	.LBB937:
 167              	.LBI937:
 168              		.file 12 "../lib/libDaisy/src/dev/codec_ak4556.h"
   1:../lib/libDaisy/src/dev/codec_ak4556.h **** #pragma once
   2:../lib/libDaisy/src/dev/codec_ak4556.h **** #ifndef DSY_CODEC_AK4556_H
   3:../lib/libDaisy/src/dev/codec_ak4556.h **** #define DSY_CODEC_AK4556_H
   4:../lib/libDaisy/src/dev/codec_ak4556.h **** 
   5:../lib/libDaisy/src/dev/codec_ak4556.h **** #include "daisy_core.h"
   6:../lib/libDaisy/src/dev/codec_ak4556.h **** #include "per/gpio.h"
   7:../lib/libDaisy/src/dev/codec_ak4556.h **** 
ARM GAS  /var/folders/hp/45mn71hd0ps5f5pnytxy5bt00000gn/T//ccCIVO9k.s 			page 16


   8:../lib/libDaisy/src/dev/codec_ak4556.h **** namespace daisy
   9:../lib/libDaisy/src/dev/codec_ak4556.h **** {
  10:../lib/libDaisy/src/dev/codec_ak4556.h **** /** @brief Ak4556 Codec support 
  11:../lib/libDaisy/src/dev/codec_ak4556.h ****  ** @author shensley
  12:../lib/libDaisy/src/dev/codec_ak4556.h ****  ** @addtogroup codec
  13:../lib/libDaisy/src/dev/codec_ak4556.h ****  ** 
  14:../lib/libDaisy/src/dev/codec_ak4556.h ****  ** I don't see any real reason to have this be more than a function, but in case we want
  15:../lib/libDaisy/src/dev/codec_ak4556.h ****  ** to add other functions down the road I wrapped the function in a class.
  16:../lib/libDaisy/src/dev/codec_ak4556.h ****  ***/
  17:../lib/libDaisy/src/dev/codec_ak4556.h **** class Ak4556
  18:../lib/libDaisy/src/dev/codec_ak4556.h **** {
  19:../lib/libDaisy/src/dev/codec_ak4556.h ****   public:
  20:../lib/libDaisy/src/dev/codec_ak4556.h ****     Ak4556() {}
  21:../lib/libDaisy/src/dev/codec_ak4556.h ****     ~Ak4556() {}
 169              		.loc 12 21 5 view .LVU39
 170              		.loc 12 21 5 is_stmt 0 view .LVU40
 171              	.LBE937:
 172              	.LBB938:
 173              	.LBI938:
 174              		.file 13 "../lib/libDaisy/src/sys/system.h"
   1:../lib/libDaisy/src/sys/system.h **** #ifndef DSY_SYSTEM_H
   2:../lib/libDaisy/src/sys/system.h **** #define DSY_SYSTEM_H
   3:../lib/libDaisy/src/sys/system.h **** 
   4:../lib/libDaisy/src/sys/system.h **** #ifndef UNIT_TEST // for unit tests, a dummy implementation is provided below
   5:../lib/libDaisy/src/sys/system.h **** 
   6:../lib/libDaisy/src/sys/system.h **** #include <cstdint>
   7:../lib/libDaisy/src/sys/system.h **** #include "per/tim.h"
   8:../lib/libDaisy/src/sys/system.h **** 
   9:../lib/libDaisy/src/sys/system.h **** namespace daisy
  10:../lib/libDaisy/src/sys/system.h **** {
  11:../lib/libDaisy/src/sys/system.h **** /** A handle for interacting with the Core System.
  12:../lib/libDaisy/src/sys/system.h ****  ** This includes the Clock tree, MPU, global DMA initialization,
  13:../lib/libDaisy/src/sys/system.h ****  ** cache handling, and any other necessary global initiailzation
  14:../lib/libDaisy/src/sys/system.h ****  **
  15:../lib/libDaisy/src/sys/system.h ****  ** @author shensley
  16:../lib/libDaisy/src/sys/system.h ****  ** @ingroup system
  17:../lib/libDaisy/src/sys/system.h ****  */
  18:../lib/libDaisy/src/sys/system.h **** class System
  19:../lib/libDaisy/src/sys/system.h **** {
  20:../lib/libDaisy/src/sys/system.h ****   public:
  21:../lib/libDaisy/src/sys/system.h ****     /** Contains settings for initializing the System */
  22:../lib/libDaisy/src/sys/system.h ****     struct Config
  23:../lib/libDaisy/src/sys/system.h ****     {
  24:../lib/libDaisy/src/sys/system.h ****         /** Specifies the system clock frequency that feeds APB/AHB clocks, etc. */
  25:../lib/libDaisy/src/sys/system.h ****         enum class SysClkFreq
  26:../lib/libDaisy/src/sys/system.h ****         {
  27:../lib/libDaisy/src/sys/system.h ****             FREQ_400MHZ,
  28:../lib/libDaisy/src/sys/system.h ****             FREQ_480MHZ,
  29:../lib/libDaisy/src/sys/system.h ****         };
  30:../lib/libDaisy/src/sys/system.h **** 
  31:../lib/libDaisy/src/sys/system.h ****         /** Method to call on the struct to set to defaults
  32:../lib/libDaisy/src/sys/system.h ****          ** CPU Freq set to 400MHz
  33:../lib/libDaisy/src/sys/system.h ****          ** Cache Enabled
  34:../lib/libDaisy/src/sys/system.h ****          ** */
  35:../lib/libDaisy/src/sys/system.h ****         void Defaults()
  36:../lib/libDaisy/src/sys/system.h ****         {
  37:../lib/libDaisy/src/sys/system.h ****             cpu_freq    = SysClkFreq::FREQ_400MHZ;
ARM GAS  /var/folders/hp/45mn71hd0ps5f5pnytxy5bt00000gn/T//ccCIVO9k.s 			page 17


  38:../lib/libDaisy/src/sys/system.h ****             use_dcache  = true;
  39:../lib/libDaisy/src/sys/system.h ****             use_icache  = true;
  40:../lib/libDaisy/src/sys/system.h ****             skip_clocks = false;
  41:../lib/libDaisy/src/sys/system.h ****         }
  42:../lib/libDaisy/src/sys/system.h **** 
  43:../lib/libDaisy/src/sys/system.h ****         /** Method to call on the struct to set to boost mode:
  44:../lib/libDaisy/src/sys/system.h ****          ** CPU Freq set to 480MHz
  45:../lib/libDaisy/src/sys/system.h ****          ** Cache Enabled
  46:../lib/libDaisy/src/sys/system.h ****          ** */
  47:../lib/libDaisy/src/sys/system.h ****         void Boost()
  48:../lib/libDaisy/src/sys/system.h ****         {
  49:../lib/libDaisy/src/sys/system.h ****             cpu_freq    = SysClkFreq::FREQ_480MHZ;
  50:../lib/libDaisy/src/sys/system.h ****             use_dcache  = true;
  51:../lib/libDaisy/src/sys/system.h ****             use_icache  = true;
  52:../lib/libDaisy/src/sys/system.h ****             skip_clocks = false;
  53:../lib/libDaisy/src/sys/system.h ****         }
  54:../lib/libDaisy/src/sys/system.h **** 
  55:../lib/libDaisy/src/sys/system.h ****         SysClkFreq cpu_freq;
  56:../lib/libDaisy/src/sys/system.h ****         bool       use_dcache;
  57:../lib/libDaisy/src/sys/system.h ****         bool       use_icache;
  58:../lib/libDaisy/src/sys/system.h ****         bool       skip_clocks;
  59:../lib/libDaisy/src/sys/system.h ****     };
  60:../lib/libDaisy/src/sys/system.h **** 
  61:../lib/libDaisy/src/sys/system.h ****     /** Describes the different regions of memory available to the Daisy */
  62:../lib/libDaisy/src/sys/system.h ****     enum MemoryRegion
  63:../lib/libDaisy/src/sys/system.h ****     {
  64:../lib/libDaisy/src/sys/system.h ****         INTERNAL_FLASH = 0,
  65:../lib/libDaisy/src/sys/system.h ****         ITCMRAM,
  66:../lib/libDaisy/src/sys/system.h ****         DTCMRAM,
  67:../lib/libDaisy/src/sys/system.h ****         SRAM_D1,
  68:../lib/libDaisy/src/sys/system.h ****         SRAM_D2,
  69:../lib/libDaisy/src/sys/system.h ****         SRAM_D3,
  70:../lib/libDaisy/src/sys/system.h ****         SDRAM,
  71:../lib/libDaisy/src/sys/system.h ****         QSPI,
  72:../lib/libDaisy/src/sys/system.h ****         INVALID_ADDRESS,
  73:../lib/libDaisy/src/sys/system.h ****     };
  74:../lib/libDaisy/src/sys/system.h **** 
  75:../lib/libDaisy/src/sys/system.h ****     /** Bootloader struct for controlling bootloading parameters */
  76:../lib/libDaisy/src/sys/system.h ****     struct BootInfo
  77:../lib/libDaisy/src/sys/system.h ****     {
  78:../lib/libDaisy/src/sys/system.h ****         enum class Type : uint32_t
  79:../lib/libDaisy/src/sys/system.h ****         {
  80:../lib/libDaisy/src/sys/system.h ****             INVALID      = 0x00000000,
  81:../lib/libDaisy/src/sys/system.h ****             JUMP         = 0xDEADBEEF,
  82:../lib/libDaisy/src/sys/system.h ****             SKIP_TIMEOUT = 0x5AFEB007,
  83:../lib/libDaisy/src/sys/system.h ****             INF_TIMEOUT  = 0xB0074EFA,
  84:../lib/libDaisy/src/sys/system.h ****         } status;
  85:../lib/libDaisy/src/sys/system.h ****         uint32_t data;
  86:../lib/libDaisy/src/sys/system.h ****         enum class Version : uint32_t
  87:../lib/libDaisy/src/sys/system.h ****         {
  88:../lib/libDaisy/src/sys/system.h ****             LT_v6_0 = 0, // Less than v6.0
  89:../lib/libDaisy/src/sys/system.h ****             NONE,        // No bootloader present
  90:../lib/libDaisy/src/sys/system.h ****             v6_0,        // v6.0
  91:../lib/libDaisy/src/sys/system.h ****             v6_1,        // v6.1 or greater
  92:../lib/libDaisy/src/sys/system.h ****             LAST
  93:../lib/libDaisy/src/sys/system.h ****         } version;
  94:../lib/libDaisy/src/sys/system.h ****     };
ARM GAS  /var/folders/hp/45mn71hd0ps5f5pnytxy5bt00000gn/T//ccCIVO9k.s 			page 18


  95:../lib/libDaisy/src/sys/system.h **** 
  96:../lib/libDaisy/src/sys/system.h ****     System() {}
  97:../lib/libDaisy/src/sys/system.h ****     ~System() {}
 175              		.loc 13 97 5 is_stmt 1 view .LVU41
 176              		.loc 13 97 5 is_stmt 0 view .LVU42
 177              	.LBE938:
 178              	.LBB939:
 179              	.LBI939:
 180              		.file 14 "../lib/libDaisy/src/hid/usb.h"
   1:../lib/libDaisy/src/hid/usb.h **** #pragma once
   2:../lib/libDaisy/src/hid/usb.h **** #ifndef DSY_HID_USB_H
   3:../lib/libDaisy/src/hid/usb.h **** #define DSY_HID_USB_H
   4:../lib/libDaisy/src/hid/usb.h **** #include <stdint.h>
   5:../lib/libDaisy/src/hid/usb.h **** #include <stdlib.h>
   6:../lib/libDaisy/src/hid/usb.h **** 
   7:../lib/libDaisy/src/hid/usb.h **** namespace daisy
   8:../lib/libDaisy/src/hid/usb.h **** /** @addtogroup human_interface
   9:../lib/libDaisy/src/hid/usb.h ****     @{
  10:../lib/libDaisy/src/hid/usb.h **** */
  11:../lib/libDaisy/src/hid/usb.h **** 
  12:../lib/libDaisy/src/hid/usb.h **** {
  13:../lib/libDaisy/src/hid/usb.h **** /** 
  14:../lib/libDaisy/src/hid/usb.h ****     @brief Interface for initializing and using the USB Peripherals on the daisy
  15:../lib/libDaisy/src/hid/usb.h ****     @author Stephen Hensley
  16:../lib/libDaisy/src/hid/usb.h ****     @date December 2019
  17:../lib/libDaisy/src/hid/usb.h **** */
  18:../lib/libDaisy/src/hid/usb.h **** class UsbHandle
  19:../lib/libDaisy/src/hid/usb.h **** {
  20:../lib/libDaisy/src/hid/usb.h ****   public:
  21:../lib/libDaisy/src/hid/usb.h ****     /** Return values for USBHandle Functions */
  22:../lib/libDaisy/src/hid/usb.h ****     enum class Result
  23:../lib/libDaisy/src/hid/usb.h ****     {
  24:../lib/libDaisy/src/hid/usb.h ****         OK,
  25:../lib/libDaisy/src/hid/usb.h ****         ERR,
  26:../lib/libDaisy/src/hid/usb.h ****     };
  27:../lib/libDaisy/src/hid/usb.h **** 
  28:../lib/libDaisy/src/hid/usb.h ****     /** Specified which of the two USB Peripherals to initialize. */
  29:../lib/libDaisy/src/hid/usb.h ****     enum UsbPeriph
  30:../lib/libDaisy/src/hid/usb.h ****     {
  31:../lib/libDaisy/src/hid/usb.h ****         FS_INTERNAL, /**< Internal pin */
  32:../lib/libDaisy/src/hid/usb.h ****         FS_EXTERNAL, /**< FS External D+ pin is Pin 38 (GPIO32). FS External D- pin is Pin 37 (GPIO
  33:../lib/libDaisy/src/hid/usb.h ****         FS_BOTH,     /**< Both */
  34:../lib/libDaisy/src/hid/usb.h ****     };
  35:../lib/libDaisy/src/hid/usb.h **** 
  36:../lib/libDaisy/src/hid/usb.h **** 
  37:../lib/libDaisy/src/hid/usb.h ****     /** Function called upon reception of a buffer */
  38:../lib/libDaisy/src/hid/usb.h ****     typedef void (*ReceiveCallback)(uint8_t* buff, uint32_t* len);
  39:../lib/libDaisy/src/hid/usb.h **** 
  40:../lib/libDaisy/src/hid/usb.h ****     UsbHandle() {}
  41:../lib/libDaisy/src/hid/usb.h **** 
  42:../lib/libDaisy/src/hid/usb.h ****     ~UsbHandle() {}
 181              		.loc 14 42 5 is_stmt 1 view .LVU43
 182              		.loc 14 42 5 is_stmt 0 view .LVU44
 183              	.LBE939:
 184              	.LBB940:
 185              	.LBI940:
 186              		.file 15 "../lib/libDaisy/src/per/adc.h"
ARM GAS  /var/folders/hp/45mn71hd0ps5f5pnytxy5bt00000gn/T//ccCIVO9k.s 			page 19


   1:../lib/libDaisy/src/per/adc.h **** #pragma once
   2:../lib/libDaisy/src/per/adc.h **** #ifndef DSY_ADC_H
   3:../lib/libDaisy/src/per/adc.h **** #define DSY_ADC_H /**< Macro */
   4:../lib/libDaisy/src/per/adc.h **** #include <stdint.h>
   5:../lib/libDaisy/src/per/adc.h **** #include <stdlib.h>
   6:../lib/libDaisy/src/per/adc.h **** #include "daisy_core.h"
   7:../lib/libDaisy/src/per/adc.h **** #include "per/gpio.h"
   8:../lib/libDaisy/src/per/adc.h **** 
   9:../lib/libDaisy/src/per/adc.h **** #define DSY_ADC_MAX_CHANNELS 16 /**< Maximum number of ADC channels */
  10:../lib/libDaisy/src/per/adc.h **** 
  11:../lib/libDaisy/src/per/adc.h **** namespace daisy
  12:../lib/libDaisy/src/per/adc.h **** {
  13:../lib/libDaisy/src/per/adc.h **** /** @addtogroup per_analog
  14:../lib/libDaisy/src/per/adc.h ****     @{
  15:../lib/libDaisy/src/per/adc.h **** */
  16:../lib/libDaisy/src/per/adc.h **** 
  17:../lib/libDaisy/src/per/adc.h **** /* While there may not be many configuration options here,
  18:../lib/libDaisy/src/per/adc.h **** using a struct like this allows us to add more configuration
  19:../lib/libDaisy/src/per/adc.h **** later without breaking existing functionality.
  20:../lib/libDaisy/src/per/adc.h **** */
  21:../lib/libDaisy/src/per/adc.h **** 
  22:../lib/libDaisy/src/per/adc.h **** /** @brief   Configuration Structure for an ADC Channel 
  23:../lib/libDaisy/src/per/adc.h ****  *  @details This can be used to configure a a single input, 
  24:../lib/libDaisy/src/per/adc.h ****  *           or a multiplexed input, allowing up to 8 inputs on 
  25:../lib/libDaisy/src/per/adc.h ****  *           one channel.
  26:../lib/libDaisy/src/per/adc.h ****  *  @note    Sharing data lines to multiple muxes _is_ possible, but
  27:../lib/libDaisy/src/per/adc.h ****  *           each channel sharing data lines must be set to the maximum
  28:../lib/libDaisy/src/per/adc.h ****  *           number of channels, even if some multiplexers have fewer
  29:../lib/libDaisy/src/per/adc.h ****  *           inputs connected.
  30:../lib/libDaisy/src/per/adc.h **** */
  31:../lib/libDaisy/src/per/adc.h **** struct AdcChannelConfig
  32:../lib/libDaisy/src/per/adc.h **** {
  33:../lib/libDaisy/src/per/adc.h ****     /** Which pin to use for multiplexing */
  34:../lib/libDaisy/src/per/adc.h ****     enum MuxPin
  35:../lib/libDaisy/src/per/adc.h ****     {
  36:../lib/libDaisy/src/per/adc.h ****         MUX_SEL_0,    /**< & */
  37:../lib/libDaisy/src/per/adc.h ****         MUX_SEL_1,    /**< & */
  38:../lib/libDaisy/src/per/adc.h ****         MUX_SEL_2,    /**< & */
  39:../lib/libDaisy/src/per/adc.h ****         MUX_SEL_LAST, /**< & */
  40:../lib/libDaisy/src/per/adc.h ****     };
  41:../lib/libDaisy/src/per/adc.h **** 
  42:../lib/libDaisy/src/per/adc.h ****     /** \brief per channel conversion speed added to fixed time based on bitdepth, etc. */
  43:../lib/libDaisy/src/per/adc.h ****     enum ConversionSpeed
  44:../lib/libDaisy/src/per/adc.h ****     {
  45:../lib/libDaisy/src/per/adc.h ****         SPEED_1CYCLES_5,
  46:../lib/libDaisy/src/per/adc.h ****         SPEED_2CYCLES_5,
  47:../lib/libDaisy/src/per/adc.h ****         SPEED_8CYCLES_5,
  48:../lib/libDaisy/src/per/adc.h ****         SPEED_16CYCLES_5,
  49:../lib/libDaisy/src/per/adc.h ****         SPEED_32CYCLES_5,
  50:../lib/libDaisy/src/per/adc.h ****         SPEED_64CYCLES_5,
  51:../lib/libDaisy/src/per/adc.h ****         SPEED_387CYCLES_5,
  52:../lib/libDaisy/src/per/adc.h ****         SPEED_810CYCLES_5,
  53:../lib/libDaisy/src/per/adc.h ****     };
  54:../lib/libDaisy/src/per/adc.h **** 
  55:../lib/libDaisy/src/per/adc.h ****     /** Initializes a single ADC pin as an ADC. 
  56:../lib/libDaisy/src/per/adc.h ****     \param pin Pin to init.
  57:../lib/libDaisy/src/per/adc.h ****     \param speed conversion speed for this pin defaults to 8.5 cycles
ARM GAS  /var/folders/hp/45mn71hd0ps5f5pnytxy5bt00000gn/T//ccCIVO9k.s 			page 20


  58:../lib/libDaisy/src/per/adc.h ****      */
  59:../lib/libDaisy/src/per/adc.h ****     void InitSingle(Pin pin, ConversionSpeed speed = SPEED_8CYCLES_5);
  60:../lib/libDaisy/src/per/adc.h **** 
  61:../lib/libDaisy/src/per/adc.h ****     /** 
  62:../lib/libDaisy/src/per/adc.h ****     Initializes a single ADC pin as a Multiplexed ADC.
  63:../lib/libDaisy/src/per/adc.h ****     Requires a CD405X Multiplexer connected to the pin.
  64:../lib/libDaisy/src/per/adc.h ****     You only need to supply the mux pins that are required,
  65:../lib/libDaisy/src/per/adc.h ****     e.g. a 4052 mux would only require mux_0 and mux_1.
  66:../lib/libDaisy/src/per/adc.h ****     Internal Callbacks handle the pin addressing.
  67:../lib/libDaisy/src/per/adc.h ****     \param adc_pin &
  68:../lib/libDaisy/src/per/adc.h ****     \param mux_channels must be 1-8
  69:../lib/libDaisy/src/per/adc.h ****     \param mux_0 First mux pin
  70:../lib/libDaisy/src/per/adc.h ****     \param mux_1 Second mux pin
  71:../lib/libDaisy/src/per/adc.h ****     \param mux_2 Third mux pin
  72:../lib/libDaisy/src/per/adc.h ****     \param speed conversion speed for this pin defaults to 8.5 cycles
  73:../lib/libDaisy/src/per/adc.h ****     */
  74:../lib/libDaisy/src/per/adc.h ****     void InitMux(Pin             adc_pin,
  75:../lib/libDaisy/src/per/adc.h ****                  size_t          mux_channels,
  76:../lib/libDaisy/src/per/adc.h ****                  Pin             mux_0,
  77:../lib/libDaisy/src/per/adc.h ****                  Pin             mux_1 = Pin(PORTX, 0),
  78:../lib/libDaisy/src/per/adc.h ****                  Pin             mux_2 = Pin(PORTX, 0),
  79:../lib/libDaisy/src/per/adc.h ****                  ConversionSpeed speed = SPEED_8CYCLES_5);
  80:../lib/libDaisy/src/per/adc.h **** 
  81:../lib/libDaisy/src/per/adc.h ****     GPIO            pin_;                   /**< & */
  82:../lib/libDaisy/src/per/adc.h ****     GPIO            mux_pin_[MUX_SEL_LAST]; /**< & */
  83:../lib/libDaisy/src/per/adc.h ****     uint8_t         mux_channels_;          /**< & */
  84:../lib/libDaisy/src/per/adc.h ****     ConversionSpeed speed_;
  85:../lib/libDaisy/src/per/adc.h **** };
  86:../lib/libDaisy/src/per/adc.h **** 
  87:../lib/libDaisy/src/per/adc.h **** /**
  88:../lib/libDaisy/src/per/adc.h ****    @brief Handler for analog to digital conversion
  89:../lib/libDaisy/src/per/adc.h **** */
  90:../lib/libDaisy/src/per/adc.h **** class AdcHandle
  91:../lib/libDaisy/src/per/adc.h **** {
  92:../lib/libDaisy/src/per/adc.h ****   public:
  93:../lib/libDaisy/src/per/adc.h ****     /** Supported oversampling amounts */
  94:../lib/libDaisy/src/per/adc.h ****     enum OverSampling
  95:../lib/libDaisy/src/per/adc.h ****     {
  96:../lib/libDaisy/src/per/adc.h ****         OVS_NONE, /**< & */
  97:../lib/libDaisy/src/per/adc.h ****         OVS_4,    /**< & */
  98:../lib/libDaisy/src/per/adc.h ****         OVS_8,    /**< & */
  99:../lib/libDaisy/src/per/adc.h ****         OVS_16,   /**< & */
 100:../lib/libDaisy/src/per/adc.h ****         OVS_32,   /**< & */
 101:../lib/libDaisy/src/per/adc.h ****         OVS_64,   /**< & */
 102:../lib/libDaisy/src/per/adc.h ****         OVS_128,  /**< & */
 103:../lib/libDaisy/src/per/adc.h ****         OVS_256,  /**< & */
 104:../lib/libDaisy/src/per/adc.h ****         OVS_512,  /**< & */
 105:../lib/libDaisy/src/per/adc.h ****         OVS_1024, /**< & */
 106:../lib/libDaisy/src/per/adc.h ****         OVS_LAST, /**< & */
 107:../lib/libDaisy/src/per/adc.h ****     };
 108:../lib/libDaisy/src/per/adc.h **** 
 109:../lib/libDaisy/src/per/adc.h ****     AdcHandle() {}
 110:../lib/libDaisy/src/per/adc.h ****     ~AdcHandle() {}
 187              		.loc 15 110 5 is_stmt 1 view .LVU45
 188              		.loc 15 110 5 is_stmt 0 view .LVU46
 189              	.LBE940:
 190              	.LBB941:
ARM GAS  /var/folders/hp/45mn71hd0ps5f5pnytxy5bt00000gn/T//ccCIVO9k.s 			page 21


 191              	.LBI941:
 192              		.file 16 "../lib/libDaisy/src/hid/audio.h"
   1:../lib/libDaisy/src/hid/audio.h **** #ifndef DSY_AUDIO_H
   2:../lib/libDaisy/src/hid/audio.h **** #define DSY_AUDIO_H /**< & */
   3:../lib/libDaisy/src/hid/audio.h **** 
   4:../lib/libDaisy/src/hid/audio.h **** #include "per/sai.h"
   5:../lib/libDaisy/src/hid/audio.h **** 
   6:../lib/libDaisy/src/hid/audio.h **** namespace daisy
   7:../lib/libDaisy/src/hid/audio.h **** {
   8:../lib/libDaisy/src/hid/audio.h **** /** @brief Audio Engine Handle
   9:../lib/libDaisy/src/hid/audio.h ****  *  @ingroup audio 
  10:../lib/libDaisy/src/hid/audio.h ****  *  @details This class allows for higher level access to an audio engine.
  11:../lib/libDaisy/src/hid/audio.h ****  *           If you're using a SOM like the DaisySeed or DaisyPatchSM (or any 
  12:../lib/libDaisy/src/hid/audio.h ****  *            board that includes one of those objects) then the intialization
  13:../lib/libDaisy/src/hid/audio.h ****  *            is already taken  care of.
  14:../lib/libDaisy/src/hid/audio.h ****  *           If you're setting up your own custom hardware, or need to make changes
  15:../lib/libDaisy/src/hid/audio.h ****  *           you will have to take the following steps:
  16:../lib/libDaisy/src/hid/audio.h ****  *             1. Create and Initialize an SaiHandle or two depending on your requirements
  17:../lib/libDaisy/src/hid/audio.h ****  *             2. Initialize the Audio Handle with the desired settings and the Initialized SaiHand
  18:../lib/libDaisy/src/hid/audio.h ****  *             3. If the connected codec requires special configuration or initialization, do so
  19:../lib/libDaisy/src/hid/audio.h ****  *             4. Write a callback method using either the AudioCallback or the InterleavingAudioCa
  20:../lib/libDaisy/src/hid/audio.h ****  *             5. Start the Audio using one of the StartAudio function
  21:../lib/libDaisy/src/hid/audio.h ****  */
  22:../lib/libDaisy/src/hid/audio.h **** class AudioHandle
  23:../lib/libDaisy/src/hid/audio.h **** {
  24:../lib/libDaisy/src/hid/audio.h ****   public:
  25:../lib/libDaisy/src/hid/audio.h ****     /** Manually configurable details about the Audio Engine */
  26:../lib/libDaisy/src/hid/audio.h ****     /** TODO: Figure out how to get samplerate in here. */
  27:../lib/libDaisy/src/hid/audio.h ****     struct Config
  28:../lib/libDaisy/src/hid/audio.h ****     {
  29:../lib/libDaisy/src/hid/audio.h ****         /** number of samples to process per callback */
  30:../lib/libDaisy/src/hid/audio.h ****         size_t blocksize = 48;
  31:../lib/libDaisy/src/hid/audio.h **** 
  32:../lib/libDaisy/src/hid/audio.h ****         /**< Sample rate of audio */
  33:../lib/libDaisy/src/hid/audio.h ****         SaiHandle::Config::SampleRate samplerate
  34:../lib/libDaisy/src/hid/audio.h ****             = SaiHandle::Config::SampleRate::SAI_48KHZ;
  35:../lib/libDaisy/src/hid/audio.h **** 
  36:../lib/libDaisy/src/hid/audio.h ****         /** factor for adjustment before and after callback for hardware that may have extra headro
  37:../lib/libDaisy/src/hid/audio.h ****         float postgain = 1.f;
  38:../lib/libDaisy/src/hid/audio.h **** 
  39:../lib/libDaisy/src/hid/audio.h ****         /** factor for additional one-sided compensation to audio path for hardware that may
  40:../lib/libDaisy/src/hid/audio.h ****          *  have unequal input/output ranges
  41:../lib/libDaisy/src/hid/audio.h ****          */
  42:../lib/libDaisy/src/hid/audio.h ****         float output_compensation = 1.f;
  43:../lib/libDaisy/src/hid/audio.h ****     };
  44:../lib/libDaisy/src/hid/audio.h **** 
  45:../lib/libDaisy/src/hid/audio.h ****     enum class Result
  46:../lib/libDaisy/src/hid/audio.h ****     {
  47:../lib/libDaisy/src/hid/audio.h ****         OK,
  48:../lib/libDaisy/src/hid/audio.h ****         ERR,
  49:../lib/libDaisy/src/hid/audio.h ****     };
  50:../lib/libDaisy/src/hid/audio.h **** 
  51:../lib/libDaisy/src/hid/audio.h ****     /** Non-Interleaving input buffer
  52:../lib/libDaisy/src/hid/audio.h ****      * Buffer arranged by float[chn][sample] 
  53:../lib/libDaisy/src/hid/audio.h ****      * const so that the user can't modify the input
  54:../lib/libDaisy/src/hid/audio.h ****      */
  55:../lib/libDaisy/src/hid/audio.h ****     typedef const float* const* InputBuffer;
ARM GAS  /var/folders/hp/45mn71hd0ps5f5pnytxy5bt00000gn/T//ccCIVO9k.s 			page 22


  56:../lib/libDaisy/src/hid/audio.h **** 
  57:../lib/libDaisy/src/hid/audio.h ****     /** Non-Interleaving output buffer
  58:../lib/libDaisy/src/hid/audio.h ****      * Arranged by float[chn][sample] 
  59:../lib/libDaisy/src/hid/audio.h ****      */
  60:../lib/libDaisy/src/hid/audio.h ****     typedef float** OutputBuffer;
  61:../lib/libDaisy/src/hid/audio.h **** 
  62:../lib/libDaisy/src/hid/audio.h ****     /** Type for a Non-Interleaving audio callback 
  63:../lib/libDaisy/src/hid/audio.h ****      * Non-Interleaving audio callbacks in daisy will be of this type
  64:../lib/libDaisy/src/hid/audio.h ****      */
  65:../lib/libDaisy/src/hid/audio.h ****     typedef void (*AudioCallback)(InputBuffer  in,
  66:../lib/libDaisy/src/hid/audio.h ****                                   OutputBuffer out,
  67:../lib/libDaisy/src/hid/audio.h ****                                   size_t       size);
  68:../lib/libDaisy/src/hid/audio.h **** 
  69:../lib/libDaisy/src/hid/audio.h ****     /** Interleaving Input buffer
  70:../lib/libDaisy/src/hid/audio.h ****      ** audio is prepared as { L0, R0, L1, R1, . . . LN, RN }]
  71:../lib/libDaisy/src/hid/audio.h ****      ** this is const, as the user shouldn't modify it
  72:../lib/libDaisy/src/hid/audio.h ****     */
  73:../lib/libDaisy/src/hid/audio.h ****     typedef const float* InterleavingInputBuffer;
  74:../lib/libDaisy/src/hid/audio.h **** 
  75:../lib/libDaisy/src/hid/audio.h ****     /** Interleaving Output buffer 
  76:../lib/libDaisy/src/hid/audio.h ****      ** audio is prepared as { L0, R0, L1, R1, . . . LN, RN }
  77:../lib/libDaisy/src/hid/audio.h ****     */
  78:../lib/libDaisy/src/hid/audio.h ****     typedef float* InterleavingOutputBuffer;
  79:../lib/libDaisy/src/hid/audio.h **** 
  80:../lib/libDaisy/src/hid/audio.h ****     /** Interleaving Audio Callback 
  81:../lib/libDaisy/src/hid/audio.h ****      * Interleaving audio callbacks in daisy must be of this type
  82:../lib/libDaisy/src/hid/audio.h ****      */
  83:../lib/libDaisy/src/hid/audio.h ****     typedef void (*InterleavingAudioCallback)(InterleavingInputBuffer  in,
  84:../lib/libDaisy/src/hid/audio.h ****                                               InterleavingOutputBuffer out,
  85:../lib/libDaisy/src/hid/audio.h ****                                               size_t                   size);
  86:../lib/libDaisy/src/hid/audio.h **** 
  87:../lib/libDaisy/src/hid/audio.h ****     AudioHandle() : pimpl_(nullptr) {}
  88:../lib/libDaisy/src/hid/audio.h ****     ~AudioHandle() {}
 193              		.loc 16 88 5 is_stmt 1 view .LVU47
 194              		.loc 16 88 5 is_stmt 0 view .LVU48
 195              	.LBE941:
 196              	.LBE936:
 197              		.loc 3 36 18 view .LVU49
 198 0000 7047     		bx	lr
 199              		.cfi_endproc
 200              	.LFE2655:
 202              		.weak	_ZN5daisy8DaisyPodD1Ev
 203              		.thumb_set _ZN5daisy8DaisyPodD1Ev,_ZN5daisy8DaisyPodD2Ev
 204 0002 00BF     		.section	.text._ZN7daisysp5AdEnvD2Ev,"axG",%progbits,_ZN7daisysp5AdEnvD5Ev,comdat
 205              		.align	1
 206              		.p2align 2,,3
 207              		.weak	_ZN7daisysp5AdEnvD2Ev
 208              		.syntax unified
 209              		.thumb
 210              		.thumb_func
 212              	_ZN7daisysp5AdEnvD2Ev:
 213              	.LVL2:
 214              	.LFB2662:
 215              		.file 17 "../lib/DaisySP/Source/Control/adenv.h"
   1:../lib/DaisySP/Source/Control/adenv.h **** /*
   2:../lib/DaisySP/Source/Control/adenv.h **** Copyright (c) 2020 Electrosmith, Corp
   3:../lib/DaisySP/Source/Control/adenv.h **** 
ARM GAS  /var/folders/hp/45mn71hd0ps5f5pnytxy5bt00000gn/T//ccCIVO9k.s 			page 23


   4:../lib/DaisySP/Source/Control/adenv.h **** Use of this source code is governed by an MIT-style
   5:../lib/DaisySP/Source/Control/adenv.h **** license that can be found in the LICENSE file or at
   6:../lib/DaisySP/Source/Control/adenv.h **** https://opensource.org/licenses/MIT.
   7:../lib/DaisySP/Source/Control/adenv.h **** */
   8:../lib/DaisySP/Source/Control/adenv.h **** 
   9:../lib/DaisySP/Source/Control/adenv.h **** #pragma once
  10:../lib/DaisySP/Source/Control/adenv.h **** #ifndef ADENV_H
  11:../lib/DaisySP/Source/Control/adenv.h **** #define ADENV_H
  12:../lib/DaisySP/Source/Control/adenv.h **** #include <stdint.h>
  13:../lib/DaisySP/Source/Control/adenv.h **** #ifdef __cplusplus
  14:../lib/DaisySP/Source/Control/adenv.h **** 
  15:../lib/DaisySP/Source/Control/adenv.h **** namespace daisysp
  16:../lib/DaisySP/Source/Control/adenv.h **** {
  17:../lib/DaisySP/Source/Control/adenv.h **** /** Distinct stages that the phase of the envelope can be located in.
  18:../lib/DaisySP/Source/Control/adenv.h ****     @see AdEnv
  19:../lib/DaisySP/Source/Control/adenv.h **** */
  20:../lib/DaisySP/Source/Control/adenv.h **** enum AdEnvSegment
  21:../lib/DaisySP/Source/Control/adenv.h **** {
  22:../lib/DaisySP/Source/Control/adenv.h ****     /** located at phase location 0, and not currently running */
  23:../lib/DaisySP/Source/Control/adenv.h ****     ADENV_SEG_IDLE,
  24:../lib/DaisySP/Source/Control/adenv.h ****     /** First segment of envelope where phase moves from MIN value to MAX value */
  25:../lib/DaisySP/Source/Control/adenv.h ****     ADENV_SEG_ATTACK,
  26:../lib/DaisySP/Source/Control/adenv.h ****     /** Second segment of envelope where phase moves from MAX to MIN value */
  27:../lib/DaisySP/Source/Control/adenv.h ****     ADENV_SEG_DECAY,
  28:../lib/DaisySP/Source/Control/adenv.h ****     /** The final segment of the envelope (currently decay) */
  29:../lib/DaisySP/Source/Control/adenv.h ****     ADENV_SEG_LAST,
  30:../lib/DaisySP/Source/Control/adenv.h **** };
  31:../lib/DaisySP/Source/Control/adenv.h **** 
  32:../lib/DaisySP/Source/Control/adenv.h **** /** Trigger-able envelope with adjustable min/max, and independent per-segment time control.
  33:../lib/DaisySP/Source/Control/adenv.h **** 
  34:../lib/DaisySP/Source/Control/adenv.h ****     \author shensley
  35:../lib/DaisySP/Source/Control/adenv.h ****     \todo - Add Cycling
  36:../lib/DaisySP/Source/Control/adenv.h ****     \todo - Implement Curve (its only linear for now).
  37:../lib/DaisySP/Source/Control/adenv.h ****     \todo - Maybe make this an ADsr_ that has AD/AR/Asr_ modes.
  38:../lib/DaisySP/Source/Control/adenv.h ****  */
  39:../lib/DaisySP/Source/Control/adenv.h **** class AdEnv
  40:../lib/DaisySP/Source/Control/adenv.h **** {
  41:../lib/DaisySP/Source/Control/adenv.h ****   public:
  42:../lib/DaisySP/Source/Control/adenv.h ****     AdEnv() {}
  43:../lib/DaisySP/Source/Control/adenv.h ****     ~AdEnv() {}
 216              		.loc 17 43 5 is_stmt 1 view -0
 217              		.cfi_startproc
 218              		@ args = 0, pretend = 0, frame = 0
 219              		@ frame_needed = 0, uses_anonymous_args = 0
 220              		@ link register save eliminated.
 221              		.loc 17 43 15 is_stmt 0 view .LVU51
 222 0000 7047     		bx	lr
 223              		.cfi_endproc
 224              	.LFE2662:
 226              		.weak	_ZN7daisysp5AdEnvD1Ev
 227              		.thumb_set _ZN7daisysp5AdEnvD1Ev,_ZN7daisysp5AdEnvD2Ev
 228 0002 00BF     		.section	.text._ZN7daisysp10OscillatorD2Ev,"axG",%progbits,_ZN7daisysp10OscillatorD5Ev,comdat
 229              		.align	1
 230              		.p2align 2,,3
 231              		.weak	_ZN7daisysp10OscillatorD2Ev
 232              		.syntax unified
 233              		.thumb
ARM GAS  /var/folders/hp/45mn71hd0ps5f5pnytxy5bt00000gn/T//ccCIVO9k.s 			page 24


 234              		.thumb_func
 236              	_ZN7daisysp10OscillatorD2Ev:
 237              	.LVL3:
 238              	.LFB4338:
 239              		.file 18 "../lib/DaisySP/Source/Synthesis/oscillator.h"
   1:../lib/DaisySP/Source/Synthesis/oscillator.h **** /*
   2:../lib/DaisySP/Source/Synthesis/oscillator.h **** Copyright (c) 2020 Electrosmith, Corp
   3:../lib/DaisySP/Source/Synthesis/oscillator.h **** 
   4:../lib/DaisySP/Source/Synthesis/oscillator.h **** Use of this source code is governed by an MIT-style
   5:../lib/DaisySP/Source/Synthesis/oscillator.h **** license that can be found in the LICENSE file or at
   6:../lib/DaisySP/Source/Synthesis/oscillator.h **** https://opensource.org/licenses/MIT.
   7:../lib/DaisySP/Source/Synthesis/oscillator.h **** */
   8:../lib/DaisySP/Source/Synthesis/oscillator.h **** 
   9:../lib/DaisySP/Source/Synthesis/oscillator.h **** #pragma once
  10:../lib/DaisySP/Source/Synthesis/oscillator.h **** #ifndef DSY_OSCILLATOR_H
  11:../lib/DaisySP/Source/Synthesis/oscillator.h **** #define DSY_OSCILLATOR_H
  12:../lib/DaisySP/Source/Synthesis/oscillator.h **** #include <stdint.h>
  13:../lib/DaisySP/Source/Synthesis/oscillator.h **** #include "Utility/dsp.h"
  14:../lib/DaisySP/Source/Synthesis/oscillator.h **** #ifdef __cplusplus
  15:../lib/DaisySP/Source/Synthesis/oscillator.h **** 
  16:../lib/DaisySP/Source/Synthesis/oscillator.h **** namespace daisysp
  17:../lib/DaisySP/Source/Synthesis/oscillator.h **** {
  18:../lib/DaisySP/Source/Synthesis/oscillator.h **** /** Synthesis of several waveforms, including polyBLEP bandlimited waveforms.
  19:../lib/DaisySP/Source/Synthesis/oscillator.h **** */
  20:../lib/DaisySP/Source/Synthesis/oscillator.h **** class Oscillator
  21:../lib/DaisySP/Source/Synthesis/oscillator.h **** {
  22:../lib/DaisySP/Source/Synthesis/oscillator.h ****   public:
  23:../lib/DaisySP/Source/Synthesis/oscillator.h ****     Oscillator() {}
  24:../lib/DaisySP/Source/Synthesis/oscillator.h ****     ~Oscillator() {}
 240              		.loc 18 24 5 is_stmt 1 view -0
 241              		.cfi_startproc
 242              		@ args = 0, pretend = 0, frame = 0
 243              		@ frame_needed = 0, uses_anonymous_args = 0
 244              		@ link register save eliminated.
 245              		.loc 18 24 20 is_stmt 0 view .LVU53
 246 0000 7047     		bx	lr
 247              		.cfi_endproc
 248              	.LFE4338:
 250              		.weak	_ZN7daisysp10OscillatorD1Ev
 251              		.thumb_set _ZN7daisysp10OscillatorD1Ev,_ZN7daisysp10OscillatorD2Ev
 252 0002 00BF     		.section	.text._ZN5daisy11OledDisplayINS_13SSD130xDriverILj128ELj64ENS_19SSD130xI2CTransportEEEE4F
 253              		.align	1
 254              		.p2align 2,,3
 255              		.weak	_ZN5daisy11OledDisplayINS_13SSD130xDriverILj128ELj64ENS_19SSD130xI2CTransportEEEE4FillEb
 256              		.syntax unified
 257              		.thumb
 258              		.thumb_func
 260              	_ZN5daisy11OledDisplayINS_13SSD130xDriverILj128ELj64ENS_19SSD130xI2CTransportEEEE4FillEb:
 261              	.LVL4:
 262              	.LFB5370:
 263              		.file 19 "../lib/libDaisy/src/hid/disp/oled_display.h"
   1:../lib/libDaisy/src/hid/disp/oled_display.h **** #pragma once
   2:../lib/libDaisy/src/hid/disp/oled_display.h **** #ifndef DSY_OLED_DISPLAY_H
   3:../lib/libDaisy/src/hid/disp/oled_display.h **** #define DSY_OLED_DISPLAY_H /**< Macro */
   4:../lib/libDaisy/src/hid/disp/oled_display.h **** 
   5:../lib/libDaisy/src/hid/disp/oled_display.h **** #include "display.h"
   6:../lib/libDaisy/src/hid/disp/oled_display.h **** 
ARM GAS  /var/folders/hp/45mn71hd0ps5f5pnytxy5bt00000gn/T//ccCIVO9k.s 			page 25


   7:../lib/libDaisy/src/hid/disp/oled_display.h **** namespace daisy
   8:../lib/libDaisy/src/hid/disp/oled_display.h **** {
   9:../lib/libDaisy/src/hid/disp/oled_display.h **** /** 
  10:../lib/libDaisy/src/hid/disp/oled_display.h ****  * This class is for drawing to a monochrome OLED display. 
  11:../lib/libDaisy/src/hid/disp/oled_display.h ****  * @ingroup device
  12:../lib/libDaisy/src/hid/disp/oled_display.h **** */
  13:../lib/libDaisy/src/hid/disp/oled_display.h **** template <typename DisplayDriver>
  14:../lib/libDaisy/src/hid/disp/oled_display.h **** class OledDisplay : public OneBitGraphicsDisplayImpl<OledDisplay<DisplayDriver>>
  15:../lib/libDaisy/src/hid/disp/oled_display.h **** {
  16:../lib/libDaisy/src/hid/disp/oled_display.h ****   public:
  17:../lib/libDaisy/src/hid/disp/oled_display.h ****     OledDisplay() {}
  18:../lib/libDaisy/src/hid/disp/oled_display.h ****     virtual ~OledDisplay() {}
  19:../lib/libDaisy/src/hid/disp/oled_display.h **** 
  20:../lib/libDaisy/src/hid/disp/oled_display.h ****     struct Config
  21:../lib/libDaisy/src/hid/disp/oled_display.h ****     {
  22:../lib/libDaisy/src/hid/disp/oled_display.h ****         typename DisplayDriver::Config driver_config;
  23:../lib/libDaisy/src/hid/disp/oled_display.h ****     };
  24:../lib/libDaisy/src/hid/disp/oled_display.h **** 
  25:../lib/libDaisy/src/hid/disp/oled_display.h ****     void Init(Config config) { driver_.Init(config.driver_config); }
  26:../lib/libDaisy/src/hid/disp/oled_display.h **** 
  27:../lib/libDaisy/src/hid/disp/oled_display.h ****     uint16_t Height() const override { return driver_.Height(); }
  28:../lib/libDaisy/src/hid/disp/oled_display.h ****     uint16_t Width() const override { return driver_.Width(); }
  29:../lib/libDaisy/src/hid/disp/oled_display.h **** 
  30:../lib/libDaisy/src/hid/disp/oled_display.h ****     /** 
  31:../lib/libDaisy/src/hid/disp/oled_display.h ****     Fills the entire display with either on/off.
  32:../lib/libDaisy/src/hid/disp/oled_display.h ****     \param on Sets on or off.
  33:../lib/libDaisy/src/hid/disp/oled_display.h ****     */
  34:../lib/libDaisy/src/hid/disp/oled_display.h ****     void Fill(bool on) override { driver_.Fill(on); }
 264              		.loc 19 34 10 is_stmt 1 view -0
 265              		.cfi_startproc
 266              		@ args = 0, pretend = 0, frame = 0
 267              		@ frame_needed = 0, uses_anonymous_args = 0
 268              		@ link register save eliminated.
 269              	.LBB942:
 270              	.LBI942:
 271              		.file 20 "../lib/libDaisy/src/dev/oled_ssd130x.h"
   1:../lib/libDaisy/src/dev/oled_ssd130x.h **** #pragma once
   2:../lib/libDaisy/src/dev/oled_ssd130x.h **** #ifndef SA_OLED_SSD130X_H
   3:../lib/libDaisy/src/dev/oled_ssd130x.h **** #define SA_OLED_SSD130X_H /**< & */
   4:../lib/libDaisy/src/dev/oled_ssd130x.h **** 
   5:../lib/libDaisy/src/dev/oled_ssd130x.h **** #include "per/i2c.h"
   6:../lib/libDaisy/src/dev/oled_ssd130x.h **** #include "per/spi.h"
   7:../lib/libDaisy/src/dev/oled_ssd130x.h **** #include "per/gpio.h"
   8:../lib/libDaisy/src/dev/oled_ssd130x.h **** #include "sys/system.h"
   9:../lib/libDaisy/src/dev/oled_ssd130x.h **** 
  10:../lib/libDaisy/src/dev/oled_ssd130x.h **** namespace daisy
  11:../lib/libDaisy/src/dev/oled_ssd130x.h **** {
  12:../lib/libDaisy/src/dev/oled_ssd130x.h **** /**
  13:../lib/libDaisy/src/dev/oled_ssd130x.h ****  * I2C Transport for SSD1306 / SSD1309 OLED display devices
  14:../lib/libDaisy/src/dev/oled_ssd130x.h ****  */
  15:../lib/libDaisy/src/dev/oled_ssd130x.h **** class SSD130xI2CTransport
  16:../lib/libDaisy/src/dev/oled_ssd130x.h **** {
  17:../lib/libDaisy/src/dev/oled_ssd130x.h ****   public:
  18:../lib/libDaisy/src/dev/oled_ssd130x.h ****     struct Config
  19:../lib/libDaisy/src/dev/oled_ssd130x.h ****     {
  20:../lib/libDaisy/src/dev/oled_ssd130x.h ****         Config()
  21:../lib/libDaisy/src/dev/oled_ssd130x.h ****         {
ARM GAS  /var/folders/hp/45mn71hd0ps5f5pnytxy5bt00000gn/T//ccCIVO9k.s 			page 26


  22:../lib/libDaisy/src/dev/oled_ssd130x.h ****             // Intialize using defaults
  23:../lib/libDaisy/src/dev/oled_ssd130x.h ****             Defaults();
  24:../lib/libDaisy/src/dev/oled_ssd130x.h ****         }
  25:../lib/libDaisy/src/dev/oled_ssd130x.h ****         I2CHandle::Config i2c_config;
  26:../lib/libDaisy/src/dev/oled_ssd130x.h ****         uint8_t           i2c_address;
  27:../lib/libDaisy/src/dev/oled_ssd130x.h ****         void              Defaults()
  28:../lib/libDaisy/src/dev/oled_ssd130x.h ****         {
  29:../lib/libDaisy/src/dev/oled_ssd130x.h ****             i2c_config.periph         = I2CHandle::Config::Peripheral::I2C_1;
  30:../lib/libDaisy/src/dev/oled_ssd130x.h ****             i2c_config.speed          = I2CHandle::Config::Speed::I2C_1MHZ;
  31:../lib/libDaisy/src/dev/oled_ssd130x.h ****             i2c_config.mode           = I2CHandle::Config::Mode::I2C_MASTER;
  32:../lib/libDaisy/src/dev/oled_ssd130x.h ****             i2c_config.pin_config.scl = Pin(PORTB, 8);
  33:../lib/libDaisy/src/dev/oled_ssd130x.h ****             i2c_config.pin_config.sda = Pin(PORTB, 9);
  34:../lib/libDaisy/src/dev/oled_ssd130x.h ****             i2c_address               = 0x3C;
  35:../lib/libDaisy/src/dev/oled_ssd130x.h ****         }
  36:../lib/libDaisy/src/dev/oled_ssd130x.h ****     };
  37:../lib/libDaisy/src/dev/oled_ssd130x.h ****     void Init(const Config& config)
  38:../lib/libDaisy/src/dev/oled_ssd130x.h ****     {
  39:../lib/libDaisy/src/dev/oled_ssd130x.h ****         i2c_address_ = config.i2c_address;
  40:../lib/libDaisy/src/dev/oled_ssd130x.h ****         i2c_.Init(config.i2c_config);
  41:../lib/libDaisy/src/dev/oled_ssd130x.h ****     };
  42:../lib/libDaisy/src/dev/oled_ssd130x.h ****     void SendCommand(uint8_t cmd)
  43:../lib/libDaisy/src/dev/oled_ssd130x.h ****     {
  44:../lib/libDaisy/src/dev/oled_ssd130x.h ****         uint8_t buf[2] = {0X00, cmd};
  45:../lib/libDaisy/src/dev/oled_ssd130x.h ****         i2c_.TransmitBlocking(i2c_address_, buf, 2, 1000);
  46:../lib/libDaisy/src/dev/oled_ssd130x.h ****     };
  47:../lib/libDaisy/src/dev/oled_ssd130x.h **** 
  48:../lib/libDaisy/src/dev/oled_ssd130x.h ****     void SendData(uint8_t* buff, size_t size)
  49:../lib/libDaisy/src/dev/oled_ssd130x.h ****     {
  50:../lib/libDaisy/src/dev/oled_ssd130x.h ****         for(size_t i = 0; i < size; i++)
  51:../lib/libDaisy/src/dev/oled_ssd130x.h ****         {
  52:../lib/libDaisy/src/dev/oled_ssd130x.h ****             uint8_t buf[2] = {0X40, buff[i]};
  53:../lib/libDaisy/src/dev/oled_ssd130x.h ****             i2c_.TransmitBlocking(i2c_address_, buf, 2, 1000);
  54:../lib/libDaisy/src/dev/oled_ssd130x.h ****         }
  55:../lib/libDaisy/src/dev/oled_ssd130x.h ****     };
  56:../lib/libDaisy/src/dev/oled_ssd130x.h **** 
  57:../lib/libDaisy/src/dev/oled_ssd130x.h ****   private:
  58:../lib/libDaisy/src/dev/oled_ssd130x.h ****     daisy::I2CHandle i2c_;
  59:../lib/libDaisy/src/dev/oled_ssd130x.h ****     uint8_t          i2c_address_;
  60:../lib/libDaisy/src/dev/oled_ssd130x.h **** };
  61:../lib/libDaisy/src/dev/oled_ssd130x.h **** 
  62:../lib/libDaisy/src/dev/oled_ssd130x.h **** /**
  63:../lib/libDaisy/src/dev/oled_ssd130x.h ****  * 4 Wire SPI Transport for SSD1306 / SSD1309 OLED display devices
  64:../lib/libDaisy/src/dev/oled_ssd130x.h ****  */
  65:../lib/libDaisy/src/dev/oled_ssd130x.h **** class SSD130x4WireSpiTransport
  66:../lib/libDaisy/src/dev/oled_ssd130x.h **** {
  67:../lib/libDaisy/src/dev/oled_ssd130x.h ****   public:
  68:../lib/libDaisy/src/dev/oled_ssd130x.h ****     struct Config
  69:../lib/libDaisy/src/dev/oled_ssd130x.h ****     {
  70:../lib/libDaisy/src/dev/oled_ssd130x.h ****         Config()
  71:../lib/libDaisy/src/dev/oled_ssd130x.h ****         {
  72:../lib/libDaisy/src/dev/oled_ssd130x.h ****             // Initialize using defaults
  73:../lib/libDaisy/src/dev/oled_ssd130x.h ****             Defaults();
  74:../lib/libDaisy/src/dev/oled_ssd130x.h ****         }
  75:../lib/libDaisy/src/dev/oled_ssd130x.h ****         SpiHandle::Config spi_config;
  76:../lib/libDaisy/src/dev/oled_ssd130x.h ****         struct
  77:../lib/libDaisy/src/dev/oled_ssd130x.h ****         {
  78:../lib/libDaisy/src/dev/oled_ssd130x.h ****             Pin dc;    /**< & */
ARM GAS  /var/folders/hp/45mn71hd0ps5f5pnytxy5bt00000gn/T//ccCIVO9k.s 			page 27


  79:../lib/libDaisy/src/dev/oled_ssd130x.h ****             Pin reset; /**< & */
  80:../lib/libDaisy/src/dev/oled_ssd130x.h ****         } pin_config;
  81:../lib/libDaisy/src/dev/oled_ssd130x.h ****         void Defaults()
  82:../lib/libDaisy/src/dev/oled_ssd130x.h ****         {
  83:../lib/libDaisy/src/dev/oled_ssd130x.h ****             // SPI peripheral config
  84:../lib/libDaisy/src/dev/oled_ssd130x.h ****             spi_config.periph = SpiHandle::Config::Peripheral::SPI_1;
  85:../lib/libDaisy/src/dev/oled_ssd130x.h ****             spi_config.mode   = SpiHandle::Config::Mode::MASTER;
  86:../lib/libDaisy/src/dev/oled_ssd130x.h ****             spi_config.direction
  87:../lib/libDaisy/src/dev/oled_ssd130x.h ****                 = SpiHandle::Config::Direction::TWO_LINES_TX_ONLY;
  88:../lib/libDaisy/src/dev/oled_ssd130x.h ****             spi_config.datasize       = 8;
  89:../lib/libDaisy/src/dev/oled_ssd130x.h ****             spi_config.clock_polarity = SpiHandle::Config::ClockPolarity::LOW;
  90:../lib/libDaisy/src/dev/oled_ssd130x.h ****             spi_config.clock_phase    = SpiHandle::Config::ClockPhase::ONE_EDGE;
  91:../lib/libDaisy/src/dev/oled_ssd130x.h ****             spi_config.nss            = SpiHandle::Config::NSS::HARD_OUTPUT;
  92:../lib/libDaisy/src/dev/oled_ssd130x.h ****             spi_config.baud_prescaler = SpiHandle::Config::BaudPrescaler::PS_8;
  93:../lib/libDaisy/src/dev/oled_ssd130x.h ****             // SPI pin config
  94:../lib/libDaisy/src/dev/oled_ssd130x.h ****             spi_config.pin_config.sclk = Pin(PORTG, 11);
  95:../lib/libDaisy/src/dev/oled_ssd130x.h ****             spi_config.pin_config.miso = Pin(PORTX, 0);
  96:../lib/libDaisy/src/dev/oled_ssd130x.h ****             spi_config.pin_config.mosi = Pin(PORTB, 5);
  97:../lib/libDaisy/src/dev/oled_ssd130x.h ****             spi_config.pin_config.nss  = Pin(PORTG, 10);
  98:../lib/libDaisy/src/dev/oled_ssd130x.h ****             // SSD130x control pin config
  99:../lib/libDaisy/src/dev/oled_ssd130x.h ****             pin_config.dc    = Pin(PORTB, 4);
 100:../lib/libDaisy/src/dev/oled_ssd130x.h ****             pin_config.reset = Pin(PORTB, 15);
 101:../lib/libDaisy/src/dev/oled_ssd130x.h ****         }
 102:../lib/libDaisy/src/dev/oled_ssd130x.h ****     };
 103:../lib/libDaisy/src/dev/oled_ssd130x.h ****     void Init(const Config& config)
 104:../lib/libDaisy/src/dev/oled_ssd130x.h ****     {
 105:../lib/libDaisy/src/dev/oled_ssd130x.h ****         // Initialize both GPIO
 106:../lib/libDaisy/src/dev/oled_ssd130x.h ****         pin_dc_.Init(config.pin_config.dc, GPIO::Mode::OUTPUT);
 107:../lib/libDaisy/src/dev/oled_ssd130x.h ****         pin_reset_.Init(config.pin_config.reset, GPIO::Mode::OUTPUT);
 108:../lib/libDaisy/src/dev/oled_ssd130x.h **** 
 109:../lib/libDaisy/src/dev/oled_ssd130x.h ****         // Initialize SPI
 110:../lib/libDaisy/src/dev/oled_ssd130x.h ****         spi_.Init(config.spi_config);
 111:../lib/libDaisy/src/dev/oled_ssd130x.h **** 
 112:../lib/libDaisy/src/dev/oled_ssd130x.h ****         // Reset and Configure OLED.
 113:../lib/libDaisy/src/dev/oled_ssd130x.h ****         pin_reset_.Write(0);
 114:../lib/libDaisy/src/dev/oled_ssd130x.h ****         System::Delay(10);
 115:../lib/libDaisy/src/dev/oled_ssd130x.h ****         pin_reset_.Write(1);
 116:../lib/libDaisy/src/dev/oled_ssd130x.h ****         System::Delay(10);
 117:../lib/libDaisy/src/dev/oled_ssd130x.h ****     };
 118:../lib/libDaisy/src/dev/oled_ssd130x.h ****     void SendCommand(uint8_t cmd)
 119:../lib/libDaisy/src/dev/oled_ssd130x.h ****     {
 120:../lib/libDaisy/src/dev/oled_ssd130x.h ****         pin_dc_.Write(0);
 121:../lib/libDaisy/src/dev/oled_ssd130x.h ****         spi_.BlockingTransmit(&cmd, 1);
 122:../lib/libDaisy/src/dev/oled_ssd130x.h ****     };
 123:../lib/libDaisy/src/dev/oled_ssd130x.h **** 
 124:../lib/libDaisy/src/dev/oled_ssd130x.h ****     void SendData(uint8_t* buff, size_t size)
 125:../lib/libDaisy/src/dev/oled_ssd130x.h ****     {
 126:../lib/libDaisy/src/dev/oled_ssd130x.h ****         pin_dc_.Write(1);
 127:../lib/libDaisy/src/dev/oled_ssd130x.h ****         spi_.BlockingTransmit(buff, size);
 128:../lib/libDaisy/src/dev/oled_ssd130x.h ****     };
 129:../lib/libDaisy/src/dev/oled_ssd130x.h **** 
 130:../lib/libDaisy/src/dev/oled_ssd130x.h ****   private:
 131:../lib/libDaisy/src/dev/oled_ssd130x.h ****     SpiHandle spi_;
 132:../lib/libDaisy/src/dev/oled_ssd130x.h ****     GPIO      pin_reset_;
 133:../lib/libDaisy/src/dev/oled_ssd130x.h ****     GPIO      pin_dc_;
 134:../lib/libDaisy/src/dev/oled_ssd130x.h **** };
 135:../lib/libDaisy/src/dev/oled_ssd130x.h **** 
ARM GAS  /var/folders/hp/45mn71hd0ps5f5pnytxy5bt00000gn/T//ccCIVO9k.s 			page 28


 136:../lib/libDaisy/src/dev/oled_ssd130x.h **** /**
 137:../lib/libDaisy/src/dev/oled_ssd130x.h ****  * Soft SPI Transport for SSD1306 / SSD1309 OLED display devices
 138:../lib/libDaisy/src/dev/oled_ssd130x.h ****  */
 139:../lib/libDaisy/src/dev/oled_ssd130x.h **** class SSD130x4WireSoftSpiTransport
 140:../lib/libDaisy/src/dev/oled_ssd130x.h **** {
 141:../lib/libDaisy/src/dev/oled_ssd130x.h ****   public:
 142:../lib/libDaisy/src/dev/oled_ssd130x.h ****     struct Config
 143:../lib/libDaisy/src/dev/oled_ssd130x.h ****     {
 144:../lib/libDaisy/src/dev/oled_ssd130x.h ****         Config()
 145:../lib/libDaisy/src/dev/oled_ssd130x.h ****         {
 146:../lib/libDaisy/src/dev/oled_ssd130x.h ****             // Initialize using defaults
 147:../lib/libDaisy/src/dev/oled_ssd130x.h ****             Defaults();
 148:../lib/libDaisy/src/dev/oled_ssd130x.h ****         }
 149:../lib/libDaisy/src/dev/oled_ssd130x.h ****         struct
 150:../lib/libDaisy/src/dev/oled_ssd130x.h ****         {
 151:../lib/libDaisy/src/dev/oled_ssd130x.h ****             uint32_t sclk_delay;
 152:../lib/libDaisy/src/dev/oled_ssd130x.h ****             Pin      sclk;
 153:../lib/libDaisy/src/dev/oled_ssd130x.h ****             Pin      mosi;
 154:../lib/libDaisy/src/dev/oled_ssd130x.h ****             Pin      dc;
 155:../lib/libDaisy/src/dev/oled_ssd130x.h ****             Pin      reset;
 156:../lib/libDaisy/src/dev/oled_ssd130x.h ****         } pin_config;
 157:../lib/libDaisy/src/dev/oled_ssd130x.h ****         void Defaults()
 158:../lib/libDaisy/src/dev/oled_ssd130x.h ****         {
 159:../lib/libDaisy/src/dev/oled_ssd130x.h ****             pin_config.sclk_delay = 0; // fast as possible?!
 160:../lib/libDaisy/src/dev/oled_ssd130x.h ****             // SPI peripheral config
 161:../lib/libDaisy/src/dev/oled_ssd130x.h ****             pin_config.sclk = Pin(PORTD, 3); /**< D10 - SPI2 SCK  */
 162:../lib/libDaisy/src/dev/oled_ssd130x.h ****             pin_config.mosi = Pin(PORTC, 3); /**< D9  - SPI2 MOSI */
 163:../lib/libDaisy/src/dev/oled_ssd130x.h ****             // SSD130x control pin config
 164:../lib/libDaisy/src/dev/oled_ssd130x.h ****             pin_config.dc    = Pin(PORTC, 11); //D2
 165:../lib/libDaisy/src/dev/oled_ssd130x.h ****             pin_config.reset = Pin(PORTC, 10); //D3
 166:../lib/libDaisy/src/dev/oled_ssd130x.h ****         }
 167:../lib/libDaisy/src/dev/oled_ssd130x.h ****     };
 168:../lib/libDaisy/src/dev/oled_ssd130x.h ****     void Init(const Config& config)
 169:../lib/libDaisy/src/dev/oled_ssd130x.h ****     {
 170:../lib/libDaisy/src/dev/oled_ssd130x.h ****         // Initialize both GPIO
 171:../lib/libDaisy/src/dev/oled_ssd130x.h ****         pin_sclk_.Init(config.pin_config.sclk, GPIO::Mode::OUTPUT);
 172:../lib/libDaisy/src/dev/oled_ssd130x.h ****         pin_sclk_.Write(1); //ClockPolarity::LOW
 173:../lib/libDaisy/src/dev/oled_ssd130x.h ****         clk_delay = config.pin_config.sclk_delay;
 174:../lib/libDaisy/src/dev/oled_ssd130x.h ****         pin_mosi_.Init(config.pin_config.mosi, GPIO::Mode::OUTPUT);
 175:../lib/libDaisy/src/dev/oled_ssd130x.h ****         pin_mosi_.Write(0);
 176:../lib/libDaisy/src/dev/oled_ssd130x.h **** 
 177:../lib/libDaisy/src/dev/oled_ssd130x.h ****         pin_dc_.Init(config.pin_config.dc, GPIO::Mode::OUTPUT);
 178:../lib/libDaisy/src/dev/oled_ssd130x.h ****         pin_reset_.Init(config.pin_config.reset, GPIO::Mode::OUTPUT);
 179:../lib/libDaisy/src/dev/oled_ssd130x.h **** 
 180:../lib/libDaisy/src/dev/oled_ssd130x.h ****         // Reset and Configure OLED.
 181:../lib/libDaisy/src/dev/oled_ssd130x.h ****         pin_reset_.Write(0);
 182:../lib/libDaisy/src/dev/oled_ssd130x.h ****         System::Delay(10);
 183:../lib/libDaisy/src/dev/oled_ssd130x.h ****         pin_reset_.Write(1);
 184:../lib/libDaisy/src/dev/oled_ssd130x.h ****         System::Delay(10);
 185:../lib/libDaisy/src/dev/oled_ssd130x.h ****     };
 186:../lib/libDaisy/src/dev/oled_ssd130x.h ****     void SendCommand(uint8_t cmd)
 187:../lib/libDaisy/src/dev/oled_ssd130x.h ****     {
 188:../lib/libDaisy/src/dev/oled_ssd130x.h ****         pin_dc_.Write(0);
 189:../lib/libDaisy/src/dev/oled_ssd130x.h ****         SoftSpiTransmit(cmd);
 190:../lib/libDaisy/src/dev/oled_ssd130x.h ****     };
 191:../lib/libDaisy/src/dev/oled_ssd130x.h **** 
 192:../lib/libDaisy/src/dev/oled_ssd130x.h ****     void SendData(uint8_t* buff, size_t size)
ARM GAS  /var/folders/hp/45mn71hd0ps5f5pnytxy5bt00000gn/T//ccCIVO9k.s 			page 29


 193:../lib/libDaisy/src/dev/oled_ssd130x.h ****     {
 194:../lib/libDaisy/src/dev/oled_ssd130x.h ****         pin_dc_.Write(1);
 195:../lib/libDaisy/src/dev/oled_ssd130x.h ****         for(size_t i = 0; i < size; i++)
 196:../lib/libDaisy/src/dev/oled_ssd130x.h ****             SoftSpiTransmit(buff[i]);
 197:../lib/libDaisy/src/dev/oled_ssd130x.h ****     };
 198:../lib/libDaisy/src/dev/oled_ssd130x.h **** 
 199:../lib/libDaisy/src/dev/oled_ssd130x.h ****   private:
 200:../lib/libDaisy/src/dev/oled_ssd130x.h ****     void SoftSpiTransmit(uint8_t val)
 201:../lib/libDaisy/src/dev/oled_ssd130x.h ****     {
 202:../lib/libDaisy/src/dev/oled_ssd130x.h ****         // bit flip
 203:../lib/libDaisy/src/dev/oled_ssd130x.h ****         val = ((val & 0x01) << 7) | ((val & 0x02) << 5) | ((val & 0x04) << 3)
 204:../lib/libDaisy/src/dev/oled_ssd130x.h ****               | ((val & 0x08) << 1) | ((val & 0x10) >> 1) | ((val & 0x20) >> 3)
 205:../lib/libDaisy/src/dev/oled_ssd130x.h ****               | ((val & 0x40) >> 5) | ((val & 0x80) >> 7);
 206:../lib/libDaisy/src/dev/oled_ssd130x.h **** 
 207:../lib/libDaisy/src/dev/oled_ssd130x.h ****         for(uint8_t bit = 0u; bit < 8u; bit++)
 208:../lib/libDaisy/src/dev/oled_ssd130x.h ****         {
 209:../lib/libDaisy/src/dev/oled_ssd130x.h ****             pin_mosi_.Write((val & (1 << bit)) ? 1 : 0);
 210:../lib/libDaisy/src/dev/oled_ssd130x.h **** 
 211:../lib/libDaisy/src/dev/oled_ssd130x.h ****             System::DelayTicks(clk_delay);
 212:../lib/libDaisy/src/dev/oled_ssd130x.h **** 
 213:../lib/libDaisy/src/dev/oled_ssd130x.h ****             pin_sclk_.Toggle();
 214:../lib/libDaisy/src/dev/oled_ssd130x.h **** 
 215:../lib/libDaisy/src/dev/oled_ssd130x.h ****             System::DelayTicks(clk_delay);
 216:../lib/libDaisy/src/dev/oled_ssd130x.h **** 
 217:../lib/libDaisy/src/dev/oled_ssd130x.h ****             pin_sclk_.Toggle();
 218:../lib/libDaisy/src/dev/oled_ssd130x.h ****         }
 219:../lib/libDaisy/src/dev/oled_ssd130x.h ****     }
 220:../lib/libDaisy/src/dev/oled_ssd130x.h **** 
 221:../lib/libDaisy/src/dev/oled_ssd130x.h ****     uint32_t clk_delay;
 222:../lib/libDaisy/src/dev/oled_ssd130x.h ****     GPIO     pin_sclk_;
 223:../lib/libDaisy/src/dev/oled_ssd130x.h ****     GPIO     pin_mosi_;
 224:../lib/libDaisy/src/dev/oled_ssd130x.h ****     GPIO     pin_reset_;
 225:../lib/libDaisy/src/dev/oled_ssd130x.h ****     GPIO     pin_dc_;
 226:../lib/libDaisy/src/dev/oled_ssd130x.h **** };
 227:../lib/libDaisy/src/dev/oled_ssd130x.h **** 
 228:../lib/libDaisy/src/dev/oled_ssd130x.h **** 
 229:../lib/libDaisy/src/dev/oled_ssd130x.h **** /**
 230:../lib/libDaisy/src/dev/oled_ssd130x.h ****  * A driver implementation for the SSD1306/SSD1309
 231:../lib/libDaisy/src/dev/oled_ssd130x.h ****  */
 232:../lib/libDaisy/src/dev/oled_ssd130x.h **** template <size_t width, size_t height, typename Transport>
 233:../lib/libDaisy/src/dev/oled_ssd130x.h **** class SSD130xDriver
 234:../lib/libDaisy/src/dev/oled_ssd130x.h **** {
 235:../lib/libDaisy/src/dev/oled_ssd130x.h ****   public:
 236:../lib/libDaisy/src/dev/oled_ssd130x.h ****     struct Config
 237:../lib/libDaisy/src/dev/oled_ssd130x.h ****     {
 238:../lib/libDaisy/src/dev/oled_ssd130x.h ****         typename Transport::Config transport_config;
 239:../lib/libDaisy/src/dev/oled_ssd130x.h ****     };
 240:../lib/libDaisy/src/dev/oled_ssd130x.h **** 
 241:../lib/libDaisy/src/dev/oled_ssd130x.h ****     void Init(Config config)
 242:../lib/libDaisy/src/dev/oled_ssd130x.h ****     {
 243:../lib/libDaisy/src/dev/oled_ssd130x.h ****         transport_.Init(config.transport_config);
 244:../lib/libDaisy/src/dev/oled_ssd130x.h **** 
 245:../lib/libDaisy/src/dev/oled_ssd130x.h ****         // Init routine...
 246:../lib/libDaisy/src/dev/oled_ssd130x.h **** 
 247:../lib/libDaisy/src/dev/oled_ssd130x.h ****         // Display Off
 248:../lib/libDaisy/src/dev/oled_ssd130x.h ****         transport_.SendCommand(0xaE);
 249:../lib/libDaisy/src/dev/oled_ssd130x.h ****         // Dimension dependent commands...
ARM GAS  /var/folders/hp/45mn71hd0ps5f5pnytxy5bt00000gn/T//ccCIVO9k.s 			page 30


 250:../lib/libDaisy/src/dev/oled_ssd130x.h ****         switch(height)
 251:../lib/libDaisy/src/dev/oled_ssd130x.h ****         {
 252:../lib/libDaisy/src/dev/oled_ssd130x.h ****             case 16:
 253:../lib/libDaisy/src/dev/oled_ssd130x.h ****                 // Display Clock Divide Ratio
 254:../lib/libDaisy/src/dev/oled_ssd130x.h ****                 transport_.SendCommand(0xD5);
 255:../lib/libDaisy/src/dev/oled_ssd130x.h ****                 transport_.SendCommand(0x60);
 256:../lib/libDaisy/src/dev/oled_ssd130x.h ****                 // Multiplex Ratio
 257:../lib/libDaisy/src/dev/oled_ssd130x.h ****                 transport_.SendCommand(0xA8);
 258:../lib/libDaisy/src/dev/oled_ssd130x.h ****                 transport_.SendCommand(0x0F);
 259:../lib/libDaisy/src/dev/oled_ssd130x.h ****                 // COM Pins
 260:../lib/libDaisy/src/dev/oled_ssd130x.h ****                 transport_.SendCommand(0xDA);
 261:../lib/libDaisy/src/dev/oled_ssd130x.h ****                 transport_.SendCommand(0x02);
 262:../lib/libDaisy/src/dev/oled_ssd130x.h ****                 break;
 263:../lib/libDaisy/src/dev/oled_ssd130x.h ****             case 32:
 264:../lib/libDaisy/src/dev/oled_ssd130x.h ****                 // Display Clock Divide Ratio
 265:../lib/libDaisy/src/dev/oled_ssd130x.h ****                 transport_.SendCommand(0xD5);
 266:../lib/libDaisy/src/dev/oled_ssd130x.h ****                 transport_.SendCommand(0x80);
 267:../lib/libDaisy/src/dev/oled_ssd130x.h ****                 // Multiplex Ratio
 268:../lib/libDaisy/src/dev/oled_ssd130x.h ****                 transport_.SendCommand(0xA8);
 269:../lib/libDaisy/src/dev/oled_ssd130x.h ****                 transport_.SendCommand(0x1F);
 270:../lib/libDaisy/src/dev/oled_ssd130x.h ****                 // COM Pins
 271:../lib/libDaisy/src/dev/oled_ssd130x.h ****                 transport_.SendCommand(0xDA);
 272:../lib/libDaisy/src/dev/oled_ssd130x.h ****                 if(width == 64)
 273:../lib/libDaisy/src/dev/oled_ssd130x.h ****                 {
 274:../lib/libDaisy/src/dev/oled_ssd130x.h ****                     transport_.SendCommand(0x12);
 275:../lib/libDaisy/src/dev/oled_ssd130x.h ****                 }
 276:../lib/libDaisy/src/dev/oled_ssd130x.h ****                 else
 277:../lib/libDaisy/src/dev/oled_ssd130x.h ****                 {
 278:../lib/libDaisy/src/dev/oled_ssd130x.h ****                     transport_.SendCommand(0x02);
 279:../lib/libDaisy/src/dev/oled_ssd130x.h ****                 }
 280:../lib/libDaisy/src/dev/oled_ssd130x.h **** 
 281:../lib/libDaisy/src/dev/oled_ssd130x.h ****                 break;
 282:../lib/libDaisy/src/dev/oled_ssd130x.h ****             case 48:
 283:../lib/libDaisy/src/dev/oled_ssd130x.h ****                 // Display Clock Divide Ratio
 284:../lib/libDaisy/src/dev/oled_ssd130x.h ****                 transport_.SendCommand(0xD5);
 285:../lib/libDaisy/src/dev/oled_ssd130x.h ****                 transport_.SendCommand(0x80);
 286:../lib/libDaisy/src/dev/oled_ssd130x.h ****                 // Multiplex Ratio
 287:../lib/libDaisy/src/dev/oled_ssd130x.h ****                 transport_.SendCommand(0xA8);
 288:../lib/libDaisy/src/dev/oled_ssd130x.h ****                 transport_.SendCommand(0x2F);
 289:../lib/libDaisy/src/dev/oled_ssd130x.h ****                 // COM Pins
 290:../lib/libDaisy/src/dev/oled_ssd130x.h ****                 transport_.SendCommand(0xDA);
 291:../lib/libDaisy/src/dev/oled_ssd130x.h ****                 transport_.SendCommand(0x12);
 292:../lib/libDaisy/src/dev/oled_ssd130x.h ****                 break;
 293:../lib/libDaisy/src/dev/oled_ssd130x.h ****             default: // 128
 294:../lib/libDaisy/src/dev/oled_ssd130x.h ****                 // Display Clock Divide Ratio
 295:../lib/libDaisy/src/dev/oled_ssd130x.h ****                 transport_.SendCommand(0xD5);
 296:../lib/libDaisy/src/dev/oled_ssd130x.h ****                 transport_.SendCommand(0x80);
 297:../lib/libDaisy/src/dev/oled_ssd130x.h ****                 // Multiplex Ratio
 298:../lib/libDaisy/src/dev/oled_ssd130x.h ****                 transport_.SendCommand(0xA8);
 299:../lib/libDaisy/src/dev/oled_ssd130x.h ****                 transport_.SendCommand(0x3F);
 300:../lib/libDaisy/src/dev/oled_ssd130x.h ****                 // COM Pins
 301:../lib/libDaisy/src/dev/oled_ssd130x.h ****                 transport_.SendCommand(0xDA);
 302:../lib/libDaisy/src/dev/oled_ssd130x.h ****                 transport_.SendCommand(0x12);
 303:../lib/libDaisy/src/dev/oled_ssd130x.h ****                 break;
 304:../lib/libDaisy/src/dev/oled_ssd130x.h ****         }
 305:../lib/libDaisy/src/dev/oled_ssd130x.h **** 
 306:../lib/libDaisy/src/dev/oled_ssd130x.h ****         // Display Offset
ARM GAS  /var/folders/hp/45mn71hd0ps5f5pnytxy5bt00000gn/T//ccCIVO9k.s 			page 31


 307:../lib/libDaisy/src/dev/oled_ssd130x.h ****         transport_.SendCommand(0xD3);
 308:../lib/libDaisy/src/dev/oled_ssd130x.h ****         transport_.SendCommand(0x00);
 309:../lib/libDaisy/src/dev/oled_ssd130x.h ****         // Start Line Address
 310:../lib/libDaisy/src/dev/oled_ssd130x.h ****         transport_.SendCommand(0x40);
 311:../lib/libDaisy/src/dev/oled_ssd130x.h ****         // Normal Display
 312:../lib/libDaisy/src/dev/oled_ssd130x.h ****         transport_.SendCommand(0xA6);
 313:../lib/libDaisy/src/dev/oled_ssd130x.h ****         // All On Resume
 314:../lib/libDaisy/src/dev/oled_ssd130x.h ****         transport_.SendCommand(0xA4);
 315:../lib/libDaisy/src/dev/oled_ssd130x.h ****         // Charge Pump
 316:../lib/libDaisy/src/dev/oled_ssd130x.h ****         transport_.SendCommand(0x8D);
 317:../lib/libDaisy/src/dev/oled_ssd130x.h ****         transport_.SendCommand(0x14);
 318:../lib/libDaisy/src/dev/oled_ssd130x.h ****         // Set Segment Remap
 319:../lib/libDaisy/src/dev/oled_ssd130x.h ****         transport_.SendCommand(0xA1);
 320:../lib/libDaisy/src/dev/oled_ssd130x.h ****         // COM Output Scan Direction
 321:../lib/libDaisy/src/dev/oled_ssd130x.h ****         transport_.SendCommand(0xC8);
 322:../lib/libDaisy/src/dev/oled_ssd130x.h ****         // Contrast Control
 323:../lib/libDaisy/src/dev/oled_ssd130x.h ****         transport_.SendCommand(0x81);
 324:../lib/libDaisy/src/dev/oled_ssd130x.h ****         transport_.SendCommand(0x8F);
 325:../lib/libDaisy/src/dev/oled_ssd130x.h ****         // Pre Charge
 326:../lib/libDaisy/src/dev/oled_ssd130x.h ****         transport_.SendCommand(0xD9);
 327:../lib/libDaisy/src/dev/oled_ssd130x.h ****         transport_.SendCommand(0x25);
 328:../lib/libDaisy/src/dev/oled_ssd130x.h ****         // VCOM Detect
 329:../lib/libDaisy/src/dev/oled_ssd130x.h ****         transport_.SendCommand(0xDB);
 330:../lib/libDaisy/src/dev/oled_ssd130x.h ****         transport_.SendCommand(0x34);
 331:../lib/libDaisy/src/dev/oled_ssd130x.h **** 
 332:../lib/libDaisy/src/dev/oled_ssd130x.h **** 
 333:../lib/libDaisy/src/dev/oled_ssd130x.h ****         // Display On
 334:../lib/libDaisy/src/dev/oled_ssd130x.h ****         transport_.SendCommand(0xAF); //--turn on oled panel
 335:../lib/libDaisy/src/dev/oled_ssd130x.h ****     };
 336:../lib/libDaisy/src/dev/oled_ssd130x.h **** 
 337:../lib/libDaisy/src/dev/oled_ssd130x.h ****     size_t Width() const { return width; };
 338:../lib/libDaisy/src/dev/oled_ssd130x.h ****     size_t Height() const { return height; };
 339:../lib/libDaisy/src/dev/oled_ssd130x.h **** 
 340:../lib/libDaisy/src/dev/oled_ssd130x.h ****     void DrawPixel(uint_fast8_t x, uint_fast8_t y, bool on)
 341:../lib/libDaisy/src/dev/oled_ssd130x.h ****     {
 342:../lib/libDaisy/src/dev/oled_ssd130x.h ****         if(x >= width || y >= height)
 343:../lib/libDaisy/src/dev/oled_ssd130x.h ****             return;
 344:../lib/libDaisy/src/dev/oled_ssd130x.h ****         if(on)
 345:../lib/libDaisy/src/dev/oled_ssd130x.h ****             buffer_[x + (y / 8) * width] |= (1 << (y % 8));
 346:../lib/libDaisy/src/dev/oled_ssd130x.h ****         else
 347:../lib/libDaisy/src/dev/oled_ssd130x.h ****             buffer_[x + (y / 8) * width] &= ~(1 << (y % 8));
 348:../lib/libDaisy/src/dev/oled_ssd130x.h ****     }
 349:../lib/libDaisy/src/dev/oled_ssd130x.h **** 
 350:../lib/libDaisy/src/dev/oled_ssd130x.h ****     void Fill(bool on)
 272              		.loc 20 350 10 view .LVU55
 273              	.LBB943:
 351:../lib/libDaisy/src/dev/oled_ssd130x.h ****     {
 352:../lib/libDaisy/src/dev/oled_ssd130x.h ****         for(size_t i = 0; i < sizeof(buffer_); i++)
 274              		.loc 20 352 29 view .LVU56
 353:../lib/libDaisy/src/dev/oled_ssd130x.h ****         {
 354:../lib/libDaisy/src/dev/oled_ssd130x.h ****             buffer_[i] = on ? 0xff : 0x00;
 275              		.loc 20 354 24 is_stmt 0 view .LVU57
 276 0000 4942     		rsbs	r1, r1, #0
 277              	.LVL5:
 278              		.loc 20 354 24 view .LVU58
 279 0002 4FF48062 		mov	r2, #1024
 280 0006 1030     		adds	r0, r0, #16
ARM GAS  /var/folders/hp/45mn71hd0ps5f5pnytxy5bt00000gn/T//ccCIVO9k.s 			page 32


 281              	.LVL6:
 282              		.loc 20 354 24 view .LVU59
 283 0008 C9B2     		uxtb	r1, r1
 284 000a FFF7FEBF 		b	memset
 285              	.LVL7:
 286              		.loc 20 354 24 view .LVU60
 287              	.LBE943:
 288              	.LBE942:
 289              		.cfi_endproc
 290              	.LFE5370:
 292 000e 00BF     		.section	.text._ZN5daisy11OledDisplayINS_13SSD130xDriverILj128ELj64ENS_19SSD130xI2CTransportEEEED2
 293              		.align	1
 294              		.p2align 2,,3
 295              		.weak	_ZN5daisy11OledDisplayINS_13SSD130xDriverILj128ELj64ENS_19SSD130xI2CTransportEEEED2Ev
 296              		.syntax unified
 297              		.thumb
 298              		.thumb_func
 300              	_ZN5daisy11OledDisplayINS_13SSD130xDriverILj128ELj64ENS_19SSD130xI2CTransportEEEED2Ev:
 301              	.LVL8:
 302              	.LFB5654:
  18:../lib/libDaisy/src/hid/disp/oled_display.h **** 
 303              		.loc 19 18 13 is_stmt 1 view -0
 304              		.cfi_startproc
 305              		@ args = 0, pretend = 0, frame = 0
 306              		@ frame_needed = 0, uses_anonymous_args = 0
 307              		@ link register save eliminated.
 308              	.LBB944:
 309              	.LBI944:
 310              		.file 21 "../lib/libDaisy/src/hid/disp/display.h"
   1:../lib/libDaisy/src/hid/disp/display.h **** #pragma once
   2:../lib/libDaisy/src/hid/disp/display.h **** #ifndef DSY_DISPLAY_H
   3:../lib/libDaisy/src/hid/disp/display.h **** #define DSY_DISPLAY_H /**< Macro */
   4:../lib/libDaisy/src/hid/disp/display.h **** #include <cmath>
   5:../lib/libDaisy/src/hid/disp/display.h **** #include "util/oled_fonts.h"
   6:../lib/libDaisy/src/hid/disp/display.h **** #include "daisy_core.h"
   7:../lib/libDaisy/src/hid/disp/display.h **** #include "graphics_common.h"
   8:../lib/libDaisy/src/hid/disp/display.h **** 
   9:../lib/libDaisy/src/hid/disp/display.h **** #ifndef deg2rad
  10:../lib/libDaisy/src/hid/disp/display.h **** #define deg2rad(deg) ((deg)*3.141592 / 180.0)
  11:../lib/libDaisy/src/hid/disp/display.h **** #endif
  12:../lib/libDaisy/src/hid/disp/display.h **** 
  13:../lib/libDaisy/src/hid/disp/display.h **** namespace daisy
  14:../lib/libDaisy/src/hid/disp/display.h **** {
  15:../lib/libDaisy/src/hid/disp/display.h **** /** 
  16:../lib/libDaisy/src/hid/disp/display.h ****  * This interface is used as a base class for all types of 1bit-per-pixel
  17:../lib/libDaisy/src/hid/disp/display.h ****  * graphics displays.
  18:../lib/libDaisy/src/hid/disp/display.h **** */
  19:../lib/libDaisy/src/hid/disp/display.h **** class OneBitGraphicsDisplay
  20:../lib/libDaisy/src/hid/disp/display.h **** {
  21:../lib/libDaisy/src/hid/disp/display.h ****   public:
  22:../lib/libDaisy/src/hid/disp/display.h ****     OneBitGraphicsDisplay() {}
  23:../lib/libDaisy/src/hid/disp/display.h ****     virtual ~OneBitGraphicsDisplay() {}
  24:../lib/libDaisy/src/hid/disp/display.h **** 
  25:../lib/libDaisy/src/hid/disp/display.h ****     virtual uint16_t Height() const = 0;
  26:../lib/libDaisy/src/hid/disp/display.h ****     virtual uint16_t Width() const  = 0;
  27:../lib/libDaisy/src/hid/disp/display.h **** 
  28:../lib/libDaisy/src/hid/disp/display.h ****     Rectangle GetBounds() const
ARM GAS  /var/folders/hp/45mn71hd0ps5f5pnytxy5bt00000gn/T//ccCIVO9k.s 			page 33


  29:../lib/libDaisy/src/hid/disp/display.h ****     {
  30:../lib/libDaisy/src/hid/disp/display.h ****         return Rectangle(int16_t(Width()), int16_t(Height()));
  31:../lib/libDaisy/src/hid/disp/display.h ****     }
  32:../lib/libDaisy/src/hid/disp/display.h **** 
  33:../lib/libDaisy/src/hid/disp/display.h **** 
  34:../lib/libDaisy/src/hid/disp/display.h ****     size_t CurrentX() { return currentX_; };
  35:../lib/libDaisy/src/hid/disp/display.h ****     size_t CurrentY() { return currentY_; };
  36:../lib/libDaisy/src/hid/disp/display.h **** 
  37:../lib/libDaisy/src/hid/disp/display.h ****     /** 
  38:../lib/libDaisy/src/hid/disp/display.h ****     Fills the entire display with either on/off.
  39:../lib/libDaisy/src/hid/disp/display.h ****     \param on Sets on or off.
  40:../lib/libDaisy/src/hid/disp/display.h ****     */
  41:../lib/libDaisy/src/hid/disp/display.h ****     virtual void Fill(bool on) = 0;
  42:../lib/libDaisy/src/hid/disp/display.h **** 
  43:../lib/libDaisy/src/hid/disp/display.h ****     /**
  44:../lib/libDaisy/src/hid/disp/display.h ****     Sets the pixel at the specified coordinate to be on/off.
  45:../lib/libDaisy/src/hid/disp/display.h ****     \param x   x Coordinate
  46:../lib/libDaisy/src/hid/disp/display.h ****     \param y   y coordinate
  47:../lib/libDaisy/src/hid/disp/display.h ****     \param on  on or off
  48:../lib/libDaisy/src/hid/disp/display.h ****     */
  49:../lib/libDaisy/src/hid/disp/display.h ****     virtual void DrawPixel(uint_fast8_t x, uint_fast8_t y, bool on) = 0;
  50:../lib/libDaisy/src/hid/disp/display.h **** 
  51:../lib/libDaisy/src/hid/disp/display.h ****     /**
  52:../lib/libDaisy/src/hid/disp/display.h ****     Draws a line from (x1, y1) to (y1, y2)
  53:../lib/libDaisy/src/hid/disp/display.h ****     \param x1  x Coordinate of the starting point
  54:../lib/libDaisy/src/hid/disp/display.h ****     \param y1  y Coordinate of the starting point
  55:../lib/libDaisy/src/hid/disp/display.h ****     \param x2  x Coordinate of the ending point
  56:../lib/libDaisy/src/hid/disp/display.h ****     \param y2  y Coordinate of the ending point
  57:../lib/libDaisy/src/hid/disp/display.h ****     \param on  on or off
  58:../lib/libDaisy/src/hid/disp/display.h ****     */
  59:../lib/libDaisy/src/hid/disp/display.h ****     virtual void DrawLine(uint_fast8_t x1,
  60:../lib/libDaisy/src/hid/disp/display.h ****                           uint_fast8_t y1,
  61:../lib/libDaisy/src/hid/disp/display.h ****                           uint_fast8_t x2,
  62:../lib/libDaisy/src/hid/disp/display.h ****                           uint_fast8_t y2,
  63:../lib/libDaisy/src/hid/disp/display.h ****                           bool         on)
  64:../lib/libDaisy/src/hid/disp/display.h ****         = 0;
  65:../lib/libDaisy/src/hid/disp/display.h **** 
  66:../lib/libDaisy/src/hid/disp/display.h ****     /**
  67:../lib/libDaisy/src/hid/disp/display.h ****     Draws a rectangle based on two coordinates.
  68:../lib/libDaisy/src/hid/disp/display.h ****     \param x1 x Coordinate of the first point
  69:../lib/libDaisy/src/hid/disp/display.h ****     \param y1 y Coordinate of the first point
  70:../lib/libDaisy/src/hid/disp/display.h ****     \param x2 x Coordinate of the second point
  71:../lib/libDaisy/src/hid/disp/display.h ****     \param y2 y Coordinate of the second point
  72:../lib/libDaisy/src/hid/disp/display.h ****     \param on on or off
  73:../lib/libDaisy/src/hid/disp/display.h ****     \param fill fill the rectangle or draw only the outline
  74:../lib/libDaisy/src/hid/disp/display.h ****     */
  75:../lib/libDaisy/src/hid/disp/display.h ****     virtual void DrawRect(uint_fast8_t x1,
  76:../lib/libDaisy/src/hid/disp/display.h ****                           uint_fast8_t y1,
  77:../lib/libDaisy/src/hid/disp/display.h ****                           uint_fast8_t x2,
  78:../lib/libDaisy/src/hid/disp/display.h ****                           uint_fast8_t y2,
  79:../lib/libDaisy/src/hid/disp/display.h ****                           bool         on,
  80:../lib/libDaisy/src/hid/disp/display.h ****                           bool         fill = false)
  81:../lib/libDaisy/src/hid/disp/display.h ****         = 0;
  82:../lib/libDaisy/src/hid/disp/display.h **** 
  83:../lib/libDaisy/src/hid/disp/display.h ****     /**
  84:../lib/libDaisy/src/hid/disp/display.h ****     Draws a rectangle.
  85:../lib/libDaisy/src/hid/disp/display.h ****     \param rect the rectangle
ARM GAS  /var/folders/hp/45mn71hd0ps5f5pnytxy5bt00000gn/T//ccCIVO9k.s 			page 34


  86:../lib/libDaisy/src/hid/disp/display.h ****     \param on   on or off
  87:../lib/libDaisy/src/hid/disp/display.h ****     \param fill fill the rectangle or draw only the outline
  88:../lib/libDaisy/src/hid/disp/display.h ****     */
  89:../lib/libDaisy/src/hid/disp/display.h ****     void DrawRect(const Rectangle& rect, bool on, bool fill = false)
  90:../lib/libDaisy/src/hid/disp/display.h ****     {
  91:../lib/libDaisy/src/hid/disp/display.h ****         DrawRect(rect.GetX(),
  92:../lib/libDaisy/src/hid/disp/display.h ****                  rect.GetY(),
  93:../lib/libDaisy/src/hid/disp/display.h ****                  rect.GetRight(),
  94:../lib/libDaisy/src/hid/disp/display.h ****                  rect.GetBottom(),
  95:../lib/libDaisy/src/hid/disp/display.h ****                  on,
  96:../lib/libDaisy/src/hid/disp/display.h ****                  fill);
  97:../lib/libDaisy/src/hid/disp/display.h ****     }
  98:../lib/libDaisy/src/hid/disp/display.h **** 
  99:../lib/libDaisy/src/hid/disp/display.h ****     /**
 100:../lib/libDaisy/src/hid/disp/display.h ****     Draws an arc around the specified coordinate
 101:../lib/libDaisy/src/hid/disp/display.h ****     \param x           x Coordinate of the center of the arc
 102:../lib/libDaisy/src/hid/disp/display.h ****     \param y           y Coordinate of the center of the arc
 103:../lib/libDaisy/src/hid/disp/display.h ****     \param radius      radius of the arc
 104:../lib/libDaisy/src/hid/disp/display.h ****     \param start_angle angle where to start the arc
 105:../lib/libDaisy/src/hid/disp/display.h ****     \param sweep       total angle of the arc
 106:../lib/libDaisy/src/hid/disp/display.h ****     \param on  on or off
 107:../lib/libDaisy/src/hid/disp/display.h ****     */
 108:../lib/libDaisy/src/hid/disp/display.h ****     virtual void DrawArc(uint_fast8_t x,
 109:../lib/libDaisy/src/hid/disp/display.h ****                          uint_fast8_t y,
 110:../lib/libDaisy/src/hid/disp/display.h ****                          uint_fast8_t radius,
 111:../lib/libDaisy/src/hid/disp/display.h ****                          int_fast16_t start_angle,
 112:../lib/libDaisy/src/hid/disp/display.h ****                          int_fast16_t sweep,
 113:../lib/libDaisy/src/hid/disp/display.h ****                          bool         on)
 114:../lib/libDaisy/src/hid/disp/display.h ****         = 0;
 115:../lib/libDaisy/src/hid/disp/display.h **** 
 116:../lib/libDaisy/src/hid/disp/display.h ****     /**
 117:../lib/libDaisy/src/hid/disp/display.h ****     Draws a circle around the specified coordinate
 118:../lib/libDaisy/src/hid/disp/display.h ****     \param x           x Coordinate of the center of the circle
 119:../lib/libDaisy/src/hid/disp/display.h ****     \param y           y Coordinate of the center of the circle
 120:../lib/libDaisy/src/hid/disp/display.h ****     \param radius      radius of the circle
 121:../lib/libDaisy/src/hid/disp/display.h ****     \param on  on or off
 122:../lib/libDaisy/src/hid/disp/display.h ****     */
 123:../lib/libDaisy/src/hid/disp/display.h ****     void
 124:../lib/libDaisy/src/hid/disp/display.h ****     DrawCircle(uint_fast8_t x, uint_fast8_t y, uint_fast8_t radius, bool on)
 125:../lib/libDaisy/src/hid/disp/display.h ****     {
 126:../lib/libDaisy/src/hid/disp/display.h ****         DrawArc(x, y, radius, 0, 360, on);
 127:../lib/libDaisy/src/hid/disp/display.h ****     };
 128:../lib/libDaisy/src/hid/disp/display.h **** 
 129:../lib/libDaisy/src/hid/disp/display.h ****     /** 
 130:../lib/libDaisy/src/hid/disp/display.h ****     Writes the character with the specific FontDef
 131:../lib/libDaisy/src/hid/disp/display.h ****     to the display buffer at the current Cursor position.
 132:../lib/libDaisy/src/hid/disp/display.h ****     \param ch character to be written
 133:../lib/libDaisy/src/hid/disp/display.h ****     \param font font to be written in
 134:../lib/libDaisy/src/hid/disp/display.h ****     \param on    on or off
 135:../lib/libDaisy/src/hid/disp/display.h ****     \return &
 136:../lib/libDaisy/src/hid/disp/display.h ****     */
 137:../lib/libDaisy/src/hid/disp/display.h ****     virtual char WriteChar(char ch, FontDef font, bool on) = 0;
 138:../lib/libDaisy/src/hid/disp/display.h **** 
 139:../lib/libDaisy/src/hid/disp/display.h ****     /** 
 140:../lib/libDaisy/src/hid/disp/display.h ****     Similar to WriteChar, except it will handle an entire String.
 141:../lib/libDaisy/src/hid/disp/display.h ****     Wrapping does not happen automatically, so the width
 142:../lib/libDaisy/src/hid/disp/display.h ****     of the string must be kept within the dimensions of the screen.
ARM GAS  /var/folders/hp/45mn71hd0ps5f5pnytxy5bt00000gn/T//ccCIVO9k.s 			page 35


 143:../lib/libDaisy/src/hid/disp/display.h ****     \param str string to be written
 144:../lib/libDaisy/src/hid/disp/display.h ****     \param font font to use
 145:../lib/libDaisy/src/hid/disp/display.h ****     \param on  on or off
 146:../lib/libDaisy/src/hid/disp/display.h ****     \return &
 147:../lib/libDaisy/src/hid/disp/display.h ****     */
 148:../lib/libDaisy/src/hid/disp/display.h ****     virtual char WriteString(const char* str, FontDef font, bool on) = 0;
 149:../lib/libDaisy/src/hid/disp/display.h **** 
 150:../lib/libDaisy/src/hid/disp/display.h ****     /** 
 151:../lib/libDaisy/src/hid/disp/display.h ****     Similar to WriteString but justified within a bounding box.
 152:../lib/libDaisy/src/hid/disp/display.h ****     \param str          string to be written
 153:../lib/libDaisy/src/hid/disp/display.h ****     \param font         font to use
 154:../lib/libDaisy/src/hid/disp/display.h ****     \param boundingBox  the bounding box to draw the text in
 155:../lib/libDaisy/src/hid/disp/display.h ****     \param alignment    the alignment to use
 156:../lib/libDaisy/src/hid/disp/display.h ****     \param on           on or off
 157:../lib/libDaisy/src/hid/disp/display.h ****     \return The rectangle that was drawn to
 158:../lib/libDaisy/src/hid/disp/display.h ****     */
 159:../lib/libDaisy/src/hid/disp/display.h ****     virtual Rectangle WriteStringAligned(const char*    str,
 160:../lib/libDaisy/src/hid/disp/display.h ****                                          const FontDef& font,
 161:../lib/libDaisy/src/hid/disp/display.h ****                                          Rectangle      boundingBox,
 162:../lib/libDaisy/src/hid/disp/display.h ****                                          Alignment      alignment,
 163:../lib/libDaisy/src/hid/disp/display.h ****                                          bool           on)
 164:../lib/libDaisy/src/hid/disp/display.h ****         = 0;
 165:../lib/libDaisy/src/hid/disp/display.h **** 
 166:../lib/libDaisy/src/hid/disp/display.h ****     /** 
 167:../lib/libDaisy/src/hid/disp/display.h ****     Moves the 'Cursor' position used for WriteChar, and WriteStr to the specified coordinate.
 168:../lib/libDaisy/src/hid/disp/display.h ****     \param x x pos
 169:../lib/libDaisy/src/hid/disp/display.h ****     \param y y pos
 170:../lib/libDaisy/src/hid/disp/display.h ****     */
 171:../lib/libDaisy/src/hid/disp/display.h ****     void SetCursor(uint16_t x, uint16_t y)
 172:../lib/libDaisy/src/hid/disp/display.h ****     {
 173:../lib/libDaisy/src/hid/disp/display.h ****         currentX_ = (x >= Width()) ? Width() - 1 : x;
 174:../lib/libDaisy/src/hid/disp/display.h ****         currentY_ = (y >= Height()) ? Height() - 1 : y;
 175:../lib/libDaisy/src/hid/disp/display.h ****     }
 176:../lib/libDaisy/src/hid/disp/display.h **** 
 177:../lib/libDaisy/src/hid/disp/display.h ****     /** 
 178:../lib/libDaisy/src/hid/disp/display.h ****     Writes the current display buffer to the OLED device using SPI or I2C depending on 
 179:../lib/libDaisy/src/hid/disp/display.h ****     how the object was initialized.
 180:../lib/libDaisy/src/hid/disp/display.h ****     */
 181:../lib/libDaisy/src/hid/disp/display.h ****     virtual void Update() = 0;
 182:../lib/libDaisy/src/hid/disp/display.h **** 
 183:../lib/libDaisy/src/hid/disp/display.h ****   protected:
 184:../lib/libDaisy/src/hid/disp/display.h ****     uint16_t currentX_;
 185:../lib/libDaisy/src/hid/disp/display.h ****     uint16_t currentY_;
 186:../lib/libDaisy/src/hid/disp/display.h **** };
 187:../lib/libDaisy/src/hid/disp/display.h **** 
 188:../lib/libDaisy/src/hid/disp/display.h **** /** This class is intended as a intermediary class for your actual implementation of the OneBitGrap
 189:../lib/libDaisy/src/hid/disp/display.h ****  *  interface. It uses the CRTP design pattern where the template argument is the child class. It p
 190:../lib/libDaisy/src/hid/disp/display.h ****  *  implementations for most of the functions, except DrawPixel(), Update() and Fill(), which you'l
 191:../lib/libDaisy/src/hid/disp/display.h ****  *  to provide in your child class.
 192:../lib/libDaisy/src/hid/disp/display.h ****  *  The main goal of this class is to provide common drawing functions without relying on massive a
 193:../lib/libDaisy/src/hid/disp/display.h ****  *  virtual function calls that would result in a performance loss. To achieve this, any drawing fu
 194:../lib/libDaisy/src/hid/disp/display.h ****  *  is implemented here and internally calls other drawing functions (e.g. DrawRect() which interna
 195:../lib/libDaisy/src/hid/disp/display.h ****  *  DrawPixel() and DrawLine()) makes these calls via the qualified name of these functions to expl
 196:../lib/libDaisy/src/hid/disp/display.h ****  *  suppress the virtual dispatch mechanism like this:
 197:../lib/libDaisy/src/hid/disp/display.h ****  * 
 198:../lib/libDaisy/src/hid/disp/display.h ****  *      ChildType::DrawPixel(...); // no virtual function call; direct call into the child class fu
 199:../lib/libDaisy/src/hid/disp/display.h ****  *  
ARM GAS  /var/folders/hp/45mn71hd0ps5f5pnytxy5bt00000gn/T//ccCIVO9k.s 			page 36


 200:../lib/libDaisy/src/hid/disp/display.h ****  *  To create a custom OneBitGraphicsDisplay implementation, you can 
 201:../lib/libDaisy/src/hid/disp/display.h ****  *  A) inherit from OneBitGraphicsDisplay directly and provide all the drawing functions yourself
 202:../lib/libDaisy/src/hid/disp/display.h ****  *  B) Inherit from OneBitGraphicsDisplayImpl and only provide DrawPixel(), Fill() and Update()
 203:../lib/libDaisy/src/hid/disp/display.h ****  *     like this:
 204:../lib/libDaisy/src/hid/disp/display.h ****  *  
 205:../lib/libDaisy/src/hid/disp/display.h ****  *      class MyDisplayClass : public OneBitGraphicsDisplayImpl<MyDisplayClass> 
 206:../lib/libDaisy/src/hid/disp/display.h ****  *      {
 207:../lib/libDaisy/src/hid/disp/display.h ****  *      public:
 208:../lib/libDaisy/src/hid/disp/display.h ****  *          void Fill() override { ... };
 209:../lib/libDaisy/src/hid/disp/display.h ****  *          void DrawPixel(uint_fast8_t x, uint_fast8_t y, bool on) override { ... };
 210:../lib/libDaisy/src/hid/disp/display.h ****  *          void Update() override { ... }
 211:../lib/libDaisy/src/hid/disp/display.h ****  *      };
 212:../lib/libDaisy/src/hid/disp/display.h ****  *  
 213:../lib/libDaisy/src/hid/disp/display.h ****  */
 214:../lib/libDaisy/src/hid/disp/display.h **** template <class ChildType>
 215:../lib/libDaisy/src/hid/disp/display.h **** class OneBitGraphicsDisplayImpl : public OneBitGraphicsDisplay
 216:../lib/libDaisy/src/hid/disp/display.h **** {
 217:../lib/libDaisy/src/hid/disp/display.h ****   public:
 218:../lib/libDaisy/src/hid/disp/display.h ****     OneBitGraphicsDisplayImpl() {}
 219:../lib/libDaisy/src/hid/disp/display.h ****     virtual ~OneBitGraphicsDisplayImpl() {}
 311              		.loc 21 219 13 view .LVU62
 312              	.LBB945:
 313              	.LBI945:
  23:../lib/libDaisy/src/hid/disp/display.h **** 
 314              		.loc 21 23 13 view .LVU63
  23:../lib/libDaisy/src/hid/disp/display.h **** 
 315              		.loc 21 23 13 is_stmt 0 view .LVU64
 316              	.LBE945:
 317              	.LBE944:
  18:../lib/libDaisy/src/hid/disp/oled_display.h **** 
 318              		.loc 19 18 29 view .LVU65
 319 0000 7047     		bx	lr
 320              		.cfi_endproc
 321              	.LFE5654:
 323              		.weak	_ZN5daisy11OledDisplayINS_13SSD130xDriverILj128ELj64ENS_19SSD130xI2CTransportEEEED1Ev
 324              		.thumb_set _ZN5daisy11OledDisplayINS_13SSD130xDriverILj128ELj64ENS_19SSD130xI2CTransportEEEED1Ev,_
 325 0002 00BF     		.section	.text._ZNK5daisy11OledDisplayINS_13SSD130xDriverILj128ELj64ENS_19SSD130xI2CTransportEEEE6
 326              		.align	1
 327              		.p2align 2,,3
 328              		.weak	_ZNK5daisy11OledDisplayINS_13SSD130xDriverILj128ELj64ENS_19SSD130xI2CTransportEEEE6HeightEv
 329              		.syntax unified
 330              		.thumb
 331              		.thumb_func
 333              	_ZNK5daisy11OledDisplayINS_13SSD130xDriverILj128ELj64ENS_19SSD130xI2CTransportEEEE6HeightEv:
 334              	.LVL9:
 335              	.LFB5657:
  27:../lib/libDaisy/src/hid/disp/oled_display.h ****     uint16_t Width() const override { return driver_.Width(); }
 336              		.loc 19 27 14 is_stmt 1 view -0
 337              		.cfi_startproc
 338              		@ args = 0, pretend = 0, frame = 0
 339              		@ frame_needed = 0, uses_anonymous_args = 0
 340              		@ link register save eliminated.
  27:../lib/libDaisy/src/hid/disp/oled_display.h ****     uint16_t Width() const override { return driver_.Width(); }
 341              		.loc 19 27 65 is_stmt 0 view .LVU67
 342 0000 4020     		movs	r0, #64
 343              	.LVL10:
  27:../lib/libDaisy/src/hid/disp/oled_display.h ****     uint16_t Width() const override { return driver_.Width(); }
ARM GAS  /var/folders/hp/45mn71hd0ps5f5pnytxy5bt00000gn/T//ccCIVO9k.s 			page 37


 344              		.loc 19 27 65 view .LVU68
 345 0002 7047     		bx	lr
 346              		.cfi_endproc
 347              	.LFE5657:
 349              		.section	.text._ZNK5daisy11OledDisplayINS_13SSD130xDriverILj128ELj64ENS_19SSD130xI2CTransportEEEE5
 350              		.align	1
 351              		.p2align 2,,3
 352              		.weak	_ZNK5daisy11OledDisplayINS_13SSD130xDriverILj128ELj64ENS_19SSD130xI2CTransportEEEE5WidthEv
 353              		.syntax unified
 354              		.thumb
 355              		.thumb_func
 357              	_ZNK5daisy11OledDisplayINS_13SSD130xDriverILj128ELj64ENS_19SSD130xI2CTransportEEEE5WidthEv:
 358              	.LVL11:
 359              	.LFB5658:
  28:../lib/libDaisy/src/hid/disp/oled_display.h **** 
 360              		.loc 19 28 14 is_stmt 1 view -0
 361              		.cfi_startproc
 362              		@ args = 0, pretend = 0, frame = 0
 363              		@ frame_needed = 0, uses_anonymous_args = 0
 364              		@ link register save eliminated.
  28:../lib/libDaisy/src/hid/disp/oled_display.h **** 
 365              		.loc 19 28 63 is_stmt 0 view .LVU70
 366 0000 8020     		movs	r0, #128
 367              	.LVL12:
  28:../lib/libDaisy/src/hid/disp/oled_display.h **** 
 368              		.loc 19 28 63 view .LVU71
 369 0002 7047     		bx	lr
 370              		.cfi_endproc
 371              	.LFE5658:
 373              		.section	.text._ZN5daisy11MidiHandlerINS_16MidiUsbTransportEED2Ev,"axG",%progbits,_ZN5daisy11MidiH
 374              		.align	1
 375              		.p2align 2,,3
 376              		.weak	_ZN5daisy11MidiHandlerINS_16MidiUsbTransportEED2Ev
 377              		.syntax unified
 378              		.thumb
 379              		.thumb_func
 381              	_ZN5daisy11MidiHandlerINS_16MidiUsbTransportEED2Ev:
 382              	.LVL13:
 383              	.LFB5664:
 384              		.loc 4 156 5 is_stmt 1 view -0
 385              		.cfi_startproc
 386              		@ args = 0, pretend = 0, frame = 0
 387              		@ frame_needed = 0, uses_anonymous_args = 0
 388              		@ link register save eliminated.
 389              	.LBB946:
 390              	.LBI946:
 391              		.loc 5 298 7 view .LVU73
 392              	.LBB947:
 393              	.LBI947:
  42:../lib/libDaisy/src/util/FIFO.h **** 
 394              		.loc 5 42 5 view .LVU74
  42:../lib/libDaisy/src/util/FIFO.h **** 
 395              		.loc 5 42 5 is_stmt 0 view .LVU75
 396              	.LBE947:
 397              	.LBE946:
 398              	.LBB948:
 399              	.LBI948:
ARM GAS  /var/folders/hp/45mn71hd0ps5f5pnytxy5bt00000gn/T//ccCIVO9k.s 			page 38


 400              		.loc 6 19 5 is_stmt 1 view .LVU76
 401              		.loc 6 19 5 is_stmt 0 view .LVU77
 402              	.LBE948:
 403              	.LBB949:
 404              	.LBI949:
 405              		.file 22 "../lib/libDaisy/src/hid/usb_midi.h"
   1:../lib/libDaisy/src/hid/usb_midi.h **** #pragma once
   2:../lib/libDaisy/src/hid/usb_midi.h **** #ifndef __DSY_MIDIUSBTRANSPORT_H__
   3:../lib/libDaisy/src/hid/usb_midi.h **** #define __DSY_MIDIUSBTRANSPORT_H__
   4:../lib/libDaisy/src/hid/usb_midi.h **** 
   5:../lib/libDaisy/src/hid/usb_midi.h **** #include "hid/usb.h"
   6:../lib/libDaisy/src/hid/usb_midi.h **** #include "sys/system.h"
   7:../lib/libDaisy/src/hid/usb_midi.h **** #include "util/ringbuffer.h"
   8:../lib/libDaisy/src/hid/usb_midi.h **** 
   9:../lib/libDaisy/src/hid/usb_midi.h **** namespace daisy
  10:../lib/libDaisy/src/hid/usb_midi.h **** {
  11:../lib/libDaisy/src/hid/usb_midi.h **** /** @brief USB Transport for MIDI
  12:../lib/libDaisy/src/hid/usb_midi.h ****  *  @ingroup midi
  13:../lib/libDaisy/src/hid/usb_midi.h ****  */
  14:../lib/libDaisy/src/hid/usb_midi.h **** class MidiUsbTransport
  15:../lib/libDaisy/src/hid/usb_midi.h **** {
  16:../lib/libDaisy/src/hid/usb_midi.h ****   public:
  17:../lib/libDaisy/src/hid/usb_midi.h ****     typedef void (*MidiRxParseCallback)(uint8_t* data,
  18:../lib/libDaisy/src/hid/usb_midi.h ****                                         size_t   size,
  19:../lib/libDaisy/src/hid/usb_midi.h ****                                         void*    context);
  20:../lib/libDaisy/src/hid/usb_midi.h **** 
  21:../lib/libDaisy/src/hid/usb_midi.h ****     struct Config
  22:../lib/libDaisy/src/hid/usb_midi.h ****     {
  23:../lib/libDaisy/src/hid/usb_midi.h ****         enum Periph
  24:../lib/libDaisy/src/hid/usb_midi.h ****         {
  25:../lib/libDaisy/src/hid/usb_midi.h ****             INTERNAL = 0,
  26:../lib/libDaisy/src/hid/usb_midi.h ****             EXTERNAL,
  27:../lib/libDaisy/src/hid/usb_midi.h ****             HOST
  28:../lib/libDaisy/src/hid/usb_midi.h ****         };
  29:../lib/libDaisy/src/hid/usb_midi.h **** 
  30:../lib/libDaisy/src/hid/usb_midi.h ****         Periph periph;
  31:../lib/libDaisy/src/hid/usb_midi.h **** 
  32:../lib/libDaisy/src/hid/usb_midi.h ****         /**
  33:../lib/libDaisy/src/hid/usb_midi.h ****          * When sending MIDI messages immediately back-to-back in user code,
  34:../lib/libDaisy/src/hid/usb_midi.h ****          * sometimes the USB CDC driver is still "busy".
  35:../lib/libDaisy/src/hid/usb_midi.h ****          *
  36:../lib/libDaisy/src/hid/usb_midi.h ****          * This option configures the number of times to retry a Tx after
  37:../lib/libDaisy/src/hid/usb_midi.h ****          * delaying for 100 microseconds (default = 3 retries).
  38:../lib/libDaisy/src/hid/usb_midi.h ****          *
  39:../lib/libDaisy/src/hid/usb_midi.h ****          * If you set this to zero, Tx will not retry so the attempt will block
  40:../lib/libDaisy/src/hid/usb_midi.h ****          * for slightly less time, but transmit can fail if the Tx state is busy.
  41:../lib/libDaisy/src/hid/usb_midi.h ****          */
  42:../lib/libDaisy/src/hid/usb_midi.h ****         uint8_t tx_retry_count;
  43:../lib/libDaisy/src/hid/usb_midi.h **** 
  44:../lib/libDaisy/src/hid/usb_midi.h ****         Config() : periph(INTERNAL), tx_retry_count(3) {}
  45:../lib/libDaisy/src/hid/usb_midi.h ****     };
  46:../lib/libDaisy/src/hid/usb_midi.h **** 
  47:../lib/libDaisy/src/hid/usb_midi.h ****     void Init(Config config);
  48:../lib/libDaisy/src/hid/usb_midi.h **** 
  49:../lib/libDaisy/src/hid/usb_midi.h ****     void StartRx(MidiRxParseCallback callback, void* context);
  50:../lib/libDaisy/src/hid/usb_midi.h ****     bool RxActive();
  51:../lib/libDaisy/src/hid/usb_midi.h ****     void FlushRx();
ARM GAS  /var/folders/hp/45mn71hd0ps5f5pnytxy5bt00000gn/T//ccCIVO9k.s 			page 39


  52:../lib/libDaisy/src/hid/usb_midi.h ****     void Tx(uint8_t* buffer, size_t size);
  53:../lib/libDaisy/src/hid/usb_midi.h **** 
  54:../lib/libDaisy/src/hid/usb_midi.h ****     class Impl;
  55:../lib/libDaisy/src/hid/usb_midi.h **** 
  56:../lib/libDaisy/src/hid/usb_midi.h ****     MidiUsbTransport() : pimpl_(nullptr) {}
  57:../lib/libDaisy/src/hid/usb_midi.h ****     ~MidiUsbTransport() {}
 406              		.loc 22 57 5 is_stmt 1 view .LVU78
 407              		.loc 22 57 5 is_stmt 0 view .LVU79
 408              	.LBE949:
 409              		.loc 4 156 21 view .LVU80
 410 0000 7047     		bx	lr
 411              		.cfi_endproc
 412              	.LFE5664:
 414              		.weak	_ZN5daisy11MidiHandlerINS_16MidiUsbTransportEED1Ev
 415              		.thumb_set _ZN5daisy11MidiHandlerINS_16MidiUsbTransportEED1Ev,_ZN5daisy11MidiHandlerINS_16MidiUsbT
 416 0002 00BF     		.section	.text._ZL13AudioCallbackPKfPfj,"ax",%progbits
 417              		.align	1
 418              		.p2align 2,,3
 419              		.syntax unified
 420              		.thumb
 421              		.thumb_func
 423              	_ZL13AudioCallbackPKfPfj:
 424              	.LVL14:
 425              	.LFB5027:
 426              		.file 23 "SynthV8.cpp"
   1:SynthV8.cpp   **** #include <stdio.h>
   2:SynthV8.cpp   **** #include <string.h>
   3:SynthV8.cpp   **** #include "daisy_pod.h"
   4:SynthV8.cpp   **** #include "daisysp.h"
   5:SynthV8.cpp   **** #include "dev/oled_ssd130x.h"
   6:SynthV8.cpp   **** 
   7:SynthV8.cpp   **** using namespace daisy;
   8:SynthV8.cpp   **** using namespace daisysp;
   9:SynthV8.cpp   **** using MyOledDisplay = OledDisplay<SSD130xI2c128x64Driver>;
  10:SynthV8.cpp   **** 
  11:SynthV8.cpp   **** static DaisyPod hw;
  12:SynthV8.cpp   **** static MyOledDisplay display;
  13:SynthV8.cpp   **** static Oscillator osc;
  14:SynthV8.cpp   **** static AdEnv ad;
  15:SynthV8.cpp   **** static Parameter p_release;
  16:SynthV8.cpp   **** static MidiUsbHandler midi;
  17:SynthV8.cpp   **** static Parameter tuning;
  18:SynthV8.cpp   **** static CpuLoadMeter cpu_meter;
  19:SynthV8.cpp   **** 
  20:SynthV8.cpp   **** static float volChange;
  21:SynthV8.cpp   **** static float inc;
  22:SynthV8.cpp   **** float adRelease;
  23:SynthV8.cpp   **** float midiFreq;
  24:SynthV8.cpp   **** float totalFreq;
  25:SynthV8.cpp   **** bool adCycle;
  26:SynthV8.cpp   **** bool isCpuEnabled;
  27:SynthV8.cpp   **** 
  28:SynthV8.cpp   **** void DisplayView();
  29:SynthV8.cpp   **** 
  30:SynthV8.cpp   **** static void AudioCallback(AudioHandle::InterleavingInputBuffer  in,
  31:SynthV8.cpp   ****                           AudioHandle::InterleavingOutputBuffer out,
  32:SynthV8.cpp   ****                           size_t                                size)
ARM GAS  /var/folders/hp/45mn71hd0ps5f5pnytxy5bt00000gn/T//ccCIVO9k.s 			page 40


  33:SynthV8.cpp   **** {
 427              		.loc 23 33 1 is_stmt 1 view -0
 428              		.cfi_startproc
 429              		@ args = 0, pretend = 0, frame = 0
 430              		@ frame_needed = 0, uses_anonymous_args = 0
  34:SynthV8.cpp   ****     cpu_meter.OnBlockStart();
 431              		.loc 23 34 5 view .LVU82
 432              	.LBB973:
 433              	.LBI973:
 434              		.file 24 "../lib/libDaisy/src/util/CpuLoadMeter.h"
   1:../lib/libDaisy/src/util/CpuLoadMeter.h **** #pragma once
   2:../lib/libDaisy/src/util/CpuLoadMeter.h **** 
   3:../lib/libDaisy/src/util/CpuLoadMeter.h **** #include "sys/system.h"
   4:../lib/libDaisy/src/util/CpuLoadMeter.h **** #include <cmath>
   5:../lib/libDaisy/src/util/CpuLoadMeter.h **** 
   6:../lib/libDaisy/src/util/CpuLoadMeter.h **** namespace daisy
   7:../lib/libDaisy/src/util/CpuLoadMeter.h **** {
   8:../lib/libDaisy/src/util/CpuLoadMeter.h **** /** @brief CPU load metering
   9:../lib/libDaisy/src/util/CpuLoadMeter.h ****  *  @author jelliesen
  10:../lib/libDaisy/src/util/CpuLoadMeter.h ****  *  @addtogroup utility
  11:../lib/libDaisy/src/util/CpuLoadMeter.h ****  * 
  12:../lib/libDaisy/src/util/CpuLoadMeter.h ****  *  To measure the CPU load of your audio processing, create a CpuLoadMeter
  13:../lib/libDaisy/src/util/CpuLoadMeter.h ****  *  and initialize it with your block size and sample rate.
  14:../lib/libDaisy/src/util/CpuLoadMeter.h ****  *  Then at the beginning of the audio callback, call `OnBlockStart()`, 
  15:../lib/libDaisy/src/util/CpuLoadMeter.h ****  *  and at the end of the audio callback, call `OnBlockEnd()`.
  16:../lib/libDaisy/src/util/CpuLoadMeter.h ****  *  You can then read out the minimum, maximum and average CPU load.
  17:../lib/libDaisy/src/util/CpuLoadMeter.h ****  */
  18:../lib/libDaisy/src/util/CpuLoadMeter.h **** class CpuLoadMeter
  19:../lib/libDaisy/src/util/CpuLoadMeter.h **** {
  20:../lib/libDaisy/src/util/CpuLoadMeter.h ****   public:
  21:../lib/libDaisy/src/util/CpuLoadMeter.h ****     CpuLoadMeter(){};
  22:../lib/libDaisy/src/util/CpuLoadMeter.h **** 
  23:../lib/libDaisy/src/util/CpuLoadMeter.h ****     /** Initializes the CpuLoadMeter for a particular sample rate and block size.
  24:../lib/libDaisy/src/util/CpuLoadMeter.h ****      *  @param sampleRateInHz           The sample rate in Hz
  25:../lib/libDaisy/src/util/CpuLoadMeter.h ****      *  @param blockSizeInSamples       The block size in samples
  26:../lib/libDaisy/src/util/CpuLoadMeter.h ****      *  @param smoothingFilterCutoffHz  The cutoff frequency of the smoothing filter that's used to
  27:../lib/libDaisy/src/util/CpuLoadMeter.h ****      *                                  create the average CPU load reading.
  28:../lib/libDaisy/src/util/CpuLoadMeter.h ****      */
  29:../lib/libDaisy/src/util/CpuLoadMeter.h ****     void Init(float sampleRateInHz,
  30:../lib/libDaisy/src/util/CpuLoadMeter.h ****               int   blockSizeInSamples,
  31:../lib/libDaisy/src/util/CpuLoadMeter.h ****               float smoothingFilterCutoffHz = 1.0f)
  32:../lib/libDaisy/src/util/CpuLoadMeter.h ****     {
  33:../lib/libDaisy/src/util/CpuLoadMeter.h ****         const auto secPerBlock = float(blockSizeInSamples) / sampleRateInHz;
  34:../lib/libDaisy/src/util/CpuLoadMeter.h ****         const auto ticksPerS   = float(System::GetTickFreq());
  35:../lib/libDaisy/src/util/CpuLoadMeter.h ****         ticksPerBlockInv_      = 1.0f / (ticksPerS * secPerBlock);
  36:../lib/libDaisy/src/util/CpuLoadMeter.h **** 
  37:../lib/libDaisy/src/util/CpuLoadMeter.h ****         // update filter coefficient for smoothing filter (1pole lowpass)
  38:../lib/libDaisy/src/util/CpuLoadMeter.h ****         const auto blockRateInHz = sampleRateInHz / float(blockSizeInSamples);
  39:../lib/libDaisy/src/util/CpuLoadMeter.h ****         const auto cutoffNormalized
  40:../lib/libDaisy/src/util/CpuLoadMeter.h ****             = smoothingFilterCutoffHz * 2.0f * 3.141592653f / blockRateInHz;
  41:../lib/libDaisy/src/util/CpuLoadMeter.h ****         // according to
  42:../lib/libDaisy/src/util/CpuLoadMeter.h ****         // https://en.wikipedia.org/wiki/Low-pass_filter#Simple_infinite_impulse_response_filter
  43:../lib/libDaisy/src/util/CpuLoadMeter.h ****         smoothingConstant_ = cutoffNormalized / (cutoffNormalized + 1.0f);
  44:../lib/libDaisy/src/util/CpuLoadMeter.h **** 
  45:../lib/libDaisy/src/util/CpuLoadMeter.h ****         Reset();
  46:../lib/libDaisy/src/util/CpuLoadMeter.h ****     }
  47:../lib/libDaisy/src/util/CpuLoadMeter.h **** 
ARM GAS  /var/folders/hp/45mn71hd0ps5f5pnytxy5bt00000gn/T//ccCIVO9k.s 			page 41


  48:../lib/libDaisy/src/util/CpuLoadMeter.h ****     /** Call this at the beginning of your audio callback */
  49:../lib/libDaisy/src/util/CpuLoadMeter.h ****     void OnBlockStart() { currentBlockStartTicks_ = System::GetTick(); }
 435              		.loc 24 49 10 view .LVU83
 436              	.LBB974:
 437              		.loc 24 49 27 view .LVU84
 438              	.LBE974:
 439              	.LBE973:
  33:SynthV8.cpp   ****     cpu_meter.OnBlockStart();
 440              		.loc 23 33 1 is_stmt 0 view .LVU85
 441 0000 2DE9F84F 		push	{r3, r4, r5, r6, r7, r8, r9, r10, fp, lr}
 442              		.cfi_def_cfa_offset 40
 443              		.cfi_offset 3, -40
 444              		.cfi_offset 4, -36
 445              		.cfi_offset 5, -32
 446              		.cfi_offset 6, -28
 447              		.cfi_offset 7, -24
 448              		.cfi_offset 8, -20
 449              		.cfi_offset 9, -16
 450              		.cfi_offset 10, -12
 451              		.cfi_offset 11, -8
 452              		.cfi_offset 14, -4
  35:SynthV8.cpp   **** 
  36:SynthV8.cpp   ****     hw.ProcessAnalogControls();
 453              		.loc 23 36 29 view .LVU86
 454 0004 884D     		ldr	r5, .L65+8
  33:SynthV8.cpp   ****     cpu_meter.OnBlockStart();
 455              		.loc 23 33 1 view .LVU87
 456 0006 0C46     		mov	r4, r1
 457              	.LBB977:
 458              	.LBB975:
 459              		.loc 24 49 51 view .LVU88
 460 0008 DFF83C92 		ldr	r9, .L65+40
 461              	.LBE975:
 462              	.LBE977:
  33:SynthV8.cpp   ****     cpu_meter.OnBlockStart();
 463              		.loc 23 33 1 view .LVU89
 464 000c 1746     		mov	r7, r2
 465 000e 2DED028B 		vpush.64	{d8}
 466              		.cfi_def_cfa_offset 48
 467              		.cfi_offset 80, -48
 468              		.cfi_offset 81, -44
 469              	.LBB978:
 470              	.LBB976:
 471              		.loc 24 49 68 view .LVU90
 472 0012 FFF7FEFF 		bl	_ZN5daisy6System7GetTickEv
 473              	.LVL15:
 474              		.loc 24 49 51 view .LVU91
 475 0016 C9F80800 		str	r0, [r9, #8]
 476              	.LVL16:
 477              		.loc 24 49 51 view .LVU92
 478              	.LBE976:
 479              	.LBE978:
 480              		.loc 23 36 5 is_stmt 1 view .LVU93
 481              		.loc 23 36 29 is_stmt 0 view .LVU94
 482 001a 2846     		mov	r0, r5
 483 001c FFF7FEFF 		bl	_ZN5daisy8DaisyPod21ProcessAnalogControlsEv
 484              	.LVL17:
ARM GAS  /var/folders/hp/45mn71hd0ps5f5pnytxy5bt00000gn/T//ccCIVO9k.s 			page 42


  37:SynthV8.cpp   ****     hw.ProcessDigitalControls();
 485              		.loc 23 37 5 is_stmt 1 view .LVU95
 486              		.loc 23 37 30 is_stmt 0 view .LVU96
 487 0020 2846     		mov	r0, r5
 488 0022 FFF7FEFF 		bl	_ZN5daisy8DaisyPod22ProcessDigitalControlsEv
 489              	.LVL18:
  38:SynthV8.cpp   **** 
  39:SynthV8.cpp   ****     if(hw.button1.RisingEdge() || (adCycle && !ad.IsRunning()))
 490              		.loc 23 39 5 is_stmt 1 view .LVU97
 491              	.LBB979:
 492              	.LBI979:
  35:../lib/libDaisy/src/hid/switch.h **** 
  36:../lib/libDaisy/src/hid/switch.h ****     /** 
  37:../lib/libDaisy/src/hid/switch.h ****     Initializes the switch object with a given port/pin combo.
  38:../lib/libDaisy/src/hid/switch.h ****     \param pin port/pin object to tell the switch which hardware pin to use.
  39:../lib/libDaisy/src/hid/switch.h ****     \param update_rate Does nothing. Backwards compatibility until next breaking update.
  40:../lib/libDaisy/src/hid/switch.h ****     \param t switch type -- Default: TYPE_MOMENTARY
  41:../lib/libDaisy/src/hid/switch.h ****     \param pol switch polarity -- Default: POLARITY_INVERTED
  42:../lib/libDaisy/src/hid/switch.h ****     \param pu switch pull up/down -- Default: PULL_UP
  43:../lib/libDaisy/src/hid/switch.h ****     */
  44:../lib/libDaisy/src/hid/switch.h ****     void Init(Pin        pin,
  45:../lib/libDaisy/src/hid/switch.h ****               float      update_rate,
  46:../lib/libDaisy/src/hid/switch.h ****               Type       t,
  47:../lib/libDaisy/src/hid/switch.h ****               Polarity   pol,
  48:../lib/libDaisy/src/hid/switch.h ****               GPIO::Pull pu = GPIO::Pull::PULLUP);
  49:../lib/libDaisy/src/hid/switch.h **** 
  50:../lib/libDaisy/src/hid/switch.h ****     /**
  51:../lib/libDaisy/src/hid/switch.h ****        Simplified Init.
  52:../lib/libDaisy/src/hid/switch.h ****        \param pin port/pin object to tell the switch which hardware pin to use.
  53:../lib/libDaisy/src/hid/switch.h ****        \param update_rate Left for backwards compatibility until next breaking change.
  54:../lib/libDaisy/src/hid/switch.h ****     */
  55:../lib/libDaisy/src/hid/switch.h ****     void Init(Pin pin, float update_rate = 0.f);
  56:../lib/libDaisy/src/hid/switch.h **** 
  57:../lib/libDaisy/src/hid/switch.h ****     /** 
  58:../lib/libDaisy/src/hid/switch.h ****     Called at update_rate to debounce and handle timing for the switch.
  59:../lib/libDaisy/src/hid/switch.h ****     In order for events not to be missed, its important that the Edge/Pressed checks
  60:../lib/libDaisy/src/hid/switch.h ****     be made at the same rate as the debounce function is being called.
  61:../lib/libDaisy/src/hid/switch.h ****     */
  62:../lib/libDaisy/src/hid/switch.h ****     void Debounce();
  63:../lib/libDaisy/src/hid/switch.h **** 
  64:../lib/libDaisy/src/hid/switch.h ****     /** \return true if a button was just pressed. */
  65:../lib/libDaisy/src/hid/switch.h ****     inline bool RisingEdge() const { return updated_ ? state_ == 0x7f : false; }
 493              		.loc 9 65 17 view .LVU98
 494              	.LBB980:
 495              		.loc 9 65 38 view .LVU99
 496              		.loc 9 65 54 is_stmt 0 view .LVU100
 497 0026 95F81C31 		ldrb	r3, [r5, #284]	@ zero_extendqisi2
 498 002a 002B     		cmp	r3, #0
 499 002c 00F08180 		beq	.L12
 500              	.LVL19:
 501              		.loc 9 65 54 view .LVU101
 502              	.LBE980:
 503              	.LBE979:
 504              		.loc 23 39 32 view .LVU102
 505 0030 95F83431 		ldrb	r3, [r5, #308]	@ zero_extendqisi2
 506 0034 7F2B     		cmp	r3, #127
 507 0036 7CD1     		bne	.L12
ARM GAS  /var/folders/hp/45mn71hd0ps5f5pnytxy5bt00000gn/T//ccCIVO9k.s 			page 43


 508 0038 DFF8F881 		ldr	r8, .L65+20
 509              	.L13:
  40:SynthV8.cpp   ****         ad.Trigger();
 510              		.loc 23 40 9 is_stmt 1 discriminator 5 view .LVU103
 511              	.LVL20:
 512              	.LBB981:
 513              	.LBI981:
  44:../lib/DaisySP/Source/Control/adenv.h ****     /** Initializes the ad envelope.
  45:../lib/DaisySP/Source/Control/adenv.h **** 
  46:../lib/DaisySP/Source/Control/adenv.h ****         Defaults:
  47:../lib/DaisySP/Source/Control/adenv.h ****             - current segment = idle
  48:../lib/DaisySP/Source/Control/adenv.h ****             - curve = linear
  49:../lib/DaisySP/Source/Control/adenv.h ****             - phase = 0
  50:../lib/DaisySP/Source/Control/adenv.h ****             - min = 0
  51:../lib/DaisySP/Source/Control/adenv.h ****             - max = 1
  52:../lib/DaisySP/Source/Control/adenv.h **** 
  53:../lib/DaisySP/Source/Control/adenv.h ****         \param sample_rate      sample rate of the audio engine being run
  54:../lib/DaisySP/Source/Control/adenv.h ****     */
  55:../lib/DaisySP/Source/Control/adenv.h ****     void Init(float sample_rate);
  56:../lib/DaisySP/Source/Control/adenv.h **** 
  57:../lib/DaisySP/Source/Control/adenv.h ****     /** Processes the current sample of the envelope. This should be called once
  58:../lib/DaisySP/Source/Control/adenv.h ****         per sample period.
  59:../lib/DaisySP/Source/Control/adenv.h ****         \return the current envelope value.
  60:../lib/DaisySP/Source/Control/adenv.h ****     */
  61:../lib/DaisySP/Source/Control/adenv.h ****     float Process();
  62:../lib/DaisySP/Source/Control/adenv.h **** 
  63:../lib/DaisySP/Source/Control/adenv.h ****     /** Starts or retriggers the envelope.*/
  64:../lib/DaisySP/Source/Control/adenv.h ****     inline void Trigger() { trigger_ = 1; }
 514              		.loc 17 64 17 discriminator 5 view .LVU104
 515              	.LBB982:
 516              		.loc 17 64 29 discriminator 5 view .LVU105
 517              		.loc 17 64 38 is_stmt 0 discriminator 5 view .LVU106
 518 003c 0123     		movs	r3, #1
 519 003e 88F83430 		strb	r3, [r8, #52]
 520              	.LVL21:
 521              	.L14:
 522              		.loc 17 64 38 discriminator 5 view .LVU107
 523              	.LBE982:
 524              	.LBE981:
  41:SynthV8.cpp   **** 
  42:SynthV8.cpp   ****     if(hw.button2.RisingEdge())
 525              		.loc 23 42 5 is_stmt 1 view .LVU108
 526              	.LBB983:
 527              	.LBI983:
 528              		.loc 9 65 17 view .LVU109
 529              	.LBB984:
 530              		.loc 9 65 38 view .LVU110
 531              		.loc 9 65 54 is_stmt 0 view .LVU111
 532 0042 95F84031 		ldrb	r3, [r5, #320]	@ zero_extendqisi2
 533 0046 23B1     		cbz	r3, .L15
 534              	.LVL22:
 535              		.loc 9 65 54 view .LVU112
 536              	.LBE984:
 537              	.LBE983:
 538              		.loc 23 42 5 view .LVU113
 539 0048 95F85831 		ldrb	r3, [r5, #344]	@ zero_extendqisi2
 540 004c 7F2B     		cmp	r3, #127
ARM GAS  /var/folders/hp/45mn71hd0ps5f5pnytxy5bt00000gn/T//ccCIVO9k.s 			page 44


 541 004e 00F0CE80 		beq	.L61
 542              	.L15:
  43:SynthV8.cpp   ****         adCycle = !adCycle;
  44:SynthV8.cpp   **** 
  45:SynthV8.cpp   ****     adRelease = p_release.Process();
 543              		.loc 23 45 5 is_stmt 1 view .LVU114
 544              		.loc 23 45 34 is_stmt 0 view .LVU115
 545 0052 7648     		ldr	r0, .L65+12
 546 0054 FFF7FEFF 		bl	_ZN5daisy9Parameter7ProcessEv
 547              	.LVL23:
 548              		.loc 23 45 15 view .LVU116
 549 0058 DFF8F0A1 		ldr	r10, .L65+44
 550              	.LBB985:
 551              	.LBB986:
  22:../lib/libDaisy/src/hid/encoder.h **** 
  23:../lib/libDaisy/src/hid/encoder.h ****     /** Initializes the encoder with the specified hardware pins.
  24:../lib/libDaisy/src/hid/encoder.h ****      * Update rate is to be deprecated in a future release
  25:../lib/libDaisy/src/hid/encoder.h ****      */
  26:../lib/libDaisy/src/hid/encoder.h ****     void Init(Pin a, Pin b, Pin click, float update_rate = 0.f);
  27:../lib/libDaisy/src/hid/encoder.h ****     /** Called at update_rate to debounce and handle timing for the switch.
  28:../lib/libDaisy/src/hid/encoder.h ****      * In order for events not to be missed, its important that the Edge/Pressed checks be made at 
  29:../lib/libDaisy/src/hid/encoder.h ****      */
  30:../lib/libDaisy/src/hid/encoder.h ****     void Debounce();
  31:../lib/libDaisy/src/hid/encoder.h **** 
  32:../lib/libDaisy/src/hid/encoder.h ****     /** Returns +1 if the encoder was turned clockwise, -1 if it was turned counter-clockwise, or 0
  33:../lib/libDaisy/src/hid/encoder.h ****     inline int32_t Increment() const { return updated_ ? inc_ : 0; }
 552              		.loc 10 33 56 view .LVU117
 553 005c 95F87830 		ldrb	r3, [r5, #120]	@ zero_extendqisi2
 554              	.LBE986:
 555              	.LBE985:
 556              		.loc 23 45 15 view .LVU118
 557 0060 8AED000A 		vstr.32	s0, [r10]
  46:SynthV8.cpp   ****     
  47:SynthV8.cpp   ****     inc = hw.encoder.Increment();
 558              		.loc 23 47 5 is_stmt 1 view .LVU119
 559              	.LVL24:
 560              	.LBB988:
 561              	.LBI985:
 562              		.loc 10 33 20 view .LVU120
 563              	.LBB987:
 564              		.loc 10 33 40 view .LVU121
 565              		.loc 10 33 56 is_stmt 0 view .LVU122
 566 0064 002B     		cmp	r3, #0
 567 0066 70D1     		bne	.L16
 568              	.LVL25:
 569              	.L20:
 570              		.loc 10 33 56 view .LVU123
 571              	.LBE987:
 572              	.LBE988:
  48:SynthV8.cpp   ****     if(inc > 0)
  49:SynthV8.cpp   ****         volChange += 0.02;
  50:SynthV8.cpp   ****     else if(inc < 0)
  51:SynthV8.cpp   ****         volChange -= 0.02;
  52:SynthV8.cpp   **** 
  53:SynthV8.cpp   ****     if (volChange > 1)
 573              		.loc 23 53 19 view .LVU124
 574 0068 DFF8E4B1 		ldr	fp, .L65+48
ARM GAS  /var/folders/hp/45mn71hd0ps5f5pnytxy5bt00000gn/T//ccCIVO9k.s 			page 45


 575 006c 9BED007A 		vldr.32	s14, [fp]
 576              	.L17:
 577              		.loc 23 53 5 is_stmt 1 view .LVU125
 578 0070 F7EE007A 		vmov.f32	s15, #1.0e+0
 579 0074 B4EEE77A 		vcmpe.f32	s14, s15
 580 0078 F1EE10FA 		vmrs	APSR_nzcv, FPSCR
 581 007c 40F38480 		ble	.L59
 582              	.L64:
  54:SynthV8.cpp   ****         volChange = 1;
 583              		.loc 23 54 9 view .LVU126
 584              		.loc 23 54 19 is_stmt 0 view .LVU127
 585 0080 CBED007A 		vstr.32	s15, [fp]
 586              	.L24:
  55:SynthV8.cpp   ****     else if(volChange < 0)
  56:SynthV8.cpp   ****         volChange = 0;
  57:SynthV8.cpp   **** 
  58:SynthV8.cpp   ****     if(hw.encoder.RisingEdge())
 587              		.loc 23 58 5 is_stmt 1 view .LVU128
 588              	.LVL26:
 589              	.LBB989:
 590              	.LBI989:
  34:../lib/libDaisy/src/hid/encoder.h **** 
  35:../lib/libDaisy/src/hid/encoder.h ****     /** Returns true if the encoder was just pressed. */
  36:../lib/libDaisy/src/hid/encoder.h ****     inline bool RisingEdge() const { return sw_.RisingEdge(); }
 591              		.loc 10 36 17 view .LVU129
 592              	.LBE989:
 593              		.loc 10 36 38 view .LVU130
 594              	.LBB992:
 595              	.LBB990:
 596              	.LBI990:
 597              		.loc 9 65 17 view .LVU131
 598              	.LBB991:
 599              		.loc 9 65 38 view .LVU132
 600              		.loc 9 65 54 is_stmt 0 view .LVU133
 601 0084 95F88020 		ldrb	r2, [r5, #128]	@ zero_extendqisi2
 602 0088 22B1     		cbz	r2, .L26
 603              	.LVL27:
 604              		.loc 9 65 54 view .LVU134
 605              	.LBE991:
 606              	.LBE990:
 607              	.LBE992:
 608              		.loc 23 58 5 view .LVU135
 609 008a 95F89820 		ldrb	r2, [r5, #152]	@ zero_extendqisi2
 610 008e 7F2A     		cmp	r2, #127
 611 0090 00F0A780 		beq	.L62
 612              	.L26:
 613              	.LVL28:
 614              	.LBB993:
  59:SynthV8.cpp   ****         isCpuEnabled = !isCpuEnabled;
  60:SynthV8.cpp   ****     
  61:SynthV8.cpp   ****     for(size_t i = 0; i < size; i += 2)
 615              		.loc 23 61 25 is_stmt 1 discriminator 3 view .LVU136
 616 0094 7FB3     		cbz	r7, .L27
 617 0096 013F     		subs	r7, r7, #1
 618              	.LVL29:
 619              		.loc 23 61 25 is_stmt 0 view .LVU137
 620 0098 0025     		movs	r5, #0
ARM GAS  /var/folders/hp/45mn71hd0ps5f5pnytxy5bt00000gn/T//ccCIVO9k.s 			page 46


 621 009a DFF89881 		ldr	r8, .L65+20
 622 009e 7F08     		lsrs	r7, r7, #1
 623              	.LVL30:
 624              		.loc 23 61 25 view .LVU138
 625 00a0 634E     		ldr	r6, .L65+16
 626 00a2 01E0     		b	.L28
 627              	.LVL31:
 628              	.L63:
 629              	.LBB994:
  62:SynthV8.cpp   ****     {
  63:SynthV8.cpp   ****         float sig;
  64:SynthV8.cpp   ****         float adOut;
  65:SynthV8.cpp   **** 
  66:SynthV8.cpp   ****         ad.SetTime(ADENV_SEG_DECAY, adRelease);
 630              		.loc 23 66 19 view .LVU139
 631 00a4 9AED000A 		vldr.32	s0, [r10]
 632              	.LVL32:
 633              	.L28:
  63:SynthV8.cpp   ****         float adOut;
 634              		.loc 23 63 9 is_stmt 1 discriminator 2 view .LVU140
  64:SynthV8.cpp   **** 
 635              		.loc 23 64 9 discriminator 2 view .LVU141
 636              		.loc 23 66 9 discriminator 2 view .LVU142
 637              	.LBB995:
 638              	.LBI995:
  65:../lib/DaisySP/Source/Control/adenv.h ****     /** Sets the length of time (in seconds) for a specific segment. */
  66:../lib/DaisySP/Source/Control/adenv.h ****     inline void SetTime(uint8_t seg, float time) { segment_time_[seg] = time; }
 639              		.loc 17 66 17 discriminator 2 view .LVU143
 640              	.LBB996:
 641              		.loc 17 66 52 discriminator 2 view .LVU144
 642              	.LBE996:
 643              	.LBE995:
  67:SynthV8.cpp   ****         adOut = ad.Process();
 644              		.loc 23 67 27 is_stmt 0 discriminator 2 view .LVU145
 645 00a8 6248     		ldr	r0, .L65+20
 646              	.LBE994:
  61:SynthV8.cpp   ****     {
 647              		.loc 23 61 25 discriminator 2 view .LVU146
 648 00aa 0834     		adds	r4, r4, #8
 649              	.LBB1005:
 650              	.LBB998:
 651              	.LBB997:
 652              		.loc 17 66 71 discriminator 2 view .LVU147
 653 00ac 88ED030A 		vstr.32	s0, [r8, #12]
 654              	.LVL33:
 655              		.loc 17 66 71 discriminator 2 view .LVU148
 656              	.LBE997:
 657              	.LBE998:
 658              		.loc 23 67 9 is_stmt 1 discriminator 2 view .LVU149
 659              		.loc 23 67 27 is_stmt 0 discriminator 2 view .LVU150
 660 00b0 FFF7FEFF 		bl	_ZN7daisysp5AdEnv7ProcessEv
 661              	.LVL34:
  68:SynthV8.cpp   ****         totalFreq = 400.0f;
 662              		.loc 23 68 19 discriminator 2 view .LVU151
 663 00b4 DFED607A 		vldr.32	s15, .L65+24
  67:SynthV8.cpp   ****         adOut = ad.Process();
 664              		.loc 23 67 27 discriminator 2 view .LVU152
ARM GAS  /var/folders/hp/45mn71hd0ps5f5pnytxy5bt00000gn/T//ccCIVO9k.s 			page 47


 665 00b8 B0EE408A 		vmov.f32	s16, s0
 666              	.LVL35:
 667              		.loc 23 68 9 is_stmt 1 discriminator 2 view .LVU153
 668              		.loc 23 68 19 is_stmt 0 discriminator 2 view .LVU154
 669 00bc 5F4B     		ldr	r3, .L65+28
 670              	.LBB999:
 671              	.LBB1000:
  25:../lib/DaisySP/Source/Synthesis/oscillator.h ****     /** Choices for output waveforms, POLYBLEP are appropriately labeled. Others are naive forms.
  26:../lib/DaisySP/Source/Synthesis/oscillator.h ****     */
  27:../lib/DaisySP/Source/Synthesis/oscillator.h ****     enum
  28:../lib/DaisySP/Source/Synthesis/oscillator.h ****     {
  29:../lib/DaisySP/Source/Synthesis/oscillator.h ****         WAVE_SIN,
  30:../lib/DaisySP/Source/Synthesis/oscillator.h ****         WAVE_TRI,
  31:../lib/DaisySP/Source/Synthesis/oscillator.h ****         WAVE_SAW,
  32:../lib/DaisySP/Source/Synthesis/oscillator.h ****         WAVE_RAMP,
  33:../lib/DaisySP/Source/Synthesis/oscillator.h ****         WAVE_SQUARE,
  34:../lib/DaisySP/Source/Synthesis/oscillator.h ****         WAVE_POLYBLEP_TRI,
  35:../lib/DaisySP/Source/Synthesis/oscillator.h ****         WAVE_POLYBLEP_SAW,
  36:../lib/DaisySP/Source/Synthesis/oscillator.h ****         WAVE_POLYBLEP_SQUARE,
  37:../lib/DaisySP/Source/Synthesis/oscillator.h ****         WAVE_LAST,
  38:../lib/DaisySP/Source/Synthesis/oscillator.h ****     };
  39:../lib/DaisySP/Source/Synthesis/oscillator.h **** 
  40:../lib/DaisySP/Source/Synthesis/oscillator.h **** 
  41:../lib/DaisySP/Source/Synthesis/oscillator.h ****     /** Initializes the Oscillator
  42:../lib/DaisySP/Source/Synthesis/oscillator.h **** 
  43:../lib/DaisySP/Source/Synthesis/oscillator.h ****         \param sample_rate - sample rate of the audio engine being run, and the frequency that the 
  44:../lib/DaisySP/Source/Synthesis/oscillator.h **** 
  45:../lib/DaisySP/Source/Synthesis/oscillator.h ****         Defaults:
  46:../lib/DaisySP/Source/Synthesis/oscillator.h ****         - freq_ = 100 Hz
  47:../lib/DaisySP/Source/Synthesis/oscillator.h ****         - amp_ = 0.5
  48:../lib/DaisySP/Source/Synthesis/oscillator.h ****         - waveform_ = sine wave.
  49:../lib/DaisySP/Source/Synthesis/oscillator.h ****     */
  50:../lib/DaisySP/Source/Synthesis/oscillator.h ****     void Init(float sample_rate)
  51:../lib/DaisySP/Source/Synthesis/oscillator.h ****     {
  52:../lib/DaisySP/Source/Synthesis/oscillator.h ****         sr_        = sample_rate;
  53:../lib/DaisySP/Source/Synthesis/oscillator.h ****         sr_recip_  = 1.0f / sample_rate;
  54:../lib/DaisySP/Source/Synthesis/oscillator.h ****         freq_      = 100.0f;
  55:../lib/DaisySP/Source/Synthesis/oscillator.h ****         amp_       = 0.5f;
  56:../lib/DaisySP/Source/Synthesis/oscillator.h ****         pw_        = 0.5f;
  57:../lib/DaisySP/Source/Synthesis/oscillator.h ****         phase_     = 0.0f;
  58:../lib/DaisySP/Source/Synthesis/oscillator.h ****         phase_inc_ = CalcPhaseInc(freq_);
  59:../lib/DaisySP/Source/Synthesis/oscillator.h ****         waveform_  = WAVE_SIN;
  60:../lib/DaisySP/Source/Synthesis/oscillator.h ****         eoc_       = true;
  61:../lib/DaisySP/Source/Synthesis/oscillator.h ****         eor_       = true;
  62:../lib/DaisySP/Source/Synthesis/oscillator.h ****     }
  63:../lib/DaisySP/Source/Synthesis/oscillator.h **** 
  64:../lib/DaisySP/Source/Synthesis/oscillator.h **** 
  65:../lib/DaisySP/Source/Synthesis/oscillator.h ****     /** Changes the frequency of the Oscillator, and recalculates phase increment.
  66:../lib/DaisySP/Source/Synthesis/oscillator.h ****     */
  67:../lib/DaisySP/Source/Synthesis/oscillator.h ****     inline void SetFreq(const float f)
  68:../lib/DaisySP/Source/Synthesis/oscillator.h ****     {
  69:../lib/DaisySP/Source/Synthesis/oscillator.h ****         freq_      = f;
  70:../lib/DaisySP/Source/Synthesis/oscillator.h ****         phase_inc_ = CalcPhaseInc(f);
 672              		.loc 18 70 34 discriminator 2 view .LVU155
 673 00be B0EE670A 		vmov.f32	s0, s15
 674              	.LVL36:
 675              		.loc 18 70 34 discriminator 2 view .LVU156
ARM GAS  /var/folders/hp/45mn71hd0ps5f5pnytxy5bt00000gn/T//ccCIVO9k.s 			page 48


 676 00c2 5B48     		ldr	r0, .L65+16
 677              	.LBE1000:
 678              	.LBE999:
 679              		.loc 23 68 19 discriminator 2 view .LVU157
 680 00c4 C3ED007A 		vstr.32	s15, [r3]
  69:SynthV8.cpp   ****         osc.SetFreq(totalFreq);
 681              		.loc 23 69 9 is_stmt 1 discriminator 2 view .LVU158
 682              	.LVL37:
 683              	.LBB1003:
 684              	.LBI999:
  67:../lib/DaisySP/Source/Synthesis/oscillator.h ****     {
 685              		.loc 18 67 17 discriminator 2 view .LVU159
 686              	.LBB1001:
  69:../lib/DaisySP/Source/Synthesis/oscillator.h ****         phase_inc_ = CalcPhaseInc(f);
 687              		.loc 18 69 9 discriminator 2 view .LVU160
  69:../lib/DaisySP/Source/Synthesis/oscillator.h ****         phase_inc_ = CalcPhaseInc(f);
 688              		.loc 18 69 20 is_stmt 0 discriminator 2 view .LVU161
 689 00c8 C6ED027A 		vstr.32	s15, [r6, #8]
 690              		.loc 18 70 9 is_stmt 1 discriminator 2 view .LVU162
 691              		.loc 18 70 34 is_stmt 0 discriminator 2 view .LVU163
 692 00cc FFF7FEFF 		bl	_ZN7daisysp10Oscillator12CalcPhaseIncEf
 693              	.LVL38:
 694              	.LBE1001:
 695              	.LBE1003:
  70:SynthV8.cpp   ****         sig = osc.Process();
 696              		.loc 23 70 26 discriminator 2 view .LVU164
 697 00d0 5748     		ldr	r0, .L65+16
 698              	.LBB1004:
 699              	.LBB1002:
 700              		.loc 18 70 20 discriminator 2 view .LVU165
 701 00d2 86ED070A 		vstr.32	s0, [r6, #28]
 702              	.LVL39:
 703              		.loc 18 70 20 discriminator 2 view .LVU166
 704              	.LBE1002:
 705              	.LBE1004:
 706              		.loc 23 70 9 is_stmt 1 discriminator 2 view .LVU167
 707              		.loc 23 70 26 is_stmt 0 discriminator 2 view .LVU168
 708 00d6 FFF7FEFF 		bl	_ZN7daisysp10Oscillator7ProcessEv
 709              	.LVL40:
  71:SynthV8.cpp   ****         sig *= adOut;
 710              		.loc 23 71 9 is_stmt 1 discriminator 2 view .LVU169
 711              		.loc 23 71 13 is_stmt 0 discriminator 2 view .LVU170
 712 00da 28EE000A 		vmul.f32	s0, s16, s0
 713              	.LVL41:
  72:SynthV8.cpp   ****         sig *= volChange;
 714              		.loc 23 72 9 is_stmt 1 discriminator 2 view .LVU171
 715              		.loc 23 72 13 is_stmt 0 discriminator 2 view .LVU172
 716 00de DBED007A 		vldr.32	s15, [fp]
 717              	.LBE1005:
  61:SynthV8.cpp   ****     {
 718              		.loc 23 61 25 discriminator 2 view .LVU173
 719 00e2 BD42     		cmp	r5, r7
 720 00e4 05F10105 		add	r5, r5, #1
 721              	.LVL42:
 722              	.LBB1006:
 723              		.loc 23 72 13 discriminator 2 view .LVU174
 724 00e8 20EE270A 		vmul.f32	s0, s0, s15
ARM GAS  /var/folders/hp/45mn71hd0ps5f5pnytxy5bt00000gn/T//ccCIVO9k.s 			page 49


 725              	.LVL43:
  73:SynthV8.cpp   ****         out[i] = sig;
 726              		.loc 23 73 9 is_stmt 1 discriminator 2 view .LVU175
 727              		.loc 23 73 16 is_stmt 0 discriminator 2 view .LVU176
 728 00ec 04ED020A 		vstr.32	s0, [r4, #-8]
  74:SynthV8.cpp   ****         out[i + 1] = sig;
 729              		.loc 23 74 9 is_stmt 1 discriminator 2 view .LVU177
 730              		.loc 23 74 20 is_stmt 0 discriminator 2 view .LVU178
 731 00f0 04ED010A 		vstr.32	s0, [r4, #-4]
 732              	.LBE1006:
  61:SynthV8.cpp   ****     {
 733              		.loc 23 61 5 is_stmt 1 discriminator 2 view .LVU179
 734              	.LVL44:
  61:SynthV8.cpp   ****     {
 735              		.loc 23 61 25 discriminator 2 view .LVU180
 736 00f4 D6D1     		bne	.L63
 737              	.LVL45:
 738              	.L27:
  61:SynthV8.cpp   ****     {
 739              		.loc 23 61 25 is_stmt 0 discriminator 2 view .LVU181
 740              	.LBE993:
  75:SynthV8.cpp   ****     }
  76:SynthV8.cpp   ****     cpu_meter.OnBlockEnd();
 741              		.loc 23 76 5 is_stmt 1 view .LVU182
 742              	.LBB1007:
 743              	.LBI1007:
  50:../lib/libDaisy/src/util/CpuLoadMeter.h **** 
  51:../lib/libDaisy/src/util/CpuLoadMeter.h ****     /** Call this at the end of your audio callback */
  52:../lib/libDaisy/src/util/CpuLoadMeter.h ****     void OnBlockEnd()
 744              		.loc 24 52 10 view .LVU183
 745              	.LBB1008:
  53:../lib/libDaisy/src/util/CpuLoadMeter.h ****     {
  54:../lib/libDaisy/src/util/CpuLoadMeter.h ****         const auto end         = System::GetTick();
 746              		.loc 24 54 9 view .LVU184
 747              		.loc 24 54 49 is_stmt 0 view .LVU185
 748 00f6 FFF7FEFF 		bl	_ZN5daisy6System7GetTickEv
 749              	.LVL46:
  55:../lib/libDaisy/src/util/CpuLoadMeter.h ****         const auto ticksPassed = end - currentBlockStartTicks_;
 750              		.loc 24 55 9 is_stmt 1 view .LVU186
  56:../lib/libDaisy/src/util/CpuLoadMeter.h ****         const auto currentBlockLoad
 751              		.loc 24 56 9 view .LVU187
  55:../lib/libDaisy/src/util/CpuLoadMeter.h ****         const auto ticksPassed = end - currentBlockStartTicks_;
 752              		.loc 24 55 20 is_stmt 0 view .LVU188
 753 00fa D9F80820 		ldr	r2, [r9, #8]
 754              		.loc 24 56 20 view .LVU189
 755 00fe 99ED017A 		vldr.32	s14, [r9, #4]
  55:../lib/libDaisy/src/util/CpuLoadMeter.h ****         const auto ticksPassed = end - currentBlockStartTicks_;
 756              		.loc 24 55 20 view .LVU190
 757 0102 821A     		subs	r2, r0, r2
 758              	.LVL47:
  57:../lib/libDaisy/src/util/CpuLoadMeter.h ****             = float(ticksPassed) * ticksPerBlockInv_; // usPassed / usPerBlock
  58:../lib/libDaisy/src/util/CpuLoadMeter.h **** 
  59:../lib/libDaisy/src/util/CpuLoadMeter.h ****         if(firstCycle_)
 759              		.loc 24 59 9 view .LVU191
 760 0104 99F80030 		ldrb	r3, [r9]	@ zero_extendqisi2
  55:../lib/libDaisy/src/util/CpuLoadMeter.h ****         const auto currentBlockLoad
 761              		.loc 24 55 20 view .LVU192
ARM GAS  /var/folders/hp/45mn71hd0ps5f5pnytxy5bt00000gn/T//ccCIVO9k.s 			page 50


 762 0108 07EE902A 		vmov	s15, r2	@ int
  57:../lib/libDaisy/src/util/CpuLoadMeter.h ****             = float(ticksPassed) * ticksPerBlockInv_; // usPassed / usPerBlock
 763              		.loc 24 57 15 view .LVU193
 764 010c F8EE677A 		vcvt.f32.u32	s15, s15
  56:../lib/libDaisy/src/util/CpuLoadMeter.h ****         const auto currentBlockLoad
 765              		.loc 24 56 20 view .LVU194
 766 0110 67EE877A 		vmul.f32	s15, s15, s14
 767              	.LVL48:
 768              		.loc 24 59 9 is_stmt 1 view .LVU195
 769 0114 002B     		cmp	r3, #0
 770 0116 40D0     		beq	.L29
  60:../lib/libDaisy/src/util/CpuLoadMeter.h ****         {
  61:../lib/libDaisy/src/util/CpuLoadMeter.h ****             max_ = min_ = avg_ = currentBlockLoad;
 771              		.loc 24 61 13 view .LVU196
  62:../lib/libDaisy/src/util/CpuLoadMeter.h ****             firstCycle_        = false;
 772              		.loc 24 62 32 is_stmt 0 view .LVU197
 773 0118 0023     		movs	r3, #0
  61:../lib/libDaisy/src/util/CpuLoadMeter.h ****             firstCycle_        = false;
 774              		.loc 24 61 32 view .LVU198
 775 011a C9ED057A 		vstr.32	s15, [r9, #20]
  61:../lib/libDaisy/src/util/CpuLoadMeter.h ****             firstCycle_        = false;
 776              		.loc 24 61 25 view .LVU199
 777 011e C9ED037A 		vstr.32	s15, [r9, #12]
  61:../lib/libDaisy/src/util/CpuLoadMeter.h ****             firstCycle_        = false;
 778              		.loc 24 61 18 view .LVU200
 779 0122 C9ED047A 		vstr.32	s15, [r9, #16]
 780              		.loc 24 62 13 is_stmt 1 view .LVU201
 781              		.loc 24 62 32 is_stmt 0 view .LVU202
 782 0126 89F80030 		strb	r3, [r9]
 783              	.LBE1008:
 784              	.LBE1007:
  77:SynthV8.cpp   **** }
 785              		.loc 23 77 1 view .LVU203
 786 012a BDEC028B 		vldm	sp!, {d8}
 787              		.cfi_remember_state
 788              		.cfi_restore 80
 789              		.cfi_restore 81
 790              		.cfi_def_cfa_offset 40
 791 012e BDE8F88F 		pop	{r3, r4, r5, r6, r7, r8, r9, r10, fp, pc}
 792              	.LVL49:
 793              	.L12:
 794              		.cfi_restore_state
  39:SynthV8.cpp   ****         ad.Trigger();
 795              		.loc 23 39 32 discriminator 2 view .LVU204
 796 0132 434B     		ldr	r3, .L65+32
 797 0134 1B78     		ldrb	r3, [r3]	@ zero_extendqisi2
 798 0136 002B     		cmp	r3, #0
 799 0138 83D0     		beq	.L14
 800              	.LVL50:
 801              	.LBB1011:
 802              	.LBI1011:
  67:../lib/DaisySP/Source/Control/adenv.h ****     /** Sets the amount of curve applied. A positve value will create a log
  68:../lib/DaisySP/Source/Control/adenv.h ****         curve. Input range: -100 to 100.  (or more)
  69:../lib/DaisySP/Source/Control/adenv.h ****     */
  70:../lib/DaisySP/Source/Control/adenv.h ****     inline void SetCurve(float scalar) { curve_scalar_ = scalar; }
  71:../lib/DaisySP/Source/Control/adenv.h ****     /** Sets the minimum value of the envelope output.
  72:../lib/DaisySP/Source/Control/adenv.h ****         Input range: -FLTmax_, to FLTmax_
ARM GAS  /var/folders/hp/45mn71hd0ps5f5pnytxy5bt00000gn/T//ccCIVO9k.s 			page 51


  73:../lib/DaisySP/Source/Control/adenv.h ****     */
  74:../lib/DaisySP/Source/Control/adenv.h ****     inline void SetMin(float min) { min_ = min; }
  75:../lib/DaisySP/Source/Control/adenv.h ****     /** Sets the maximum value of the envelope output.
  76:../lib/DaisySP/Source/Control/adenv.h ****         Input range: -FLTmax_, to FLTmax_
  77:../lib/DaisySP/Source/Control/adenv.h ****     */
  78:../lib/DaisySP/Source/Control/adenv.h ****     inline void SetMax(float max) { max_ = max; }
  79:../lib/DaisySP/Source/Control/adenv.h ****     /** Returns the current output value without processing the next sample */
  80:../lib/DaisySP/Source/Control/adenv.h ****     inline float GetValue() const { return (output_ * (max_ - min_)) + min_; }
  81:../lib/DaisySP/Source/Control/adenv.h ****     /** Returns the segment of the envelope that the phase is currently located
  82:../lib/DaisySP/Source/Control/adenv.h ****         in.
  83:../lib/DaisySP/Source/Control/adenv.h ****     */
  84:../lib/DaisySP/Source/Control/adenv.h ****     inline uint8_t GetCurrentSegment() { return current_segment_; }
  85:../lib/DaisySP/Source/Control/adenv.h ****     /** Returns true if the envelope is currently in any stage apart from idle.
  86:../lib/DaisySP/Source/Control/adenv.h ****     */
  87:../lib/DaisySP/Source/Control/adenv.h ****     inline bool IsRunning() const { return current_segment_ != ADENV_SEG_IDLE; }
 803              		.loc 17 87 17 is_stmt 1 view .LVU205
 804              	.LBB1012:
 805              		.loc 17 87 37 view .LVU206
 806              		.loc 17 87 44 is_stmt 0 view .LVU207
 807 013a DFF8F880 		ldr	r8, .L65+20
 808              	.LBE1012:
 809              	.LBE1011:
  39:SynthV8.cpp   ****         ad.Trigger();
 810              		.loc 23 39 44 view .LVU208
 811 013e 98F80030 		ldrb	r3, [r8]	@ zero_extendqisi2
 812 0142 002B     		cmp	r3, #0
 813 0144 7FF47DAF 		bne	.L14
 814 0148 78E7     		b	.L13
 815              	.LVL51:
 816              	.L16:
  47:SynthV8.cpp   ****     if(inc > 0)
 817              		.loc 23 47 9 view .LVU209
 818 014a D5ED337A 		vldr.32	s15, [r5, #204]	@ int
 819 014e F8EEE77A 		vcvt.f32.s32	s15, s15
  48:SynthV8.cpp   ****         volChange += 0.02;
 820              		.loc 23 48 5 is_stmt 1 view .LVU210
 821 0152 F5EEC07A 		vcmpe.f32	s15, #0
 822 0156 F1EE10FA 		vmrs	APSR_nzcv, FPSCR
 823 015a 4EDD     		ble	.L58
  49:SynthV8.cpp   ****     else if(inc < 0)
 824              		.loc 23 49 9 view .LVU211
  49:SynthV8.cpp   ****     else if(inc < 0)
 825              		.loc 23 49 19 is_stmt 0 view .LVU212
 826 015c DFF8F0B0 		ldr	fp, .L65+48
 827 0160 9BED007A 		vldr.32	s14, [fp]
 828 0164 9FED2E6B 		vldr.64	d6, .L65
 829 0168 B7EEC77A 		vcvt.f64.f32	d7, s14
 830 016c 37EE067B 		vadd.f64	d7, d7, d6
 831 0170 B7EEC77B 		vcvt.f32.f64	s14, d7
  53:SynthV8.cpp   ****         volChange = 1;
 832              		.loc 23 53 5 view .LVU213
 833 0174 F7EE007A 		vmov.f32	s15, #1.0e+0
  49:SynthV8.cpp   ****     else if(inc < 0)
 834              		.loc 23 49 19 view .LVU214
 835 0178 8BED007A 		vstr.32	s14, [fp]
  53:SynthV8.cpp   ****         volChange = 1;
 836              		.loc 23 53 5 is_stmt 1 view .LVU215
ARM GAS  /var/folders/hp/45mn71hd0ps5f5pnytxy5bt00000gn/T//ccCIVO9k.s 			page 52


 837 017c B4EEE77A 		vcmpe.f32	s14, s15
 838 0180 F1EE10FA 		vmrs	APSR_nzcv, FPSCR
 839 0184 3FF77CAF 		bgt	.L64
 840              	.L59:
  55:SynthV8.cpp   ****         volChange = 0;
 841              		.loc 23 55 10 view .LVU216
 842 0188 B5EEC07A 		vcmpe.f32	s14, #0
 843 018c 0022     		movs	r2, #0
 844 018e F1EE10FA 		vmrs	APSR_nzcv, FPSCR
  56:SynthV8.cpp   **** 
 845              		.loc 23 56 9 view .LVU217
  56:SynthV8.cpp   **** 
 846              		.loc 23 56 19 is_stmt 0 view .LVU218
 847 0192 48BF     		it	mi
 848 0194 CBF80020 		strmi	r2, [fp]	@ float
 849 0198 74E7     		b	.L24
 850              	.LVL52:
 851              	.L29:
 852              	.LBB1013:
 853              	.LBB1009:
  63:../lib/libDaisy/src/util/CpuLoadMeter.h ****         }
  64:../lib/libDaisy/src/util/CpuLoadMeter.h ****         else
  65:../lib/libDaisy/src/util/CpuLoadMeter.h ****         {
  66:../lib/libDaisy/src/util/CpuLoadMeter.h ****             if(currentBlockLoad > max_)
 854              		.loc 24 66 13 is_stmt 1 view .LVU219
 855 019a 99ED047A 		vldr.32	s14, [r9, #16]
  67:../lib/libDaisy/src/util/CpuLoadMeter.h ****                 max_ = currentBlockLoad;
  68:../lib/libDaisy/src/util/CpuLoadMeter.h ****             if(currentBlockLoad < min_)
  69:../lib/libDaisy/src/util/CpuLoadMeter.h ****                 min_ = currentBlockLoad;
  70:../lib/libDaisy/src/util/CpuLoadMeter.h **** 
  71:../lib/libDaisy/src/util/CpuLoadMeter.h ****             avg_ = smoothingConstant_ * currentBlockLoad
 856              		.loc 24 71 20 is_stmt 0 view .LVU220
 857 019e D9ED066A 		vldr.32	s13, [r9, #24]
  66:../lib/libDaisy/src/util/CpuLoadMeter.h ****                 max_ = currentBlockLoad;
 858              		.loc 24 66 13 view .LVU221
 859 01a2 F4EEC77A 		vcmpe.f32	s15, s14
  68:../lib/libDaisy/src/util/CpuLoadMeter.h ****                 min_ = currentBlockLoad;
 860              		.loc 24 68 13 view .LVU222
 861 01a6 99ED037A 		vldr.32	s14, [r9, #12]
  72:../lib/libDaisy/src/util/CpuLoadMeter.h ****                    + (1.0f - smoothingConstant_) * avg_;
 862              		.loc 24 72 50 view .LVU223
 863 01aa 99ED056A 		vldr.32	s12, [r9, #20]
  66:../lib/libDaisy/src/util/CpuLoadMeter.h ****                 max_ = currentBlockLoad;
 864              		.loc 24 66 13 view .LVU224
 865 01ae F1EE10FA 		vmrs	APSR_nzcv, FPSCR
  67:../lib/libDaisy/src/util/CpuLoadMeter.h ****             if(currentBlockLoad < min_)
 866              		.loc 24 67 17 is_stmt 1 view .LVU225
  68:../lib/libDaisy/src/util/CpuLoadMeter.h ****                 min_ = currentBlockLoad;
 867              		.loc 24 68 13 is_stmt 0 view .LVU226
 868 01b2 F4EEC77A 		vcmpe.f32	s15, s14
 869              		.loc 24 72 28 view .LVU227
 870 01b6 B7EE007A 		vmov.f32	s14, #1.0e+0
  67:../lib/libDaisy/src/util/CpuLoadMeter.h ****             if(currentBlockLoad < min_)
 871              		.loc 24 67 22 view .LVU228
 872 01ba C8BF     		it	gt
 873 01bc C9ED047A 		vstrgt.32	s15, [r9, #16]
  68:../lib/libDaisy/src/util/CpuLoadMeter.h ****                 min_ = currentBlockLoad;
ARM GAS  /var/folders/hp/45mn71hd0ps5f5pnytxy5bt00000gn/T//ccCIVO9k.s 			page 53


 874              		.loc 24 68 13 is_stmt 1 view .LVU229
 875 01c0 F1EE10FA 		vmrs	APSR_nzcv, FPSCR
  69:../lib/libDaisy/src/util/CpuLoadMeter.h **** 
 876              		.loc 24 69 17 view .LVU230
 877              		.loc 24 72 28 is_stmt 0 view .LVU231
 878 01c4 37EE667A 		vsub.f32	s14, s14, s13
 879              	.LBE1009:
 880              	.LBE1013:
 881              		.loc 23 77 1 view .LVU232
 882 01c8 BDEC028B 		vldm	sp!, {d8}
 883              		.cfi_remember_state
 884              		.cfi_restore 80
 885              		.cfi_restore 81
 886              		.cfi_def_cfa_offset 40
 887              	.LBB1014:
 888              	.LBB1010:
 889              		.loc 24 72 50 view .LVU233
 890 01cc 27EE067A 		vmul.f32	s14, s14, s12
  69:../lib/libDaisy/src/util/CpuLoadMeter.h **** 
 891              		.loc 24 69 22 view .LVU234
 892 01d0 48BF     		it	mi
 893 01d2 C9ED037A 		vstrmi.32	s15, [r9, #12]
  71:../lib/libDaisy/src/util/CpuLoadMeter.h ****                    + (1.0f - smoothingConstant_) * avg_;
 894              		.loc 24 71 13 is_stmt 1 view .LVU235
 895              		.loc 24 72 20 is_stmt 0 view .LVU236
 896 01d6 A7EEA67A 		vfma.f32	s14, s15, s13
  71:../lib/libDaisy/src/util/CpuLoadMeter.h ****                    + (1.0f - smoothingConstant_) * avg_;
 897              		.loc 24 71 18 view .LVU237
 898 01da 89ED057A 		vstr.32	s14, [r9, #20]
 899              	.LVL53:
  71:../lib/libDaisy/src/util/CpuLoadMeter.h ****                    + (1.0f - smoothingConstant_) * avg_;
 900              		.loc 24 71 18 view .LVU238
 901              	.LBE1010:
 902              	.LBE1014:
 903              		.loc 23 77 1 view .LVU239
 904 01de BDE8F88F 		pop	{r3, r4, r5, r6, r7, r8, r9, r10, fp, pc}
 905              	.LVL54:
 906              	.L62:
 907              		.cfi_restore_state
  59:SynthV8.cpp   ****     
 908              		.loc 23 59 9 is_stmt 1 view .LVU240
  59:SynthV8.cpp   ****     
 909              		.loc 23 59 22 is_stmt 0 view .LVU241
 910 01e2 1849     		ldr	r1, .L65+36
  59:SynthV8.cpp   ****     
 911              		.loc 23 59 24 view .LVU242
 912 01e4 0A78     		ldrb	r2, [r1]	@ zero_extendqisi2
 913 01e6 82F00102 		eor	r2, r2, #1
  59:SynthV8.cpp   ****     
 914              		.loc 23 59 22 view .LVU243
 915 01ea 0A70     		strb	r2, [r1]
 916 01ec 52E7     		b	.L26
 917              	.L61:
  43:SynthV8.cpp   **** 
 918              		.loc 23 43 9 is_stmt 1 view .LVU244
  43:SynthV8.cpp   **** 
 919              		.loc 23 43 17 is_stmt 0 view .LVU245
ARM GAS  /var/folders/hp/45mn71hd0ps5f5pnytxy5bt00000gn/T//ccCIVO9k.s 			page 54


 920 01ee 144A     		ldr	r2, .L65+32
  43:SynthV8.cpp   **** 
 921              		.loc 23 43 19 view .LVU246
 922 01f0 1378     		ldrb	r3, [r2]	@ zero_extendqisi2
 923 01f2 83F00103 		eor	r3, r3, #1
  43:SynthV8.cpp   **** 
 924              		.loc 23 43 17 view .LVU247
 925 01f6 1370     		strb	r3, [r2]
 926 01f8 2BE7     		b	.L15
 927              	.L58:
  50:SynthV8.cpp   ****         volChange -= 0.02;
 928              		.loc 23 50 10 is_stmt 1 view .LVU248
 929 01fa 7FF535AF 		bpl	.L20
  51:SynthV8.cpp   **** 
 930              		.loc 23 51 9 view .LVU249
  51:SynthV8.cpp   **** 
 931              		.loc 23 51 19 is_stmt 0 view .LVU250
 932 01fe DFF850B0 		ldr	fp, .L65+48
 933 0202 9BED007A 		vldr.32	s14, [fp]
 934 0206 9FED066B 		vldr.64	d6, .L65
 935 020a B7EEC77A 		vcvt.f64.f32	d7, s14
 936 020e 37EE467B 		vsub.f64	d7, d7, d6
 937 0212 B7EEC77B 		vcvt.f32.f64	s14, d7
 938 0216 8BED007A 		vstr.32	s14, [fp]
 939 021a 29E7     		b	.L17
 940              	.L66:
 941 021c AFF30080 		.align	3
 942              	.L65:
 943 0220 7B14AE47 		.word	1202590843
 944 0224 E17A943F 		.word	1066695393
 945 0228 00000000 		.word	_ZL2hw
 946 022c 00000000 		.word	.LANCHOR3
 947 0230 00000000 		.word	.LANCHOR8
 948 0234 00000000 		.word	.LANCHOR2
 949 0238 0000C843 		.word	1137180672
 950 023c 00000000 		.word	.LANCHOR7
 951 0240 00000000 		.word	.LANCHOR1
 952 0244 00000000 		.word	.LANCHOR6
 953 0248 00000000 		.word	.LANCHOR0
 954 024c 00000000 		.word	.LANCHOR4
 955 0250 00000000 		.word	.LANCHOR5
 956              		.cfi_endproc
 957              	.LFE5027:
 959              		.section	.text._ZN5daisy11OledDisplayINS_13SSD130xDriverILj128ELj64ENS_19SSD130xI2CTransportEEEED0
 960              		.align	1
 961              		.p2align 2,,3
 962              		.weak	_ZN5daisy11OledDisplayINS_13SSD130xDriverILj128ELj64ENS_19SSD130xI2CTransportEEEED0Ev
 963              		.syntax unified
 964              		.thumb
 965              		.thumb_func
 967              	_ZN5daisy11OledDisplayINS_13SSD130xDriverILj128ELj64ENS_19SSD130xI2CTransportEEEED0Ev:
 968              	.LVL55:
 969              	.LFB5656:
  18:../lib/libDaisy/src/hid/disp/oled_display.h **** 
 970              		.loc 19 18 13 is_stmt 1 view -0
 971              		.cfi_startproc
 972              		@ args = 0, pretend = 0, frame = 0
ARM GAS  /var/folders/hp/45mn71hd0ps5f5pnytxy5bt00000gn/T//ccCIVO9k.s 			page 55


 973              		@ frame_needed = 0, uses_anonymous_args = 0
  18:../lib/libDaisy/src/hid/disp/oled_display.h **** 
 974              		.loc 19 18 13 is_stmt 0 view .LVU252
 975 0000 10B5     		push	{r4, lr}
 976              		.cfi_def_cfa_offset 8
 977              		.cfi_offset 4, -8
 978              		.cfi_offset 14, -4
  18:../lib/libDaisy/src/hid/disp/oled_display.h **** 
 979              		.loc 19 18 13 view .LVU253
 980 0002 0446     		mov	r4, r0
 981              	.LVL56:
 982              	.LBB1015:
 983              	.LBI1015:
  18:../lib/libDaisy/src/hid/disp/oled_display.h **** 
 984              		.loc 19 18 13 is_stmt 1 view .LVU254
 985              	.LBB1016:
 986              	.LBI1016:
 987              		.loc 21 219 13 view .LVU255
 988              	.LBB1017:
 989              	.LBI1017:
  23:../lib/libDaisy/src/hid/disp/display.h **** 
 990              		.loc 21 23 13 view .LVU256
  23:../lib/libDaisy/src/hid/disp/display.h **** 
 991              		.loc 21 23 13 is_stmt 0 view .LVU257
 992              	.LBE1017:
 993              	.LBE1016:
 994              	.LBE1015:
  18:../lib/libDaisy/src/hid/disp/oled_display.h **** 
 995              		.loc 19 18 29 view .LVU258
 996 0004 4FF48261 		mov	r1, #1040
 997 0008 FFF7FEFF 		bl	_ZdlPvj
 998              	.LVL57:
  18:../lib/libDaisy/src/hid/disp/oled_display.h **** 
 999              		.loc 19 18 29 view .LVU259
 1000 000c 2046     		mov	r0, r4
 1001 000e 10BD     		pop	{r4, pc}
  18:../lib/libDaisy/src/hid/disp/oled_display.h **** 
 1002              		.loc 19 18 29 view .LVU260
 1003              		.cfi_endproc
 1004              	.LFE5656:
 1006              		.section	.text._ZN5daisy11OledDisplayINS_13SSD130xDriverILj128ELj64ENS_19SSD130xI2CTransportEEEE6U
 1007              		.align	1
 1008              		.p2align 2,,3
 1009              		.weak	_ZN5daisy11OledDisplayINS_13SSD130xDriverILj128ELj64ENS_19SSD130xI2CTransportEEEE6UpdateEv
 1010              		.syntax unified
 1011              		.thumb
 1012              		.thumb_func
 1014              	_ZN5daisy11OledDisplayINS_13SSD130xDriverILj128ELj64ENS_19SSD130xI2CTransportEEEE6UpdateEv:
 1015              	.LVL58:
 1016              	.LFB5373:
  35:../lib/libDaisy/src/hid/disp/oled_display.h **** 
  36:../lib/libDaisy/src/hid/disp/oled_display.h ****     /**
  37:../lib/libDaisy/src/hid/disp/oled_display.h ****     Sets the pixel at the specified coordinate to be on/off.
  38:../lib/libDaisy/src/hid/disp/oled_display.h ****     \param x   x Coordinate
  39:../lib/libDaisy/src/hid/disp/oled_display.h ****     \param y   y coordinate
  40:../lib/libDaisy/src/hid/disp/oled_display.h ****     \param on  on or off
  41:../lib/libDaisy/src/hid/disp/oled_display.h ****     */
ARM GAS  /var/folders/hp/45mn71hd0ps5f5pnytxy5bt00000gn/T//ccCIVO9k.s 			page 56


  42:../lib/libDaisy/src/hid/disp/oled_display.h ****     void DrawPixel(uint_fast8_t x, uint_fast8_t y, bool on) override
  43:../lib/libDaisy/src/hid/disp/oled_display.h ****     {
  44:../lib/libDaisy/src/hid/disp/oled_display.h ****         driver_.DrawPixel(x, y, on);
  45:../lib/libDaisy/src/hid/disp/oled_display.h ****     }
  46:../lib/libDaisy/src/hid/disp/oled_display.h **** 
  47:../lib/libDaisy/src/hid/disp/oled_display.h ****     /** 
  48:../lib/libDaisy/src/hid/disp/oled_display.h ****     Writes the current display buffer to the OLED device using SPI or I2C depending on 
  49:../lib/libDaisy/src/hid/disp/oled_display.h ****     how the object was initialized.
  50:../lib/libDaisy/src/hid/disp/oled_display.h ****     */
  51:../lib/libDaisy/src/hid/disp/oled_display.h ****     void Update() override { driver_.Update(); }
 1017              		.loc 19 51 10 is_stmt 1 view -0
 1018              		.cfi_startproc
 1019              		@ args = 0, pretend = 0, frame = 8
 1020              		@ frame_needed = 0, uses_anonymous_args = 0
 1021              		.loc 19 51 10 is_stmt 0 view .LVU262
 1022 0000 2DE9F04F 		push	{r4, r5, r6, r7, r8, r9, r10, fp, lr}
 1023              		.cfi_def_cfa_offset 36
 1024              		.cfi_offset 4, -36
 1025              		.cfi_offset 5, -32
 1026              		.cfi_offset 6, -28
 1027              		.cfi_offset 7, -24
 1028              		.cfi_offset 8, -20
 1029              		.cfi_offset 9, -16
 1030              		.cfi_offset 10, -12
 1031              		.cfi_offset 11, -8
 1032              		.cfi_offset 14, -4
 1033              	.LBB1030:
 1034              	.LBB1031:
 1035              	.LBB1032:
 1036              	.LBB1033:
  45:../lib/libDaisy/src/dev/oled_ssd130x.h ****     };
 1037              		.loc 20 45 30 view .LVU263
 1038 0004 4FF0B008 		mov	r8, #176
 1039              	.LBE1033:
 1040              	.LBE1032:
 1041              	.LBE1031:
 1042              	.LBE1030:
 1043              		.loc 19 51 10 view .LVU264
 1044 0008 85B0     		sub	sp, sp, #20
 1045              		.cfi_def_cfa_offset 56
 1046              		.loc 19 51 10 view .LVU265
 1047 000a 0546     		mov	r5, r0
 1048              	.LVL59:
 1049              	.LBB1045:
 1050              	.LBI1030:
 355:../lib/libDaisy/src/dev/oled_ssd130x.h ****         }
 356:../lib/libDaisy/src/dev/oled_ssd130x.h ****     };
 357:../lib/libDaisy/src/dev/oled_ssd130x.h **** 
 358:../lib/libDaisy/src/dev/oled_ssd130x.h ****     /**
 359:../lib/libDaisy/src/dev/oled_ssd130x.h ****      * Update the display 
 360:../lib/libDaisy/src/dev/oled_ssd130x.h ****     */
 361:../lib/libDaisy/src/dev/oled_ssd130x.h ****     void Update()
 1051              		.loc 20 361 10 is_stmt 1 view .LVU266
 1052              	.LBB1044:
 362:../lib/libDaisy/src/dev/oled_ssd130x.h ****     {
 363:../lib/libDaisy/src/dev/oled_ssd130x.h ****         uint8_t i;
 364:../lib/libDaisy/src/dev/oled_ssd130x.h ****         uint8_t high_column_addr;
ARM GAS  /var/folders/hp/45mn71hd0ps5f5pnytxy5bt00000gn/T//ccCIVO9k.s 			page 57


 365:../lib/libDaisy/src/dev/oled_ssd130x.h ****         switch(height)
 366:../lib/libDaisy/src/dev/oled_ssd130x.h ****         {
 367:../lib/libDaisy/src/dev/oled_ssd130x.h ****             case 32: high_column_addr = 0x12; break;
 368:../lib/libDaisy/src/dev/oled_ssd130x.h **** 
 369:../lib/libDaisy/src/dev/oled_ssd130x.h ****             default: high_column_addr = 0x10; break;
 370:../lib/libDaisy/src/dev/oled_ssd130x.h ****         }
 371:../lib/libDaisy/src/dev/oled_ssd130x.h ****         for(i = 0; i < (height / 8); i++)
 1053              		.loc 20 371 22 view .LVU267
 1054              	.LBB1036:
 1055              	.LBB1034:
  45:../lib/libDaisy/src/dev/oled_ssd130x.h ****     };
 1056              		.loc 20 45 30 is_stmt 0 view .LVU268
 1057 000c 00F10807 		add	r7, r0, #8
 1058              	.LVL60:
  45:../lib/libDaisy/src/dev/oled_ssd130x.h ****     };
 1059              		.loc 20 45 30 view .LVU269
 1060 0010 00F18F06 		add	r6, r0, #143
 1061 0014 00F28F49 		addw	r9, r0, #1167
 1062              	.LVL61:
 1063              	.L71:
  45:../lib/libDaisy/src/dev/oled_ssd130x.h ****     };
 1064              		.loc 20 45 30 view .LVU270
 1065              	.LBE1034:
 1066              	.LBI1032:
  42:../lib/libDaisy/src/dev/oled_ssd130x.h ****     {
 1067              		.loc 20 42 10 is_stmt 1 view .LVU271
 1068              	.LBB1035:
  44:../lib/libDaisy/src/dev/oled_ssd130x.h ****         i2c_.TransmitBlocking(i2c_address_, buf, 2, 1000);
 1069              		.loc 20 44 9 view .LVU272
  45:../lib/libDaisy/src/dev/oled_ssd130x.h ****     };
 1070              		.loc 20 45 30 is_stmt 0 view .LVU273
 1071 0018 4FF47A7B 		mov	fp, #1000
  44:../lib/libDaisy/src/dev/oled_ssd130x.h ****         i2c_.TransmitBlocking(i2c_address_, buf, 2, 1000);
 1072              		.loc 20 44 17 view .LVU274
 1073 001c 4FF0000A 		mov	r10, #0
  45:../lib/libDaisy/src/dev/oled_ssd130x.h ****     };
 1074              		.loc 20 45 30 view .LVU275
 1075 0020 297B     		ldrb	r1, [r5, #12]	@ zero_extendqisi2
 1076 0022 0223     		movs	r3, #2
 1077 0024 03AA     		add	r2, sp, #12
 1078 0026 3846     		mov	r0, r7
 1079 0028 CDF800B0 		str	fp, [sp]
 1080 002c A6F18004 		sub	r4, r6, #128
  44:../lib/libDaisy/src/dev/oled_ssd130x.h ****         i2c_.TransmitBlocking(i2c_address_, buf, 2, 1000);
 1081              		.loc 20 44 17 view .LVU276
 1082 0030 8DF80CA0 		strb	r10, [sp, #12]
  44:../lib/libDaisy/src/dev/oled_ssd130x.h ****         i2c_.TransmitBlocking(i2c_address_, buf, 2, 1000);
 1083              		.loc 20 44 36 view .LVU277
 1084 0034 8DF80D80 		strb	r8, [sp, #13]
  45:../lib/libDaisy/src/dev/oled_ssd130x.h ****     };
 1085              		.loc 20 45 9 is_stmt 1 view .LVU278
  45:../lib/libDaisy/src/dev/oled_ssd130x.h ****     };
 1086              		.loc 20 45 30 is_stmt 0 view .LVU279
 1087 0038 FFF7FEFF 		bl	_ZN5daisy9I2CHandle16TransmitBlockingEtPhtm
 1088              	.LVL62:
  45:../lib/libDaisy/src/dev/oled_ssd130x.h ****     };
 1089              		.loc 20 45 30 view .LVU280
ARM GAS  /var/folders/hp/45mn71hd0ps5f5pnytxy5bt00000gn/T//ccCIVO9k.s 			page 58


 1090              	.LBE1035:
 1091              	.LBE1036:
 1092              	.LBB1037:
 1093              	.LBI1037:
  42:../lib/libDaisy/src/dev/oled_ssd130x.h ****     {
 1094              		.loc 20 42 10 is_stmt 1 view .LVU281
 1095              	.LBB1038:
  44:../lib/libDaisy/src/dev/oled_ssd130x.h ****         i2c_.TransmitBlocking(i2c_address_, buf, 2, 1000);
 1096              		.loc 20 44 9 view .LVU282
  45:../lib/libDaisy/src/dev/oled_ssd130x.h ****     };
 1097              		.loc 20 45 30 is_stmt 0 view .LVU283
 1098 003c 297B     		ldrb	r1, [r5, #12]	@ zero_extendqisi2
 1099 003e 0223     		movs	r3, #2
 1100 0040 03AA     		add	r2, sp, #12
 1101 0042 3846     		mov	r0, r7
 1102 0044 CDF800B0 		str	fp, [sp]
  44:../lib/libDaisy/src/dev/oled_ssd130x.h ****         i2c_.TransmitBlocking(i2c_address_, buf, 2, 1000);
 1103              		.loc 20 44 17 view .LVU284
 1104 0048 8DF80CA0 		strb	r10, [sp, #12]
  44:../lib/libDaisy/src/dev/oled_ssd130x.h ****         i2c_.TransmitBlocking(i2c_address_, buf, 2, 1000);
 1105              		.loc 20 44 36 view .LVU285
 1106 004c 8DF80DA0 		strb	r10, [sp, #13]
  45:../lib/libDaisy/src/dev/oled_ssd130x.h ****     };
 1107              		.loc 20 45 9 is_stmt 1 view .LVU286
  45:../lib/libDaisy/src/dev/oled_ssd130x.h ****     };
 1108              		.loc 20 45 30 is_stmt 0 view .LVU287
 1109 0050 FFF7FEFF 		bl	_ZN5daisy9I2CHandle16TransmitBlockingEtPhtm
 1110              	.LVL63:
  45:../lib/libDaisy/src/dev/oled_ssd130x.h ****     };
 1111              		.loc 20 45 30 view .LVU288
 1112              	.LBE1038:
 1113              	.LBE1037:
 1114              	.LBB1039:
 1115              	.LBI1039:
  42:../lib/libDaisy/src/dev/oled_ssd130x.h ****     {
 1116              		.loc 20 42 10 is_stmt 1 view .LVU289
 1117              	.LBB1040:
  44:../lib/libDaisy/src/dev/oled_ssd130x.h ****         i2c_.TransmitBlocking(i2c_address_, buf, 2, 1000);
 1118              		.loc 20 44 9 view .LVU290
  44:../lib/libDaisy/src/dev/oled_ssd130x.h ****         i2c_.TransmitBlocking(i2c_address_, buf, 2, 1000);
 1119              		.loc 20 44 36 is_stmt 0 view .LVU291
 1120 0054 4FF0100C 		mov	ip, #16
  45:../lib/libDaisy/src/dev/oled_ssd130x.h ****     };
 1121              		.loc 20 45 30 view .LVU292
 1122 0058 297B     		ldrb	r1, [r5, #12]	@ zero_extendqisi2
 1123 005a 0223     		movs	r3, #2
 1124 005c 03AA     		add	r2, sp, #12
 1125 005e 3846     		mov	r0, r7
 1126 0060 CDF800B0 		str	fp, [sp]
  44:../lib/libDaisy/src/dev/oled_ssd130x.h ****         i2c_.TransmitBlocking(i2c_address_, buf, 2, 1000);
 1127              		.loc 20 44 17 view .LVU293
 1128 0064 8DF80CA0 		strb	r10, [sp, #12]
  44:../lib/libDaisy/src/dev/oled_ssd130x.h ****         i2c_.TransmitBlocking(i2c_address_, buf, 2, 1000);
 1129              		.loc 20 44 36 view .LVU294
 1130 0068 8DF80DC0 		strb	ip, [sp, #13]
  45:../lib/libDaisy/src/dev/oled_ssd130x.h ****     };
 1131              		.loc 20 45 9 is_stmt 1 view .LVU295
ARM GAS  /var/folders/hp/45mn71hd0ps5f5pnytxy5bt00000gn/T//ccCIVO9k.s 			page 59


  45:../lib/libDaisy/src/dev/oled_ssd130x.h ****     };
 1132              		.loc 20 45 30 is_stmt 0 view .LVU296
 1133 006c FFF7FEFF 		bl	_ZN5daisy9I2CHandle16TransmitBlockingEtPhtm
 1134              	.LVL64:
  45:../lib/libDaisy/src/dev/oled_ssd130x.h ****     };
 1135              		.loc 20 45 30 view .LVU297
 1136              	.LBE1040:
 1137              	.LBE1039:
 1138              	.LBB1041:
 1139              	.LBI1041:
  48:../lib/libDaisy/src/dev/oled_ssd130x.h ****     {
 1140              		.loc 20 48 10 is_stmt 1 view .LVU298
 1141              	.LBB1042:
  50:../lib/libDaisy/src/dev/oled_ssd130x.h ****         {
 1142              		.loc 20 50 29 view .LVU299
 1143              	.L70:
 1144              	.LBB1043:
  52:../lib/libDaisy/src/dev/oled_ssd130x.h ****             i2c_.TransmitBlocking(i2c_address_, buf, 2, 1000);
 1145              		.loc 20 52 13 view .LVU300
  53:../lib/libDaisy/src/dev/oled_ssd130x.h ****         }
 1146              		.loc 20 53 34 is_stmt 0 view .LVU301
 1147 0070 4FF47A70 		mov	r0, #1000
  52:../lib/libDaisy/src/dev/oled_ssd130x.h ****             i2c_.TransmitBlocking(i2c_address_, buf, 2, 1000);
 1148              		.loc 20 52 44 view .LVU302
 1149 0074 14F801CF 		ldrb	ip, [r4, #1]!	@ zero_extendqisi2
 1150              	.LVL65:
  52:../lib/libDaisy/src/dev/oled_ssd130x.h ****             i2c_.TransmitBlocking(i2c_address_, buf, 2, 1000);
 1151              		.loc 20 52 21 view .LVU303
 1152 0078 4FF0400E 		mov	lr, #64
  53:../lib/libDaisy/src/dev/oled_ssd130x.h ****         }
 1153              		.loc 20 53 34 view .LVU304
 1154 007c 297B     		ldrb	r1, [r5, #12]	@ zero_extendqisi2
 1155 007e 0223     		movs	r3, #2
 1156 0080 0090     		str	r0, [sp]
 1157 0082 03AA     		add	r2, sp, #12
 1158 0084 3846     		mov	r0, r7
  52:../lib/libDaisy/src/dev/oled_ssd130x.h ****             i2c_.TransmitBlocking(i2c_address_, buf, 2, 1000);
 1159              		.loc 20 52 21 view .LVU305
 1160 0086 8DF80CE0 		strb	lr, [sp, #12]
  52:../lib/libDaisy/src/dev/oled_ssd130x.h ****             i2c_.TransmitBlocking(i2c_address_, buf, 2, 1000);
 1161              		.loc 20 52 44 view .LVU306
 1162 008a 8DF80DC0 		strb	ip, [sp, #13]
  53:../lib/libDaisy/src/dev/oled_ssd130x.h ****         }
 1163              		.loc 20 53 13 is_stmt 1 view .LVU307
  53:../lib/libDaisy/src/dev/oled_ssd130x.h ****         }
 1164              		.loc 20 53 34 is_stmt 0 view .LVU308
 1165 008e FFF7FEFF 		bl	_ZN5daisy9I2CHandle16TransmitBlockingEtPhtm
 1166              	.LVL66:
 1167              	.LBE1043:
  50:../lib/libDaisy/src/dev/oled_ssd130x.h ****         {
 1168              		.loc 20 50 9 is_stmt 1 view .LVU309
  50:../lib/libDaisy/src/dev/oled_ssd130x.h ****         {
 1169              		.loc 20 50 29 view .LVU310
 1170 0092 B442     		cmp	r4, r6
 1171 0094 ECD1     		bne	.L70
 1172              	.LVL67:
  50:../lib/libDaisy/src/dev/oled_ssd130x.h ****         {
ARM GAS  /var/folders/hp/45mn71hd0ps5f5pnytxy5bt00000gn/T//ccCIVO9k.s 			page 60


 1173              		.loc 20 50 29 is_stmt 0 view .LVU311
 1174              	.LBE1042:
 1175              	.LBE1041:
 1176              		.loc 20 371 9 is_stmt 1 view .LVU312
 1177              		.loc 20 371 22 view .LVU313
 1178 0096 04F18006 		add	r6, r4, #128
 1179 009a 08F10108 		add	r8, r8, #1
 1180              	.LVL68:
 1181              		.loc 20 371 22 is_stmt 0 view .LVU314
 1182 009e 4E45     		cmp	r6, r9
 1183 00a0 5FFA88F8 		uxtb	r8, r8
 1184 00a4 B8D1     		bne	.L71
 1185              	.LBE1044:
 1186              	.LBE1045:
 1187              		.loc 19 51 48 view .LVU315
 1188 00a6 05B0     		add	sp, sp, #20
 1189              		.cfi_def_cfa_offset 36
 1190              		@ sp needed
 1191 00a8 BDE8F08F 		pop	{r4, r5, r6, r7, r8, r9, r10, fp, pc}
 1192              		.loc 19 51 48 view .LVU316
 1193              		.cfi_endproc
 1194              	.LFE5373:
 1196              		.section	.text._ZN5daisy25OneBitGraphicsDisplayImplINS_11OledDisplayINS_13SSD130xDriverILj128ELj64
 1197              		.align	1
 1198              		.p2align 2,,3
 1199              		.weak	_ZN5daisy25OneBitGraphicsDisplayImplINS_11OledDisplayINS_13SSD130xDriverILj128ELj64ENS_19SSD
 1200              		.syntax unified
 1201              		.thumb
 1202              		.thumb_func
 1204              	_ZN5daisy25OneBitGraphicsDisplayImplINS_11OledDisplayINS_13SSD130xDriverILj128ELj64ENS_19SSD130xI2C
 1205              	.LVL69:
 1206              	.LFB5507:
 220:../lib/libDaisy/src/hid/disp/display.h **** 
 221:../lib/libDaisy/src/hid/disp/display.h ****     void DrawLine(uint_fast8_t x1,
 222:../lib/libDaisy/src/hid/disp/display.h ****                   uint_fast8_t y1,
 223:../lib/libDaisy/src/hid/disp/display.h ****                   uint_fast8_t x2,
 224:../lib/libDaisy/src/hid/disp/display.h ****                   uint_fast8_t y2,
 225:../lib/libDaisy/src/hid/disp/display.h ****                   bool         on) override
 226:../lib/libDaisy/src/hid/disp/display.h ****     {
 227:../lib/libDaisy/src/hid/disp/display.h ****         int_fast16_t deltaX = abs((int_fast16_t)x2 - (int_fast16_t)x1);
 228:../lib/libDaisy/src/hid/disp/display.h ****         int_fast16_t deltaY = abs((int_fast16_t)y2 - (int_fast16_t)y1);
 229:../lib/libDaisy/src/hid/disp/display.h ****         int_fast16_t signX  = ((x1 < x2) ? 1 : -1);
 230:../lib/libDaisy/src/hid/disp/display.h ****         int_fast16_t signY  = ((y1 < y2) ? 1 : -1);
 231:../lib/libDaisy/src/hid/disp/display.h ****         int_fast16_t error  = deltaX - deltaY;
 232:../lib/libDaisy/src/hid/disp/display.h ****         int_fast16_t error2;
 233:../lib/libDaisy/src/hid/disp/display.h **** 
 234:../lib/libDaisy/src/hid/disp/display.h ****         // If we write "ChildType::DrawPixel(x2, y2, on);", we end up with
 235:../lib/libDaisy/src/hid/disp/display.h ****         // all sorts of weird compiler errors when the Child class is a template
 236:../lib/libDaisy/src/hid/disp/display.h ****         // class. The only way around this is to use this very verbose syntax:
 237:../lib/libDaisy/src/hid/disp/display.h ****         ((ChildType*)(this))->ChildType::DrawPixel(x2, y2, on);
 238:../lib/libDaisy/src/hid/disp/display.h **** 
 239:../lib/libDaisy/src/hid/disp/display.h ****         while((x1 != x2) || (y1 != y2))
 240:../lib/libDaisy/src/hid/disp/display.h ****         {
 241:../lib/libDaisy/src/hid/disp/display.h ****             ((ChildType*)(this))->ChildType::DrawPixel(x1, y1, on);
 242:../lib/libDaisy/src/hid/disp/display.h ****             error2 = error * 2;
 243:../lib/libDaisy/src/hid/disp/display.h ****             if(error2 > -deltaY)
 244:../lib/libDaisy/src/hid/disp/display.h ****             {
ARM GAS  /var/folders/hp/45mn71hd0ps5f5pnytxy5bt00000gn/T//ccCIVO9k.s 			page 61


 245:../lib/libDaisy/src/hid/disp/display.h ****                 error -= deltaY;
 246:../lib/libDaisy/src/hid/disp/display.h ****                 x1 += signX;
 247:../lib/libDaisy/src/hid/disp/display.h ****             }
 248:../lib/libDaisy/src/hid/disp/display.h **** 
 249:../lib/libDaisy/src/hid/disp/display.h ****             if(error2 < deltaX)
 250:../lib/libDaisy/src/hid/disp/display.h ****             {
 251:../lib/libDaisy/src/hid/disp/display.h ****                 error += deltaX;
 252:../lib/libDaisy/src/hid/disp/display.h ****                 y1 += signY;
 253:../lib/libDaisy/src/hid/disp/display.h ****             }
 254:../lib/libDaisy/src/hid/disp/display.h ****         }
 255:../lib/libDaisy/src/hid/disp/display.h ****     }
 256:../lib/libDaisy/src/hid/disp/display.h **** 
 257:../lib/libDaisy/src/hid/disp/display.h ****     void DrawRect(uint_fast8_t x1,
 258:../lib/libDaisy/src/hid/disp/display.h ****                   uint_fast8_t y1,
 259:../lib/libDaisy/src/hid/disp/display.h ****                   uint_fast8_t x2,
 260:../lib/libDaisy/src/hid/disp/display.h ****                   uint_fast8_t y2,
 261:../lib/libDaisy/src/hid/disp/display.h ****                   bool         on,
 262:../lib/libDaisy/src/hid/disp/display.h ****                   bool         fill = false) override
 263:../lib/libDaisy/src/hid/disp/display.h ****     {
 264:../lib/libDaisy/src/hid/disp/display.h ****         if(fill)
 265:../lib/libDaisy/src/hid/disp/display.h ****         {
 266:../lib/libDaisy/src/hid/disp/display.h ****             for(uint_fast8_t x = x1; x <= x2; x++)
 267:../lib/libDaisy/src/hid/disp/display.h ****             {
 268:../lib/libDaisy/src/hid/disp/display.h ****                 for(uint_fast8_t y = y1; y <= y2; y++)
 269:../lib/libDaisy/src/hid/disp/display.h ****                 {
 270:../lib/libDaisy/src/hid/disp/display.h ****                     ((ChildType*)(this))->ChildType::DrawPixel(x, y, on);
 271:../lib/libDaisy/src/hid/disp/display.h ****                 }
 272:../lib/libDaisy/src/hid/disp/display.h ****             }
 273:../lib/libDaisy/src/hid/disp/display.h ****         }
 274:../lib/libDaisy/src/hid/disp/display.h ****         else
 275:../lib/libDaisy/src/hid/disp/display.h ****         {
 276:../lib/libDaisy/src/hid/disp/display.h ****             ((ChildType*)(this))->ChildType::DrawLine(x1, y1, x2, y1, on);
 277:../lib/libDaisy/src/hid/disp/display.h ****             ((ChildType*)(this))->ChildType::DrawLine(x2, y1, x2, y2, on);
 278:../lib/libDaisy/src/hid/disp/display.h ****             ((ChildType*)(this))->ChildType::DrawLine(x2, y2, x1, y2, on);
 279:../lib/libDaisy/src/hid/disp/display.h ****             ((ChildType*)(this))->ChildType::DrawLine(x1, y2, x1, y1, on);
 280:../lib/libDaisy/src/hid/disp/display.h ****         }
 281:../lib/libDaisy/src/hid/disp/display.h ****     }
 282:../lib/libDaisy/src/hid/disp/display.h **** 
 283:../lib/libDaisy/src/hid/disp/display.h ****     void DrawArc(uint_fast8_t x,
 284:../lib/libDaisy/src/hid/disp/display.h ****                  uint_fast8_t y,
 285:../lib/libDaisy/src/hid/disp/display.h ****                  uint_fast8_t radius,
 286:../lib/libDaisy/src/hid/disp/display.h ****                  int_fast16_t start_angle,
 287:../lib/libDaisy/src/hid/disp/display.h ****                  int_fast16_t sweep,
 288:../lib/libDaisy/src/hid/disp/display.h ****                  bool         on) override
 289:../lib/libDaisy/src/hid/disp/display.h ****     {
 290:../lib/libDaisy/src/hid/disp/display.h ****         // Values to calculate the circle
 291:../lib/libDaisy/src/hid/disp/display.h ****         int_fast16_t t_x, t_y, err, e2;
 292:../lib/libDaisy/src/hid/disp/display.h **** 
 293:../lib/libDaisy/src/hid/disp/display.h ****         // Temporary values to speed up comparisons
 294:../lib/libDaisy/src/hid/disp/display.h ****         float t_sxy, t_syx, t_sxny, t_synx;
 295:../lib/libDaisy/src/hid/disp/display.h ****         float t_exy, t_eyx, t_exny, t_eynx;
 296:../lib/libDaisy/src/hid/disp/display.h **** 
 297:../lib/libDaisy/src/hid/disp/display.h ****         float start_angle_rad, end_angle_rad;
 298:../lib/libDaisy/src/hid/disp/display.h ****         float start_x, start_y, end_x, end_y;
 299:../lib/libDaisy/src/hid/disp/display.h **** 
 300:../lib/libDaisy/src/hid/disp/display.h ****         bool d1, d2, d3, d4;
 301:../lib/libDaisy/src/hid/disp/display.h **** 
ARM GAS  /var/folders/hp/45mn71hd0ps5f5pnytxy5bt00000gn/T//ccCIVO9k.s 			page 62


 302:../lib/libDaisy/src/hid/disp/display.h ****         d1 = d2 = d3 = d4 = true;
 303:../lib/libDaisy/src/hid/disp/display.h **** 
 304:../lib/libDaisy/src/hid/disp/display.h ****         bool circle = false;
 305:../lib/libDaisy/src/hid/disp/display.h **** 
 306:../lib/libDaisy/src/hid/disp/display.h ****         if(sweep < 0)
 307:../lib/libDaisy/src/hid/disp/display.h ****         {
 308:../lib/libDaisy/src/hid/disp/display.h ****             start_angle += sweep;
 309:../lib/libDaisy/src/hid/disp/display.h ****             sweep = -sweep;
 310:../lib/libDaisy/src/hid/disp/display.h ****         }
 311:../lib/libDaisy/src/hid/disp/display.h **** 
 312:../lib/libDaisy/src/hid/disp/display.h ****         start_angle_rad = deg2rad(start_angle);
 313:../lib/libDaisy/src/hid/disp/display.h ****         end_angle_rad   = deg2rad(start_angle + sweep);
 314:../lib/libDaisy/src/hid/disp/display.h **** 
 315:../lib/libDaisy/src/hid/disp/display.h ****         start_x = cos(start_angle_rad) * radius;
 316:../lib/libDaisy/src/hid/disp/display.h ****         start_y = -sin(start_angle_rad) * radius;
 317:../lib/libDaisy/src/hid/disp/display.h ****         end_x   = cos(end_angle_rad) * radius;
 318:../lib/libDaisy/src/hid/disp/display.h ****         end_y   = -sin(end_angle_rad) * radius;
 319:../lib/libDaisy/src/hid/disp/display.h **** 
 320:../lib/libDaisy/src/hid/disp/display.h ****         // Check if start and endpoint are very near
 321:../lib/libDaisy/src/hid/disp/display.h ****         if((end_x - start_x) * (end_x - start_x)
 322:../lib/libDaisy/src/hid/disp/display.h ****                + (end_y - start_y) * (end_y - start_y)
 323:../lib/libDaisy/src/hid/disp/display.h ****            < 2.0f)
 324:../lib/libDaisy/src/hid/disp/display.h ****         {
 325:../lib/libDaisy/src/hid/disp/display.h ****             if(sweep > 180)
 326:../lib/libDaisy/src/hid/disp/display.h ****                 circle = true;
 327:../lib/libDaisy/src/hid/disp/display.h ****             else
 328:../lib/libDaisy/src/hid/disp/display.h ****                 // Nothing to draw
 329:../lib/libDaisy/src/hid/disp/display.h ****                 return;
 330:../lib/libDaisy/src/hid/disp/display.h ****         }
 331:../lib/libDaisy/src/hid/disp/display.h **** 
 332:../lib/libDaisy/src/hid/disp/display.h ****         t_x = -radius;
 333:../lib/libDaisy/src/hid/disp/display.h ****         t_y = 0;
 334:../lib/libDaisy/src/hid/disp/display.h ****         err = 2 - 2 * radius;
 335:../lib/libDaisy/src/hid/disp/display.h **** 
 336:../lib/libDaisy/src/hid/disp/display.h ****         do
 337:../lib/libDaisy/src/hid/disp/display.h ****         {
 338:../lib/libDaisy/src/hid/disp/display.h ****             if(!circle)
 339:../lib/libDaisy/src/hid/disp/display.h ****             {
 340:../lib/libDaisy/src/hid/disp/display.h ****                 t_sxy  = start_x * t_y;
 341:../lib/libDaisy/src/hid/disp/display.h ****                 t_syx  = start_y * t_x;
 342:../lib/libDaisy/src/hid/disp/display.h ****                 t_sxny = start_x * -t_y;
 343:../lib/libDaisy/src/hid/disp/display.h ****                 t_synx = start_y * -t_x;
 344:../lib/libDaisy/src/hid/disp/display.h ****                 t_exy  = end_x * t_y;
 345:../lib/libDaisy/src/hid/disp/display.h ****                 t_eyx  = end_y * t_x;
 346:../lib/libDaisy/src/hid/disp/display.h ****                 t_exny = end_x * -t_y;
 347:../lib/libDaisy/src/hid/disp/display.h ****                 t_eynx = end_y * -t_x;
 348:../lib/libDaisy/src/hid/disp/display.h **** 
 349:../lib/libDaisy/src/hid/disp/display.h ****                 if(sweep > 180)
 350:../lib/libDaisy/src/hid/disp/display.h ****                 {
 351:../lib/libDaisy/src/hid/disp/display.h ****                     d1 = (t_sxy - t_synx < 0 || t_exy - t_eynx > 0);
 352:../lib/libDaisy/src/hid/disp/display.h ****                     d2 = (t_sxy - t_syx < 0 || t_exy - t_eyx > 0);
 353:../lib/libDaisy/src/hid/disp/display.h ****                     d3 = (t_sxny - t_syx < 0 || t_exny - t_eyx > 0);
 354:../lib/libDaisy/src/hid/disp/display.h ****                     d4 = (t_sxny - t_synx < 0 || t_exny - t_eynx > 0);
 355:../lib/libDaisy/src/hid/disp/display.h ****                 }
 356:../lib/libDaisy/src/hid/disp/display.h ****                 else
 357:../lib/libDaisy/src/hid/disp/display.h ****                 {
 358:../lib/libDaisy/src/hid/disp/display.h ****                     d1 = (t_sxy - t_synx < 0 && t_exy - t_eynx > 0);
ARM GAS  /var/folders/hp/45mn71hd0ps5f5pnytxy5bt00000gn/T//ccCIVO9k.s 			page 63


 359:../lib/libDaisy/src/hid/disp/display.h ****                     d2 = (t_sxy - t_syx < 0 && t_exy - t_eyx > 0);
 360:../lib/libDaisy/src/hid/disp/display.h ****                     d3 = (t_sxny - t_syx < 0 && t_exny - t_eyx > 0);
 361:../lib/libDaisy/src/hid/disp/display.h ****                     d4 = (t_sxny - t_synx < 0 && t_exny - t_eynx > 0);
 362:../lib/libDaisy/src/hid/disp/display.h ****                 }
 363:../lib/libDaisy/src/hid/disp/display.h ****             }
 364:../lib/libDaisy/src/hid/disp/display.h **** 
 365:../lib/libDaisy/src/hid/disp/display.h ****             if(d1)
 366:../lib/libDaisy/src/hid/disp/display.h ****                 ((ChildType*)(this))
 367:../lib/libDaisy/src/hid/disp/display.h ****                     ->ChildType::DrawPixel(x - t_x, y + t_y, on);
 368:../lib/libDaisy/src/hid/disp/display.h ****             if(d2)
 369:../lib/libDaisy/src/hid/disp/display.h ****                 ((ChildType*)(this))
 370:../lib/libDaisy/src/hid/disp/display.h ****                     ->ChildType::DrawPixel(x + t_x, y + t_y, on);
 371:../lib/libDaisy/src/hid/disp/display.h ****             if(d3)
 372:../lib/libDaisy/src/hid/disp/display.h ****                 ((ChildType*)(this))
 373:../lib/libDaisy/src/hid/disp/display.h ****                     ->ChildType::DrawPixel(x + t_x, y - t_y, on);
 374:../lib/libDaisy/src/hid/disp/display.h ****             if(d4)
 375:../lib/libDaisy/src/hid/disp/display.h ****                 ((ChildType*)(this))
 376:../lib/libDaisy/src/hid/disp/display.h ****                     ->ChildType::DrawPixel(x - t_x, y - t_y, on);
 377:../lib/libDaisy/src/hid/disp/display.h **** 
 378:../lib/libDaisy/src/hid/disp/display.h ****             e2 = err;
 379:../lib/libDaisy/src/hid/disp/display.h ****             if(e2 <= t_y)
 380:../lib/libDaisy/src/hid/disp/display.h ****             {
 381:../lib/libDaisy/src/hid/disp/display.h ****                 t_y++;
 382:../lib/libDaisy/src/hid/disp/display.h ****                 err = err + (t_y * 2 + 1);
 383:../lib/libDaisy/src/hid/disp/display.h ****                 if(-t_x == t_y && e2 <= t_x)
 384:../lib/libDaisy/src/hid/disp/display.h ****                 {
 385:../lib/libDaisy/src/hid/disp/display.h ****                     e2 = 0;
 386:../lib/libDaisy/src/hid/disp/display.h ****                 }
 387:../lib/libDaisy/src/hid/disp/display.h ****             }
 388:../lib/libDaisy/src/hid/disp/display.h ****             if(e2 > t_x)
 389:../lib/libDaisy/src/hid/disp/display.h ****             {
 390:../lib/libDaisy/src/hid/disp/display.h ****                 t_x++;
 391:../lib/libDaisy/src/hid/disp/display.h ****                 err = err + (t_x * 2 + 1);
 392:../lib/libDaisy/src/hid/disp/display.h ****             }
 393:../lib/libDaisy/src/hid/disp/display.h ****         } while(t_x <= 0);
 394:../lib/libDaisy/src/hid/disp/display.h ****     }
 395:../lib/libDaisy/src/hid/disp/display.h **** 
 396:../lib/libDaisy/src/hid/disp/display.h ****     char WriteChar(char ch, FontDef font, bool on) override
 1207              		.loc 21 396 10 is_stmt 1 view -0
 1208              		.cfi_startproc
 1209              		@ args = 4, pretend = 0, frame = 16
 1210              		@ frame_needed = 0, uses_anonymous_args = 0
 1211              		.loc 21 396 10 is_stmt 0 view .LVU318
 1212 0000 2DE9F04F 		push	{r4, r5, r6, r7, r8, r9, r10, fp, lr}
 1213              		.cfi_def_cfa_offset 36
 1214              		.cfi_offset 4, -36
 1215              		.cfi_offset 5, -32
 1216              		.cfi_offset 6, -28
 1217              		.cfi_offset 7, -24
 1218              		.cfi_offset 8, -20
 1219              		.cfi_offset 9, -16
 1220              		.cfi_offset 10, -12
 1221              		.cfi_offset 11, -8
 1222              		.cfi_offset 14, -4
 1223 0004 85B0     		sub	sp, sp, #20
 1224              		.cfi_def_cfa_offset 56
 1225              	.LVL70:
ARM GAS  /var/folders/hp/45mn71hd0ps5f5pnytxy5bt00000gn/T//ccCIVO9k.s 			page 64


 397:../lib/libDaisy/src/hid/disp/display.h ****     {
 398:../lib/libDaisy/src/hid/disp/display.h ****         uint32_t i, b, j;
 399:../lib/libDaisy/src/hid/disp/display.h **** 
 400:../lib/libDaisy/src/hid/disp/display.h ****         // Check if character is valid
 401:../lib/libDaisy/src/hid/disp/display.h ****         if(ch < 32 || ch > 126)
 1226              		.loc 21 401 20 view .LVU319
 1227 0006 A1F12005 		sub	r5, r1, #32
 396:../lib/libDaisy/src/hid/disp/display.h ****     {
 1228              		.loc 21 396 10 view .LVU320
 1229 000a 04AC     		add	r4, sp, #16
 1230 000c 9DF83870 		ldrb	r7, [sp, #56]	@ zero_extendqisi2
 1231 0010 0091     		str	r1, [sp]
 1232 0012 04E90C00 		stmdb	r4, {r2, r3}
 1233              	.LVL71:
 1234              		.loc 21 401 9 view .LVU321
 1235 0016 EBB2     		uxtb	r3, r5
 1236 0018 5E2B     		cmp	r3, #94
 1237 001a 00F29580 		bhi	.L79
 402:../lib/libDaisy/src/hid/disp/display.h ****             return 0;
 403:../lib/libDaisy/src/hid/disp/display.h **** 
 404:../lib/libDaisy/src/hid/disp/display.h ****         // Check remaining space on current line
 405:../lib/libDaisy/src/hid/disp/display.h ****         if(Width() < (currentX_ + font.FontWidth)
 1238              		.loc 21 405 17 view .LVU322
 1239 001e 0368     		ldr	r3, [r0]
 1240 0020 8046     		mov	r8, r0
 1241 0022 5D4A     		ldr	r2, .L114
 1242 0024 DB68     		ldr	r3, [r3, #12]
 1243 0026 9DF80840 		ldrb	r4, [sp, #8]	@ zero_extendqisi2
 1244 002a 9342     		cmp	r3, r2
 1245 002c 9DF80960 		ldrb	r6, [sp, #9]	@ zero_extendqisi2
 1246 0030 40F09480 		bne	.L106
 1247 0034 8020     		movs	r0, #128
 1248              	.LVL72:
 1249              	.L78:
 1250              		.loc 21 405 23 view .LVU323
 1251 0036 B8F80430 		ldrh	r3, [r8, #4]
 1252              		.loc 21 405 33 view .LVU324
 1253 003a 2344     		add	r3, r3, r4
 406:../lib/libDaisy/src/hid/disp/display.h ****            || Height() < (currentY_ + font.FontHeight))
 1254              		.loc 21 406 12 view .LVU325
 1255 003c 8342     		cmp	r3, r0
 1256 003e 00F38380 		bgt	.L79
 1257              		.loc 21 406 21 discriminator 2 view .LVU326
 1258 0042 D8F80030 		ldr	r3, [r8]
 1259 0046 554A     		ldr	r2, .L114+4
 1260 0048 9B68     		ldr	r3, [r3, #8]
 1261 004a 9342     		cmp	r3, r2
 1262 004c 40F08880 		bne	.L107
 1263              		.loc 21 406 21 view .LVU327
 1264 0050 4020     		movs	r0, #64
 1265              	.L80:
 1266              		.loc 21 406 27 discriminator 2 view .LVU328
 1267 0052 B8F80620 		ldrh	r2, [r8, #6]
 1268              		.loc 21 406 37 discriminator 2 view .LVU329
 1269 0056 9319     		adds	r3, r2, r6
 1270              		.loc 21 406 27 discriminator 2 view .LVU330
 1271 0058 0192     		str	r2, [sp, #4]
ARM GAS  /var/folders/hp/45mn71hd0ps5f5pnytxy5bt00000gn/T//ccCIVO9k.s 			page 65


 1272              		.loc 21 406 12 discriminator 2 view .LVU331
 1273 005a 8342     		cmp	r3, r0
 1274 005c 74DC     		bgt	.L79
 1275              	.LVL73:
 407:../lib/libDaisy/src/hid/disp/display.h ****         {
 408:../lib/libDaisy/src/hid/disp/display.h ****             // Not enough space on current line
 409:../lib/libDaisy/src/hid/disp/display.h ****             return 0;
 410:../lib/libDaisy/src/hid/disp/display.h ****         }
 411:../lib/libDaisy/src/hid/disp/display.h **** 
 412:../lib/libDaisy/src/hid/disp/display.h ****         // Use the font to write
 413:../lib/libDaisy/src/hid/disp/display.h ****         for(i = 0; i < font.FontHeight; i++)
 1276              		.loc 21 413 22 is_stmt 1 view .LVU332
 1277 005e 002E     		cmp	r6, #0
 1278 0060 00F08980 		beq	.L81
 414:../lib/libDaisy/src/hid/disp/display.h ****         {
 415:../lib/libDaisy/src/hid/disp/display.h ****             b = font.data[(ch - 32) * font.FontHeight + i];
 1279              		.loc 21 415 37 is_stmt 0 view .LVU333
 1280 0064 06FB05F5 		mul	r5, r6, r5
 1281 0068 6FF00040 		mvn	r0, #-2147483648
 1282              		.loc 21 415 22 view .LVU334
 1283 006c 039B     		ldr	r3, [sp, #12]
 1284 006e 9646     		mov	lr, r2
 1285 0070 2844     		add	r0, r0, r5
 1286 0072 2E44     		add	r6, r6, r5
 416:../lib/libDaisy/src/hid/disp/display.h ****             for(j = 0; j < font.FontWidth; j++)
 417:../lib/libDaisy/src/hid/disp/display.h ****             {
 418:../lib/libDaisy/src/hid/disp/display.h ****                 if((b << j) & 0x8000)
 419:../lib/libDaisy/src/hid/disp/display.h ****                 {
 420:../lib/libDaisy/src/hid/disp/display.h ****                     ((ChildType*)(this))
 421:../lib/libDaisy/src/hid/disp/display.h ****                         ->ChildType::DrawPixel(
 422:../lib/libDaisy/src/hid/disp/display.h ****                             currentX_ + j, (currentY_ + i), on);
 423:../lib/libDaisy/src/hid/disp/display.h ****                 }
 424:../lib/libDaisy/src/hid/disp/display.h ****                 else
 425:../lib/libDaisy/src/hid/disp/display.h ****                 {
 426:../lib/libDaisy/src/hid/disp/display.h ****                     ((ChildType*)(this))
 427:../lib/libDaisy/src/hid/disp/display.h ****                         ->ChildType::DrawPixel(
 428:../lib/libDaisy/src/hid/disp/display.h ****                             currentX_ + j, (currentY_ + i), !on);
 429:../lib/libDaisy/src/hid/disp/display.h ****                 }
 430:../lib/libDaisy/src/hid/disp/display.h ****             }
 431:../lib/libDaisy/src/hid/disp/display.h ****         }
 432:../lib/libDaisy/src/hid/disp/display.h **** 
 433:../lib/libDaisy/src/hid/disp/display.h ****         // The current space is now taken
 434:../lib/libDaisy/src/hid/disp/display.h ****         SetCursor(currentX_ + font.FontWidth, currentY_);
 1287              		.loc 21 434 19 view .LVU335
 1288 0074 B8F804A0 		ldrh	r10, [r8, #4]
 1289 0078 03EB4000 		add	r0, r3, r0, lsl #1
 1290 007c 023B     		subs	r3, r3, #2
 1291 007e 03EB460B 		add	fp, r3, r6, lsl #1
 1292              	.LVL74:
 1293              	.L84:
 415:../lib/libDaisy/src/hid/disp/display.h ****             for(j = 0; j < font.FontWidth; j++)
 1294              		.loc 21 415 15 view .LVU336
 1295 0082 30F8026F 		ldrh	r6, [r0, #2]!
 1296              	.LVL75:
 416:../lib/libDaisy/src/hid/disp/display.h ****             for(j = 0; j < font.FontWidth; j++)
 1297              		.loc 21 416 26 is_stmt 1 view .LVU337
 1298 0086 BCB3     		cbz	r4, .L89
ARM GAS  /var/folders/hp/45mn71hd0ps5f5pnytxy5bt00000gn/T//ccCIVO9k.s 			page 66


 1299              	.LBB1076:
 1300              	.LBB1077:
 1301              	.LBB1078:
 1302              	.LBB1079:
 1303              	.LBB1080:
 347:../lib/libDaisy/src/dev/oled_ssd130x.h ****     }
 1304              		.loc 20 347 55 is_stmt 0 view .LVU338
 1305 0088 0EF00703 		and	r3, lr, #7
 347:../lib/libDaisy/src/dev/oled_ssd130x.h ****     }
 1306              		.loc 20 347 49 view .LVU339
 1307 008c 4FF0010C 		mov	ip, #1
 347:../lib/libDaisy/src/dev/oled_ssd130x.h ****     }
 1308              		.loc 20 347 28 view .LVU340
 1309 0090 4FEADE02 		lsr	r2, lr, #3
 1310 0094 5146     		mov	r1, r10
 347:../lib/libDaisy/src/dev/oled_ssd130x.h ****     }
 1311              		.loc 20 347 49 view .LVU341
 1312 0096 0CFA03FC 		lsl	ip, ip, r3
 1313 009a 0AF11003 		add	r3, r10, #16
 347:../lib/libDaisy/src/dev/oled_ssd130x.h ****     }
 1314              		.loc 20 347 42 view .LVU342
 1315 009e 4FFA8CFC 		sxtb	ip, ip
 1316 00a2 03EBC212 		add	r2, r3, r2, lsl #7
 1317              	.LBE1080:
 1318              	.LBE1079:
 1319              	.LBE1078:
 1320              	.LBE1077:
 1321              	.LBE1076:
 416:../lib/libDaisy/src/hid/disp/display.h ****             for(j = 0; j < font.FontWidth; j++)
 1322              		.loc 21 416 19 view .LVU343
 1323 00a6 0023     		movs	r3, #0
 1324              	.LBB1098:
 1325              	.LBB1093:
 1326              	.LBB1088:
 1327              	.LBB1084:
 1328              	.LBB1081:
 347:../lib/libDaisy/src/dev/oled_ssd130x.h ****     }
 1329              		.loc 20 347 42 view .LVU344
 1330 00a8 6FEA0C09 		mvn	r9, ip
 1331 00ac 4244     		add	r2, r2, r8
 1332 00ae 0EE0     		b	.L90
 1333              	.LVL76:
 1334              	.L108:
 347:../lib/libDaisy/src/dev/oled_ssd130x.h ****     }
 1335              		.loc 20 347 42 view .LVU345
 1336              	.LBE1081:
 1337              	.LBE1084:
 1338              	.LBE1088:
 1339              	.LBE1093:
 1340              	.LBE1098:
 1341              	.LBB1099:
 1342              	.LBI1099:
  42:../lib/libDaisy/src/hid/disp/oled_display.h ****     {
 1343              		.loc 19 42 10 is_stmt 1 view .LVU346
 1344              	.LBB1100:
 1345              	.LBI1100:
 340:../lib/libDaisy/src/dev/oled_ssd130x.h ****     {
ARM GAS  /var/folders/hp/45mn71hd0ps5f5pnytxy5bt00000gn/T//ccCIVO9k.s 			page 67


 1346              		.loc 20 340 10 view .LVU347
 1347              	.LBB1101:
 342:../lib/libDaisy/src/dev/oled_ssd130x.h ****             return;
 1348              		.loc 20 342 9 is_stmt 0 view .LVU348
 1349 00b0 7F29     		cmp	r1, #127
 1350 00b2 07D8     		bhi	.L86
 1351 00b4 BEF13F0F 		cmp	lr, #63
 1352 00b8 04D8     		bhi	.L86
 345:../lib/libDaisy/src/dev/oled_ssd130x.h ****         else
 1353              		.loc 20 345 42 view .LVU349
 1354 00ba 1578     		ldrb	r5, [r2]	@ zero_extendqisi2
 344:../lib/libDaisy/src/dev/oled_ssd130x.h ****             buffer_[x + (y / 8) * width] |= (1 << (y % 8));
 1355              		.loc 20 344 9 view .LVU350
 1356 00bc 9FB1     		cbz	r7, .L88
 1357              	.L105:
 344:../lib/libDaisy/src/dev/oled_ssd130x.h ****             buffer_[x + (y / 8) * width] |= (1 << (y % 8));
 1358              		.loc 20 344 9 view .LVU351
 1359              	.LBE1101:
 1360              	.LBE1100:
 1361              	.LBE1099:
 1362              	.LBB1102:
 1363              	.LBB1094:
 1364              	.LBB1089:
 345:../lib/libDaisy/src/dev/oled_ssd130x.h ****         else
 1365              		.loc 20 345 42 view .LVU352
 1366 00be 4CEA0505 		orr	r5, ip, r5
 1367 00c2 1570     		strb	r5, [r2]
 1368              	.L86:
 1369              	.LBE1089:
 1370              	.LBE1094:
 1371              	.LBE1102:
 416:../lib/libDaisy/src/hid/disp/display.h ****             {
 1372              		.loc 21 416 13 is_stmt 1 discriminator 2 view .LVU353
 1373 00c4 0133     		adds	r3, r3, #1
 1374              	.LVL77:
 416:../lib/libDaisy/src/hid/disp/display.h ****             {
 1375              		.loc 21 416 26 discriminator 2 view .LVU354
 1376 00c6 0132     		adds	r2, r2, #1
 1377 00c8 0131     		adds	r1, r1, #1
 1378 00ca 9C42     		cmp	r4, r3
 1379 00cc 14D0     		beq	.L89
 1380              	.LVL78:
 1381              	.L90:
 418:../lib/libDaisy/src/hid/disp/display.h ****                 {
 1382              		.loc 21 418 23 is_stmt 0 view .LVU355
 1383 00ce 06FA03F5 		lsl	r5, r6, r3
 418:../lib/libDaisy/src/hid/disp/display.h ****                 {
 1384              		.loc 21 418 17 view .LVU356
 1385 00d2 2D04     		lsls	r5, r5, #16
 1386 00d4 ECD4     		bmi	.L108
 1387              	.LVL79:
 1388              	.LBB1103:
 1389              	.LBI1076:
  42:../lib/libDaisy/src/hid/disp/oled_display.h ****     {
 1390              		.loc 19 42 10 is_stmt 1 view .LVU357
 1391              	.LBB1095:
 1392              	.LBI1077:
ARM GAS  /var/folders/hp/45mn71hd0ps5f5pnytxy5bt00000gn/T//ccCIVO9k.s 			page 68


 340:../lib/libDaisy/src/dev/oled_ssd130x.h ****     {
 1393              		.loc 20 340 10 view .LVU358
 1394              	.LBB1090:
 342:../lib/libDaisy/src/dev/oled_ssd130x.h ****             return;
 1395              		.loc 20 342 9 is_stmt 0 view .LVU359
 1396 00d6 7F29     		cmp	r1, #127
 1397 00d8 F4D8     		bhi	.L86
 1398 00da BEF13F0F 		cmp	lr, #63
 1399 00de F1D8     		bhi	.L86
 345:../lib/libDaisy/src/dev/oled_ssd130x.h ****         else
 1400              		.loc 20 345 42 view .LVU360
 1401 00e0 1578     		ldrb	r5, [r2]	@ zero_extendqisi2
 344:../lib/libDaisy/src/dev/oled_ssd130x.h ****             buffer_[x + (y / 8) * width] |= (1 << (y % 8));
 1402              		.loc 20 344 9 view .LVU361
 1403 00e2 002F     		cmp	r7, #0
 1404 00e4 EBD0     		beq	.L105
 1405              	.L88:
 1406              	.LVL80:
 1407              	.LBB1085:
 1408              	.LBI1079:
 340:../lib/libDaisy/src/dev/oled_ssd130x.h ****     {
 1409              		.loc 20 340 10 is_stmt 1 view .LVU362
 340:../lib/libDaisy/src/dev/oled_ssd130x.h ****     {
 1410              		.loc 20 340 10 is_stmt 0 view .LVU363
 1411              	.LBE1085:
 1412              	.LBE1090:
 1413              	.LBE1095:
 1414              	.LBE1103:
 416:../lib/libDaisy/src/hid/disp/display.h ****             {
 1415              		.loc 21 416 13 view .LVU364
 1416 00e6 0133     		adds	r3, r3, #1
 1417              	.LVL81:
 1418              	.LBB1104:
 1419              	.LBB1096:
 1420              	.LBB1091:
 1421              	.LBB1086:
 1422              	.LBB1082:
 347:../lib/libDaisy/src/dev/oled_ssd130x.h ****     }
 1423              		.loc 20 347 42 view .LVU365
 1424 00e8 09EA0505 		and	r5, r9, r5
 1425              	.LBE1082:
 1426              	.LBE1086:
 1427              	.LBE1091:
 1428              	.LBE1096:
 1429              	.LBE1104:
 416:../lib/libDaisy/src/hid/disp/display.h ****             {
 1430              		.loc 21 416 26 view .LVU366
 1431 00ec 0132     		adds	r2, r2, #1
 1432 00ee 0131     		adds	r1, r1, #1
 1433 00f0 9C42     		cmp	r4, r3
 1434              	.LBB1105:
 1435              	.LBB1097:
 1436              	.LBB1092:
 1437              	.LBB1087:
 1438              	.LBB1083:
 347:../lib/libDaisy/src/dev/oled_ssd130x.h ****     }
 1439              		.loc 20 347 42 view .LVU367
ARM GAS  /var/folders/hp/45mn71hd0ps5f5pnytxy5bt00000gn/T//ccCIVO9k.s 			page 69


 1440 00f2 02F8015C 		strb	r5, [r2, #-1]
 347:../lib/libDaisy/src/dev/oled_ssd130x.h ****     }
 1441              		.loc 20 347 42 view .LVU368
 1442              	.LBE1083:
 1443              	.LBE1087:
 1444              	.LBE1092:
 1445              	.LBE1097:
 1446              	.LBE1105:
 416:../lib/libDaisy/src/hid/disp/display.h ****             {
 1447              		.loc 21 416 13 is_stmt 1 view .LVU369
 1448              	.LVL82:
 416:../lib/libDaisy/src/hid/disp/display.h ****             {
 1449              		.loc 21 416 26 view .LVU370
 1450 00f6 EAD1     		bne	.L90
 1451              	.LVL83:
 1452              	.L89:
 413:../lib/libDaisy/src/hid/disp/display.h ****         {
 1453              		.loc 21 413 9 view .LVU371
 413:../lib/libDaisy/src/hid/disp/display.h ****         {
 1454              		.loc 21 413 22 view .LVU372
 1455 00f8 5845     		cmp	r0, fp
 1456 00fa 0EF1010E 		add	lr, lr, #1
 1457 00fe C0D1     		bne	.L84
 1458              	.LVL84:
 1459              	.L83:
 1460              	.LBB1106:
 1461              	.LBB1107:
 173:../lib/libDaisy/src/hid/disp/display.h ****         currentY_ = (y >= Height()) ? Height() - 1 : y;
 1462              		.loc 21 173 33 is_stmt 0 view .LVU373
 1463 0100 D8F80030 		ldr	r3, [r8]
 1464              	.LBE1107:
 1465              	.LBE1106:
 1466              		.loc 21 434 18 view .LVU374
 1467 0104 5444     		add	r4, r4, r10
 1468 0106 2449     		ldr	r1, .L114
 1469              	.LBB1113:
 1470              	.LBB1108:
 173:../lib/libDaisy/src/hid/disp/display.h ****         currentY_ = (y >= Height()) ? Height() - 1 : y;
 1471              		.loc 21 173 33 view .LVU375
 1472 0108 DA68     		ldr	r2, [r3, #12]
 1473              	.LBE1108:
 1474              	.LBE1113:
 1475              		.loc 21 434 18 view .LVU376
 1476 010a A4B2     		uxth	r4, r4
 1477              	.LVL85:
 1478              	.LBB1114:
 1479              	.LBI1106:
 171:../lib/libDaisy/src/hid/disp/display.h ****     {
 1480              		.loc 21 171 10 is_stmt 1 view .LVU377
 1481              	.LBB1109:
 173:../lib/libDaisy/src/hid/disp/display.h ****         currentY_ = (y >= Height()) ? Height() - 1 : y;
 1482              		.loc 21 173 9 view .LVU378
 1483 010c 8A42     		cmp	r2, r1
 1484 010e 2DD1     		bne	.L109
 173:../lib/libDaisy/src/hid/disp/display.h ****         currentY_ = (y >= Height()) ? Height() - 1 : y;
 1485              		.loc 21 173 33 is_stmt 0 view .LVU379
 1486 0110 8020     		movs	r0, #128
ARM GAS  /var/folders/hp/45mn71hd0ps5f5pnytxy5bt00000gn/T//ccCIVO9k.s 			page 70


 1487              	.L91:
 173:../lib/libDaisy/src/hid/disp/display.h ****         currentY_ = (y >= Height()) ? Height() - 1 : y;
 1488              		.loc 21 173 19 view .LVU380
 1489 0112 8442     		cmp	r4, r0
 1490 0114 1CD2     		bcs	.L110
 1491              	.LVL86:
 1492              	.L92:
 174:../lib/libDaisy/src/hid/disp/display.h ****     }
 1493              		.loc 21 174 34 view .LVU381
 1494 0116 9B68     		ldr	r3, [r3, #8]
 1495 0118 204A     		ldr	r2, .L114+4
 173:../lib/libDaisy/src/hid/disp/display.h ****         currentY_ = (y >= Height()) ? Height() - 1 : y;
 1496              		.loc 21 173 19 view .LVU382
 1497 011a A8F80440 		strh	r4, [r8, #4]	@ movhi
 174:../lib/libDaisy/src/hid/disp/display.h ****     }
 1498              		.loc 21 174 9 is_stmt 1 view .LVU383
 1499 011e 9342     		cmp	r3, r2
 1500 0120 21D1     		bne	.L111
 174:../lib/libDaisy/src/hid/disp/display.h ****     }
 1501              		.loc 21 174 34 is_stmt 0 view .LVU384
 1502 0122 4020     		movs	r0, #64
 1503              	.L94:
 174:../lib/libDaisy/src/hid/disp/display.h ****     }
 1504              		.loc 21 174 19 view .LVU385
 1505 0124 019B     		ldr	r3, [sp, #4]
 1506 0126 8342     		cmp	r3, r0
 1507 0128 07D3     		bcc	.L95
 174:../lib/libDaisy/src/hid/disp/display.h ****     }
 1508              		.loc 21 174 46 view .LVU386
 1509 012a D8F80030 		ldr	r3, [r8]
 1510 012e 1B4A     		ldr	r2, .L114+4
 1511 0130 9B68     		ldr	r3, [r3, #8]
 1512 0132 9342     		cmp	r3, r2
 1513 0134 29D1     		bne	.L112
 1514 0136 3F23     		movs	r3, #63
 1515 0138 0193     		str	r3, [sp, #4]
 1516              	.LVL87:
 1517              	.L95:
 174:../lib/libDaisy/src/hid/disp/display.h ****     }
