ARM GAS  /var/folders/hp/45mn71hd0ps5f5pnytxy5bt00000gn/T//ccNGmXRQ.s 			page 1


   1              		.cpu cortex-m7
   2              		.arch armv7e-m
   3              		.fpu fpv5-d16
   4              		.eabi_attribute 28, 1
   5              		.eabi_attribute 20, 1
   6              		.eabi_attribute 21, 1
   7              		.eabi_attribute 23, 3
   8              		.eabi_attribute 24, 1
   9              		.eabi_attribute 25, 1
  10              		.eabi_attribute 26, 1
  11              		.eabi_attribute 30, 2
  12              		.eabi_attribute 34, 1
  13              		.eabi_attribute 18, 4
  14              		.file	"SynthV3.cpp"
  15              		.text
  16              	.Ltext0:
  17              		.cfi_sections	.debug_frame
  18              		.section	.text._ZN5daisy9ParameterD2Ev,"axG",%progbits,_ZN5daisy9ParameterD5Ev,comdat
  19              		.align	1
  20              		.p2align 2,,3
  21              		.weak	_ZN5daisy9ParameterD2Ev
  22              		.syntax unified
  23              		.thumb
  24              		.thumb_func
  26              	_ZN5daisy9ParameterD2Ev:
  27              	.LVL0:
  28              	.LFB1689:
  29              		.file 1 "../../DaisyExamples/libDaisy/src/hid/parameter.h"
   1:../../DaisyExamples/libDaisy/src/hid/parameter.h **** #pragma once
   2:../../DaisyExamples/libDaisy/src/hid/parameter.h **** #include <stdint.h>
   3:../../DaisyExamples/libDaisy/src/hid/parameter.h **** #include "hid/ctrl.h"
   4:../../DaisyExamples/libDaisy/src/hid/parameter.h **** 
   5:../../DaisyExamples/libDaisy/src/hid/parameter.h **** namespace daisy
   6:../../DaisyExamples/libDaisy/src/hid/parameter.h **** {
   7:../../DaisyExamples/libDaisy/src/hid/parameter.h **** /** @addtogroup controls
   8:../../DaisyExamples/libDaisy/src/hid/parameter.h ****     @{
   9:../../DaisyExamples/libDaisy/src/hid/parameter.h **** */
  10:../../DaisyExamples/libDaisy/src/hid/parameter.h **** 
  11:../../DaisyExamples/libDaisy/src/hid/parameter.h **** /**      Simple parameter mapping tool that takes a 0-1 input from an hid_ctrl. */
  12:../../DaisyExamples/libDaisy/src/hid/parameter.h **** class Parameter
  13:../../DaisyExamples/libDaisy/src/hid/parameter.h **** {
  14:../../DaisyExamples/libDaisy/src/hid/parameter.h ****   public:
  15:../../DaisyExamples/libDaisy/src/hid/parameter.h ****     /** Curves are applied to the output signal */
  16:../../DaisyExamples/libDaisy/src/hid/parameter.h ****     enum Curve
  17:../../DaisyExamples/libDaisy/src/hid/parameter.h ****     {
  18:../../DaisyExamples/libDaisy/src/hid/parameter.h ****         LINEAR,      /**< Linear curve */
  19:../../DaisyExamples/libDaisy/src/hid/parameter.h ****         EXPONENTIAL, /**< Exponential curve */
  20:../../DaisyExamples/libDaisy/src/hid/parameter.h ****         LOGARITHMIC, /**<  Logarithmic curve */
  21:../../DaisyExamples/libDaisy/src/hid/parameter.h ****         CUBE,        /**< Cubic curve */
  22:../../DaisyExamples/libDaisy/src/hid/parameter.h ****         LAST,        /**< Final enum element. */
  23:../../DaisyExamples/libDaisy/src/hid/parameter.h ****     };
  24:../../DaisyExamples/libDaisy/src/hid/parameter.h ****     /** Constructor */
  25:../../DaisyExamples/libDaisy/src/hid/parameter.h ****     Parameter() {}
  26:../../DaisyExamples/libDaisy/src/hid/parameter.h ****     /** Destructor */
  27:../../DaisyExamples/libDaisy/src/hid/parameter.h ****     ~Parameter() {}
  30              		.loc 1 27 5 view -0
  31              		.cfi_startproc
ARM GAS  /var/folders/hp/45mn71hd0ps5f5pnytxy5bt00000gn/T//ccNGmXRQ.s 			page 2


  32              		@ args = 0, pretend = 0, frame = 0
  33              		@ frame_needed = 0, uses_anonymous_args = 0
  34              		@ link register save eliminated.
  35              	.LBB354:
  36              	.LBI354:
  37              		.file 2 "../../DaisyExamples/libDaisy/src/hid/ctrl.h"
   1:../../DaisyExamples/libDaisy/src/hid/ctrl.h **** #pragma once
   2:../../DaisyExamples/libDaisy/src/hid/ctrl.h **** #ifndef DSY_KNOB_H
   3:../../DaisyExamples/libDaisy/src/hid/ctrl.h **** #define DSY_KNOB_H /**< & */
   4:../../DaisyExamples/libDaisy/src/hid/ctrl.h **** #include <stdint.h>
   5:../../DaisyExamples/libDaisy/src/hid/ctrl.h **** 
   6:../../DaisyExamples/libDaisy/src/hid/ctrl.h **** #ifdef __cplusplus
   7:../../DaisyExamples/libDaisy/src/hid/ctrl.h **** namespace daisy
   8:../../DaisyExamples/libDaisy/src/hid/ctrl.h **** {
   9:../../DaisyExamples/libDaisy/src/hid/ctrl.h **** /**
  10:../../DaisyExamples/libDaisy/src/hid/ctrl.h ****     @brief Hardware Interface for control inputs \n 
  11:../../DaisyExamples/libDaisy/src/hid/ctrl.h ****     Primarily designed for ADC input controls such as \n 
  12:../../DaisyExamples/libDaisy/src/hid/ctrl.h ****     potentiometers, and control voltage. \n 
  13:../../DaisyExamples/libDaisy/src/hid/ctrl.h ****     @author Stephen Hensley
  14:../../DaisyExamples/libDaisy/src/hid/ctrl.h ****     @date November 2019
  15:../../DaisyExamples/libDaisy/src/hid/ctrl.h ****     @ingroup controls
  16:../../DaisyExamples/libDaisy/src/hid/ctrl.h **** */
  17:../../DaisyExamples/libDaisy/src/hid/ctrl.h **** class AnalogControl
  18:../../DaisyExamples/libDaisy/src/hid/ctrl.h **** {
  19:../../DaisyExamples/libDaisy/src/hid/ctrl.h ****   public:
  20:../../DaisyExamples/libDaisy/src/hid/ctrl.h ****     /** Constructor */
  21:../../DaisyExamples/libDaisy/src/hid/ctrl.h ****     AnalogControl() {}
  22:../../DaisyExamples/libDaisy/src/hid/ctrl.h ****     /** destructor */
  23:../../DaisyExamples/libDaisy/src/hid/ctrl.h ****     ~AnalogControl() {}
  38              		.loc 2 23 5 view .LVU1
  39              		.loc 2 23 5 is_stmt 0 view .LVU2
  40              	.LBE354:
  41              		.loc 1 27 19 view .LVU3
  42 0000 7047     		bx	lr
  43              		.cfi_endproc
  44              	.LFE1689:
  46              		.weak	_ZN5daisy9ParameterD1Ev
  47              		.thumb_set _ZN5daisy9ParameterD1Ev,_ZN5daisy9ParameterD2Ev
  48 0002 00BF     		.section	.text._ZN5daisy8DaisyPodD2Ev,"axG",%progbits,_ZN5daisy8DaisyPodD5Ev,comdat
  49              		.align	1
  50              		.p2align 2,,3
  51              		.weak	_ZN5daisy8DaisyPodD2Ev
  52              		.syntax unified
  53              		.thumb
  54              		.thumb_func
  56              	_ZN5daisy8DaisyPodD2Ev:
  57              	.LVL1:
  58              	.LFB2565:
  59              		.file 3 "../../DaisyExamples/libDaisy/src/daisy_pod.h"
   1:../../DaisyExamples/libDaisy/src/daisy_pod.h **** #pragma once
   2:../../DaisyExamples/libDaisy/src/daisy_pod.h **** #ifndef DSY_POD_BSP_H
   3:../../DaisyExamples/libDaisy/src/daisy_pod.h **** #define DSY_POD_BSP_H
   4:../../DaisyExamples/libDaisy/src/daisy_pod.h **** 
   5:../../DaisyExamples/libDaisy/src/daisy_pod.h **** #include "daisy_seed.h"
   6:../../DaisyExamples/libDaisy/src/daisy_pod.h **** 
   7:../../DaisyExamples/libDaisy/src/daisy_pod.h **** namespace daisy
   8:../../DaisyExamples/libDaisy/src/daisy_pod.h **** {
ARM GAS  /var/folders/hp/45mn71hd0ps5f5pnytxy5bt00000gn/T//ccNGmXRQ.s 			page 3


   9:../../DaisyExamples/libDaisy/src/daisy_pod.h **** /**
  10:../../DaisyExamples/libDaisy/src/daisy_pod.h ****     @brief Class that handles initializing all of the hardware specific to the Daisy Patch Board. \
  11:../../DaisyExamples/libDaisy/src/daisy_pod.h ****     Helper funtions are also in place to provide easy access to built-in controls and peripherals.
  12:../../DaisyExamples/libDaisy/src/daisy_pod.h ****     @author Stephen Hensley
  13:../../DaisyExamples/libDaisy/src/daisy_pod.h ****     @date November 2019
  14:../../DaisyExamples/libDaisy/src/daisy_pod.h ****     @ingroup boards
  15:../../DaisyExamples/libDaisy/src/daisy_pod.h **** */
  16:../../DaisyExamples/libDaisy/src/daisy_pod.h **** class DaisyPod
  17:../../DaisyExamples/libDaisy/src/daisy_pod.h **** {
  18:../../DaisyExamples/libDaisy/src/daisy_pod.h ****   public:
  19:../../DaisyExamples/libDaisy/src/daisy_pod.h ****     /** Switches */
  20:../../DaisyExamples/libDaisy/src/daisy_pod.h ****     enum Sw
  21:../../DaisyExamples/libDaisy/src/daisy_pod.h ****     {
  22:../../DaisyExamples/libDaisy/src/daisy_pod.h ****         BUTTON_1,    /** & */
  23:../../DaisyExamples/libDaisy/src/daisy_pod.h ****         BUTTON_2,    /** & */
  24:../../DaisyExamples/libDaisy/src/daisy_pod.h ****         BUTTON_LAST, /** &  */
  25:../../DaisyExamples/libDaisy/src/daisy_pod.h ****     };
  26:../../DaisyExamples/libDaisy/src/daisy_pod.h **** 
  27:../../DaisyExamples/libDaisy/src/daisy_pod.h ****     /** Knobs */
  28:../../DaisyExamples/libDaisy/src/daisy_pod.h ****     enum Knob
  29:../../DaisyExamples/libDaisy/src/daisy_pod.h ****     {
  30:../../DaisyExamples/libDaisy/src/daisy_pod.h ****         KNOB_1,    /** &  */
  31:../../DaisyExamples/libDaisy/src/daisy_pod.h ****         KNOB_2,    /** & */
  32:../../DaisyExamples/libDaisy/src/daisy_pod.h ****         KNOB_LAST, /** & */
  33:../../DaisyExamples/libDaisy/src/daisy_pod.h ****     };
  34:../../DaisyExamples/libDaisy/src/daisy_pod.h **** 
  35:../../DaisyExamples/libDaisy/src/daisy_pod.h ****     DaisyPod() {}
  36:../../DaisyExamples/libDaisy/src/daisy_pod.h ****     ~DaisyPod() {}
  60              		.loc 3 36 5 is_stmt 1 view -0
  61              		.cfi_startproc
  62              		@ args = 0, pretend = 0, frame = 0
  63              		@ frame_needed = 0, uses_anonymous_args = 0
  64              		@ link register save eliminated.
  65              	.LBB355:
  66              	.LBI355:
  67              		.file 4 "../../DaisyExamples/libDaisy/src/hid/midi.h"
   1:../../DaisyExamples/libDaisy/src/hid/midi.h **** #pragma once
   2:../../DaisyExamples/libDaisy/src/hid/midi.h **** #ifndef DSY_MIDI_H
   3:../../DaisyExamples/libDaisy/src/hid/midi.h **** #define DSY_MIDI_H
   4:../../DaisyExamples/libDaisy/src/hid/midi.h **** 
   5:../../DaisyExamples/libDaisy/src/hid/midi.h **** #include <stdint.h>
   6:../../DaisyExamples/libDaisy/src/hid/midi.h **** #include <stdlib.h>
   7:../../DaisyExamples/libDaisy/src/hid/midi.h **** #include <algorithm>
   8:../../DaisyExamples/libDaisy/src/hid/midi.h **** #include "per/uart.h"
   9:../../DaisyExamples/libDaisy/src/hid/midi.h **** #include "util/ringbuffer.h"
  10:../../DaisyExamples/libDaisy/src/hid/midi.h **** #include "util/FIFO.h"
  11:../../DaisyExamples/libDaisy/src/hid/midi.h **** #include "hid/midi_parser.h"
  12:../../DaisyExamples/libDaisy/src/hid/midi.h **** #include "hid/usb_midi.h"
  13:../../DaisyExamples/libDaisy/src/hid/midi.h **** #include "sys/dma.h"
  14:../../DaisyExamples/libDaisy/src/hid/midi.h **** #include "sys/system.h"
  15:../../DaisyExamples/libDaisy/src/hid/midi.h **** 
  16:../../DaisyExamples/libDaisy/src/hid/midi.h **** namespace daisy
  17:../../DaisyExamples/libDaisy/src/hid/midi.h **** {
  18:../../DaisyExamples/libDaisy/src/hid/midi.h **** /** @brief   Transport layer for sending and receiving MIDI data over UART
  19:../../DaisyExamples/libDaisy/src/hid/midi.h ****  *  @details This is the mode of communication used for TRS and DIN MIDI
  20:../../DaisyExamples/libDaisy/src/hid/midi.h ****  *           There is an additional 2kB of RAM data used within this class
  21:../../DaisyExamples/libDaisy/src/hid/midi.h ****  *           for processing bulk data from the UART peripheral
ARM GAS  /var/folders/hp/45mn71hd0ps5f5pnytxy5bt00000gn/T//ccNGmXRQ.s 			page 4


  22:../../DaisyExamples/libDaisy/src/hid/midi.h ****  *  @ingroup midi
  23:../../DaisyExamples/libDaisy/src/hid/midi.h **** */
  24:../../DaisyExamples/libDaisy/src/hid/midi.h **** class MidiUartTransport
  25:../../DaisyExamples/libDaisy/src/hid/midi.h **** {
  26:../../DaisyExamples/libDaisy/src/hid/midi.h ****   public:
  27:../../DaisyExamples/libDaisy/src/hid/midi.h ****     typedef void (*MidiRxParseCallback)(uint8_t* data,
  28:../../DaisyExamples/libDaisy/src/hid/midi.h ****                                         size_t   size,
  29:../../DaisyExamples/libDaisy/src/hid/midi.h ****                                         void*    context);
  30:../../DaisyExamples/libDaisy/src/hid/midi.h **** 
  31:../../DaisyExamples/libDaisy/src/hid/midi.h ****     MidiUartTransport() {}
  32:../../DaisyExamples/libDaisy/src/hid/midi.h ****     ~MidiUartTransport() {}
  33:../../DaisyExamples/libDaisy/src/hid/midi.h **** 
  34:../../DaisyExamples/libDaisy/src/hid/midi.h ****     /** @brief Configuration structure for UART MIDI */
  35:../../DaisyExamples/libDaisy/src/hid/midi.h ****     struct Config
  36:../../DaisyExamples/libDaisy/src/hid/midi.h ****     {
  37:../../DaisyExamples/libDaisy/src/hid/midi.h ****         UartHandler::Config::Peripheral periph;
  38:../../DaisyExamples/libDaisy/src/hid/midi.h ****         dsy_gpio_pin                    rx;
  39:../../DaisyExamples/libDaisy/src/hid/midi.h ****         dsy_gpio_pin                    tx;
  40:../../DaisyExamples/libDaisy/src/hid/midi.h **** 
  41:../../DaisyExamples/libDaisy/src/hid/midi.h ****         /** Pointer to buffer for DMA UART rx byte transfer in background.
  42:../../DaisyExamples/libDaisy/src/hid/midi.h ****          *
  43:../../DaisyExamples/libDaisy/src/hid/midi.h ****          *  @details By default this uses a shared buffer in DMA_BUFFER_MEM_SECTION,
  44:../../DaisyExamples/libDaisy/src/hid/midi.h ****          *           which can only be utilized for a single UART peripheral. To
  45:../../DaisyExamples/libDaisy/src/hid/midi.h ****          *           use MIDI with multiple UART peripherals, you must provide your own
  46:../../DaisyExamples/libDaisy/src/hid/midi.h ****          *           buffer, allocated to a DMA-capable memory section.
  47:../../DaisyExamples/libDaisy/src/hid/midi.h ****          */
  48:../../DaisyExamples/libDaisy/src/hid/midi.h ****         uint8_t* rx_buffer;
  49:../../DaisyExamples/libDaisy/src/hid/midi.h **** 
  50:../../DaisyExamples/libDaisy/src/hid/midi.h ****         /** Size in bytes of rx_buffer.
  51:../../DaisyExamples/libDaisy/src/hid/midi.h ****          *
  52:../../DaisyExamples/libDaisy/src/hid/midi.h ****          *  @details This size determines the maximum Rx bytes readable by the UART in the backgrou
  53:../../DaisyExamples/libDaisy/src/hid/midi.h ****          *           By default it's set to the size of the default shared rx_buffer (256 bytes).
  54:../../DaisyExamples/libDaisy/src/hid/midi.h ****          *           While much smaller sizes can be used, data can get missed if the buffer is too
  55:../../DaisyExamples/libDaisy/src/hid/midi.h ****          */
  56:../../DaisyExamples/libDaisy/src/hid/midi.h ****         size_t rx_buffer_size;
  57:../../DaisyExamples/libDaisy/src/hid/midi.h **** 
  58:../../DaisyExamples/libDaisy/src/hid/midi.h ****         Config();
  59:../../DaisyExamples/libDaisy/src/hid/midi.h ****     };
  60:../../DaisyExamples/libDaisy/src/hid/midi.h **** 
  61:../../DaisyExamples/libDaisy/src/hid/midi.h ****     /** @brief Initialization of UART using config struct */
  62:../../DaisyExamples/libDaisy/src/hid/midi.h ****     inline void Init(Config config)
  63:../../DaisyExamples/libDaisy/src/hid/midi.h ****     {
  64:../../DaisyExamples/libDaisy/src/hid/midi.h ****         UartHandler::Config uart_config;
  65:../../DaisyExamples/libDaisy/src/hid/midi.h **** 
  66:../../DaisyExamples/libDaisy/src/hid/midi.h ****         //defaults
  67:../../DaisyExamples/libDaisy/src/hid/midi.h ****         uart_config.baudrate   = 31250;
  68:../../DaisyExamples/libDaisy/src/hid/midi.h ****         uart_config.stopbits   = UartHandler::Config::StopBits::BITS_1;
  69:../../DaisyExamples/libDaisy/src/hid/midi.h ****         uart_config.parity     = UartHandler::Config::Parity::NONE;
  70:../../DaisyExamples/libDaisy/src/hid/midi.h ****         uart_config.mode       = UartHandler::Config::Mode::TX_RX;
  71:../../DaisyExamples/libDaisy/src/hid/midi.h ****         uart_config.wordlength = UartHandler::Config::WordLength::BITS_8;
  72:../../DaisyExamples/libDaisy/src/hid/midi.h **** 
  73:../../DaisyExamples/libDaisy/src/hid/midi.h ****         //user settings
  74:../../DaisyExamples/libDaisy/src/hid/midi.h ****         uart_config.periph        = config.periph;
  75:../../DaisyExamples/libDaisy/src/hid/midi.h ****         uart_config.pin_config.rx = config.rx;
  76:../../DaisyExamples/libDaisy/src/hid/midi.h ****         uart_config.pin_config.tx = config.tx;
  77:../../DaisyExamples/libDaisy/src/hid/midi.h **** 
  78:../../DaisyExamples/libDaisy/src/hid/midi.h ****         rx_buffer      = config.rx_buffer;
ARM GAS  /var/folders/hp/45mn71hd0ps5f5pnytxy5bt00000gn/T//ccNGmXRQ.s 			page 5


  79:../../DaisyExamples/libDaisy/src/hid/midi.h ****         rx_buffer_size = config.rx_buffer_size;
  80:../../DaisyExamples/libDaisy/src/hid/midi.h **** 
  81:../../DaisyExamples/libDaisy/src/hid/midi.h ****         /** zero the buffer to ensure emptiness regardless of source memory */
  82:../../DaisyExamples/libDaisy/src/hid/midi.h ****         std::fill(rx_buffer, rx_buffer + rx_buffer_size, 0);
  83:../../DaisyExamples/libDaisy/src/hid/midi.h **** 
  84:../../DaisyExamples/libDaisy/src/hid/midi.h ****         uart_.Init(uart_config);
  85:../../DaisyExamples/libDaisy/src/hid/midi.h ****     }
  86:../../DaisyExamples/libDaisy/src/hid/midi.h **** 
  87:../../DaisyExamples/libDaisy/src/hid/midi.h ****     /** @brief Start the UART peripheral in listening mode.
  88:../../DaisyExamples/libDaisy/src/hid/midi.h ****      *  This will fill an internal data structure in the background */
  89:../../DaisyExamples/libDaisy/src/hid/midi.h ****     inline void StartRx(MidiRxParseCallback parse_callback, void* context)
  90:../../DaisyExamples/libDaisy/src/hid/midi.h ****     {
  91:../../DaisyExamples/libDaisy/src/hid/midi.h ****         parse_context_  = context;
  92:../../DaisyExamples/libDaisy/src/hid/midi.h ****         parse_callback_ = parse_callback;
  93:../../DaisyExamples/libDaisy/src/hid/midi.h ****         dsy_dma_clear_cache_for_buffer((uint8_t*)this,
  94:../../DaisyExamples/libDaisy/src/hid/midi.h ****                                        sizeof(MidiUartTransport));
  95:../../DaisyExamples/libDaisy/src/hid/midi.h ****         uart_.DmaListenStart(
  96:../../DaisyExamples/libDaisy/src/hid/midi.h ****             rx_buffer, rx_buffer_size, MidiUartTransport::rxCallback, this);
  97:../../DaisyExamples/libDaisy/src/hid/midi.h ****     }
  98:../../DaisyExamples/libDaisy/src/hid/midi.h **** 
  99:../../DaisyExamples/libDaisy/src/hid/midi.h ****     /** @brief returns whether the UART peripheral is actively listening in the background or not *
 100:../../DaisyExamples/libDaisy/src/hid/midi.h ****     inline bool RxActive() { return uart_.IsListening(); }
 101:../../DaisyExamples/libDaisy/src/hid/midi.h **** 
 102:../../DaisyExamples/libDaisy/src/hid/midi.h ****     /** @brief This is a no-op for UART transport - Rx is via DMA callback with circular buffer */
 103:../../DaisyExamples/libDaisy/src/hid/midi.h ****     inline void FlushRx() {}
 104:../../DaisyExamples/libDaisy/src/hid/midi.h **** 
 105:../../DaisyExamples/libDaisy/src/hid/midi.h ****     /** @brief sends the buffer of bytes out of the UART peripheral */
 106:../../DaisyExamples/libDaisy/src/hid/midi.h ****     inline void Tx(uint8_t* buff, size_t size) { uart_.PollTx(buff, size); }
 107:../../DaisyExamples/libDaisy/src/hid/midi.h **** 
 108:../../DaisyExamples/libDaisy/src/hid/midi.h ****   private:
 109:../../DaisyExamples/libDaisy/src/hid/midi.h ****     UartHandler         uart_;
 110:../../DaisyExamples/libDaisy/src/hid/midi.h ****     uint8_t*            rx_buffer;
 111:../../DaisyExamples/libDaisy/src/hid/midi.h ****     size_t              rx_buffer_size;
 112:../../DaisyExamples/libDaisy/src/hid/midi.h ****     void*               parse_context_;
 113:../../DaisyExamples/libDaisy/src/hid/midi.h ****     MidiRxParseCallback parse_callback_;
 114:../../DaisyExamples/libDaisy/src/hid/midi.h **** 
 115:../../DaisyExamples/libDaisy/src/hid/midi.h ****     /** Static callback for Uart MIDI that occurs when
 116:../../DaisyExamples/libDaisy/src/hid/midi.h ****          *  new data is available from the peripheral.
 117:../../DaisyExamples/libDaisy/src/hid/midi.h ****          *  The new data is transferred from the peripheral to the
 118:../../DaisyExamples/libDaisy/src/hid/midi.h ****          *  MIDI instance's byte FIFO that feeds the MIDI parser.
 119:../../DaisyExamples/libDaisy/src/hid/midi.h ****          *
 120:../../DaisyExamples/libDaisy/src/hid/midi.h ****          *  TODO: Handle UartHandler errors better/at all.
 121:../../DaisyExamples/libDaisy/src/hid/midi.h ****          *  (If there is a UART error, there's not really any recovery
 122:../../DaisyExamples/libDaisy/src/hid/midi.h ****          *  option at the moment)
 123:../../DaisyExamples/libDaisy/src/hid/midi.h ****          */
 124:../../DaisyExamples/libDaisy/src/hid/midi.h ****     static void rxCallback(uint8_t*            data,
 125:../../DaisyExamples/libDaisy/src/hid/midi.h ****                            size_t              size,
 126:../../DaisyExamples/libDaisy/src/hid/midi.h ****                            void*               context,
 127:../../DaisyExamples/libDaisy/src/hid/midi.h ****                            UartHandler::Result res)
 128:../../DaisyExamples/libDaisy/src/hid/midi.h ****     {
 129:../../DaisyExamples/libDaisy/src/hid/midi.h ****         /** Read context as transport type */
 130:../../DaisyExamples/libDaisy/src/hid/midi.h ****         MidiUartTransport* transport
 131:../../DaisyExamples/libDaisy/src/hid/midi.h ****             = reinterpret_cast<MidiUartTransport*>(context);
 132:../../DaisyExamples/libDaisy/src/hid/midi.h ****         if(res == UartHandler::Result::OK)
 133:../../DaisyExamples/libDaisy/src/hid/midi.h ****         {
 134:../../DaisyExamples/libDaisy/src/hid/midi.h ****             if(transport->parse_callback_)
 135:../../DaisyExamples/libDaisy/src/hid/midi.h ****             {
ARM GAS  /var/folders/hp/45mn71hd0ps5f5pnytxy5bt00000gn/T//ccNGmXRQ.s 			page 6


 136:../../DaisyExamples/libDaisy/src/hid/midi.h ****                 transport->parse_callback_(
 137:../../DaisyExamples/libDaisy/src/hid/midi.h ****                     data, size, transport->parse_context_);
 138:../../DaisyExamples/libDaisy/src/hid/midi.h ****             }
 139:../../DaisyExamples/libDaisy/src/hid/midi.h ****         }
 140:../../DaisyExamples/libDaisy/src/hid/midi.h ****     }
 141:../../DaisyExamples/libDaisy/src/hid/midi.h **** };
 142:../../DaisyExamples/libDaisy/src/hid/midi.h **** 
 143:../../DaisyExamples/libDaisy/src/hid/midi.h **** /**
 144:../../DaisyExamples/libDaisy/src/hid/midi.h ****     @brief Simple MIDI Handler \n
 145:../../DaisyExamples/libDaisy/src/hid/midi.h ****     Parses bytes from an input into valid MidiEvents. \n
 146:../../DaisyExamples/libDaisy/src/hid/midi.h ****     The MidiEvents fill a FIFO queue that the user can pop messages from.
 147:../../DaisyExamples/libDaisy/src/hid/midi.h ****     @author shensley
 148:../../DaisyExamples/libDaisy/src/hid/midi.h ****     @date March 2020
 149:../../DaisyExamples/libDaisy/src/hid/midi.h ****     @ingroup midi
 150:../../DaisyExamples/libDaisy/src/hid/midi.h **** */
 151:../../DaisyExamples/libDaisy/src/hid/midi.h **** template <typename Transport>
 152:../../DaisyExamples/libDaisy/src/hid/midi.h **** class MidiHandler
 153:../../DaisyExamples/libDaisy/src/hid/midi.h **** {
 154:../../DaisyExamples/libDaisy/src/hid/midi.h ****   public:
 155:../../DaisyExamples/libDaisy/src/hid/midi.h ****     MidiHandler() {}
 156:../../DaisyExamples/libDaisy/src/hid/midi.h ****     ~MidiHandler() {}
  68              		.loc 4 156 5 view .LVU5
  69              	.LBB356:
  70              	.LBI356:
  71              		.file 5 "../../DaisyExamples/libDaisy/src/util/FIFO.h"
   1:../../DaisyExamples/libDaisy/src/util/FIFO.h **** #pragma once
   2:../../DaisyExamples/libDaisy/src/util/FIFO.h **** 
   3:../../DaisyExamples/libDaisy/src/util/FIFO.h **** #include <stdint.h>
   4:../../DaisyExamples/libDaisy/src/util/FIFO.h **** #include <stddef.h>
   5:../../DaisyExamples/libDaisy/src/util/FIFO.h **** #include <initializer_list>
   6:../../DaisyExamples/libDaisy/src/util/FIFO.h **** 
   7:../../DaisyExamples/libDaisy/src/util/FIFO.h **** namespace daisy
   8:../../DaisyExamples/libDaisy/src/util/FIFO.h **** {
   9:../../DaisyExamples/libDaisy/src/util/FIFO.h **** /** Capacity-independent base class for FIFO. Use FIFO instead. */
  10:../../DaisyExamples/libDaisy/src/util/FIFO.h **** template <typename T>
  11:../../DaisyExamples/libDaisy/src/util/FIFO.h **** class FIFOBase
  12:../../DaisyExamples/libDaisy/src/util/FIFO.h **** {
  13:../../DaisyExamples/libDaisy/src/util/FIFO.h ****   protected:
  14:../../DaisyExamples/libDaisy/src/util/FIFO.h ****     FIFOBase(T* buffer, size_t bufferSize)
  15:../../DaisyExamples/libDaisy/src/util/FIFO.h ****     : buffer_(buffer), bufferSize_(bufferSize), bufferIn_(0), bufferOut_(0)
  16:../../DaisyExamples/libDaisy/src/util/FIFO.h ****     {
  17:../../DaisyExamples/libDaisy/src/util/FIFO.h ****     }
  18:../../DaisyExamples/libDaisy/src/util/FIFO.h **** 
  19:../../DaisyExamples/libDaisy/src/util/FIFO.h ****     FIFOBase(T* buffer, size_t bufferSize, std::initializer_list<T> valuesToAdd)
  20:../../DaisyExamples/libDaisy/src/util/FIFO.h ****     : buffer_(buffer), bufferSize_(bufferSize), bufferIn_(0), bufferOut_(0)
  21:../../DaisyExamples/libDaisy/src/util/FIFO.h ****     {
  22:../../DaisyExamples/libDaisy/src/util/FIFO.h ****         PushBack(valuesToAdd);
  23:../../DaisyExamples/libDaisy/src/util/FIFO.h ****     }
  24:../../DaisyExamples/libDaisy/src/util/FIFO.h **** 
  25:../../DaisyExamples/libDaisy/src/util/FIFO.h ****   public:
  26:../../DaisyExamples/libDaisy/src/util/FIFO.h ****     /** Copies all elements from another FIFO */
  27:../../DaisyExamples/libDaisy/src/util/FIFO.h ****     FIFOBase<T>& operator=(const FIFOBase<T>& other)
  28:../../DaisyExamples/libDaisy/src/util/FIFO.h ****     {
  29:../../DaisyExamples/libDaisy/src/util/FIFO.h ****         bufferIn_ = bufferOut_ = 0;
  30:../../DaisyExamples/libDaisy/src/util/FIFO.h ****         if(!other.IsEmpty())
  31:../../DaisyExamples/libDaisy/src/util/FIFO.h ****         {
  32:../../DaisyExamples/libDaisy/src/util/FIFO.h ****             int readPtr = other.bufferOut_;
ARM GAS  /var/folders/hp/45mn71hd0ps5f5pnytxy5bt00000gn/T//ccNGmXRQ.s 			page 7


  33:../../DaisyExamples/libDaisy/src/util/FIFO.h ****             while((readPtr != other.bufferIn_) && (bufferIn_ < bufferSize_))
  34:../../DaisyExamples/libDaisy/src/util/FIFO.h ****             {
  35:../../DaisyExamples/libDaisy/src/util/FIFO.h ****                 buffer_[bufferIn_++] = other.buffer_[readPtr++];
  36:../../DaisyExamples/libDaisy/src/util/FIFO.h ****                 if(readPtr >= other.bufferSize_)
  37:../../DaisyExamples/libDaisy/src/util/FIFO.h ****                     readPtr -= other.bufferSize_;
  38:../../DaisyExamples/libDaisy/src/util/FIFO.h ****             }
  39:../../DaisyExamples/libDaisy/src/util/FIFO.h ****         }
  40:../../DaisyExamples/libDaisy/src/util/FIFO.h ****         return *this;
  41:../../DaisyExamples/libDaisy/src/util/FIFO.h ****     }
  42:../../DaisyExamples/libDaisy/src/util/FIFO.h ****     ~FIFOBase() {}
  43:../../DaisyExamples/libDaisy/src/util/FIFO.h **** 
  44:../../DaisyExamples/libDaisy/src/util/FIFO.h ****     /** Removes all elements from the FIFO */
  45:../../DaisyExamples/libDaisy/src/util/FIFO.h ****     void Clear() { bufferIn_ = bufferOut_ = 0; }
  46:../../DaisyExamples/libDaisy/src/util/FIFO.h **** 
  47:../../DaisyExamples/libDaisy/src/util/FIFO.h ****     /** Adds an element to the back of the buffer, returning true on
  48:../../DaisyExamples/libDaisy/src/util/FIFO.h ****         success */
  49:../../DaisyExamples/libDaisy/src/util/FIFO.h ****     bool PushBack(const T& elementToAdd)
  50:../../DaisyExamples/libDaisy/src/util/FIFO.h ****     {
  51:../../DaisyExamples/libDaisy/src/util/FIFO.h ****         if(!IsFull())
  52:../../DaisyExamples/libDaisy/src/util/FIFO.h ****         {
  53:../../DaisyExamples/libDaisy/src/util/FIFO.h ****             buffer_[bufferIn_++] = elementToAdd;
  54:../../DaisyExamples/libDaisy/src/util/FIFO.h ****             if(bufferIn_ >= bufferSize_)
  55:../../DaisyExamples/libDaisy/src/util/FIFO.h ****                 bufferIn_ -= bufferSize_;
  56:../../DaisyExamples/libDaisy/src/util/FIFO.h ****             return true;
  57:../../DaisyExamples/libDaisy/src/util/FIFO.h ****         }
  58:../../DaisyExamples/libDaisy/src/util/FIFO.h ****         return false;
  59:../../DaisyExamples/libDaisy/src/util/FIFO.h ****     }
  60:../../DaisyExamples/libDaisy/src/util/FIFO.h **** 
  61:../../DaisyExamples/libDaisy/src/util/FIFO.h ****     /** Adds multiple elements and returns the number of elements that were added */
  62:../../DaisyExamples/libDaisy/src/util/FIFO.h ****     int PushBack(std::initializer_list<T> valuesToAdd)
  63:../../DaisyExamples/libDaisy/src/util/FIFO.h ****     {
  64:../../DaisyExamples/libDaisy/src/util/FIFO.h ****         int numAdded = 0;
  65:../../DaisyExamples/libDaisy/src/util/FIFO.h ****         for(const auto& v : valuesToAdd)
  66:../../DaisyExamples/libDaisy/src/util/FIFO.h ****         {
  67:../../DaisyExamples/libDaisy/src/util/FIFO.h ****             if(IsFull())
  68:../../DaisyExamples/libDaisy/src/util/FIFO.h ****                 return numAdded;
  69:../../DaisyExamples/libDaisy/src/util/FIFO.h **** 
  70:../../DaisyExamples/libDaisy/src/util/FIFO.h ****             PushBack(v);
  71:../../DaisyExamples/libDaisy/src/util/FIFO.h ****             numAdded++;
  72:../../DaisyExamples/libDaisy/src/util/FIFO.h ****         }
  73:../../DaisyExamples/libDaisy/src/util/FIFO.h ****         return numAdded;
  74:../../DaisyExamples/libDaisy/src/util/FIFO.h ****     }
  75:../../DaisyExamples/libDaisy/src/util/FIFO.h **** 
  76:../../DaisyExamples/libDaisy/src/util/FIFO.h ****     /** returns a reference to the last element */
  77:../../DaisyExamples/libDaisy/src/util/FIFO.h ****     T& Back()
  78:../../DaisyExamples/libDaisy/src/util/FIFO.h ****     {
  79:../../DaisyExamples/libDaisy/src/util/FIFO.h ****         if(IsEmpty())
  80:../../DaisyExamples/libDaisy/src/util/FIFO.h ****             // invalid, but better not pass a temporary T() object as a reference...
  81:../../DaisyExamples/libDaisy/src/util/FIFO.h ****             return buffer_[0];
  82:../../DaisyExamples/libDaisy/src/util/FIFO.h ****         int idx = bufferIn_ - 1;
  83:../../DaisyExamples/libDaisy/src/util/FIFO.h ****         if(idx < 0)
  84:../../DaisyExamples/libDaisy/src/util/FIFO.h ****             idx += bufferSize_;
  85:../../DaisyExamples/libDaisy/src/util/FIFO.h ****         return buffer_[idx];
  86:../../DaisyExamples/libDaisy/src/util/FIFO.h ****     }
  87:../../DaisyExamples/libDaisy/src/util/FIFO.h **** 
  88:../../DaisyExamples/libDaisy/src/util/FIFO.h ****     /** returns a reference to the last element */
  89:../../DaisyExamples/libDaisy/src/util/FIFO.h ****     const T& Back() const
ARM GAS  /var/folders/hp/45mn71hd0ps5f5pnytxy5bt00000gn/T//ccNGmXRQ.s 			page 8


  90:../../DaisyExamples/libDaisy/src/util/FIFO.h ****     {
  91:../../DaisyExamples/libDaisy/src/util/FIFO.h ****         if(IsEmpty())
  92:../../DaisyExamples/libDaisy/src/util/FIFO.h ****             // invalid, but better not pass a temporary T() object as a reference...
  93:../../DaisyExamples/libDaisy/src/util/FIFO.h ****             return buffer_[0];
  94:../../DaisyExamples/libDaisy/src/util/FIFO.h ****         int idx = bufferIn_ - 1;
  95:../../DaisyExamples/libDaisy/src/util/FIFO.h ****         if(idx < 0)
  96:../../DaisyExamples/libDaisy/src/util/FIFO.h ****             idx += bufferSize_;
  97:../../DaisyExamples/libDaisy/src/util/FIFO.h ****         return buffer_[idx];
  98:../../DaisyExamples/libDaisy/src/util/FIFO.h ****     }
  99:../../DaisyExamples/libDaisy/src/util/FIFO.h **** 
 100:../../DaisyExamples/libDaisy/src/util/FIFO.h ****     /** removes and returns an element from the front of the buffer */
 101:../../DaisyExamples/libDaisy/src/util/FIFO.h ****     T PopFront()
 102:../../DaisyExamples/libDaisy/src/util/FIFO.h ****     {
 103:../../DaisyExamples/libDaisy/src/util/FIFO.h ****         if(IsEmpty())
 104:../../DaisyExamples/libDaisy/src/util/FIFO.h ****             return T();
 105:../../DaisyExamples/libDaisy/src/util/FIFO.h ****         else
 106:../../DaisyExamples/libDaisy/src/util/FIFO.h ****         {
 107:../../DaisyExamples/libDaisy/src/util/FIFO.h ****             const auto result = buffer_[bufferOut_];
 108:../../DaisyExamples/libDaisy/src/util/FIFO.h ****             bufferOut_++;
 109:../../DaisyExamples/libDaisy/src/util/FIFO.h ****             if(bufferOut_ >= bufferSize_)
 110:../../DaisyExamples/libDaisy/src/util/FIFO.h ****                 bufferOut_ -= bufferSize_;
 111:../../DaisyExamples/libDaisy/src/util/FIFO.h ****             return result;
 112:../../DaisyExamples/libDaisy/src/util/FIFO.h ****         }
 113:../../DaisyExamples/libDaisy/src/util/FIFO.h ****     }
 114:../../DaisyExamples/libDaisy/src/util/FIFO.h **** 
 115:../../DaisyExamples/libDaisy/src/util/FIFO.h ****     /** returns a copy of the first element */
 116:../../DaisyExamples/libDaisy/src/util/FIFO.h ****     T& Front()
 117:../../DaisyExamples/libDaisy/src/util/FIFO.h ****     {
 118:../../DaisyExamples/libDaisy/src/util/FIFO.h ****         if(IsEmpty())
 119:../../DaisyExamples/libDaisy/src/util/FIFO.h ****             // invalid, but better not pass a temporary T() object as a reference...
 120:../../DaisyExamples/libDaisy/src/util/FIFO.h ****             return buffer_[0];
 121:../../DaisyExamples/libDaisy/src/util/FIFO.h ****         return buffer_[bufferOut_];
 122:../../DaisyExamples/libDaisy/src/util/FIFO.h ****     }
 123:../../DaisyExamples/libDaisy/src/util/FIFO.h **** 
 124:../../DaisyExamples/libDaisy/src/util/FIFO.h ****     /** returns a reference to the first element */
 125:../../DaisyExamples/libDaisy/src/util/FIFO.h ****     const T& Front() const
 126:../../DaisyExamples/libDaisy/src/util/FIFO.h ****     {
 127:../../DaisyExamples/libDaisy/src/util/FIFO.h ****         if(IsEmpty())
 128:../../DaisyExamples/libDaisy/src/util/FIFO.h ****             // invalid, but better not pass a temporary T() object as a reference...
 129:../../DaisyExamples/libDaisy/src/util/FIFO.h ****             return buffer_[0];
 130:../../DaisyExamples/libDaisy/src/util/FIFO.h ****         return buffer_[bufferOut_];
 131:../../DaisyExamples/libDaisy/src/util/FIFO.h ****     }
 132:../../DaisyExamples/libDaisy/src/util/FIFO.h **** 
 133:../../DaisyExamples/libDaisy/src/util/FIFO.h ****     /** Returns true if the buffer contains an element equal to the provided value */
 134:../../DaisyExamples/libDaisy/src/util/FIFO.h ****     bool Contains(const T& element)
 135:../../DaisyExamples/libDaisy/src/util/FIFO.h ****     {
 136:../../DaisyExamples/libDaisy/src/util/FIFO.h ****         auto idx = bufferOut_;
 137:../../DaisyExamples/libDaisy/src/util/FIFO.h ****         while(idx != bufferIn_)
 138:../../DaisyExamples/libDaisy/src/util/FIFO.h ****         {
 139:../../DaisyExamples/libDaisy/src/util/FIFO.h ****             if(buffer_[idx] == element)
 140:../../DaisyExamples/libDaisy/src/util/FIFO.h ****                 return true;
 141:../../DaisyExamples/libDaisy/src/util/FIFO.h ****             idx++;
 142:../../DaisyExamples/libDaisy/src/util/FIFO.h ****             if(idx >= bufferSize_)
 143:../../DaisyExamples/libDaisy/src/util/FIFO.h ****                 idx -= bufferSize_;
 144:../../DaisyExamples/libDaisy/src/util/FIFO.h ****         }
 145:../../DaisyExamples/libDaisy/src/util/FIFO.h ****         return false;
 146:../../DaisyExamples/libDaisy/src/util/FIFO.h ****     }
ARM GAS  /var/folders/hp/45mn71hd0ps5f5pnytxy5bt00000gn/T//ccNGmXRQ.s 			page 9


 147:../../DaisyExamples/libDaisy/src/util/FIFO.h **** 
 148:../../DaisyExamples/libDaisy/src/util/FIFO.h ****     /** Returns the number of elements in the buffer that are equal to the provided value */
 149:../../DaisyExamples/libDaisy/src/util/FIFO.h ****     size_t CountEqualTo(const T& element)
 150:../../DaisyExamples/libDaisy/src/util/FIFO.h ****     {
 151:../../DaisyExamples/libDaisy/src/util/FIFO.h ****         size_t result = 0;
 152:../../DaisyExamples/libDaisy/src/util/FIFO.h ****         size_t idx    = bufferOut_;
 153:../../DaisyExamples/libDaisy/src/util/FIFO.h ****         while(idx != bufferIn_)
 154:../../DaisyExamples/libDaisy/src/util/FIFO.h ****         {
 155:../../DaisyExamples/libDaisy/src/util/FIFO.h ****             if(buffer_[idx] == element)
 156:../../DaisyExamples/libDaisy/src/util/FIFO.h ****                 result++;
 157:../../DaisyExamples/libDaisy/src/util/FIFO.h ****             idx++;
 158:../../DaisyExamples/libDaisy/src/util/FIFO.h ****             if(idx >= bufferSize_)
 159:../../DaisyExamples/libDaisy/src/util/FIFO.h ****                 idx -= bufferSize_;
 160:../../DaisyExamples/libDaisy/src/util/FIFO.h ****         }
 161:../../DaisyExamples/libDaisy/src/util/FIFO.h ****         return result;
 162:../../DaisyExamples/libDaisy/src/util/FIFO.h ****     }
 163:../../DaisyExamples/libDaisy/src/util/FIFO.h **** 
 164:../../DaisyExamples/libDaisy/src/util/FIFO.h ****     /** returns true, if the buffer is empty */
 165:../../DaisyExamples/libDaisy/src/util/FIFO.h ****     bool IsEmpty() const { return bufferIn_ == bufferOut_; }
 166:../../DaisyExamples/libDaisy/src/util/FIFO.h **** 
 167:../../DaisyExamples/libDaisy/src/util/FIFO.h ****     /** returns true, if the buffer is Full */
 168:../../DaisyExamples/libDaisy/src/util/FIFO.h ****     bool IsFull() const { return GetNumElements() == bufferSize_ - 1; }
 169:../../DaisyExamples/libDaisy/src/util/FIFO.h **** 
 170:../../DaisyExamples/libDaisy/src/util/FIFO.h ****     /** returns the number of elements in the buffer */
 171:../../DaisyExamples/libDaisy/src/util/FIFO.h ****     size_t GetNumElements() const
 172:../../DaisyExamples/libDaisy/src/util/FIFO.h ****     {
 173:../../DaisyExamples/libDaisy/src/util/FIFO.h ****         int32_t numElements = bufferIn_ - bufferOut_;
 174:../../DaisyExamples/libDaisy/src/util/FIFO.h ****         if(numElements < 0)
 175:../../DaisyExamples/libDaisy/src/util/FIFO.h ****             numElements += bufferSize_;
 176:../../DaisyExamples/libDaisy/src/util/FIFO.h ****         return size_t(numElements);
 177:../../DaisyExamples/libDaisy/src/util/FIFO.h ****     }
 178:../../DaisyExamples/libDaisy/src/util/FIFO.h **** 
 179:../../DaisyExamples/libDaisy/src/util/FIFO.h ****     /** inserts an element "idx" positions behind the first element and returns true if successful 
 180:../../DaisyExamples/libDaisy/src/util/FIFO.h ****     bool Insert(size_t idx, const T& element)
 181:../../DaisyExamples/libDaisy/src/util/FIFO.h ****     {
 182:../../DaisyExamples/libDaisy/src/util/FIFO.h ****         if(idx > GetNumElements())
 183:../../DaisyExamples/libDaisy/src/util/FIFO.h ****             return false;
 184:../../DaisyExamples/libDaisy/src/util/FIFO.h ****         if(IsFull())
 185:../../DaisyExamples/libDaisy/src/util/FIFO.h ****             return false;
 186:../../DaisyExamples/libDaisy/src/util/FIFO.h ****         if(idx == GetNumElements())
 187:../../DaisyExamples/libDaisy/src/util/FIFO.h ****         {
 188:../../DaisyExamples/libDaisy/src/util/FIFO.h ****             PushBack(element);
 189:../../DaisyExamples/libDaisy/src/util/FIFO.h ****             return true;
 190:../../DaisyExamples/libDaisy/src/util/FIFO.h ****         }
 191:../../DaisyExamples/libDaisy/src/util/FIFO.h ****         // copy last element
 192:../../DaisyExamples/libDaisy/src/util/FIFO.h ****         PushBack(Back());
 193:../../DaisyExamples/libDaisy/src/util/FIFO.h ****         // move remaining elements: n => n+1
 194:../../DaisyExamples/libDaisy/src/util/FIFO.h ****         for(int i = GetNumElements() - 2; i > int(idx); i--)
 195:../../DaisyExamples/libDaisy/src/util/FIFO.h ****             (*this)[i] = (*this)[i - 1];
 196:../../DaisyExamples/libDaisy/src/util/FIFO.h ****         // insert element
 197:../../DaisyExamples/libDaisy/src/util/FIFO.h ****         (*this)[idx] = element;
 198:../../DaisyExamples/libDaisy/src/util/FIFO.h ****         return true;
 199:../../DaisyExamples/libDaisy/src/util/FIFO.h ****     }
 200:../../DaisyExamples/libDaisy/src/util/FIFO.h **** 
 201:../../DaisyExamples/libDaisy/src/util/FIFO.h ****     /** removes the element "idx" positions behind the first element 
 202:../../DaisyExamples/libDaisy/src/util/FIFO.h ****      *  and returns true if successful */
 203:../../DaisyExamples/libDaisy/src/util/FIFO.h ****     bool Remove(size_t idx)
ARM GAS  /var/folders/hp/45mn71hd0ps5f5pnytxy5bt00000gn/T//ccNGmXRQ.s 			page 10


 204:../../DaisyExamples/libDaisy/src/util/FIFO.h ****     {
 205:../../DaisyExamples/libDaisy/src/util/FIFO.h ****         if(idx >= GetNumElements())
 206:../../DaisyExamples/libDaisy/src/util/FIFO.h ****             return false;
 207:../../DaisyExamples/libDaisy/src/util/FIFO.h **** 
 208:../../DaisyExamples/libDaisy/src/util/FIFO.h ****         size_t index = bufferOut_ + idx;
 209:../../DaisyExamples/libDaisy/src/util/FIFO.h ****         if(index >= bufferSize_)
 210:../../DaisyExamples/libDaisy/src/util/FIFO.h ****             index -= bufferSize_;
 211:../../DaisyExamples/libDaisy/src/util/FIFO.h ****         size_t nextIndex = index + 1;
 212:../../DaisyExamples/libDaisy/src/util/FIFO.h ****         if(nextIndex >= bufferSize_)
 213:../../DaisyExamples/libDaisy/src/util/FIFO.h ****             nextIndex -= bufferSize_;
 214:../../DaisyExamples/libDaisy/src/util/FIFO.h **** 
 215:../../DaisyExamples/libDaisy/src/util/FIFO.h ****         while(nextIndex != bufferIn_)
 216:../../DaisyExamples/libDaisy/src/util/FIFO.h ****         {
 217:../../DaisyExamples/libDaisy/src/util/FIFO.h ****             buffer_[index] = buffer_[nextIndex];
 218:../../DaisyExamples/libDaisy/src/util/FIFO.h ****             index++;
 219:../../DaisyExamples/libDaisy/src/util/FIFO.h ****             nextIndex++;
 220:../../DaisyExamples/libDaisy/src/util/FIFO.h ****             if(index >= bufferSize_)
 221:../../DaisyExamples/libDaisy/src/util/FIFO.h ****                 index -= bufferSize_;
 222:../../DaisyExamples/libDaisy/src/util/FIFO.h ****             if(nextIndex >= bufferSize_)
 223:../../DaisyExamples/libDaisy/src/util/FIFO.h ****                 nextIndex -= bufferSize_;
 224:../../DaisyExamples/libDaisy/src/util/FIFO.h ****         }
 225:../../DaisyExamples/libDaisy/src/util/FIFO.h **** 
 226:../../DaisyExamples/libDaisy/src/util/FIFO.h ****         int32_t nextBufferIn = int32_t(bufferIn_) - 1;
 227:../../DaisyExamples/libDaisy/src/util/FIFO.h ****         if(nextBufferIn < 0)
 228:../../DaisyExamples/libDaisy/src/util/FIFO.h ****             nextBufferIn += bufferSize_;
 229:../../DaisyExamples/libDaisy/src/util/FIFO.h ****         bufferIn_ = size_t(nextBufferIn);
 230:../../DaisyExamples/libDaisy/src/util/FIFO.h **** 
 231:../../DaisyExamples/libDaisy/src/util/FIFO.h ****         return true;
 232:../../DaisyExamples/libDaisy/src/util/FIFO.h ****     }
 233:../../DaisyExamples/libDaisy/src/util/FIFO.h **** 
 234:../../DaisyExamples/libDaisy/src/util/FIFO.h ****     /** removes all elements from the buffer for which
 235:../../DaisyExamples/libDaisy/src/util/FIFO.h ****         (buffer(index) == element) returns true and returns the number of
 236:../../DaisyExamples/libDaisy/src/util/FIFO.h ****         elements that were removed. */
 237:../../DaisyExamples/libDaisy/src/util/FIFO.h ****     size_t RemoveAllEqualTo(const T& element)
 238:../../DaisyExamples/libDaisy/src/util/FIFO.h ****     {
 239:../../DaisyExamples/libDaisy/src/util/FIFO.h ****         size_t numRemoved = 0;
 240:../../DaisyExamples/libDaisy/src/util/FIFO.h ****         int    idx        = GetNumElements() - 1;
 241:../../DaisyExamples/libDaisy/src/util/FIFO.h ****         while(idx >= 0)
 242:../../DaisyExamples/libDaisy/src/util/FIFO.h ****         {
 243:../../DaisyExamples/libDaisy/src/util/FIFO.h ****             if((*this)[idx] == element)
 244:../../DaisyExamples/libDaisy/src/util/FIFO.h ****             {
 245:../../DaisyExamples/libDaisy/src/util/FIFO.h ****                 numRemoved++;
 246:../../DaisyExamples/libDaisy/src/util/FIFO.h ****                 Remove(idx);
 247:../../DaisyExamples/libDaisy/src/util/FIFO.h ****                 // was that the last element?
 248:../../DaisyExamples/libDaisy/src/util/FIFO.h ****                 if(idx == int(GetNumElements()) - 1)
 249:../../DaisyExamples/libDaisy/src/util/FIFO.h ****                     idx--;
 250:../../DaisyExamples/libDaisy/src/util/FIFO.h ****             }
 251:../../DaisyExamples/libDaisy/src/util/FIFO.h ****             else
 252:../../DaisyExamples/libDaisy/src/util/FIFO.h ****                 idx--;
 253:../../DaisyExamples/libDaisy/src/util/FIFO.h ****         }
 254:../../DaisyExamples/libDaisy/src/util/FIFO.h ****         return numRemoved;
 255:../../DaisyExamples/libDaisy/src/util/FIFO.h ****     }
 256:../../DaisyExamples/libDaisy/src/util/FIFO.h **** 
 257:../../DaisyExamples/libDaisy/src/util/FIFO.h ****     /** returns the element "idx" positions behind the first element */
 258:../../DaisyExamples/libDaisy/src/util/FIFO.h ****     T& operator[](size_t idx)
 259:../../DaisyExamples/libDaisy/src/util/FIFO.h ****     {
 260:../../DaisyExamples/libDaisy/src/util/FIFO.h ****         if(idx >= GetNumElements())
ARM GAS  /var/folders/hp/45mn71hd0ps5f5pnytxy5bt00000gn/T//ccNGmXRQ.s 			page 11


 261:../../DaisyExamples/libDaisy/src/util/FIFO.h ****             // invalid, but better not pass a temporary T() object as a reference...
 262:../../DaisyExamples/libDaisy/src/util/FIFO.h ****             return buffer_[0];
 263:../../DaisyExamples/libDaisy/src/util/FIFO.h **** 
 264:../../DaisyExamples/libDaisy/src/util/FIFO.h ****         size_t index = bufferOut_ + idx;
 265:../../DaisyExamples/libDaisy/src/util/FIFO.h ****         if(index >= bufferSize_)
 266:../../DaisyExamples/libDaisy/src/util/FIFO.h ****             index -= bufferSize_;
 267:../../DaisyExamples/libDaisy/src/util/FIFO.h ****         return buffer_[index];
 268:../../DaisyExamples/libDaisy/src/util/FIFO.h ****     }
 269:../../DaisyExamples/libDaisy/src/util/FIFO.h **** 
 270:../../DaisyExamples/libDaisy/src/util/FIFO.h ****     /** returns the element "idx" positions behind the first element */
 271:../../DaisyExamples/libDaisy/src/util/FIFO.h ****     const T& operator[](size_t idx) const
 272:../../DaisyExamples/libDaisy/src/util/FIFO.h ****     {
 273:../../DaisyExamples/libDaisy/src/util/FIFO.h ****         if(idx >= GetNumElements())
 274:../../DaisyExamples/libDaisy/src/util/FIFO.h ****             // invalid, but better not pass a temporary T() object as a reference...
 275:../../DaisyExamples/libDaisy/src/util/FIFO.h ****             return buffer_[0];
 276:../../DaisyExamples/libDaisy/src/util/FIFO.h **** 
 277:../../DaisyExamples/libDaisy/src/util/FIFO.h ****         size_t index = bufferOut_ + idx;
 278:../../DaisyExamples/libDaisy/src/util/FIFO.h ****         if(index >= bufferSize_)
 279:../../DaisyExamples/libDaisy/src/util/FIFO.h ****             index -= bufferSize_;
 280:../../DaisyExamples/libDaisy/src/util/FIFO.h ****         return buffer_[index];
 281:../../DaisyExamples/libDaisy/src/util/FIFO.h ****     }
 282:../../DaisyExamples/libDaisy/src/util/FIFO.h **** 
 283:../../DaisyExamples/libDaisy/src/util/FIFO.h ****     /** returns the total capacity */
 284:../../DaisyExamples/libDaisy/src/util/FIFO.h ****     size_t GetCapacity() const { return bufferSize_ - 1; }
 285:../../DaisyExamples/libDaisy/src/util/FIFO.h **** 
 286:../../DaisyExamples/libDaisy/src/util/FIFO.h ****   private:
 287:../../DaisyExamples/libDaisy/src/util/FIFO.h ****     FIFOBase(const FIFOBase<T>&) {} // non copyable
 288:../../DaisyExamples/libDaisy/src/util/FIFO.h **** 
 289:../../DaisyExamples/libDaisy/src/util/FIFO.h ****   private:
 290:../../DaisyExamples/libDaisy/src/util/FIFO.h ****     T*           buffer_;
 291:../../DaisyExamples/libDaisy/src/util/FIFO.h ****     const size_t bufferSize_;
 292:../../DaisyExamples/libDaisy/src/util/FIFO.h ****     size_t       bufferIn_;
 293:../../DaisyExamples/libDaisy/src/util/FIFO.h ****     size_t       bufferOut_;
 294:../../DaisyExamples/libDaisy/src/util/FIFO.h **** };
 295:../../DaisyExamples/libDaisy/src/util/FIFO.h **** 
 296:../../DaisyExamples/libDaisy/src/util/FIFO.h **** /** A simple FIFO ring buffer with a fixed size. */
 297:../../DaisyExamples/libDaisy/src/util/FIFO.h **** template <typename T, size_t capacity>
 298:../../DaisyExamples/libDaisy/src/util/FIFO.h **** class FIFO : public FIFOBase<T>
  72              		.loc 5 298 7 view .LVU6
  73              	.LBB357:
  74              	.LBI357:
  42:../../DaisyExamples/libDaisy/src/util/FIFO.h **** 
  75              		.loc 5 42 5 view .LVU7
  42:../../DaisyExamples/libDaisy/src/util/FIFO.h **** 
  76              		.loc 5 42 5 is_stmt 0 view .LVU8
  77              	.LBE357:
  78              	.LBE356:
  79              	.LBB358:
  80              	.LBI358:
  81              		.file 6 "../../DaisyExamples/libDaisy/src/hid/midi_parser.h"
   1:../../DaisyExamples/libDaisy/src/hid/midi_parser.h **** #pragma once
   2:../../DaisyExamples/libDaisy/src/hid/midi_parser.h **** #ifndef DSY_MIDI_PARSER_H
   3:../../DaisyExamples/libDaisy/src/hid/midi_parser.h **** #define DSY_MIDI_PARSER_H
   4:../../DaisyExamples/libDaisy/src/hid/midi_parser.h **** 
   5:../../DaisyExamples/libDaisy/src/hid/midi_parser.h **** #include <stdint.h>
   6:../../DaisyExamples/libDaisy/src/hid/midi_parser.h **** #include <stdlib.h>
   7:../../DaisyExamples/libDaisy/src/hid/midi_parser.h **** #include "hid/MidiEvent.h"
ARM GAS  /var/folders/hp/45mn71hd0ps5f5pnytxy5bt00000gn/T//ccNGmXRQ.s 			page 12


   8:../../DaisyExamples/libDaisy/src/hid/midi_parser.h **** 
   9:../../DaisyExamples/libDaisy/src/hid/midi_parser.h **** namespace daisy
  10:../../DaisyExamples/libDaisy/src/hid/midi_parser.h **** {
  11:../../DaisyExamples/libDaisy/src/hid/midi_parser.h **** /** @brief   Utility class for parsing raw byte streams into MIDI messages
  12:../../DaisyExamples/libDaisy/src/hid/midi_parser.h ****  *  @details Implemented as a state machine designed to parse one byte at a time
  13:../../DaisyExamples/libDaisy/src/hid/midi_parser.h ****  *  @ingroup midi
  14:../../DaisyExamples/libDaisy/src/hid/midi_parser.h ****  */
  15:../../DaisyExamples/libDaisy/src/hid/midi_parser.h **** class MidiParser
  16:../../DaisyExamples/libDaisy/src/hid/midi_parser.h **** {
  17:../../DaisyExamples/libDaisy/src/hid/midi_parser.h ****   public:
  18:../../DaisyExamples/libDaisy/src/hid/midi_parser.h ****     MidiParser(){};
  19:../../DaisyExamples/libDaisy/src/hid/midi_parser.h ****     ~MidiParser() {}
  82              		.loc 6 19 5 is_stmt 1 view .LVU9
  83              		.loc 6 19 5 is_stmt 0 view .LVU10
  84              	.LBE358:
  85              	.LBB359:
  86              	.LBI359:
  32:../../DaisyExamples/libDaisy/src/hid/midi.h **** 
  87              		.loc 4 32 5 is_stmt 1 view .LVU11
  32:../../DaisyExamples/libDaisy/src/hid/midi.h **** 
  88              		.loc 4 32 5 is_stmt 0 view .LVU12
  89              	.LBE359:
  90              	.LBE355:
  91              	.LBB360:
  92              	.LBI360:
  93              		.file 7 "../../DaisyExamples/libDaisy/src/hid/rgb_led.h"
   1:../../DaisyExamples/libDaisy/src/hid/rgb_led.h **** #pragma once
   2:../../DaisyExamples/libDaisy/src/hid/rgb_led.h **** #ifndef DSY_RGB_LED_H
   3:../../DaisyExamples/libDaisy/src/hid/rgb_led.h **** #define DSY_RGB_LED_H
   4:../../DaisyExamples/libDaisy/src/hid/rgb_led.h **** #include "hid/led.h"
   5:../../DaisyExamples/libDaisy/src/hid/rgb_led.h **** #include "util/color.h"
   6:../../DaisyExamples/libDaisy/src/hid/rgb_led.h **** 
   7:../../DaisyExamples/libDaisy/src/hid/rgb_led.h **** namespace daisy
   8:../../DaisyExamples/libDaisy/src/hid/rgb_led.h **** {
   9:../../DaisyExamples/libDaisy/src/hid/rgb_led.h **** /** @addtogroup feedback
  10:../../DaisyExamples/libDaisy/src/hid/rgb_led.h ****     @{
  11:../../DaisyExamples/libDaisy/src/hid/rgb_led.h **** */
  12:../../DaisyExamples/libDaisy/src/hid/rgb_led.h **** 
  13:../../DaisyExamples/libDaisy/src/hid/rgb_led.h **** /** 3x LEDs configured as an RGB for ease of use. */
  14:../../DaisyExamples/libDaisy/src/hid/rgb_led.h **** class RgbLed
  15:../../DaisyExamples/libDaisy/src/hid/rgb_led.h **** {
  16:../../DaisyExamples/libDaisy/src/hid/rgb_led.h ****   public:
  17:../../DaisyExamples/libDaisy/src/hid/rgb_led.h ****     RgbLed() {}
  18:../../DaisyExamples/libDaisy/src/hid/rgb_led.h ****     ~RgbLed() {}
  94              		.loc 7 18 5 is_stmt 1 view .LVU13
  95              	.LBB361:
  96              	.LBI361:
  97              		.file 8 "../../DaisyExamples/libDaisy/src/hid/led.h"
   1:../../DaisyExamples/libDaisy/src/hid/led.h **** 
   2:../../DaisyExamples/libDaisy/src/hid/led.h **** #pragma once
   3:../../DaisyExamples/libDaisy/src/hid/led.h **** #ifndef DSY_LED_H
   4:../../DaisyExamples/libDaisy/src/hid/led.h **** #define DSY_LED_H
   5:../../DaisyExamples/libDaisy/src/hid/led.h **** #include "daisy_core.h"
   6:../../DaisyExamples/libDaisy/src/hid/led.h **** #include "per/gpio.h"
   7:../../DaisyExamples/libDaisy/src/hid/led.h **** 
   8:../../DaisyExamples/libDaisy/src/hid/led.h **** /* TODO - Get this set up to work with the dev_leddriver stuff as well
   9:../../DaisyExamples/libDaisy/src/hid/led.h **** - Setup Hardware PWM for pins that have it
ARM GAS  /var/folders/hp/45mn71hd0ps5f5pnytxy5bt00000gn/T//ccNGmXRQ.s 			page 13


  10:../../DaisyExamples/libDaisy/src/hid/led.h **** */
  11:../../DaisyExamples/libDaisy/src/hid/led.h **** 
  12:../../DaisyExamples/libDaisy/src/hid/led.h **** namespace daisy
  13:../../DaisyExamples/libDaisy/src/hid/led.h **** {
  14:../../DaisyExamples/libDaisy/src/hid/led.h **** /**
  15:../../DaisyExamples/libDaisy/src/hid/led.h ****     @brief LED Class providing simple Software PWM ability, etc \n 
  16:../../DaisyExamples/libDaisy/src/hid/led.h ****     Eventually this will work with hardware PWM, and external LED Driver devices as well.
  17:../../DaisyExamples/libDaisy/src/hid/led.h ****     @author shensley
  18:../../DaisyExamples/libDaisy/src/hid/led.h ****     @date March 2020
  19:../../DaisyExamples/libDaisy/src/hid/led.h ****     @ingroup feedback
  20:../../DaisyExamples/libDaisy/src/hid/led.h **** */
  21:../../DaisyExamples/libDaisy/src/hid/led.h **** class Led
  22:../../DaisyExamples/libDaisy/src/hid/led.h **** {
  23:../../DaisyExamples/libDaisy/src/hid/led.h ****   public:
  24:../../DaisyExamples/libDaisy/src/hid/led.h ****     Led() {}
  25:../../DaisyExamples/libDaisy/src/hid/led.h ****     ~Led() {}
  98              		.loc 8 25 5 view .LVU14
  99              		.loc 8 25 5 is_stmt 0 view .LVU15
 100              	.LBE361:
 101              	.LBB362:
 102              	.LBI362:
 103              		.loc 8 25 5 is_stmt 1 view .LVU16
 104              		.loc 8 25 5 is_stmt 0 view .LVU17
 105              	.LBE362:
 106              	.LBB363:
 107              	.LBI363:
 108              		.loc 8 25 5 is_stmt 1 view .LVU18
 109              		.loc 8 25 5 is_stmt 0 view .LVU19
 110              	.LBE363:
 111              	.LBE360:
 112              	.LBB364:
 113              	.LBI364:
 114              		.loc 7 18 5 is_stmt 1 view .LVU20
 115              	.LBB365:
 116              	.LBI365:
 117              		.loc 8 25 5 view .LVU21
 118              		.loc 8 25 5 is_stmt 0 view .LVU22
 119              	.LBE365:
 120              	.LBB366:
 121              	.LBI366:
 122              		.loc 8 25 5 is_stmt 1 view .LVU23
 123              		.loc 8 25 5 is_stmt 0 view .LVU24
 124              	.LBE366:
 125              	.LBB367:
 126              	.LBI367:
 127              		.loc 8 25 5 is_stmt 1 view .LVU25
 128              		.loc 8 25 5 is_stmt 0 view .LVU26
 129              	.LBE367:
 130              	.LBE364:
 131              	.LBB368:
 132              	.LBI368:
 133              		.file 9 "../../DaisyExamples/libDaisy/src/hid/switch.h"
   1:../../DaisyExamples/libDaisy/src/hid/switch.h **** #pragma once
   2:../../DaisyExamples/libDaisy/src/hid/switch.h **** #ifndef DSY_SWITCH_H
   3:../../DaisyExamples/libDaisy/src/hid/switch.h **** #define DSY_SWITCH_H
   4:../../DaisyExamples/libDaisy/src/hid/switch.h **** #include "daisy_core.h"
   5:../../DaisyExamples/libDaisy/src/hid/switch.h **** #include "per/gpio.h"
ARM GAS  /var/folders/hp/45mn71hd0ps5f5pnytxy5bt00000gn/T//ccNGmXRQ.s 			page 14


   6:../../DaisyExamples/libDaisy/src/hid/switch.h **** #include "sys/system.h"
   7:../../DaisyExamples/libDaisy/src/hid/switch.h **** 
   8:../../DaisyExamples/libDaisy/src/hid/switch.h **** namespace daisy
   9:../../DaisyExamples/libDaisy/src/hid/switch.h **** {
  10:../../DaisyExamples/libDaisy/src/hid/switch.h **** /** 
  11:../../DaisyExamples/libDaisy/src/hid/switch.h ****     Generic Class for handling momentary/latching switches \n 
  12:../../DaisyExamples/libDaisy/src/hid/switch.h ****     Inspired/influenced by Mutable Instruments (pichenettes) Switch classes
  13:../../DaisyExamples/libDaisy/src/hid/switch.h ****     @author Stephen Hensley
  14:../../DaisyExamples/libDaisy/src/hid/switch.h ****     @date December 2019
  15:../../DaisyExamples/libDaisy/src/hid/switch.h ****     @ingroup controls
  16:../../DaisyExamples/libDaisy/src/hid/switch.h **** */
  17:../../DaisyExamples/libDaisy/src/hid/switch.h **** class Switch
  18:../../DaisyExamples/libDaisy/src/hid/switch.h **** {
  19:../../DaisyExamples/libDaisy/src/hid/switch.h ****   public:
  20:../../DaisyExamples/libDaisy/src/hid/switch.h ****     /** Specifies the expected behavior of the switch */
  21:../../DaisyExamples/libDaisy/src/hid/switch.h ****     enum Type
  22:../../DaisyExamples/libDaisy/src/hid/switch.h ****     {
  23:../../DaisyExamples/libDaisy/src/hid/switch.h ****         TYPE_TOGGLE,    /**< & */
  24:../../DaisyExamples/libDaisy/src/hid/switch.h ****         TYPE_MOMENTARY, /**< & */
  25:../../DaisyExamples/libDaisy/src/hid/switch.h ****     };
  26:../../DaisyExamples/libDaisy/src/hid/switch.h ****     /** Specifies whether the pressed is HIGH or LOW. */
  27:../../DaisyExamples/libDaisy/src/hid/switch.h ****     enum Polarity
  28:../../DaisyExamples/libDaisy/src/hid/switch.h ****     {
  29:../../DaisyExamples/libDaisy/src/hid/switch.h ****         POLARITY_NORMAL,   /**< & */
  30:../../DaisyExamples/libDaisy/src/hid/switch.h ****         POLARITY_INVERTED, /**< & */
  31:../../DaisyExamples/libDaisy/src/hid/switch.h ****     };
  32:../../DaisyExamples/libDaisy/src/hid/switch.h **** 
  33:../../DaisyExamples/libDaisy/src/hid/switch.h ****     /** Specifies whether to use built-in Pull Up/Down resistors to hold button at a given state wh
  34:../../DaisyExamples/libDaisy/src/hid/switch.h ****     enum Pull
  35:../../DaisyExamples/libDaisy/src/hid/switch.h ****     {
  36:../../DaisyExamples/libDaisy/src/hid/switch.h ****         PULL_UP,   /**< & */
  37:../../DaisyExamples/libDaisy/src/hid/switch.h ****         PULL_DOWN, /**< & */
  38:../../DaisyExamples/libDaisy/src/hid/switch.h ****         PULL_NONE, /**< & */
  39:../../DaisyExamples/libDaisy/src/hid/switch.h ****     };
  40:../../DaisyExamples/libDaisy/src/hid/switch.h **** 
  41:../../DaisyExamples/libDaisy/src/hid/switch.h ****     Switch() {}
  42:../../DaisyExamples/libDaisy/src/hid/switch.h ****     ~Switch() {}
 134              		.loc 9 42 5 is_stmt 1 view .LVU27
 135              		.loc 9 42 5 is_stmt 0 view .LVU28
 136              	.LBE368:
 137              	.LBB369:
 138              	.LBI369:
 139              		.loc 9 42 5 is_stmt 1 view .LVU29
 140              		.loc 9 42 5 is_stmt 0 view .LVU30
 141              	.LBE369:
 142              	.LBB370:
 143              	.LBI370:
 144              		.loc 2 23 5 is_stmt 1 view .LVU31
 145              		.loc 2 23 5 is_stmt 0 view .LVU32
 146              	.LBE370:
 147              	.LBB371:
 148              	.LBI371:
 149              		.loc 2 23 5 is_stmt 1 view .LVU33
 150              		.loc 2 23 5 is_stmt 0 view .LVU34
 151              	.LBE371:
 152              	.LBB372:
 153              	.LBI372:
ARM GAS  /var/folders/hp/45mn71hd0ps5f5pnytxy5bt00000gn/T//ccNGmXRQ.s 			page 15


 154              		.file 10 "../../DaisyExamples/libDaisy/src/hid/encoder.h"
   1:../../DaisyExamples/libDaisy/src/hid/encoder.h **** #pragma once
   2:../../DaisyExamples/libDaisy/src/hid/encoder.h **** #ifndef DSY_ENCODER_H
   3:../../DaisyExamples/libDaisy/src/hid/encoder.h **** #define DSY_ENCODER_H
   4:../../DaisyExamples/libDaisy/src/hid/encoder.h **** #include "daisy_core.h"
   5:../../DaisyExamples/libDaisy/src/hid/encoder.h **** #include "per/gpio.h"
   6:../../DaisyExamples/libDaisy/src/hid/encoder.h **** #include "hid/switch.h"
   7:../../DaisyExamples/libDaisy/src/hid/encoder.h **** 
   8:../../DaisyExamples/libDaisy/src/hid/encoder.h **** namespace daisy
   9:../../DaisyExamples/libDaisy/src/hid/encoder.h **** {
  10:../../DaisyExamples/libDaisy/src/hid/encoder.h **** /** 
  11:../../DaisyExamples/libDaisy/src/hid/encoder.h ****     @brief Generic Class for handling Quadrature Encoders \n 
  12:../../DaisyExamples/libDaisy/src/hid/encoder.h ****     Inspired/influenced by Mutable Instruments (pichenettes) Encoder classes
  13:../../DaisyExamples/libDaisy/src/hid/encoder.h ****     @author Stephen Hensley
  14:../../DaisyExamples/libDaisy/src/hid/encoder.h ****     @date December 2019
  15:../../DaisyExamples/libDaisy/src/hid/encoder.h ****     @ingroup controls
  16:../../DaisyExamples/libDaisy/src/hid/encoder.h **** */
  17:../../DaisyExamples/libDaisy/src/hid/encoder.h **** class Encoder
  18:../../DaisyExamples/libDaisy/src/hid/encoder.h **** {
  19:../../DaisyExamples/libDaisy/src/hid/encoder.h ****   public:
  20:../../DaisyExamples/libDaisy/src/hid/encoder.h ****     Encoder() {}
  21:../../DaisyExamples/libDaisy/src/hid/encoder.h ****     ~Encoder() {}
 155              		.loc 10 21 5 is_stmt 1 view .LVU35
 156              	.LBB373:
 157              	.LBI373:
 158              		.loc 9 42 5 view .LVU36
 159              		.loc 9 42 5 is_stmt 0 view .LVU37
 160              	.LBE373:
 161              	.LBE372:
 162              	.LBB374:
 163              	.LBI374:
 164              		.file 11 "../../DaisyExamples/libDaisy/src/daisy_seed.h"
   1:../../DaisyExamples/libDaisy/src/daisy_seed.h **** #pragma once
   2:../../DaisyExamples/libDaisy/src/daisy_seed.h **** #ifndef DSY_SEED_H
   3:../../DaisyExamples/libDaisy/src/daisy_seed.h **** #define DSY_SEED_H
   4:../../DaisyExamples/libDaisy/src/daisy_seed.h **** 
   5:../../DaisyExamples/libDaisy/src/daisy_seed.h **** #include "daisy.h"
   6:../../DaisyExamples/libDaisy/src/daisy_seed.h **** 
   7:../../DaisyExamples/libDaisy/src/daisy_seed.h **** //Uncomment this out if you're still using the rev2 hardware
   8:../../DaisyExamples/libDaisy/src/daisy_seed.h **** //#define SEED_REV2
   9:../../DaisyExamples/libDaisy/src/daisy_seed.h **** 
  10:../../DaisyExamples/libDaisy/src/daisy_seed.h **** namespace daisy
  11:../../DaisyExamples/libDaisy/src/daisy_seed.h **** {
  12:../../DaisyExamples/libDaisy/src/daisy_seed.h **** /**
  13:../../DaisyExamples/libDaisy/src/daisy_seed.h ****    @brief This is the higher-level interface for the Daisy board. \n 
  14:../../DaisyExamples/libDaisy/src/daisy_seed.h ****     All basic peripheral configuration/initialization is setup here. \n
  15:../../DaisyExamples/libDaisy/src/daisy_seed.h **** 
  16:../../DaisyExamples/libDaisy/src/daisy_seed.h ****    @ingroup boards
  17:../../DaisyExamples/libDaisy/src/daisy_seed.h **** */
  18:../../DaisyExamples/libDaisy/src/daisy_seed.h **** class DaisySeed
  19:../../DaisyExamples/libDaisy/src/daisy_seed.h **** {
  20:../../DaisyExamples/libDaisy/src/daisy_seed.h ****   public:
  21:../../DaisyExamples/libDaisy/src/daisy_seed.h ****     DaisySeed() {}
  22:../../DaisyExamples/libDaisy/src/daisy_seed.h ****     ~DaisySeed() {}
 165              		.loc 11 22 5 is_stmt 1 view .LVU38
 166              	.LBB375:
 167              	.LBI375:
ARM GAS  /var/folders/hp/45mn71hd0ps5f5pnytxy5bt00000gn/T//ccNGmXRQ.s 			page 16


 168              		.file 12 "../../DaisyExamples/libDaisy/src/sys/system.h"
   1:../../DaisyExamples/libDaisy/src/sys/system.h **** #ifndef DSY_SYSTEM_H
   2:../../DaisyExamples/libDaisy/src/sys/system.h **** #define DSY_SYSTEM_H
   3:../../DaisyExamples/libDaisy/src/sys/system.h **** 
   4:../../DaisyExamples/libDaisy/src/sys/system.h **** #ifndef UNIT_TEST // for unit tests, a dummy implementation is provided below
   5:../../DaisyExamples/libDaisy/src/sys/system.h **** 
   6:../../DaisyExamples/libDaisy/src/sys/system.h **** #include <cstdint>
   7:../../DaisyExamples/libDaisy/src/sys/system.h **** #include "per/tim.h"
   8:../../DaisyExamples/libDaisy/src/sys/system.h **** 
   9:../../DaisyExamples/libDaisy/src/sys/system.h **** namespace daisy
  10:../../DaisyExamples/libDaisy/src/sys/system.h **** {
  11:../../DaisyExamples/libDaisy/src/sys/system.h **** /** A handle for interacting with the Core System.
  12:../../DaisyExamples/libDaisy/src/sys/system.h ****  ** This includes the Clock tree, MPU, global DMA initialization,
  13:../../DaisyExamples/libDaisy/src/sys/system.h ****  ** cache handling, and any other necessary global initiailzation
  14:../../DaisyExamples/libDaisy/src/sys/system.h ****  **
  15:../../DaisyExamples/libDaisy/src/sys/system.h ****  ** @author shensley
  16:../../DaisyExamples/libDaisy/src/sys/system.h ****  ** @ingroup system
  17:../../DaisyExamples/libDaisy/src/sys/system.h ****  */
  18:../../DaisyExamples/libDaisy/src/sys/system.h **** class System
  19:../../DaisyExamples/libDaisy/src/sys/system.h **** {
  20:../../DaisyExamples/libDaisy/src/sys/system.h ****   public:
  21:../../DaisyExamples/libDaisy/src/sys/system.h ****     /** Contains settings for initializing the System */
  22:../../DaisyExamples/libDaisy/src/sys/system.h ****     struct Config
  23:../../DaisyExamples/libDaisy/src/sys/system.h ****     {
  24:../../DaisyExamples/libDaisy/src/sys/system.h ****         /** Specifies the system clock frequency that feeds APB/AHB clocks, etc. */
  25:../../DaisyExamples/libDaisy/src/sys/system.h ****         enum class SysClkFreq
  26:../../DaisyExamples/libDaisy/src/sys/system.h ****         {
  27:../../DaisyExamples/libDaisy/src/sys/system.h ****             FREQ_400MHZ,
  28:../../DaisyExamples/libDaisy/src/sys/system.h ****             FREQ_480MHZ,
  29:../../DaisyExamples/libDaisy/src/sys/system.h ****         };
  30:../../DaisyExamples/libDaisy/src/sys/system.h **** 
  31:../../DaisyExamples/libDaisy/src/sys/system.h ****         /** Method to call on the struct to set to defaults
  32:../../DaisyExamples/libDaisy/src/sys/system.h ****          ** CPU Freq set to 400MHz
  33:../../DaisyExamples/libDaisy/src/sys/system.h ****          ** Cache Enabled
  34:../../DaisyExamples/libDaisy/src/sys/system.h ****          ** */
  35:../../DaisyExamples/libDaisy/src/sys/system.h ****         void Defaults()
  36:../../DaisyExamples/libDaisy/src/sys/system.h ****         {
  37:../../DaisyExamples/libDaisy/src/sys/system.h ****             cpu_freq    = SysClkFreq::FREQ_400MHZ;
  38:../../DaisyExamples/libDaisy/src/sys/system.h ****             use_dcache  = true;
  39:../../DaisyExamples/libDaisy/src/sys/system.h ****             use_icache  = true;
  40:../../DaisyExamples/libDaisy/src/sys/system.h ****             skip_clocks = false;
  41:../../DaisyExamples/libDaisy/src/sys/system.h ****         }
  42:../../DaisyExamples/libDaisy/src/sys/system.h **** 
  43:../../DaisyExamples/libDaisy/src/sys/system.h ****         /** Method to call on the struct to set to boost mode:
  44:../../DaisyExamples/libDaisy/src/sys/system.h ****          ** CPU Freq set to 480MHz
  45:../../DaisyExamples/libDaisy/src/sys/system.h ****          ** Cache Enabled
  46:../../DaisyExamples/libDaisy/src/sys/system.h ****          ** */
  47:../../DaisyExamples/libDaisy/src/sys/system.h ****         void Boost()
  48:../../DaisyExamples/libDaisy/src/sys/system.h ****         {
  49:../../DaisyExamples/libDaisy/src/sys/system.h ****             cpu_freq    = SysClkFreq::FREQ_480MHZ;
  50:../../DaisyExamples/libDaisy/src/sys/system.h ****             use_dcache  = true;
  51:../../DaisyExamples/libDaisy/src/sys/system.h ****             use_icache  = true;
  52:../../DaisyExamples/libDaisy/src/sys/system.h ****             skip_clocks = false;
  53:../../DaisyExamples/libDaisy/src/sys/system.h ****         }
  54:../../DaisyExamples/libDaisy/src/sys/system.h **** 
  55:../../DaisyExamples/libDaisy/src/sys/system.h ****         SysClkFreq cpu_freq;
  56:../../DaisyExamples/libDaisy/src/sys/system.h ****         bool       use_dcache;
ARM GAS  /var/folders/hp/45mn71hd0ps5f5pnytxy5bt00000gn/T//ccNGmXRQ.s 			page 17


  57:../../DaisyExamples/libDaisy/src/sys/system.h ****         bool       use_icache;
  58:../../DaisyExamples/libDaisy/src/sys/system.h ****         bool       skip_clocks;
  59:../../DaisyExamples/libDaisy/src/sys/system.h ****     };
  60:../../DaisyExamples/libDaisy/src/sys/system.h **** 
  61:../../DaisyExamples/libDaisy/src/sys/system.h ****     /** Describes the different regions of memory available to the Daisy */
  62:../../DaisyExamples/libDaisy/src/sys/system.h ****     enum MemoryRegion
  63:../../DaisyExamples/libDaisy/src/sys/system.h ****     {
  64:../../DaisyExamples/libDaisy/src/sys/system.h ****         INTERNAL_FLASH = 0,
  65:../../DaisyExamples/libDaisy/src/sys/system.h ****         ITCMRAM,
  66:../../DaisyExamples/libDaisy/src/sys/system.h ****         DTCMRAM,
  67:../../DaisyExamples/libDaisy/src/sys/system.h ****         SRAM_D1,
  68:../../DaisyExamples/libDaisy/src/sys/system.h ****         SRAM_D2,
  69:../../DaisyExamples/libDaisy/src/sys/system.h ****         SRAM_D3,
  70:../../DaisyExamples/libDaisy/src/sys/system.h ****         SDRAM,
  71:../../DaisyExamples/libDaisy/src/sys/system.h ****         QSPI,
  72:../../DaisyExamples/libDaisy/src/sys/system.h ****         INVALID_ADDRESS,
  73:../../DaisyExamples/libDaisy/src/sys/system.h ****     };
  74:../../DaisyExamples/libDaisy/src/sys/system.h **** 
  75:../../DaisyExamples/libDaisy/src/sys/system.h ****     /** Bootloader struct for controlling bootloading parameters */
  76:../../DaisyExamples/libDaisy/src/sys/system.h ****     struct BootInfo
  77:../../DaisyExamples/libDaisy/src/sys/system.h ****     {
  78:../../DaisyExamples/libDaisy/src/sys/system.h ****         enum class Type : uint32_t
  79:../../DaisyExamples/libDaisy/src/sys/system.h ****         {
  80:../../DaisyExamples/libDaisy/src/sys/system.h ****             INVALID      = 0x00000000,
  81:../../DaisyExamples/libDaisy/src/sys/system.h ****             JUMP         = 0xDEADBEEF,
  82:../../DaisyExamples/libDaisy/src/sys/system.h ****             SKIP_TIMEOUT = 0x5AFEB007,
  83:../../DaisyExamples/libDaisy/src/sys/system.h ****             INF_TIMEOUT  = 0xB0074EFA,
  84:../../DaisyExamples/libDaisy/src/sys/system.h ****         } status;
  85:../../DaisyExamples/libDaisy/src/sys/system.h ****         uint32_t data;
  86:../../DaisyExamples/libDaisy/src/sys/system.h ****         enum class Version : uint32_t
  87:../../DaisyExamples/libDaisy/src/sys/system.h ****         {
  88:../../DaisyExamples/libDaisy/src/sys/system.h ****             LT_v6_0 = 0, // Less than v6.0
  89:../../DaisyExamples/libDaisy/src/sys/system.h ****             NONE,        // No bootloader present
  90:../../DaisyExamples/libDaisy/src/sys/system.h ****             v6_0,        // v6.0
  91:../../DaisyExamples/libDaisy/src/sys/system.h ****             v6_1,        // v6.1 or greater
  92:../../DaisyExamples/libDaisy/src/sys/system.h ****             LAST
  93:../../DaisyExamples/libDaisy/src/sys/system.h ****         } version;
  94:../../DaisyExamples/libDaisy/src/sys/system.h ****     };
  95:../../DaisyExamples/libDaisy/src/sys/system.h **** 
  96:../../DaisyExamples/libDaisy/src/sys/system.h ****     System() {}
  97:../../DaisyExamples/libDaisy/src/sys/system.h ****     ~System() {}
 169              		.loc 12 97 5 view .LVU39
 170              		.loc 12 97 5 is_stmt 0 view .LVU40
 171              	.LBE375:
 172              	.LBB376:
 173              	.LBI376:
 174              		.file 13 "../../DaisyExamples/libDaisy/src/hid/usb.h"
   1:../../DaisyExamples/libDaisy/src/hid/usb.h **** #pragma once
   2:../../DaisyExamples/libDaisy/src/hid/usb.h **** #ifndef DSY_HID_USB_H
   3:../../DaisyExamples/libDaisy/src/hid/usb.h **** #define DSY_HID_USB_H
   4:../../DaisyExamples/libDaisy/src/hid/usb.h **** #include <stdint.h>
   5:../../DaisyExamples/libDaisy/src/hid/usb.h **** #include <stdlib.h>
   6:../../DaisyExamples/libDaisy/src/hid/usb.h **** 
   7:../../DaisyExamples/libDaisy/src/hid/usb.h **** namespace daisy
   8:../../DaisyExamples/libDaisy/src/hid/usb.h **** /** @addtogroup human_interface
   9:../../DaisyExamples/libDaisy/src/hid/usb.h ****     @{
  10:../../DaisyExamples/libDaisy/src/hid/usb.h **** */
ARM GAS  /var/folders/hp/45mn71hd0ps5f5pnytxy5bt00000gn/T//ccNGmXRQ.s 			page 18


  11:../../DaisyExamples/libDaisy/src/hid/usb.h **** 
  12:../../DaisyExamples/libDaisy/src/hid/usb.h **** {
  13:../../DaisyExamples/libDaisy/src/hid/usb.h **** /** 
  14:../../DaisyExamples/libDaisy/src/hid/usb.h ****     @brief Interface for initializing and using the USB Peripherals on the daisy
  15:../../DaisyExamples/libDaisy/src/hid/usb.h ****     @author Stephen Hensley
  16:../../DaisyExamples/libDaisy/src/hid/usb.h ****     @date December 2019
  17:../../DaisyExamples/libDaisy/src/hid/usb.h **** */
  18:../../DaisyExamples/libDaisy/src/hid/usb.h **** class UsbHandle
  19:../../DaisyExamples/libDaisy/src/hid/usb.h **** {
  20:../../DaisyExamples/libDaisy/src/hid/usb.h ****   public:
  21:../../DaisyExamples/libDaisy/src/hid/usb.h ****     /** Return values for USBHandle Functions */
  22:../../DaisyExamples/libDaisy/src/hid/usb.h ****     enum class Result
  23:../../DaisyExamples/libDaisy/src/hid/usb.h ****     {
  24:../../DaisyExamples/libDaisy/src/hid/usb.h ****         OK,
  25:../../DaisyExamples/libDaisy/src/hid/usb.h ****         ERR,
  26:../../DaisyExamples/libDaisy/src/hid/usb.h ****     };
  27:../../DaisyExamples/libDaisy/src/hid/usb.h **** 
  28:../../DaisyExamples/libDaisy/src/hid/usb.h ****     /** Specified which of the two USB Peripherals to initialize. */
  29:../../DaisyExamples/libDaisy/src/hid/usb.h ****     enum UsbPeriph
  30:../../DaisyExamples/libDaisy/src/hid/usb.h ****     {
  31:../../DaisyExamples/libDaisy/src/hid/usb.h ****         FS_INTERNAL, /**< Internal pin */
  32:../../DaisyExamples/libDaisy/src/hid/usb.h ****         FS_EXTERNAL, /**< FS External D+ pin is Pin 38 (GPIO32). FS External D- pin is Pin 37 (GPIO
  33:../../DaisyExamples/libDaisy/src/hid/usb.h ****         FS_BOTH,     /**< Both */
  34:../../DaisyExamples/libDaisy/src/hid/usb.h ****     };
  35:../../DaisyExamples/libDaisy/src/hid/usb.h **** 
  36:../../DaisyExamples/libDaisy/src/hid/usb.h **** 
  37:../../DaisyExamples/libDaisy/src/hid/usb.h ****     /** Function called upon reception of a buffer */
  38:../../DaisyExamples/libDaisy/src/hid/usb.h ****     typedef void (*ReceiveCallback)(uint8_t* buff, uint32_t* len);
  39:../../DaisyExamples/libDaisy/src/hid/usb.h **** 
  40:../../DaisyExamples/libDaisy/src/hid/usb.h ****     UsbHandle() {}
  41:../../DaisyExamples/libDaisy/src/hid/usb.h **** 
  42:../../DaisyExamples/libDaisy/src/hid/usb.h ****     ~UsbHandle() {}
 175              		.loc 13 42 5 is_stmt 1 view .LVU41
 176              		.loc 13 42 5 is_stmt 0 view .LVU42
 177              	.LBE376:
 178              	.LBB377:
 179              	.LBI377:
 180              		.file 14 "../../DaisyExamples/libDaisy/src/per/adc.h"
   1:../../DaisyExamples/libDaisy/src/per/adc.h **** #pragma once
   2:../../DaisyExamples/libDaisy/src/per/adc.h **** #ifndef DSY_ADC_H
   3:../../DaisyExamples/libDaisy/src/per/adc.h **** #define DSY_ADC_H /**< Macro */
   4:../../DaisyExamples/libDaisy/src/per/adc.h **** #include <stdint.h>
   5:../../DaisyExamples/libDaisy/src/per/adc.h **** #include <stdlib.h>
   6:../../DaisyExamples/libDaisy/src/per/adc.h **** #include "daisy_core.h"
   7:../../DaisyExamples/libDaisy/src/per/adc.h **** #include "per/gpio.h"
   8:../../DaisyExamples/libDaisy/src/per/adc.h **** 
   9:../../DaisyExamples/libDaisy/src/per/adc.h **** #define DSY_ADC_MAX_CHANNELS 16 /**< Maximum number of ADC channels */
  10:../../DaisyExamples/libDaisy/src/per/adc.h **** 
  11:../../DaisyExamples/libDaisy/src/per/adc.h **** namespace daisy
  12:../../DaisyExamples/libDaisy/src/per/adc.h **** {
  13:../../DaisyExamples/libDaisy/src/per/adc.h **** /** @addtogroup per_analog
  14:../../DaisyExamples/libDaisy/src/per/adc.h ****     @{
  15:../../DaisyExamples/libDaisy/src/per/adc.h **** */
  16:../../DaisyExamples/libDaisy/src/per/adc.h **** 
  17:../../DaisyExamples/libDaisy/src/per/adc.h **** /* While there may not be many configuration options here,
  18:../../DaisyExamples/libDaisy/src/per/adc.h **** using a struct like this allows us to add more configuration
  19:../../DaisyExamples/libDaisy/src/per/adc.h **** later without breaking existing functionality.
ARM GAS  /var/folders/hp/45mn71hd0ps5f5pnytxy5bt00000gn/T//ccNGmXRQ.s 			page 19


  20:../../DaisyExamples/libDaisy/src/per/adc.h **** */
  21:../../DaisyExamples/libDaisy/src/per/adc.h **** 
  22:../../DaisyExamples/libDaisy/src/per/adc.h **** /** @brief   Configuration Structure for an ADC Channel 
  23:../../DaisyExamples/libDaisy/src/per/adc.h ****  *  @details This can be used to configure a a single input, 
  24:../../DaisyExamples/libDaisy/src/per/adc.h ****  *           or a multiplexed input, allowing up to 8 inputs on 
  25:../../DaisyExamples/libDaisy/src/per/adc.h ****  *           one channel.
  26:../../DaisyExamples/libDaisy/src/per/adc.h ****  *  @note    Sharing data lines to multiple muxes _is_ possible, but
  27:../../DaisyExamples/libDaisy/src/per/adc.h ****  *           each channel sharing data lines must be set to the maximum
  28:../../DaisyExamples/libDaisy/src/per/adc.h ****  *           number of channels, even if some multiplexers have fewer
  29:../../DaisyExamples/libDaisy/src/per/adc.h ****  *           inputs connected.
  30:../../DaisyExamples/libDaisy/src/per/adc.h **** */
  31:../../DaisyExamples/libDaisy/src/per/adc.h **** struct AdcChannelConfig
  32:../../DaisyExamples/libDaisy/src/per/adc.h **** {
  33:../../DaisyExamples/libDaisy/src/per/adc.h ****     /** Which pin to use for multiplexing */
  34:../../DaisyExamples/libDaisy/src/per/adc.h ****     enum MuxPin
  35:../../DaisyExamples/libDaisy/src/per/adc.h ****     {
  36:../../DaisyExamples/libDaisy/src/per/adc.h ****         MUX_SEL_0,    /**< & */
  37:../../DaisyExamples/libDaisy/src/per/adc.h ****         MUX_SEL_1,    /**< & */
  38:../../DaisyExamples/libDaisy/src/per/adc.h ****         MUX_SEL_2,    /**< & */
  39:../../DaisyExamples/libDaisy/src/per/adc.h ****         MUX_SEL_LAST, /**< & */
  40:../../DaisyExamples/libDaisy/src/per/adc.h ****     };
  41:../../DaisyExamples/libDaisy/src/per/adc.h **** 
  42:../../DaisyExamples/libDaisy/src/per/adc.h ****     /** \brief per channel conversion speed added to fixed time based on bitdepth, etc. */
  43:../../DaisyExamples/libDaisy/src/per/adc.h ****     enum ConversionSpeed
  44:../../DaisyExamples/libDaisy/src/per/adc.h ****     {
  45:../../DaisyExamples/libDaisy/src/per/adc.h ****         SPEED_1CYCLES_5,
  46:../../DaisyExamples/libDaisy/src/per/adc.h ****         SPEED_2CYCLES_5,
  47:../../DaisyExamples/libDaisy/src/per/adc.h ****         SPEED_8CYCLES_5,
  48:../../DaisyExamples/libDaisy/src/per/adc.h ****         SPEED_16CYCLES_5,
  49:../../DaisyExamples/libDaisy/src/per/adc.h ****         SPEED_32CYCLES_5,
  50:../../DaisyExamples/libDaisy/src/per/adc.h ****         SPEED_64CYCLES_5,
  51:../../DaisyExamples/libDaisy/src/per/adc.h ****         SPEED_387CYCLES_5,
  52:../../DaisyExamples/libDaisy/src/per/adc.h ****         SPEED_810CYCLES_5,
  53:../../DaisyExamples/libDaisy/src/per/adc.h ****     };
  54:../../DaisyExamples/libDaisy/src/per/adc.h **** 
  55:../../DaisyExamples/libDaisy/src/per/adc.h ****     /** Initializes a single ADC pin as an ADC. 
  56:../../DaisyExamples/libDaisy/src/per/adc.h ****     \param pin Pin to init.
  57:../../DaisyExamples/libDaisy/src/per/adc.h ****     \param speed conversion speed for this pin defaults to 8.5 cycles
  58:../../DaisyExamples/libDaisy/src/per/adc.h ****      */
  59:../../DaisyExamples/libDaisy/src/per/adc.h ****     void InitSingle(dsy_gpio_pin pin, ConversionSpeed speed = SPEED_8CYCLES_5);
  60:../../DaisyExamples/libDaisy/src/per/adc.h **** 
  61:../../DaisyExamples/libDaisy/src/per/adc.h ****     /** 
  62:../../DaisyExamples/libDaisy/src/per/adc.h ****     Initializes a single ADC pin as a Multiplexed ADC.
  63:../../DaisyExamples/libDaisy/src/per/adc.h ****     Requires a CD405X Multiplexer connected to the pin.
  64:../../DaisyExamples/libDaisy/src/per/adc.h ****     You only need to supply the mux pins that are required,
  65:../../DaisyExamples/libDaisy/src/per/adc.h ****     e.g. a 4052 mux would only require mux_0 and mux_1.
  66:../../DaisyExamples/libDaisy/src/per/adc.h ****     Internal Callbacks handle the pin addressing.
  67:../../DaisyExamples/libDaisy/src/per/adc.h ****     \param adc_pin &
  68:../../DaisyExamples/libDaisy/src/per/adc.h ****     \param mux_channels must be 1-8
  69:../../DaisyExamples/libDaisy/src/per/adc.h ****     \param mux_0 First mux pin
  70:../../DaisyExamples/libDaisy/src/per/adc.h ****     \param mux_1 Second mux pin
  71:../../DaisyExamples/libDaisy/src/per/adc.h ****     \param mux_2 Third mux pin
  72:../../DaisyExamples/libDaisy/src/per/adc.h ****     \param speed conversion speed for this pin defaults to 8.5 cycles
  73:../../DaisyExamples/libDaisy/src/per/adc.h ****     */
  74:../../DaisyExamples/libDaisy/src/per/adc.h ****     void InitMux(dsy_gpio_pin    adc_pin,
  75:../../DaisyExamples/libDaisy/src/per/adc.h ****                  size_t          mux_channels,
  76:../../DaisyExamples/libDaisy/src/per/adc.h ****                  dsy_gpio_pin    mux_0,
ARM GAS  /var/folders/hp/45mn71hd0ps5f5pnytxy5bt00000gn/T//ccNGmXRQ.s 			page 20


  77:../../DaisyExamples/libDaisy/src/per/adc.h ****                  dsy_gpio_pin    mux_1 = {DSY_GPIOX, 0},
  78:../../DaisyExamples/libDaisy/src/per/adc.h ****                  dsy_gpio_pin    mux_2 = {DSY_GPIOX, 0},
  79:../../DaisyExamples/libDaisy/src/per/adc.h ****                  ConversionSpeed speed = SPEED_8CYCLES_5);
  80:../../DaisyExamples/libDaisy/src/per/adc.h **** 
  81:../../DaisyExamples/libDaisy/src/per/adc.h ****     dsy_gpio        pin_;                   /**< & */
  82:../../DaisyExamples/libDaisy/src/per/adc.h ****     dsy_gpio        mux_pin_[MUX_SEL_LAST]; /**< & */
  83:../../DaisyExamples/libDaisy/src/per/adc.h ****     uint8_t         mux_channels_;          /**< & */
  84:../../DaisyExamples/libDaisy/src/per/adc.h ****     ConversionSpeed speed_;
  85:../../DaisyExamples/libDaisy/src/per/adc.h **** };
  86:../../DaisyExamples/libDaisy/src/per/adc.h **** 
  87:../../DaisyExamples/libDaisy/src/per/adc.h **** /**
  88:../../DaisyExamples/libDaisy/src/per/adc.h ****    @brief Handler for analog to digital conversion
  89:../../DaisyExamples/libDaisy/src/per/adc.h **** */
  90:../../DaisyExamples/libDaisy/src/per/adc.h **** class AdcHandle
  91:../../DaisyExamples/libDaisy/src/per/adc.h **** {
  92:../../DaisyExamples/libDaisy/src/per/adc.h ****   public:
  93:../../DaisyExamples/libDaisy/src/per/adc.h ****     /** Supported oversampling amounts */
  94:../../DaisyExamples/libDaisy/src/per/adc.h ****     enum OverSampling
  95:../../DaisyExamples/libDaisy/src/per/adc.h ****     {
  96:../../DaisyExamples/libDaisy/src/per/adc.h ****         OVS_NONE, /**< & */
  97:../../DaisyExamples/libDaisy/src/per/adc.h ****         OVS_4,    /**< & */
  98:../../DaisyExamples/libDaisy/src/per/adc.h ****         OVS_8,    /**< & */
  99:../../DaisyExamples/libDaisy/src/per/adc.h ****         OVS_16,   /**< & */
 100:../../DaisyExamples/libDaisy/src/per/adc.h ****         OVS_32,   /**< & */
 101:../../DaisyExamples/libDaisy/src/per/adc.h ****         OVS_64,   /**< & */
 102:../../DaisyExamples/libDaisy/src/per/adc.h ****         OVS_128,  /**< & */
 103:../../DaisyExamples/libDaisy/src/per/adc.h ****         OVS_256,  /**< & */
 104:../../DaisyExamples/libDaisy/src/per/adc.h ****         OVS_512,  /**< & */
 105:../../DaisyExamples/libDaisy/src/per/adc.h ****         OVS_1024, /**< & */
 106:../../DaisyExamples/libDaisy/src/per/adc.h ****         OVS_LAST, /**< & */
 107:../../DaisyExamples/libDaisy/src/per/adc.h ****     };
 108:../../DaisyExamples/libDaisy/src/per/adc.h **** 
 109:../../DaisyExamples/libDaisy/src/per/adc.h ****     AdcHandle() {}
 110:../../DaisyExamples/libDaisy/src/per/adc.h ****     ~AdcHandle() {}
 181              		.loc 14 110 5 is_stmt 1 view .LVU43
 182              		.loc 14 110 5 is_stmt 0 view .LVU44
 183              	.LBE377:
 184              	.LBB378:
 185              	.LBI378:
 186              		.file 15 "../../DaisyExamples/libDaisy/src/hid/audio.h"
   1:../../DaisyExamples/libDaisy/src/hid/audio.h **** #ifndef DSY_AUDIO_H
   2:../../DaisyExamples/libDaisy/src/hid/audio.h **** #define DSY_AUDIO_H /**< & */
   3:../../DaisyExamples/libDaisy/src/hid/audio.h **** 
   4:../../DaisyExamples/libDaisy/src/hid/audio.h **** #include "per/sai.h"
   5:../../DaisyExamples/libDaisy/src/hid/audio.h **** 
   6:../../DaisyExamples/libDaisy/src/hid/audio.h **** namespace daisy
   7:../../DaisyExamples/libDaisy/src/hid/audio.h **** {
   8:../../DaisyExamples/libDaisy/src/hid/audio.h **** /** @brief Audio Engine Handle
   9:../../DaisyExamples/libDaisy/src/hid/audio.h ****  *  @ingroup audio 
  10:../../DaisyExamples/libDaisy/src/hid/audio.h ****  *  @details This class allows for higher level access to an audio engine.
  11:../../DaisyExamples/libDaisy/src/hid/audio.h ****  *           If you're using a SOM like the DaisySeed or DaisyPatchSM (or any 
  12:../../DaisyExamples/libDaisy/src/hid/audio.h ****  *            board that includes one of those objects) then the intialization
  13:../../DaisyExamples/libDaisy/src/hid/audio.h ****  *            is already taken  care of.
  14:../../DaisyExamples/libDaisy/src/hid/audio.h ****  *           If you're setting up your own custom hardware, or need to make changes
  15:../../DaisyExamples/libDaisy/src/hid/audio.h ****  *           you will have to take the following steps:
  16:../../DaisyExamples/libDaisy/src/hid/audio.h ****  *             1. Create and Initialize an SaiHandle or two depending on your requirements
  17:../../DaisyExamples/libDaisy/src/hid/audio.h ****  *             2. Initialize the Audio Handle with the desired settings and the Initialized SaiHand
ARM GAS  /var/folders/hp/45mn71hd0ps5f5pnytxy5bt00000gn/T//ccNGmXRQ.s 			page 21


  18:../../DaisyExamples/libDaisy/src/hid/audio.h ****  *             3. If the connected codec requires special configuration or initialization, do so
  19:../../DaisyExamples/libDaisy/src/hid/audio.h ****  *             4. Write a callback method using either the AudioCallback or the InterleavingAudioCa
  20:../../DaisyExamples/libDaisy/src/hid/audio.h ****  *             5. Start the Audio using one of the StartAudio function
  21:../../DaisyExamples/libDaisy/src/hid/audio.h ****  */
  22:../../DaisyExamples/libDaisy/src/hid/audio.h **** class AudioHandle
  23:../../DaisyExamples/libDaisy/src/hid/audio.h **** {
  24:../../DaisyExamples/libDaisy/src/hid/audio.h ****   public:
  25:../../DaisyExamples/libDaisy/src/hid/audio.h ****     /** Manually configurable details about the Audio Engine */
  26:../../DaisyExamples/libDaisy/src/hid/audio.h ****     /** TODO: Figure out how to get samplerate in here. */
  27:../../DaisyExamples/libDaisy/src/hid/audio.h ****     struct Config
  28:../../DaisyExamples/libDaisy/src/hid/audio.h ****     {
  29:../../DaisyExamples/libDaisy/src/hid/audio.h ****         /** number of samples to process per callback */
  30:../../DaisyExamples/libDaisy/src/hid/audio.h ****         size_t blocksize;
  31:../../DaisyExamples/libDaisy/src/hid/audio.h **** 
  32:../../DaisyExamples/libDaisy/src/hid/audio.h ****         /**< Sample rate of audio */
  33:../../DaisyExamples/libDaisy/src/hid/audio.h ****         SaiHandle::Config::SampleRate samplerate;
  34:../../DaisyExamples/libDaisy/src/hid/audio.h **** 
  35:../../DaisyExamples/libDaisy/src/hid/audio.h ****         /** factor for adjustment before and after callback for hardware that may have extra headro
  36:../../DaisyExamples/libDaisy/src/hid/audio.h ****         float postgain;
  37:../../DaisyExamples/libDaisy/src/hid/audio.h **** 
  38:../../DaisyExamples/libDaisy/src/hid/audio.h ****         /** factor for additional one-sided compensation to audio path for hardware that may
  39:../../DaisyExamples/libDaisy/src/hid/audio.h ****          *  have unequal input/output ranges
  40:../../DaisyExamples/libDaisy/src/hid/audio.h ****          */
  41:../../DaisyExamples/libDaisy/src/hid/audio.h ****         float output_compensation;
  42:../../DaisyExamples/libDaisy/src/hid/audio.h **** 
  43:../../DaisyExamples/libDaisy/src/hid/audio.h ****         /** Sets default values for config struct */
  44:../../DaisyExamples/libDaisy/src/hid/audio.h ****         Config()
  45:../../DaisyExamples/libDaisy/src/hid/audio.h ****         : blocksize(48),
  46:../../DaisyExamples/libDaisy/src/hid/audio.h ****           samplerate(SaiHandle::Config::SampleRate::SAI_48KHZ),
  47:../../DaisyExamples/libDaisy/src/hid/audio.h ****           postgain(1.f),
  48:../../DaisyExamples/libDaisy/src/hid/audio.h ****           output_compensation(1.f)
  49:../../DaisyExamples/libDaisy/src/hid/audio.h ****         {
  50:../../DaisyExamples/libDaisy/src/hid/audio.h ****         }
  51:../../DaisyExamples/libDaisy/src/hid/audio.h ****     };
  52:../../DaisyExamples/libDaisy/src/hid/audio.h **** 
  53:../../DaisyExamples/libDaisy/src/hid/audio.h ****     enum class Result
  54:../../DaisyExamples/libDaisy/src/hid/audio.h ****     {
  55:../../DaisyExamples/libDaisy/src/hid/audio.h ****         OK,
  56:../../DaisyExamples/libDaisy/src/hid/audio.h ****         ERR,
  57:../../DaisyExamples/libDaisy/src/hid/audio.h ****     };
  58:../../DaisyExamples/libDaisy/src/hid/audio.h **** 
  59:../../DaisyExamples/libDaisy/src/hid/audio.h ****     /** Non-Interleaving input buffer
  60:../../DaisyExamples/libDaisy/src/hid/audio.h ****      * Buffer arranged by float[chn][sample] 
  61:../../DaisyExamples/libDaisy/src/hid/audio.h ****      * const so that the user can't modify the input
  62:../../DaisyExamples/libDaisy/src/hid/audio.h ****      */
  63:../../DaisyExamples/libDaisy/src/hid/audio.h ****     typedef const float* const* InputBuffer;
  64:../../DaisyExamples/libDaisy/src/hid/audio.h **** 
  65:../../DaisyExamples/libDaisy/src/hid/audio.h ****     /** Non-Interleaving output buffer
  66:../../DaisyExamples/libDaisy/src/hid/audio.h ****      * Arranged by float[chn][sample] 
  67:../../DaisyExamples/libDaisy/src/hid/audio.h ****      */
  68:../../DaisyExamples/libDaisy/src/hid/audio.h ****     typedef float** OutputBuffer;
  69:../../DaisyExamples/libDaisy/src/hid/audio.h **** 
  70:../../DaisyExamples/libDaisy/src/hid/audio.h ****     /** Type for a Non-Interleaving audio callback 
  71:../../DaisyExamples/libDaisy/src/hid/audio.h ****      * Non-Interleaving audio callbacks in daisy will be of this type
  72:../../DaisyExamples/libDaisy/src/hid/audio.h ****      */
  73:../../DaisyExamples/libDaisy/src/hid/audio.h ****     typedef void (*AudioCallback)(InputBuffer  in,
  74:../../DaisyExamples/libDaisy/src/hid/audio.h ****                                   OutputBuffer out,
ARM GAS  /var/folders/hp/45mn71hd0ps5f5pnytxy5bt00000gn/T//ccNGmXRQ.s 			page 22


  75:../../DaisyExamples/libDaisy/src/hid/audio.h ****                                   size_t       size);
  76:../../DaisyExamples/libDaisy/src/hid/audio.h **** 
  77:../../DaisyExamples/libDaisy/src/hid/audio.h ****     /** Interleaving Input buffer
  78:../../DaisyExamples/libDaisy/src/hid/audio.h ****      ** audio is prepared as { L0, R0, L1, R1, . . . LN, RN }]
  79:../../DaisyExamples/libDaisy/src/hid/audio.h ****      ** this is const, as the user shouldn't modify it
  80:../../DaisyExamples/libDaisy/src/hid/audio.h ****     */
  81:../../DaisyExamples/libDaisy/src/hid/audio.h ****     typedef const float* InterleavingInputBuffer;
  82:../../DaisyExamples/libDaisy/src/hid/audio.h **** 
  83:../../DaisyExamples/libDaisy/src/hid/audio.h ****     /** Interleaving Output buffer 
  84:../../DaisyExamples/libDaisy/src/hid/audio.h ****      ** audio is prepared as { L0, R0, L1, R1, . . . LN, RN }
  85:../../DaisyExamples/libDaisy/src/hid/audio.h ****     */
  86:../../DaisyExamples/libDaisy/src/hid/audio.h ****     typedef float* InterleavingOutputBuffer;
  87:../../DaisyExamples/libDaisy/src/hid/audio.h **** 
  88:../../DaisyExamples/libDaisy/src/hid/audio.h ****     /** Interleaving Audio Callback 
  89:../../DaisyExamples/libDaisy/src/hid/audio.h ****      * Interleaving audio callbacks in daisy must be of this type
  90:../../DaisyExamples/libDaisy/src/hid/audio.h ****      */
  91:../../DaisyExamples/libDaisy/src/hid/audio.h ****     typedef void (*InterleavingAudioCallback)(InterleavingInputBuffer  in,
  92:../../DaisyExamples/libDaisy/src/hid/audio.h ****                                               InterleavingOutputBuffer out,
  93:../../DaisyExamples/libDaisy/src/hid/audio.h ****                                               size_t                   size);
  94:../../DaisyExamples/libDaisy/src/hid/audio.h **** 
  95:../../DaisyExamples/libDaisy/src/hid/audio.h ****     AudioHandle() : pimpl_(nullptr) {}
  96:../../DaisyExamples/libDaisy/src/hid/audio.h ****     ~AudioHandle() {}
 187              		.loc 15 96 5 is_stmt 1 view .LVU45
 188              		.loc 15 96 5 is_stmt 0 view .LVU46
 189              	.LBE378:
 190              	.LBE374:
 191              		.loc 3 36 18 view .LVU47
 192 0000 7047     		bx	lr
 193              		.cfi_endproc
 194              	.LFE2565:
 196              		.weak	_ZN5daisy8DaisyPodD1Ev
 197              		.thumb_set _ZN5daisy8DaisyPodD1Ev,_ZN5daisy8DaisyPodD2Ev
 198 0002 00BF     		.section	.text._ZN7daisysp5AdEnvD2Ev,"axG",%progbits,_ZN7daisysp5AdEnvD5Ev,comdat
 199              		.align	1
 200              		.p2align 2,,3
 201              		.weak	_ZN7daisysp5AdEnvD2Ev
 202              		.syntax unified
 203              		.thumb
 204              		.thumb_func
 206              	_ZN7daisysp5AdEnvD2Ev:
 207              	.LVL2:
 208              	.LFB2572:
 209              		.file 16 "../../DaisyExamples/DaisySP/Source/Control/adenv.h"
   1:../../DaisyExamples/DaisySP/Source/Control/adenv.h **** /*
   2:../../DaisyExamples/DaisySP/Source/Control/adenv.h **** Copyright (c) 2020 Electrosmith, Corp
   3:../../DaisyExamples/DaisySP/Source/Control/adenv.h **** 
   4:../../DaisyExamples/DaisySP/Source/Control/adenv.h **** Use of this source code is governed by an MIT-style
   5:../../DaisyExamples/DaisySP/Source/Control/adenv.h **** license that can be found in the LICENSE file or at
   6:../../DaisyExamples/DaisySP/Source/Control/adenv.h **** https://opensource.org/licenses/MIT.
   7:../../DaisyExamples/DaisySP/Source/Control/adenv.h **** */
   8:../../DaisyExamples/DaisySP/Source/Control/adenv.h **** 
   9:../../DaisyExamples/DaisySP/Source/Control/adenv.h **** #pragma once
  10:../../DaisyExamples/DaisySP/Source/Control/adenv.h **** #ifndef ADENV_H
  11:../../DaisyExamples/DaisySP/Source/Control/adenv.h **** #define ADENV_H
  12:../../DaisyExamples/DaisySP/Source/Control/adenv.h **** #include <stdint.h>
  13:../../DaisyExamples/DaisySP/Source/Control/adenv.h **** #ifdef __cplusplus
  14:../../DaisyExamples/DaisySP/Source/Control/adenv.h **** 
ARM GAS  /var/folders/hp/45mn71hd0ps5f5pnytxy5bt00000gn/T//ccNGmXRQ.s 			page 23


  15:../../DaisyExamples/DaisySP/Source/Control/adenv.h **** namespace daisysp
  16:../../DaisyExamples/DaisySP/Source/Control/adenv.h **** {
  17:../../DaisyExamples/DaisySP/Source/Control/adenv.h **** /** Distinct stages that the phase of the envelope can be located in.
  18:../../DaisyExamples/DaisySP/Source/Control/adenv.h ****     @see AdEnv
  19:../../DaisyExamples/DaisySP/Source/Control/adenv.h **** */
  20:../../DaisyExamples/DaisySP/Source/Control/adenv.h **** enum AdEnvSegment
  21:../../DaisyExamples/DaisySP/Source/Control/adenv.h **** {
  22:../../DaisyExamples/DaisySP/Source/Control/adenv.h ****     /** located at phase location 0, and not currently running */
  23:../../DaisyExamples/DaisySP/Source/Control/adenv.h ****     ADENV_SEG_IDLE,
  24:../../DaisyExamples/DaisySP/Source/Control/adenv.h ****     /** First segment of envelope where phase moves from MIN value to MAX value */
  25:../../DaisyExamples/DaisySP/Source/Control/adenv.h ****     ADENV_SEG_ATTACK,
  26:../../DaisyExamples/DaisySP/Source/Control/adenv.h ****     /** Second segment of envelope where phase moves from MAX to MIN value */
  27:../../DaisyExamples/DaisySP/Source/Control/adenv.h ****     ADENV_SEG_DECAY,
  28:../../DaisyExamples/DaisySP/Source/Control/adenv.h ****     /** The final segment of the envelope (currently decay) */
  29:../../DaisyExamples/DaisySP/Source/Control/adenv.h ****     ADENV_SEG_LAST,
  30:../../DaisyExamples/DaisySP/Source/Control/adenv.h **** };
  31:../../DaisyExamples/DaisySP/Source/Control/adenv.h **** 
  32:../../DaisyExamples/DaisySP/Source/Control/adenv.h **** /** Trigger-able envelope with adjustable min/max, and independent per-segment time control.
  33:../../DaisyExamples/DaisySP/Source/Control/adenv.h **** 
  34:../../DaisyExamples/DaisySP/Source/Control/adenv.h ****     \author shensley
  35:../../DaisyExamples/DaisySP/Source/Control/adenv.h ****     \todo - Add Cycling
  36:../../DaisyExamples/DaisySP/Source/Control/adenv.h ****     \todo - Implement Curve (its only linear for now).
  37:../../DaisyExamples/DaisySP/Source/Control/adenv.h ****     \todo - Maybe make this an ADsr_ that has AD/AR/Asr_ modes.
  38:../../DaisyExamples/DaisySP/Source/Control/adenv.h ****  */
  39:../../DaisyExamples/DaisySP/Source/Control/adenv.h **** class AdEnv
  40:../../DaisyExamples/DaisySP/Source/Control/adenv.h **** {
  41:../../DaisyExamples/DaisySP/Source/Control/adenv.h ****   public:
  42:../../DaisyExamples/DaisySP/Source/Control/adenv.h ****     AdEnv() {}
  43:../../DaisyExamples/DaisySP/Source/Control/adenv.h ****     ~AdEnv() {}
 210              		.loc 16 43 5 is_stmt 1 view -0
 211              		.cfi_startproc
 212              		@ args = 0, pretend = 0, frame = 0
 213              		@ frame_needed = 0, uses_anonymous_args = 0
 214              		@ link register save eliminated.
 215              		.loc 16 43 15 is_stmt 0 view .LVU49
 216 0000 7047     		bx	lr
 217              		.cfi_endproc
 218              	.LFE2572:
 220              		.weak	_ZN7daisysp5AdEnvD1Ev
 221              		.thumb_set _ZN7daisysp5AdEnvD1Ev,_ZN7daisysp5AdEnvD2Ev
 222 0002 00BF     		.section	.text._ZN7daisysp10OscillatorD2Ev,"axG",%progbits,_ZN7daisysp10OscillatorD5Ev,comdat
 223              		.align	1
 224              		.p2align 2,,3
 225              		.weak	_ZN7daisysp10OscillatorD2Ev
 226              		.syntax unified
 227              		.thumb
 228              		.thumb_func
 230              	_ZN7daisysp10OscillatorD2Ev:
 231              	.LVL3:
 232              	.LFB4248:
 233              		.file 17 "../../DaisyExamples/DaisySP/Source/Synthesis/oscillator.h"
   1:../../DaisyExamples/DaisySP/Source/Synthesis/oscillator.h **** /*
   2:../../DaisyExamples/DaisySP/Source/Synthesis/oscillator.h **** Copyright (c) 2020 Electrosmith, Corp
   3:../../DaisyExamples/DaisySP/Source/Synthesis/oscillator.h **** 
   4:../../DaisyExamples/DaisySP/Source/Synthesis/oscillator.h **** Use of this source code is governed by an MIT-style
   5:../../DaisyExamples/DaisySP/Source/Synthesis/oscillator.h **** license that can be found in the LICENSE file or at
   6:../../DaisyExamples/DaisySP/Source/Synthesis/oscillator.h **** https://opensource.org/licenses/MIT.
ARM GAS  /var/folders/hp/45mn71hd0ps5f5pnytxy5bt00000gn/T//ccNGmXRQ.s 			page 24


   7:../../DaisyExamples/DaisySP/Source/Synthesis/oscillator.h **** */
   8:../../DaisyExamples/DaisySP/Source/Synthesis/oscillator.h **** 
   9:../../DaisyExamples/DaisySP/Source/Synthesis/oscillator.h **** #pragma once
  10:../../DaisyExamples/DaisySP/Source/Synthesis/oscillator.h **** #ifndef DSY_OSCILLATOR_H
  11:../../DaisyExamples/DaisySP/Source/Synthesis/oscillator.h **** #define DSY_OSCILLATOR_H
  12:../../DaisyExamples/DaisySP/Source/Synthesis/oscillator.h **** #include <stdint.h>
  13:../../DaisyExamples/DaisySP/Source/Synthesis/oscillator.h **** #include "Utility/dsp.h"
  14:../../DaisyExamples/DaisySP/Source/Synthesis/oscillator.h **** #ifdef __cplusplus
  15:../../DaisyExamples/DaisySP/Source/Synthesis/oscillator.h **** 
  16:../../DaisyExamples/DaisySP/Source/Synthesis/oscillator.h **** namespace daisysp
  17:../../DaisyExamples/DaisySP/Source/Synthesis/oscillator.h **** {
  18:../../DaisyExamples/DaisySP/Source/Synthesis/oscillator.h **** /** Synthesis of several waveforms, including polyBLEP bandlimited waveforms.
  19:../../DaisyExamples/DaisySP/Source/Synthesis/oscillator.h **** */
  20:../../DaisyExamples/DaisySP/Source/Synthesis/oscillator.h **** class Oscillator
  21:../../DaisyExamples/DaisySP/Source/Synthesis/oscillator.h **** {
  22:../../DaisyExamples/DaisySP/Source/Synthesis/oscillator.h ****   public:
  23:../../DaisyExamples/DaisySP/Source/Synthesis/oscillator.h ****     Oscillator() {}
  24:../../DaisyExamples/DaisySP/Source/Synthesis/oscillator.h ****     ~Oscillator() {}
 234              		.loc 17 24 5 is_stmt 1 view -0
 235              		.cfi_startproc
 236              		@ args = 0, pretend = 0, frame = 0
 237              		@ frame_needed = 0, uses_anonymous_args = 0
 238              		@ link register save eliminated.
 239              		.loc 17 24 20 is_stmt 0 view .LVU51
 240 0000 7047     		bx	lr
 241              		.cfi_endproc
 242              	.LFE4248:
 244              		.weak	_ZN7daisysp10OscillatorD1Ev
 245              		.thumb_set _ZN7daisysp10OscillatorD1Ev,_ZN7daisysp10OscillatorD2Ev
 246 0002 00BF     		.section	.text._ZL13AudioCallbackPKfPfj,"ax",%progbits
 247              		.align	1
 248              		.p2align 2,,3
 249              		.syntax unified
 250              		.thumb
 251              		.thumb_func
 253              	_ZL13AudioCallbackPKfPfj:
 254              	.LVL4:
 255              	.LFB4854:
 256              		.file 18 "SynthV3.cpp"
   1:SynthV3.cpp   **** #include "daisy_pod.h"
   2:SynthV3.cpp   **** #include "daisysp.h"
   3:SynthV3.cpp   **** 
   4:SynthV3.cpp   **** using namespace daisy;
   5:SynthV3.cpp   **** using namespace daisysp;
   6:SynthV3.cpp   **** 
   7:SynthV3.cpp   **** static DaisyPod hw;
   8:SynthV3.cpp   **** static Oscillator osc;
   9:SynthV3.cpp   **** static AdEnv ad;
  10:SynthV3.cpp   **** static Parameter  p_freq;
  11:SynthV3.cpp   **** static Parameter p_release;
  12:SynthV3.cpp   **** 
  13:SynthV3.cpp   **** float freq;
  14:SynthV3.cpp   **** float adRelease;
  15:SynthV3.cpp   **** bool adCycle;
  16:SynthV3.cpp   **** // float attackTime;
  17:SynthV3.cpp   **** // float decayTime;
  18:SynthV3.cpp   **** 
ARM GAS  /var/folders/hp/45mn71hd0ps5f5pnytxy5bt00000gn/T//ccNGmXRQ.s 			page 25


  19:SynthV3.cpp   **** static void AudioCallback(AudioHandle::InterleavingInputBuffer  in,
  20:SynthV3.cpp   ****                           AudioHandle::InterleavingOutputBuffer out,
  21:SynthV3.cpp   ****                           size_t                                size)
  22:SynthV3.cpp   **** {
 257              		.loc 18 22 1 is_stmt 1 view -0
 258              		.cfi_startproc
 259              		@ args = 0, pretend = 0, frame = 0
 260              		@ frame_needed = 0, uses_anonymous_args = 0
  23:SynthV3.cpp   ****     hw.ProcessAnalogControls();
 261              		.loc 18 23 5 view .LVU53
  22:SynthV3.cpp   ****     hw.ProcessAnalogControls();
 262              		.loc 18 22 1 is_stmt 0 view .LVU54
 263 0000 2DE9F047 		push	{r4, r5, r6, r7, r8, r9, r10, lr}
 264              		.cfi_def_cfa_offset 32
 265              		.cfi_offset 4, -32
 266              		.cfi_offset 5, -28
 267              		.cfi_offset 6, -24
 268              		.cfi_offset 7, -20
 269              		.cfi_offset 8, -16
 270              		.cfi_offset 9, -12
 271              		.cfi_offset 10, -8
 272              		.cfi_offset 14, -4
 273              		.loc 18 23 29 view .LVU55
 274 0004 354D     		ldr	r5, .L30
  22:SynthV3.cpp   ****     hw.ProcessAnalogControls();
 275              		.loc 18 22 1 view .LVU56
 276 0006 0C46     		mov	r4, r1
 277 0008 1746     		mov	r7, r2
 278              		.loc 18 23 29 view .LVU57
 279 000a 2846     		mov	r0, r5
 280              	.LVL5:
  22:SynthV3.cpp   ****     hw.ProcessAnalogControls();
 281              		.loc 18 22 1 view .LVU58
 282 000c 2DED028B 		vpush.64	{d8}
 283              		.cfi_def_cfa_offset 40
 284              		.cfi_offset 80, -40
 285              		.cfi_offset 81, -36
 286              		.loc 18 23 29 view .LVU59
 287 0010 FFF7FEFF 		bl	_ZN5daisy8DaisyPod21ProcessAnalogControlsEv
 288              	.LVL6:
  24:SynthV3.cpp   ****     hw.ProcessDigitalControls();
 289              		.loc 18 24 5 is_stmt 1 view .LVU60
 290              		.loc 18 24 30 is_stmt 0 view .LVU61
 291 0014 2846     		mov	r0, r5
 292 0016 FFF7FEFF 		bl	_ZN5daisy8DaisyPod22ProcessDigitalControlsEv
 293              	.LVL7:
  25:SynthV3.cpp   ****     if(hw.button1.RisingEdge() || (adCycle && !ad.IsRunning()))
 294              		.loc 18 25 5 is_stmt 1 view .LVU62
 295              	.LBB379:
 296              	.LBI379:
  43:../../DaisyExamples/libDaisy/src/hid/switch.h **** 
  44:../../DaisyExamples/libDaisy/src/hid/switch.h ****     /** 
  45:../../DaisyExamples/libDaisy/src/hid/switch.h ****     Initializes the switch object with a given port/pin combo.
  46:../../DaisyExamples/libDaisy/src/hid/switch.h ****     \param pin port/pin object to tell the switch which hardware pin to use.
  47:../../DaisyExamples/libDaisy/src/hid/switch.h ****     \param update_rate Does nothing. Backwards compatibility until next breaking update.
  48:../../DaisyExamples/libDaisy/src/hid/switch.h ****     \param t switch type -- Default: TYPE_MOMENTARY
  49:../../DaisyExamples/libDaisy/src/hid/switch.h ****     \param pol switch polarity -- Default: POLARITY_INVERTED
ARM GAS  /var/folders/hp/45mn71hd0ps5f5pnytxy5bt00000gn/T//ccNGmXRQ.s 			page 26


  50:../../DaisyExamples/libDaisy/src/hid/switch.h ****     \param pu switch pull up/down -- Default: PULL_UP
  51:../../DaisyExamples/libDaisy/src/hid/switch.h ****     */
  52:../../DaisyExamples/libDaisy/src/hid/switch.h ****     void
  53:../../DaisyExamples/libDaisy/src/hid/switch.h ****     Init(dsy_gpio_pin pin, float update_rate, Type t, Polarity pol, Pull pu);
  54:../../DaisyExamples/libDaisy/src/hid/switch.h **** 
  55:../../DaisyExamples/libDaisy/src/hid/switch.h ****     /**
  56:../../DaisyExamples/libDaisy/src/hid/switch.h ****        Simplified Init.
  57:../../DaisyExamples/libDaisy/src/hid/switch.h ****        \param pin port/pin object to tell the switch which hardware pin to use.
  58:../../DaisyExamples/libDaisy/src/hid/switch.h ****        \param update_rate Left for backwards compatibility until next breaking change.
  59:../../DaisyExamples/libDaisy/src/hid/switch.h ****     */
  60:../../DaisyExamples/libDaisy/src/hid/switch.h ****     void Init(dsy_gpio_pin pin, float update_rate = 0.f);
  61:../../DaisyExamples/libDaisy/src/hid/switch.h **** 
  62:../../DaisyExamples/libDaisy/src/hid/switch.h ****     /** 
  63:../../DaisyExamples/libDaisy/src/hid/switch.h ****     Called at update_rate to debounce and handle timing for the switch.
  64:../../DaisyExamples/libDaisy/src/hid/switch.h ****     In order for events not to be missed, its important that the Edge/Pressed checks
  65:../../DaisyExamples/libDaisy/src/hid/switch.h ****     be made at the same rate as the debounce function is being called.
  66:../../DaisyExamples/libDaisy/src/hid/switch.h ****     */
  67:../../DaisyExamples/libDaisy/src/hid/switch.h ****     void Debounce();
  68:../../DaisyExamples/libDaisy/src/hid/switch.h **** 
  69:../../DaisyExamples/libDaisy/src/hid/switch.h ****     /** \return true if a button was just pressed. */
  70:../../DaisyExamples/libDaisy/src/hid/switch.h ****     inline bool RisingEdge() const { return updated_ ? state_ == 0x7f : false; }
 297              		.loc 9 70 17 view .LVU63
 298              	.LBB380:
 299              		.loc 9 70 38 view .LVU64
 300              		.loc 9 70 54 is_stmt 0 view .LVU65
 301 001a 95F8B430 		ldrb	r3, [r5, #180]	@ zero_extendqisi2
 302 001e 002B     		cmp	r3, #0
 303 0020 4BD0     		beq	.L7
 304              	.LVL8:
 305              		.loc 9 70 54 view .LVU66
 306              	.LBE380:
 307              	.LBE379:
 308              		.loc 18 25 32 view .LVU67
 309 0022 95F8BA30 		ldrb	r3, [r5, #186]	@ zero_extendqisi2
 310 0026 7F2B     		cmp	r3, #127
 311 0028 47D1     		bne	.L7
 312 002a DFF8C080 		ldr	r8, .L30+16
 313              	.L8:
  26:SynthV3.cpp   ****     {
  27:SynthV3.cpp   ****         ad.Trigger();
 314              		.loc 18 27 9 is_stmt 1 discriminator 5 view .LVU68
 315              	.LVL9:
 316              	.LBB381:
 317              	.LBI381:
  44:../../DaisyExamples/DaisySP/Source/Control/adenv.h ****     /** Initializes the ad envelope.
  45:../../DaisyExamples/DaisySP/Source/Control/adenv.h **** 
  46:../../DaisyExamples/DaisySP/Source/Control/adenv.h ****         Defaults:
  47:../../DaisyExamples/DaisySP/Source/Control/adenv.h ****             - current segment = idle
  48:../../DaisyExamples/DaisySP/Source/Control/adenv.h ****             - curve = linear
  49:../../DaisyExamples/DaisySP/Source/Control/adenv.h ****             - phase = 0
  50:../../DaisyExamples/DaisySP/Source/Control/adenv.h ****             - min = 0
  51:../../DaisyExamples/DaisySP/Source/Control/adenv.h ****             - max = 1
  52:../../DaisyExamples/DaisySP/Source/Control/adenv.h **** 
  53:../../DaisyExamples/DaisySP/Source/Control/adenv.h ****         \param sample_rate      sample rate of the audio engine being run
  54:../../DaisyExamples/DaisySP/Source/Control/adenv.h ****     */
  55:../../DaisyExamples/DaisySP/Source/Control/adenv.h ****     void Init(float sample_rate);
  56:../../DaisyExamples/DaisySP/Source/Control/adenv.h **** 
ARM GAS  /var/folders/hp/45mn71hd0ps5f5pnytxy5bt00000gn/T//ccNGmXRQ.s 			page 27


  57:../../DaisyExamples/DaisySP/Source/Control/adenv.h ****     /** Processes the current sample of the envelope. This should be called once
  58:../../DaisyExamples/DaisySP/Source/Control/adenv.h ****         per sample period.
  59:../../DaisyExamples/DaisySP/Source/Control/adenv.h ****         \return the current envelope value.
  60:../../DaisyExamples/DaisySP/Source/Control/adenv.h ****     */
  61:../../DaisyExamples/DaisySP/Source/Control/adenv.h ****     float Process();
  62:../../DaisyExamples/DaisySP/Source/Control/adenv.h **** 
  63:../../DaisyExamples/DaisySP/Source/Control/adenv.h ****     /** Starts or retriggers the envelope.*/
  64:../../DaisyExamples/DaisySP/Source/Control/adenv.h ****     inline void Trigger() { trigger_ = 1; }
 318              		.loc 16 64 17 discriminator 5 view .LVU69
 319              	.LBB382:
 320              		.loc 16 64 29 discriminator 5 view .LVU70
 321              		.loc 16 64 38 is_stmt 0 discriminator 5 view .LVU71
 322 002e 0123     		movs	r3, #1
 323 0030 88F83430 		strb	r3, [r8, #52]
 324              	.LVL10:
 325              	.L9:
 326              		.loc 16 64 38 discriminator 5 view .LVU72
 327              	.LBE382:
 328              	.LBE381:
  28:SynthV3.cpp   ****     }
  29:SynthV3.cpp   **** 
  30:SynthV3.cpp   ****     if(hw.button2.RisingEdge())
 329              		.loc 18 30 5 is_stmt 1 view .LVU73
 330              	.LBB383:
 331              	.LBI383:
 332              		.loc 9 70 17 view .LVU74
 333              	.LBB384:
 334              		.loc 9 70 38 view .LVU75
 335              		.loc 9 70 54 is_stmt 0 view .LVU76
 336 0034 95F8C430 		ldrb	r3, [r5, #196]	@ zero_extendqisi2
 337 0038 1BB1     		cbz	r3, .L10
 338              	.LVL11:
 339              		.loc 9 70 54 view .LVU77
 340              	.LBE384:
 341              	.LBE383:
 342              		.loc 18 30 5 view .LVU78
 343 003a 95F8CA30 		ldrb	r3, [r5, #202]	@ zero_extendqisi2
 344 003e 7F2B     		cmp	r3, #127
 345 0040 46D0     		beq	.L28
 346              	.L10:
  31:SynthV3.cpp   ****     {
  32:SynthV3.cpp   ****         adCycle = !adCycle;
  33:SynthV3.cpp   ****     }
  34:SynthV3.cpp   ****     freq = p_freq.Process();
 347              		.loc 18 34 5 is_stmt 1 view .LVU79
 348              		.loc 18 34 26 is_stmt 0 view .LVU80
 349 0042 2748     		ldr	r0, .L30+4
 350              		.loc 18 34 10 view .LVU81
 351 0044 DFF8AC90 		ldr	r9, .L30+24
 352              		.loc 18 34 26 view .LVU82
 353 0048 FFF7FEFF 		bl	_ZN5daisy9Parameter7ProcessEv
 354              	.LVL12:
  35:SynthV3.cpp   ****     adRelease = p_release.Process();
 355              		.loc 18 35 15 view .LVU83
 356 004c DFF8A8A0 		ldr	r10, .L30+28
 357              		.loc 18 35 34 view .LVU84
 358 0050 2448     		ldr	r0, .L30+8
ARM GAS  /var/folders/hp/45mn71hd0ps5f5pnytxy5bt00000gn/T//ccNGmXRQ.s 			page 28


  34:SynthV3.cpp   ****     adRelease = p_release.Process();
 359              		.loc 18 34 10 view .LVU85
 360 0052 89ED000A 		vstr.32	s0, [r9]
 361              		.loc 18 35 5 is_stmt 1 view .LVU86
 362              		.loc 18 35 34 is_stmt 0 view .LVU87
 363 0056 FFF7FEFF 		bl	_ZN5daisy9Parameter7ProcessEv
 364              	.LVL13:
 365              		.loc 18 35 15 view .LVU88
 366 005a 8AED000A 		vstr.32	s0, [r10]
  36:SynthV3.cpp   ****     
  37:SynthV3.cpp   **** 
  38:SynthV3.cpp   ****     for(size_t i = 0; i < size; i += 2)
 367              		.loc 18 38 5 is_stmt 1 view .LVU89
 368              	.LVL14:
 369              	.LBB385:
 370              		.loc 18 38 25 view .LVU90
 371 005e 47B3     		cbz	r7, .L6
 372 0060 013F     		subs	r7, r7, #1
 373              	.LVL15:
 374              		.loc 18 38 25 is_stmt 0 view .LVU91
 375 0062 0025     		movs	r5, #0
 376 0064 DFF88480 		ldr	r8, .L30+16
 377 0068 7F08     		lsrs	r7, r7, #1
 378              	.LVL16:
 379              		.loc 18 38 25 view .LVU92
 380 006a 1F4E     		ldr	r6, .L30+12
 381 006c 01E0     		b	.L12
 382              	.LVL17:
 383              	.L29:
 384              	.LBB386:
  39:SynthV3.cpp   ****     {
  40:SynthV3.cpp   ****         float sig;
  41:SynthV3.cpp   ****         float adOut;
  42:SynthV3.cpp   **** 
  43:SynthV3.cpp   ****         ad.SetTime(ADENV_SEG_DECAY, adRelease);
 385              		.loc 18 43 19 view .LVU93
 386 006e 9AED000A 		vldr.32	s0, [r10]
 387              	.LVL18:
 388              	.L12:
  40:SynthV3.cpp   ****         float adOut;
 389              		.loc 18 40 9 is_stmt 1 discriminator 2 view .LVU94
  41:SynthV3.cpp   **** 
 390              		.loc 18 41 9 discriminator 2 view .LVU95
 391              		.loc 18 43 9 discriminator 2 view .LVU96
 392              	.LBB387:
 393              	.LBI387:
  65:../../DaisyExamples/DaisySP/Source/Control/adenv.h ****     /** Sets the length of time (in seconds) for a specific segment. */
  66:../../DaisyExamples/DaisySP/Source/Control/adenv.h ****     inline void SetTime(uint8_t seg, float time) { segment_time_[seg] = time; }
 394              		.loc 16 66 17 discriminator 2 view .LVU97
 395              	.LBB388:
 396              		.loc 16 66 52 discriminator 2 view .LVU98
 397              	.LBE388:
 398              	.LBE387:
  44:SynthV3.cpp   ****         adOut = ad.Process();
 399              		.loc 18 44 27 is_stmt 0 discriminator 2 view .LVU99
 400 0072 1E48     		ldr	r0, .L30+16
 401              	.LBE386:
ARM GAS  /var/folders/hp/45mn71hd0ps5f5pnytxy5bt00000gn/T//ccNGmXRQ.s 			page 29


  38:SynthV3.cpp   ****     {
 402              		.loc 18 38 25 discriminator 2 view .LVU100
 403 0074 0834     		adds	r4, r4, #8
 404              	.LBB395:
 405              	.LBB390:
 406              	.LBB389:
 407              		.loc 16 66 71 discriminator 2 view .LVU101
 408 0076 88ED030A 		vstr.32	s0, [r8, #12]
 409              	.LVL19:
 410              		.loc 16 66 71 discriminator 2 view .LVU102
 411              	.LBE389:
 412              	.LBE390:
 413              		.loc 18 44 9 is_stmt 1 discriminator 2 view .LVU103
 414              		.loc 18 44 27 is_stmt 0 discriminator 2 view .LVU104
 415 007a FFF7FEFF 		bl	_ZN7daisysp5AdEnv7ProcessEv
 416              	.LVL20:
  45:SynthV3.cpp   ****         osc.SetFreq(freq);
 417              		.loc 18 45 20 discriminator 2 view .LVU105
 418 007e D9ED007A 		vldr.32	s15, [r9]
  44:SynthV3.cpp   ****         adOut = ad.Process();
 419              		.loc 18 44 27 discriminator 2 view .LVU106
 420 0082 B0EE408A 		vmov.f32	s16, s0
 421              	.LVL21:
 422              		.loc 18 45 9 is_stmt 1 discriminator 2 view .LVU107
 423              	.LBB391:
 424              	.LBI391:
  25:../../DaisyExamples/DaisySP/Source/Synthesis/oscillator.h ****     /** Choices for output waveforms, POLYBLEP are appropriately labeled. Others are naive forms.
  26:../../DaisyExamples/DaisySP/Source/Synthesis/oscillator.h ****     */
  27:../../DaisyExamples/DaisySP/Source/Synthesis/oscillator.h ****     enum
  28:../../DaisyExamples/DaisySP/Source/Synthesis/oscillator.h ****     {
  29:../../DaisyExamples/DaisySP/Source/Synthesis/oscillator.h ****         WAVE_SIN,
  30:../../DaisyExamples/DaisySP/Source/Synthesis/oscillator.h ****         WAVE_TRI,
  31:../../DaisyExamples/DaisySP/Source/Synthesis/oscillator.h ****         WAVE_SAW,
  32:../../DaisyExamples/DaisySP/Source/Synthesis/oscillator.h ****         WAVE_RAMP,
  33:../../DaisyExamples/DaisySP/Source/Synthesis/oscillator.h ****         WAVE_SQUARE,
  34:../../DaisyExamples/DaisySP/Source/Synthesis/oscillator.h ****         WAVE_POLYBLEP_TRI,
  35:../../DaisyExamples/DaisySP/Source/Synthesis/oscillator.h ****         WAVE_POLYBLEP_SAW,
  36:../../DaisyExamples/DaisySP/Source/Synthesis/oscillator.h ****         WAVE_POLYBLEP_SQUARE,
  37:../../DaisyExamples/DaisySP/Source/Synthesis/oscillator.h ****         WAVE_LAST,
  38:../../DaisyExamples/DaisySP/Source/Synthesis/oscillator.h ****     };
  39:../../DaisyExamples/DaisySP/Source/Synthesis/oscillator.h **** 
  40:../../DaisyExamples/DaisySP/Source/Synthesis/oscillator.h **** 
  41:../../DaisyExamples/DaisySP/Source/Synthesis/oscillator.h ****     /** Initializes the Oscillator
  42:../../DaisyExamples/DaisySP/Source/Synthesis/oscillator.h **** 
  43:../../DaisyExamples/DaisySP/Source/Synthesis/oscillator.h ****         \param sample_rate - sample rate of the audio engine being run, and the frequency that the 
  44:../../DaisyExamples/DaisySP/Source/Synthesis/oscillator.h **** 
  45:../../DaisyExamples/DaisySP/Source/Synthesis/oscillator.h ****         Defaults:
  46:../../DaisyExamples/DaisySP/Source/Synthesis/oscillator.h ****         - freq_ = 100 Hz
  47:../../DaisyExamples/DaisySP/Source/Synthesis/oscillator.h ****         - amp_ = 0.5
  48:../../DaisyExamples/DaisySP/Source/Synthesis/oscillator.h ****         - waveform_ = sine wave.
  49:../../DaisyExamples/DaisySP/Source/Synthesis/oscillator.h ****     */
  50:../../DaisyExamples/DaisySP/Source/Synthesis/oscillator.h ****     void Init(float sample_rate)
  51:../../DaisyExamples/DaisySP/Source/Synthesis/oscillator.h ****     {
  52:../../DaisyExamples/DaisySP/Source/Synthesis/oscillator.h ****         sr_        = sample_rate;
  53:../../DaisyExamples/DaisySP/Source/Synthesis/oscillator.h ****         sr_recip_  = 1.0f / sample_rate;
  54:../../DaisyExamples/DaisySP/Source/Synthesis/oscillator.h ****         freq_      = 100.0f;
  55:../../DaisyExamples/DaisySP/Source/Synthesis/oscillator.h ****         amp_       = 0.5f;
ARM GAS  /var/folders/hp/45mn71hd0ps5f5pnytxy5bt00000gn/T//ccNGmXRQ.s 			page 30


  56:../../DaisyExamples/DaisySP/Source/Synthesis/oscillator.h ****         pw_        = 0.5f;
  57:../../DaisyExamples/DaisySP/Source/Synthesis/oscillator.h ****         phase_     = 0.0f;
  58:../../DaisyExamples/DaisySP/Source/Synthesis/oscillator.h ****         phase_inc_ = CalcPhaseInc(freq_);
  59:../../DaisyExamples/DaisySP/Source/Synthesis/oscillator.h ****         waveform_  = WAVE_SIN;
  60:../../DaisyExamples/DaisySP/Source/Synthesis/oscillator.h ****         eoc_       = true;
  61:../../DaisyExamples/DaisySP/Source/Synthesis/oscillator.h ****         eor_       = true;
  62:../../DaisyExamples/DaisySP/Source/Synthesis/oscillator.h ****     }
  63:../../DaisyExamples/DaisySP/Source/Synthesis/oscillator.h **** 
  64:../../DaisyExamples/DaisySP/Source/Synthesis/oscillator.h **** 
  65:../../DaisyExamples/DaisySP/Source/Synthesis/oscillator.h ****     /** Changes the frequency of the Oscillator, and recalculates phase increment.
  66:../../DaisyExamples/DaisySP/Source/Synthesis/oscillator.h ****     */
  67:../../DaisyExamples/DaisySP/Source/Synthesis/oscillator.h ****     inline void SetFreq(const float f)
 425              		.loc 17 67 17 discriminator 2 view .LVU108
 426              	.LBB392:
  68:../../DaisyExamples/DaisySP/Source/Synthesis/oscillator.h ****     {
  69:../../DaisyExamples/DaisySP/Source/Synthesis/oscillator.h ****         freq_      = f;
 427              		.loc 17 69 9 discriminator 2 view .LVU109
  70:../../DaisyExamples/DaisySP/Source/Synthesis/oscillator.h ****         phase_inc_ = CalcPhaseInc(f);
 428              		.loc 17 70 34 is_stmt 0 discriminator 2 view .LVU110
 429 0086 1848     		ldr	r0, .L30+12
 430 0088 B0EE670A 		vmov.f32	s0, s15
 431              	.LVL22:
  69:../../DaisyExamples/DaisySP/Source/Synthesis/oscillator.h ****         phase_inc_ = CalcPhaseInc(f);
 432              		.loc 17 69 20 discriminator 2 view .LVU111
 433 008c C6ED027A 		vstr.32	s15, [r6, #8]
 434              		.loc 17 70 9 is_stmt 1 discriminator 2 view .LVU112
 435              		.loc 17 70 34 is_stmt 0 discriminator 2 view .LVU113
 436 0090 FFF7FEFF 		bl	_ZN7daisysp10Oscillator12CalcPhaseIncEf
 437              	.LVL23:
 438              		.loc 17 70 34 discriminator 2 view .LVU114
 439              	.LBE392:
 440              	.LBE391:
  46:SynthV3.cpp   ****         sig = osc.Process();
 441              		.loc 18 46 26 discriminator 2 view .LVU115
 442 0094 1448     		ldr	r0, .L30+12
 443              	.LBB394:
 444              	.LBB393:
 445              		.loc 17 70 20 discriminator 2 view .LVU116
 446 0096 86ED070A 		vstr.32	s0, [r6, #28]
 447              	.LVL24:
 448              		.loc 17 70 20 discriminator 2 view .LVU117
 449              	.LBE393:
 450              	.LBE394:
 451              		.loc 18 46 9 is_stmt 1 discriminator 2 view .LVU118
 452              		.loc 18 46 26 is_stmt 0 discriminator 2 view .LVU119
 453 009a FFF7FEFF 		bl	_ZN7daisysp10Oscillator7ProcessEv
 454              	.LVL25:
  47:SynthV3.cpp   ****         sig *= adOut;
 455              		.loc 18 47 9 is_stmt 1 discriminator 2 view .LVU120
 456              		.loc 18 47 13 is_stmt 0 discriminator 2 view .LVU121
 457 009e 28EE000A 		vmul.f32	s0, s16, s0
 458              	.LVL26:
  48:SynthV3.cpp   ****         out[i] = sig;
 459              		.loc 18 48 9 is_stmt 1 discriminator 2 view .LVU122
 460              	.LBE395:
  38:SynthV3.cpp   ****     {
 461              		.loc 18 38 25 is_stmt 0 discriminator 2 view .LVU123
ARM GAS  /var/folders/hp/45mn71hd0ps5f5pnytxy5bt00000gn/T//ccNGmXRQ.s 			page 31


 462 00a2 BD42     		cmp	r5, r7
 463 00a4 05F10105 		add	r5, r5, #1
 464              	.LVL27:
 465              	.LBB396:
 466              		.loc 18 48 16 discriminator 2 view .LVU124
 467 00a8 04ED020A 		vstr.32	s0, [r4, #-8]
  49:SynthV3.cpp   ****         out[i + 1] = sig;
 468              		.loc 18 49 9 is_stmt 1 discriminator 2 view .LVU125
 469              		.loc 18 49 20 is_stmt 0 discriminator 2 view .LVU126
 470 00ac 04ED010A 		vstr.32	s0, [r4, #-4]
 471              	.LBE396:
  38:SynthV3.cpp   ****     {
 472              		.loc 18 38 5 is_stmt 1 discriminator 2 view .LVU127
 473              	.LVL28:
  38:SynthV3.cpp   ****     {
 474              		.loc 18 38 25 discriminator 2 view .LVU128
 475 00b0 DDD1     		bne	.L29
 476              	.LVL29:
 477              	.L6:
  38:SynthV3.cpp   ****     {
 478              		.loc 18 38 25 is_stmt 0 discriminator 2 view .LVU129
 479              	.LBE385:
  50:SynthV3.cpp   ****     }
  51:SynthV3.cpp   **** }
 480              		.loc 18 51 1 view .LVU130
 481 00b2 BDEC028B 		vldm	sp!, {d8}
 482              		.cfi_remember_state
 483              		.cfi_restore 80
 484              		.cfi_restore 81
 485              		.cfi_def_cfa_offset 32
 486 00b6 BDE8F087 		pop	{r4, r5, r6, r7, r8, r9, r10, pc}
 487              	.LVL30:
 488              	.L7:
 489              		.cfi_restore_state
  25:SynthV3.cpp   ****     {
 490              		.loc 18 25 32 discriminator 2 view .LVU131
 491 00ba 0D4B     		ldr	r3, .L30+20
 492 00bc 1B78     		ldrb	r3, [r3]	@ zero_extendqisi2
 493 00be 002B     		cmp	r3, #0
 494 00c0 B8D0     		beq	.L9
 495              	.LVL31:
 496              	.LBB397:
 497              	.LBI397:
  67:../../DaisyExamples/DaisySP/Source/Control/adenv.h ****     /** Sets the amount of curve applied. A positve value will create a log
  68:../../DaisyExamples/DaisySP/Source/Control/adenv.h ****         curve. Input range: -100 to 100.  (or more)
  69:../../DaisyExamples/DaisySP/Source/Control/adenv.h ****     */
  70:../../DaisyExamples/DaisySP/Source/Control/adenv.h ****     inline void SetCurve(float scalar) { curve_scalar_ = scalar; }
  71:../../DaisyExamples/DaisySP/Source/Control/adenv.h ****     /** Sets the minimum value of the envelope output.
  72:../../DaisyExamples/DaisySP/Source/Control/adenv.h ****         Input range: -FLTmax_, to FLTmax_
  73:../../DaisyExamples/DaisySP/Source/Control/adenv.h ****     */
  74:../../DaisyExamples/DaisySP/Source/Control/adenv.h ****     inline void SetMin(float min) { min_ = min; }
  75:../../DaisyExamples/DaisySP/Source/Control/adenv.h ****     /** Sets the maximum value of the envelope output.
  76:../../DaisyExamples/DaisySP/Source/Control/adenv.h ****         Input range: -FLTmax_, to FLTmax_
  77:../../DaisyExamples/DaisySP/Source/Control/adenv.h ****     */
  78:../../DaisyExamples/DaisySP/Source/Control/adenv.h ****     inline void SetMax(float max) { max_ = max; }
  79:../../DaisyExamples/DaisySP/Source/Control/adenv.h ****     /** Returns the current output value without processing the next sample */
  80:../../DaisyExamples/DaisySP/Source/Control/adenv.h ****     inline float GetValue() const { return (output_ * (max_ - min_)) + min_; }
ARM GAS  /var/folders/hp/45mn71hd0ps5f5pnytxy5bt00000gn/T//ccNGmXRQ.s 			page 32


  81:../../DaisyExamples/DaisySP/Source/Control/adenv.h ****     /** Returns the segment of the envelope that the phase is currently located
  82:../../DaisyExamples/DaisySP/Source/Control/adenv.h ****         in.
  83:../../DaisyExamples/DaisySP/Source/Control/adenv.h ****     */
  84:../../DaisyExamples/DaisySP/Source/Control/adenv.h ****     inline uint8_t GetCurrentSegment() { return current_segment_; }
  85:../../DaisyExamples/DaisySP/Source/Control/adenv.h ****     /** Returns true if the envelope is currently in any stage apart from idle.
  86:../../DaisyExamples/DaisySP/Source/Control/adenv.h ****     */
  87:../../DaisyExamples/DaisySP/Source/Control/adenv.h ****     inline bool IsRunning() const { return current_segment_ != ADENV_SEG_IDLE; }
 498              		.loc 16 87 17 is_stmt 1 view .LVU132
 499              	.LBB398:
 500              		.loc 16 87 37 view .LVU133
 501              		.loc 16 87 44 is_stmt 0 view .LVU134
 502 00c2 DFF82880 		ldr	r8, .L30+16
 503              	.LBE398:
 504              	.LBE397:
  25:SynthV3.cpp   ****     {
 505              		.loc 18 25 44 view .LVU135
 506 00c6 98F80030 		ldrb	r3, [r8]	@ zero_extendqisi2
 507 00ca 002B     		cmp	r3, #0
 508 00cc B2D1     		bne	.L9
 509 00ce AEE7     		b	.L8
 510              	.L28:
  32:SynthV3.cpp   ****     }
 511              		.loc 18 32 9 is_stmt 1 view .LVU136
  32:SynthV3.cpp   ****     }
 512              		.loc 18 32 17 is_stmt 0 view .LVU137
 513 00d0 074A     		ldr	r2, .L30+20
  32:SynthV3.cpp   ****     }
 514              		.loc 18 32 19 view .LVU138
 515 00d2 1378     		ldrb	r3, [r2]	@ zero_extendqisi2
 516 00d4 83F00103 		eor	r3, r3, #1
  32:SynthV3.cpp   ****     }
 517              		.loc 18 32 17 view .LVU139
 518 00d8 1370     		strb	r3, [r2]
 519 00da B2E7     		b	.L10
 520              	.L31:
 521              		.align	2
 522              	.L30:
 523 00dc 00000000 		.word	_ZL2hw
 524 00e0 00000000 		.word	.LANCHOR2
 525 00e4 00000000 		.word	.LANCHOR4
 526 00e8 00000000 		.word	.LANCHOR6
 527 00ec 00000000 		.word	.LANCHOR1
 528 00f0 00000000 		.word	.LANCHOR0
 529 00f4 00000000 		.word	.LANCHOR3
 530 00f8 00000000 		.word	.LANCHOR5
 531              		.cfi_endproc
 532              	.LFE4854:
 534              		.section	.text.startup.main,"ax",%progbits
 535              		.align	1
 536              		.p2align 2,,3
 537              		.global	main
 538              		.syntax unified
 539              		.thumb
 540              		.thumb_func
 542              	main:
 543              	.LFB4855:
  52:SynthV3.cpp   **** int main(void)
ARM GAS  /var/folders/hp/45mn71hd0ps5f5pnytxy5bt00000gn/T//ccNGmXRQ.s 			page 33


  53:SynthV3.cpp   **** {
 544              		.loc 18 53 1 is_stmt 1 view -0
 545              		.cfi_startproc
 546              		@ args = 0, pretend = 0, frame = 32
 547              		@ frame_needed = 0, uses_anonymous_args = 0
  54:SynthV3.cpp   ****     float samplerate;
 548              		.loc 18 54 5 view .LVU141
  55:SynthV3.cpp   **** 
  56:SynthV3.cpp   ****     hw.Init();
 549              		.loc 18 56 5 view .LVU142
  53:SynthV3.cpp   ****     float samplerate;
 550              		.loc 18 53 1 is_stmt 0 view .LVU143
 551 0000 2DE9F041 		push	{r4, r5, r6, r7, r8, lr}
 552              		.cfi_def_cfa_offset 24
 553              		.cfi_offset 4, -24
 554              		.cfi_offset 5, -20
 555              		.cfi_offset 6, -16
 556              		.cfi_offset 7, -12
 557              		.cfi_offset 8, -8
 558              		.cfi_offset 14, -4
 559              		.loc 18 56 12 view .LVU144
 560 0004 0021     		movs	r1, #0
 561 0006 3948     		ldr	r0, .L35
 562              	.LBB419:
 563              	.LBB420:
  52:../../DaisyExamples/DaisySP/Source/Synthesis/oscillator.h ****         sr_recip_  = 1.0f / sample_rate;
 564              		.loc 17 52 20 view .LVU145
 565 0008 394C     		ldr	r4, .L35+4
  55:../../DaisyExamples/DaisySP/Source/Synthesis/oscillator.h ****         pw_        = 0.5f;
 566              		.loc 17 55 20 view .LVU146
 567 000a 4FF07C57 		mov	r7, #1056964608
  57:../../DaisyExamples/DaisySP/Source/Synthesis/oscillator.h ****         phase_inc_ = CalcPhaseInc(freq_);
 568              		.loc 17 57 20 view .LVU147
 569 000e 4FF00008 		mov	r8, #0
 570              	.LBE420:
 571              	.LBE419:
  57:SynthV3.cpp   ****     hw.SetAudioBlockSize(4);
  58:SynthV3.cpp   ****     samplerate = hw.AudioSampleRate();
  59:SynthV3.cpp   **** 
  60:SynthV3.cpp   ****     osc.Init(samplerate);
  61:SynthV3.cpp   ****     osc.SetWaveform(osc.WAVE_TRI);
  62:SynthV3.cpp   ****     osc.SetAmp(0.1f);
  63:SynthV3.cpp   **** 
  64:SynthV3.cpp   ****     ad.Init(samplerate);
 572              		.loc 18 64 12 view .LVU148
 573 0012 384E     		ldr	r6, .L35+8
  65:SynthV3.cpp   ****     ad.SetTime(ADENV_SEG_ATTACK, 0.01f);
  66:SynthV3.cpp   ****     ad.SetTime(ADENV_SEG_DECAY, 1.0f);
  67:SynthV3.cpp   ****     ad.SetMax(1);
  68:SynthV3.cpp   ****     ad.SetMin(0);
  69:SynthV3.cpp   ****     ad.SetCurve(0.5);
  70:SynthV3.cpp   **** 
  71:SynthV3.cpp   ****     p_freq.Init(hw.knob1, 50.0f, 5000.0f, Parameter::LOGARITHMIC);
 574              		.loc 18 71 20 view .LVU149
 575 0014 384D     		ldr	r5, .L35+12
  53:SynthV3.cpp   ****     float samplerate;
 576              		.loc 18 53 1 view .LVU150
ARM GAS  /var/folders/hp/45mn71hd0ps5f5pnytxy5bt00000gn/T//ccNGmXRQ.s 			page 34


 577 0016 2DED048B 		vpush.64	{d8, d9}
 578              		.cfi_def_cfa_offset 40
 579              		.cfi_offset 80, -40
 580              		.cfi_offset 81, -36
 581              		.cfi_offset 82, -32
 582              		.cfi_offset 83, -28
 583 001a 88B0     		sub	sp, sp, #32
 584              		.cfi_def_cfa_offset 72
 585              	.LBB426:
 586              	.LBB421:
  53:../../DaisyExamples/DaisySP/Source/Synthesis/oscillator.h ****         freq_      = 100.0f;
 587              		.loc 17 53 27 view .LVU151
 588 001c F7EE008A 		vmov.f32	s17, #1.0e+0
 589              	.LBE421:
 590              	.LBE426:
  56:SynthV3.cpp   ****     hw.SetAudioBlockSize(4);
 591              		.loc 18 56 12 view .LVU152
 592 0020 FFF7FEFF 		bl	_ZN5daisy8DaisyPod4InitEb
 593              	.LVL32:
  57:SynthV3.cpp   ****     samplerate = hw.AudioSampleRate();
 594              		.loc 18 57 5 is_stmt 1 view .LVU153
  57:SynthV3.cpp   ****     samplerate = hw.AudioSampleRate();
 595              		.loc 18 57 25 is_stmt 0 view .LVU154
 596 0024 0421     		movs	r1, #4
 597 0026 3148     		ldr	r0, .L35
 598 0028 FFF7FEFF 		bl	_ZN5daisy8DaisyPod17SetAudioBlockSizeEj
 599              	.LVL33:
  58:SynthV3.cpp   **** 
 600              		.loc 18 58 5 is_stmt 1 view .LVU155
  58:SynthV3.cpp   **** 
 601              		.loc 18 58 36 is_stmt 0 view .LVU156
 602 002c 2F48     		ldr	r0, .L35
 603 002e FFF7FEFF 		bl	_ZN5daisy8DaisyPod15AudioSampleRateEv
 604              	.LVL34:
 605 0032 B0EE408A 		vmov.f32	s16, s0
 606              	.LVL35:
  60:SynthV3.cpp   ****     osc.SetWaveform(osc.WAVE_TRI);
 607              		.loc 18 60 5 is_stmt 1 view .LVU157
 608              	.LBB427:
 609              	.LBI419:
  50:../../DaisyExamples/DaisySP/Source/Synthesis/oscillator.h ****     {
 610              		.loc 17 50 10 view .LVU158
 611              	.LBB422:
  52:../../DaisyExamples/DaisySP/Source/Synthesis/oscillator.h ****         sr_recip_  = 1.0f / sample_rate;
 612              		.loc 17 52 9 view .LVU159
  54:../../DaisyExamples/DaisySP/Source/Synthesis/oscillator.h ****         amp_       = 0.5f;
 613              		.loc 17 54 20 is_stmt 0 view .LVU160
 614 0036 9FED310A 		vldr.32	s0, .L35+16
 615              	.LVL36:
  58:../../DaisyExamples/DaisySP/Source/Synthesis/oscillator.h ****         waveform_  = WAVE_SIN;
 616              		.loc 17 58 34 view .LVU161
 617 003a 2046     		mov	r0, r4
  55:../../DaisyExamples/DaisySP/Source/Synthesis/oscillator.h ****         pw_        = 0.5f;
 618              		.loc 17 55 20 view .LVU162
 619 003c 6760     		str	r7, [r4, #4]	@ float
  53:../../DaisyExamples/DaisySP/Source/Synthesis/oscillator.h ****         freq_      = 100.0f;
 620              		.loc 17 53 27 view .LVU163
ARM GAS  /var/folders/hp/45mn71hd0ps5f5pnytxy5bt00000gn/T//ccNGmXRQ.s 			page 35


 621 003e C8EE887A 		vdiv.f32	s15, s17, s16
  52:../../DaisyExamples/DaisySP/Source/Synthesis/oscillator.h ****         sr_recip_  = 1.0f / sample_rate;
 622              		.loc 17 52 20 view .LVU164
 623 0042 84ED048A 		vstr.32	s16, [r4, #16]
  53:../../DaisyExamples/DaisySP/Source/Synthesis/oscillator.h ****         freq_      = 100.0f;
 624              		.loc 17 53 9 is_stmt 1 view .LVU165
  54:../../DaisyExamples/DaisySP/Source/Synthesis/oscillator.h ****         amp_       = 0.5f;
 625              		.loc 17 54 20 is_stmt 0 view .LVU166
 626 0046 84ED020A 		vstr.32	s0, [r4, #8]
  56:../../DaisyExamples/DaisySP/Source/Synthesis/oscillator.h ****         phase_     = 0.0f;
 627              		.loc 17 56 20 view .LVU167
 628 004a E760     		str	r7, [r4, #12]	@ float
  57:../../DaisyExamples/DaisySP/Source/Synthesis/oscillator.h ****         phase_inc_ = CalcPhaseInc(freq_);
 629              		.loc 17 57 20 view .LVU168
 630 004c C4F81880 		str	r8, [r4, #24]	@ float
 631              	.LBE422:
 632              	.LBE427:
 633              	.LBB428:
 634              	.LBB429:
  66:../../DaisyExamples/DaisySP/Source/Control/adenv.h ****     /** Sets the amount of curve applied. A positve value will create a log
 635              		.loc 16 66 71 view .LVU169
 636 0050 9FED2B9A 		vldr.32	s18, .L35+20
 637              	.LBE429:
 638              	.LBE428:
 639              	.LBB432:
 640              	.LBB423:
  53:../../DaisyExamples/DaisySP/Source/Synthesis/oscillator.h ****         freq_      = 100.0f;
 641              		.loc 17 53 20 view .LVU170
 642 0054 C4ED057A 		vstr.32	s15, [r4, #20]
  54:../../DaisyExamples/DaisySP/Source/Synthesis/oscillator.h ****         amp_       = 0.5f;
 643              		.loc 17 54 9 is_stmt 1 view .LVU171
  55:../../DaisyExamples/DaisySP/Source/Synthesis/oscillator.h ****         pw_        = 0.5f;
 644              		.loc 17 55 9 view .LVU172
  56:../../DaisyExamples/DaisySP/Source/Synthesis/oscillator.h ****         phase_     = 0.0f;
 645              		.loc 17 56 9 view .LVU173
  57:../../DaisyExamples/DaisySP/Source/Synthesis/oscillator.h ****         phase_inc_ = CalcPhaseInc(freq_);
 646              		.loc 17 57 9 view .LVU174
  58:../../DaisyExamples/DaisySP/Source/Synthesis/oscillator.h ****         waveform_  = WAVE_SIN;
 647              		.loc 17 58 9 view .LVU175
  58:../../DaisyExamples/DaisySP/Source/Synthesis/oscillator.h ****         waveform_  = WAVE_SIN;
 648              		.loc 17 58 34 is_stmt 0 view .LVU176
 649 0058 FFF7FEFF 		bl	_ZN7daisysp10Oscillator12CalcPhaseIncEf
 650              	.LVL37:
  61:../../DaisyExamples/DaisySP/Source/Synthesis/oscillator.h ****     }
 651              		.loc 17 61 20 view .LVU177
 652 005c 40F20113 		movw	r3, #257
  58:../../DaisyExamples/DaisySP/Source/Synthesis/oscillator.h ****         waveform_  = WAVE_SIN;
 653              		.loc 17 58 34 view .LVU178
 654 0060 F0EE407A 		vmov.f32	s15, s0
 655              	.LBE423:
 656              	.LBE432:
  64:SynthV3.cpp   ****     ad.SetTime(ADENV_SEG_ATTACK, 0.01f);
 657              		.loc 18 64 12 view .LVU179
 658 0064 3046     		mov	r0, r6
 659 0066 B0EE480A 		vmov.f32	s0, s16
 660              	.LBB433:
 661              	.LBB424:
ARM GAS  /var/folders/hp/45mn71hd0ps5f5pnytxy5bt00000gn/T//ccNGmXRQ.s 			page 36


  61:../../DaisyExamples/DaisySP/Source/Synthesis/oscillator.h ****     }
 662              		.loc 17 61 20 view .LVU180
 663 006a 2385     		strh	r3, [r4, #40]	@ movhi
 664              	.LBE424:
 665              	.LBE433:
 666              	.LBB434:
 667              	.LBB435:
  71:../../DaisyExamples/DaisySP/Source/Synthesis/oscillator.h ****     }
  72:../../DaisyExamples/DaisySP/Source/Synthesis/oscillator.h **** 
  73:../../DaisyExamples/DaisySP/Source/Synthesis/oscillator.h **** 
  74:../../DaisyExamples/DaisySP/Source/Synthesis/oscillator.h ****     /** Sets the amplitude of the waveform.
  75:../../DaisyExamples/DaisySP/Source/Synthesis/oscillator.h ****     */
  76:../../DaisyExamples/DaisySP/Source/Synthesis/oscillator.h ****     inline void SetAmp(const float a) { amp_ = a; }
  77:../../DaisyExamples/DaisySP/Source/Synthesis/oscillator.h ****     /** Sets the waveform to be synthesized by the Process() function.
  78:../../DaisyExamples/DaisySP/Source/Synthesis/oscillator.h ****     */
  79:../../DaisyExamples/DaisySP/Source/Synthesis/oscillator.h ****     inline void SetWaveform(const uint8_t wf)
  80:../../DaisyExamples/DaisySP/Source/Synthesis/oscillator.h ****     {
  81:../../DaisyExamples/DaisySP/Source/Synthesis/oscillator.h ****         waveform_ = wf < WAVE_LAST ? wf : WAVE_SIN;
 668              		.loc 17 81 19 view .LVU181
 669 006c 0123     		movs	r3, #1
 670              	.LBE435:
 671              	.LBE434:
 672              	.LBB437:
 673              	.LBB425:
  58:../../DaisyExamples/DaisySP/Source/Synthesis/oscillator.h ****         waveform_  = WAVE_SIN;
 674              		.loc 17 58 20 view .LVU182
 675 006e C4ED077A 		vstr.32	s15, [r4, #28]
  59:../../DaisyExamples/DaisySP/Source/Synthesis/oscillator.h ****         eoc_       = true;
 676              		.loc 17 59 9 is_stmt 1 view .LVU183
  60:../../DaisyExamples/DaisySP/Source/Synthesis/oscillator.h ****         eor_       = true;
 677              		.loc 17 60 9 view .LVU184
  61:../../DaisyExamples/DaisySP/Source/Synthesis/oscillator.h ****     }
 678              		.loc 17 61 9 view .LVU185
 679              	.LVL38:
  61:../../DaisyExamples/DaisySP/Source/Synthesis/oscillator.h ****     }
 680              		.loc 17 61 9 is_stmt 0 view .LVU186
 681              	.LBE425:
 682              	.LBE437:
  61:SynthV3.cpp   ****     osc.SetAmp(0.1f);
 683              		.loc 18 61 5 is_stmt 1 view .LVU187
 684              	.LBB438:
 685              	.LBI434:
  79:../../DaisyExamples/DaisySP/Source/Synthesis/oscillator.h ****     {
 686              		.loc 17 79 17 view .LVU188
 687              	.LBB436:
 688              		.loc 17 81 9 view .LVU189
 689              		.loc 17 81 19 is_stmt 0 view .LVU190
 690 0072 2370     		strb	r3, [r4]
 691              	.LVL39:
 692              		.loc 17 81 19 view .LVU191
 693              	.LBE436:
 694              	.LBE438:
  62:SynthV3.cpp   **** 
 695              		.loc 18 62 5 is_stmt 1 view .LVU192
 696              	.LBB439:
 697              	.LBI439:
  76:../../DaisyExamples/DaisySP/Source/Synthesis/oscillator.h ****     /** Sets the waveform to be synthesized by the Process() function.
ARM GAS  /var/folders/hp/45mn71hd0ps5f5pnytxy5bt00000gn/T//ccNGmXRQ.s 			page 37


 698              		.loc 17 76 17 view .LVU193
 699              	.LBB440:
  76:../../DaisyExamples/DaisySP/Source/Synthesis/oscillator.h ****     /** Sets the waveform to be synthesized by the Process() function.
 700              		.loc 17 76 41 view .LVU194
  76:../../DaisyExamples/DaisySP/Source/Synthesis/oscillator.h ****     /** Sets the waveform to be synthesized by the Process() function.
 701              		.loc 17 76 46 is_stmt 0 view .LVU195
 702 0074 234B     		ldr	r3, .L35+24
 703 0076 6360     		str	r3, [r4, #4]	@ float
 704              	.LVL40:
  76:../../DaisyExamples/DaisySP/Source/Synthesis/oscillator.h ****     /** Sets the waveform to be synthesized by the Process() function.
 705              		.loc 17 76 46 view .LVU196
 706              	.LBE440:
 707              	.LBE439:
  64:SynthV3.cpp   ****     ad.SetTime(ADENV_SEG_ATTACK, 0.01f);
 708              		.loc 18 64 5 is_stmt 1 view .LVU197
  64:SynthV3.cpp   ****     ad.SetTime(ADENV_SEG_ATTACK, 0.01f);
 709              		.loc 18 64 12 is_stmt 0 view .LVU198
 710 0078 FFF7FEFF 		bl	_ZN7daisysp5AdEnv4InitEf
 711              	.LVL41:
  65:SynthV3.cpp   ****     ad.SetTime(ADENV_SEG_DECAY, 1.0f);
 712              		.loc 18 65 5 is_stmt 1 view .LVU199
 713              	.LBB441:
 714              	.LBI428:
  66:../../DaisyExamples/DaisySP/Source/Control/adenv.h ****     /** Sets the amount of curve applied. A positve value will create a log
 715              		.loc 16 66 17 view .LVU200
 716              	.LBB430:
  66:../../DaisyExamples/DaisySP/Source/Control/adenv.h ****     /** Sets the amount of curve applied. A positve value will create a log
 717              		.loc 16 66 52 view .LVU201
 718              	.LBE430:
 719              	.LBE441:
 720              		.loc 18 71 20 is_stmt 0 view .LVU202
 721 007c 6C46     		mov	r4, sp
 722              		.loc 18 71 16 view .LVU203
 723 007e DFED220A 		vldr.32	s1, .L35+28
 724 0082 9FED220A 		vldr.32	s0, .L35+32
 725              	.LBB442:
 726              	.LBB431:
  66:../../DaisyExamples/DaisySP/Source/Control/adenv.h ****     /** Sets the amount of curve applied. A positve value will create a log
 727              		.loc 16 66 71 view .LVU204
 728 0086 86ED029A 		vstr.32	s18, [r6, #8]
 729              	.LVL42:
  66:../../DaisyExamples/DaisySP/Source/Control/adenv.h ****     /** Sets the amount of curve applied. A positve value will create a log
 730              		.loc 16 66 71 view .LVU205
 731              	.LBE431:
 732              	.LBE442:
  66:SynthV3.cpp   ****     ad.SetMax(1);
 733              		.loc 18 66 5 is_stmt 1 view .LVU206
 734              	.LBB443:
 735              	.LBI443:
  66:../../DaisyExamples/DaisySP/Source/Control/adenv.h ****     /** Sets the amount of curve applied. A positve value will create a log
 736              		.loc 16 66 17 view .LVU207
 737              	.LBB444:
  66:../../DaisyExamples/DaisySP/Source/Control/adenv.h ****     /** Sets the amount of curve applied. A positve value will create a log
 738              		.loc 16 66 52 view .LVU208
  66:../../DaisyExamples/DaisySP/Source/Control/adenv.h ****     /** Sets the amount of curve applied. A positve value will create a log
 739              		.loc 16 66 71 is_stmt 0 view .LVU209
 740 008a C6ED038A 		vstr.32	s17, [r6, #12]
ARM GAS  /var/folders/hp/45mn71hd0ps5f5pnytxy5bt00000gn/T//ccNGmXRQ.s 			page 38


 741              	.LVL43:
  66:../../DaisyExamples/DaisySP/Source/Control/adenv.h ****     /** Sets the amount of curve applied. A positve value will create a log
 742              		.loc 16 66 71 view .LVU210
 743              	.LBE444:
 744              	.LBE443:
  67:SynthV3.cpp   ****     ad.SetMin(0);
 745              		.loc 18 67 5 is_stmt 1 view .LVU211
 746              	.LBB445:
 747              	.LBI445:
  78:../../DaisyExamples/DaisySP/Source/Control/adenv.h ****     /** Returns the current output value without processing the next sample */
 748              		.loc 16 78 17 view .LVU212
 749              	.LBB446:
  78:../../DaisyExamples/DaisySP/Source/Control/adenv.h ****     /** Returns the current output value without processing the next sample */
 750              		.loc 16 78 37 view .LVU213
  78:../../DaisyExamples/DaisySP/Source/Control/adenv.h ****     /** Returns the current output value without processing the next sample */
 751              		.loc 16 78 42 is_stmt 0 view .LVU214
 752 008e C6ED068A 		vstr.32	s17, [r6, #24]
 753              	.LVL44:
  78:../../DaisyExamples/DaisySP/Source/Control/adenv.h ****     /** Returns the current output value without processing the next sample */
 754              		.loc 16 78 42 view .LVU215
 755              	.LBE446:
 756              	.LBE445:
  68:SynthV3.cpp   ****     ad.SetCurve(0.5);
 757              		.loc 18 68 5 is_stmt 1 view .LVU216
 758              	.LBB447:
 759              	.LBI447:
  74:../../DaisyExamples/DaisySP/Source/Control/adenv.h ****     /** Sets the maximum value of the envelope output.
 760              		.loc 16 74 17 view .LVU217
 761              	.LBB448:
  74:../../DaisyExamples/DaisySP/Source/Control/adenv.h ****     /** Sets the maximum value of the envelope output.
 762              		.loc 16 74 37 view .LVU218
  74:../../DaisyExamples/DaisySP/Source/Control/adenv.h ****     /** Sets the maximum value of the envelope output.
 763              		.loc 16 74 42 is_stmt 0 view .LVU219
 764 0092 C6F81480 		str	r8, [r6, #20]	@ float
 765              	.LVL45:
  74:../../DaisyExamples/DaisySP/Source/Control/adenv.h ****     /** Sets the maximum value of the envelope output.
 766              		.loc 16 74 42 view .LVU220
 767              	.LBE448:
 768              	.LBE447:
  69:SynthV3.cpp   **** 
 769              		.loc 18 69 5 is_stmt 1 view .LVU221
 770              	.LBB449:
 771              	.LBI449:
  70:../../DaisyExamples/DaisySP/Source/Control/adenv.h ****     /** Sets the minimum value of the envelope output.
 772              		.loc 16 70 17 view .LVU222
 773              	.LBB450:
  70:../../DaisyExamples/DaisySP/Source/Control/adenv.h ****     /** Sets the minimum value of the envelope output.
 774              		.loc 16 70 42 view .LVU223
  70:../../DaisyExamples/DaisySP/Source/Control/adenv.h ****     /** Sets the minimum value of the envelope output.
 775              		.loc 16 70 56 is_stmt 0 view .LVU224
 776 0096 3762     		str	r7, [r6, #32]	@ float
 777              	.LVL46:
  70:../../DaisyExamples/DaisySP/Source/Control/adenv.h ****     /** Sets the minimum value of the envelope output.
 778              		.loc 16 70 56 view .LVU225
 779              	.LBE450:
 780              	.LBE449:
 781              		.loc 18 71 5 is_stmt 1 view .LVU226
ARM GAS  /var/folders/hp/45mn71hd0ps5f5pnytxy5bt00000gn/T//ccNGmXRQ.s 			page 39


 782              		.loc 18 71 20 is_stmt 0 view .LVU227
 783 0098 0FCD     		ldmia	r5!, {r0, r1, r2, r3}
 784 009a 0FC4     		stmia	r4!, {r0, r1, r2, r3}
 785 009c 95E80F00 		ldm	r5, {r0, r1, r2, r3}
 786 00a0 84E80F00 		stm	r4, {r0, r1, r2, r3}
 787              		.loc 18 71 16 view .LVU228
 788 00a4 0222     		movs	r2, #2
 789 00a6 6946     		mov	r1, sp
 790 00a8 1948     		ldr	r0, .L35+36
 791 00aa FFF7FEFF 		bl	_ZN5daisy9Parameter4InitENS_13AnalogControlEffNS0_5CurveE
 792              	.LVL47:
 793              	.LBB451:
 794              	.LBI451:
 795              		.loc 2 23 5 is_stmt 1 view .LVU229
 796              		.loc 2 23 5 is_stmt 0 view .LVU230
 797              	.LBE451:
  72:SynthV3.cpp   ****     p_release.Init(hw.knob2, 0.01f, 0.7f, Parameter::LINEAR);
 798              		.loc 18 72 5 is_stmt 1 view .LVU231
 799              		.loc 18 72 23 is_stmt 0 view .LVU232
 800 00ae 05F1100C 		add	ip, r5, #16
 801 00b2 EE46     		mov	lr, sp
 802              		.loc 18 72 19 view .LVU233
 803 00b4 B0EE490A 		vmov.f32	s0, s18
 804 00b8 DFED160A 		vldr.32	s1, .L35+40
 805              		.loc 18 72 23 view .LVU234
 806 00bc BCE80F00 		ldmia	ip!, {r0, r1, r2, r3}
 807 00c0 AEE80F00 		stmia	lr!, {r0, r1, r2, r3}
 808 00c4 9CE80F00 		ldm	ip, {r0, r1, r2, r3}
 809 00c8 84E80F00 		stm	r4, {r0, r1, r2, r3}
 810              		.loc 18 72 19 view .LVU235
 811 00cc 6946     		mov	r1, sp
 812 00ce 0022     		movs	r2, #0
 813 00d0 1148     		ldr	r0, .L35+44
 814 00d2 FFF7FEFF 		bl	_ZN5daisy9Parameter4InitENS_13AnalogControlEffNS0_5CurveE
 815              	.LVL48:
 816              	.LBB452:
 817              	.LBI452:
 818              		.loc 2 23 5 is_stmt 1 view .LVU236
 819              		.loc 2 23 5 is_stmt 0 view .LVU237
 820              	.LBE452:
  73:SynthV3.cpp   **** 
  74:SynthV3.cpp   ****     hw.StartAdc();
 821              		.loc 18 74 5 is_stmt 1 view .LVU238
 822              		.loc 18 74 16 is_stmt 0 view .LVU239
 823 00d6 A5F17800 		sub	r0, r5, #120
 824 00da FFF7FEFF 		bl	_ZN5daisy8DaisyPod8StartAdcEv
 825              	.LVL49:
  75:SynthV3.cpp   ****     hw.StartAudio(AudioCallback);
 826              		.loc 18 75 5 is_stmt 1 view .LVU240
 827              		.loc 18 75 18 is_stmt 0 view .LVU241
 828 00de 0F49     		ldr	r1, .L35+48
 829 00e0 A5F17800 		sub	r0, r5, #120
 830 00e4 FFF7FEFF 		bl	_ZN5daisy8DaisyPod10StartAudioEPFvPKfPfjE
 831              	.LVL50:
 832              	.L33:
  76:SynthV3.cpp   **** 
  77:SynthV3.cpp   ****     while (1) {}
ARM GAS  /var/folders/hp/45mn71hd0ps5f5pnytxy5bt00000gn/T//ccNGmXRQ.s 			page 40


 833              		.loc 18 77 5 is_stmt 1 discriminator 1 view .LVU242
 834              		.loc 18 77 5 discriminator 1 view .LVU243
 835              		.loc 18 77 5 discriminator 1 view .LVU244
 836              		.loc 18 77 5 discriminator 1 view .LVU245
 837 00e8 FEE7     		b	.L33
 838              	.L36:
 839 00ea 00BF     		.align	2
 840              	.L35:
 841 00ec 00000000 		.word	_ZL2hw
 842 00f0 00000000 		.word	.LANCHOR6
 843 00f4 00000000 		.word	.LANCHOR1
 844 00f8 68000000 		.word	_ZL2hw+104
 845 00fc 0000C842 		.word	1120403456
 846 0100 0AD7233C 		.word	1008981770
 847 0104 CDCCCC3D 		.word	1036831949
 848 0108 00409C45 		.word	1167867904
 849 010c 00004842 		.word	1112014848
 850 0110 00000000 		.word	.LANCHOR2
 851 0114 3333333F 		.word	1060320051
 852 0118 00000000 		.word	.LANCHOR4
 853 011c 00000000 		.word	_ZL13AudioCallbackPKfPfj
 854              		.cfi_endproc
 855              	.LFE4855:
 857              		.section	.text.startup._GLOBAL__sub_I_freq,"ax",%progbits
 858              		.align	1
 859              		.p2align 2,,3
 860              		.syntax unified
 861              		.thumb
 862              		.thumb_func
 864              	_GLOBAL__sub_I_freq:
 865              	.LFB5439:
  78:SynthV3.cpp   **** }
 866              		.loc 18 78 1 view -0
 867              		.cfi_startproc
 868              		@ args = 0, pretend = 0, frame = 0
 869              		@ frame_needed = 0, uses_anonymous_args = 0
 870              	.LBB535:
 871              	.LBI535:
 872              		.loc 18 78 1 view .LVU247
 873              	.LVL51:
 874              	.LBB536:
 875              	.LBB537:
 876              	.LBI537:
  35:../../DaisyExamples/libDaisy/src/daisy_pod.h ****     ~DaisyPod() {}
 877              		.loc 3 35 5 view .LVU248
 878              	.LBB538:
 879              	.LBB539:
 880              	.LBI539:
  21:../../DaisyExamples/libDaisy/src/daisy_seed.h ****     ~DaisySeed() {}
 881              		.loc 11 21 5 view .LVU249
 882              	.LBB540:
 883              	.LBB541:
 884              	.LBI541:
 885              		.file 19 "../../DaisyExamples/libDaisy/src/per/qspi.h"
   1:../../DaisyExamples/libDaisy/src/per/qspi.h **** #ifndef DSY_QSPI
   2:../../DaisyExamples/libDaisy/src/per/qspi.h **** #define DSY_QSPI /**< Macro */
   3:../../DaisyExamples/libDaisy/src/per/qspi.h **** 
ARM GAS  /var/folders/hp/45mn71hd0ps5f5pnytxy5bt00000gn/T//ccNGmXRQ.s 			page 41


   4:../../DaisyExamples/libDaisy/src/per/qspi.h **** #ifndef UNIT_TEST // for unit tests, a dummy implementation
   5:../../DaisyExamples/libDaisy/src/per/qspi.h **** 
   6:../../DaisyExamples/libDaisy/src/per/qspi.h **** #include <cstdint>
   7:../../DaisyExamples/libDaisy/src/per/qspi.h **** #include "daisy_core.h" // Added for dsy_gpio_pin typedef
   8:../../DaisyExamples/libDaisy/src/per/qspi.h **** 
   9:../../DaisyExamples/libDaisy/src/per/qspi.h **** #define DSY_QSPI_TEXT       \
  10:../../DaisyExamples/libDaisy/src/per/qspi.h ****     __attribute__((section( \
  11:../../DaisyExamples/libDaisy/src/per/qspi.h ****         ".qspiflash_text"))) /**< used for reading memory in memory_mapped mode. */
  12:../../DaisyExamples/libDaisy/src/per/qspi.h **** #define DSY_QSPI_DATA       \
  13:../../DaisyExamples/libDaisy/src/per/qspi.h ****     __attribute__((section( \
  14:../../DaisyExamples/libDaisy/src/per/qspi.h ****         ".qspiflash_data"))) /**< used for reading memory in memory_mapped mode. */
  15:../../DaisyExamples/libDaisy/src/per/qspi.h **** #define DSY_QSPI_BSS        \
  16:../../DaisyExamples/libDaisy/src/per/qspi.h ****     __attribute__((section( \
  17:../../DaisyExamples/libDaisy/src/per/qspi.h ****         ".qspiflash_bss"))) /**< used for reading memory in memory_mapped mode. */
  18:../../DaisyExamples/libDaisy/src/per/qspi.h **** 
  19:../../DaisyExamples/libDaisy/src/per/qspi.h **** namespace daisy
  20:../../DaisyExamples/libDaisy/src/per/qspi.h **** {
  21:../../DaisyExamples/libDaisy/src/per/qspi.h **** /** @addtogroup serial
  22:../../DaisyExamples/libDaisy/src/per/qspi.h **** @{
  23:../../DaisyExamples/libDaisy/src/per/qspi.h **** */
  24:../../DaisyExamples/libDaisy/src/per/qspi.h **** 
  25:../../DaisyExamples/libDaisy/src/per/qspi.h **** /** 
  26:../../DaisyExamples/libDaisy/src/per/qspi.h ****  Driver for QSPI peripheral to interface with external flash memory. \n 
  27:../../DaisyExamples/libDaisy/src/per/qspi.h ****     Currently supported QSPI Devices: \n 
  28:../../DaisyExamples/libDaisy/src/per/qspi.h ****     * IS25LP080D
  29:../../DaisyExamples/libDaisy/src/per/qspi.h **** */
  30:../../DaisyExamples/libDaisy/src/per/qspi.h **** class QSPIHandle
  31:../../DaisyExamples/libDaisy/src/per/qspi.h **** {
  32:../../DaisyExamples/libDaisy/src/per/qspi.h ****   public:
  33:../../DaisyExamples/libDaisy/src/per/qspi.h ****     enum Result
  34:../../DaisyExamples/libDaisy/src/per/qspi.h ****     {
  35:../../DaisyExamples/libDaisy/src/per/qspi.h ****         OK = 0,
  36:../../DaisyExamples/libDaisy/src/per/qspi.h ****         ERR
  37:../../DaisyExamples/libDaisy/src/per/qspi.h ****     };
  38:../../DaisyExamples/libDaisy/src/per/qspi.h **** 
  39:../../DaisyExamples/libDaisy/src/per/qspi.h ****     /** Indicates the current status of the module. 
  40:../../DaisyExamples/libDaisy/src/per/qspi.h ****          *  Warnings are indicated by a leading W.
  41:../../DaisyExamples/libDaisy/src/per/qspi.h ****          *  Errors are indicated by a leading E and cause an immediate exit.
  42:../../DaisyExamples/libDaisy/src/per/qspi.h ****          * 
  43:../../DaisyExamples/libDaisy/src/per/qspi.h ****          *  \param GOOD - No errors have been reported.
  44:../../DaisyExamples/libDaisy/src/per/qspi.h ****          *  \param E_HAL_ERROR - HAL code did not return HAL_OK.
  45:../../DaisyExamples/libDaisy/src/per/qspi.h ****          *  \param E_SWITCHING_MODES - An error was encountered while switching QSPI peripheral mod
  46:../../DaisyExamples/libDaisy/src/per/qspi.h ****          *  \param E_INVALID_MODE - QSPI should not be written to while the program is executing fr
  47:../../DaisyExamples/libDaisy/src/per/qspi.h ****          */
  48:../../DaisyExamples/libDaisy/src/per/qspi.h ****     enum Status
  49:../../DaisyExamples/libDaisy/src/per/qspi.h ****     {
  50:../../DaisyExamples/libDaisy/src/per/qspi.h ****         GOOD = 0,
  51:../../DaisyExamples/libDaisy/src/per/qspi.h ****         E_HAL_ERROR,
  52:../../DaisyExamples/libDaisy/src/per/qspi.h ****         E_SWITCHING_MODES,
  53:../../DaisyExamples/libDaisy/src/per/qspi.h ****         E_INVALID_MODE,
  54:../../DaisyExamples/libDaisy/src/per/qspi.h ****     };
  55:../../DaisyExamples/libDaisy/src/per/qspi.h **** 
  56:../../DaisyExamples/libDaisy/src/per/qspi.h ****     /** Configuration structure for interfacing with QSPI Driver */
  57:../../DaisyExamples/libDaisy/src/per/qspi.h ****     struct Config
  58:../../DaisyExamples/libDaisy/src/per/qspi.h ****     {
  59:../../DaisyExamples/libDaisy/src/per/qspi.h ****         /** Flash Devices supported. (Both of these are more-or-less the same, just different sizes
  60:../../DaisyExamples/libDaisy/src/per/qspi.h ****         enum Device
ARM GAS  /var/folders/hp/45mn71hd0ps5f5pnytxy5bt00000gn/T//ccNGmXRQ.s 			page 42


  61:../../DaisyExamples/libDaisy/src/per/qspi.h ****         {
  62:../../DaisyExamples/libDaisy/src/per/qspi.h ****             IS25LP080D,  /**< & */
  63:../../DaisyExamples/libDaisy/src/per/qspi.h ****             IS25LP064A,  /**< & */
  64:../../DaisyExamples/libDaisy/src/per/qspi.h ****             DEVICE_LAST, /**< & */
  65:../../DaisyExamples/libDaisy/src/per/qspi.h ****         };
  66:../../DaisyExamples/libDaisy/src/per/qspi.h **** 
  67:../../DaisyExamples/libDaisy/src/per/qspi.h ****         /** 
  68:../../DaisyExamples/libDaisy/src/per/qspi.h ****         Modes of operation.
  69:../../DaisyExamples/libDaisy/src/per/qspi.h ****         Memory Mapped mode: QSPI configured so that the QSPI can be
  70:../../DaisyExamples/libDaisy/src/per/qspi.h ****         read from starting address 0x90000000. Writing is not
  71:../../DaisyExamples/libDaisy/src/per/qspi.h ****         possible in this mode. \n 
  72:../../DaisyExamples/libDaisy/src/per/qspi.h ****         Indirect Polling mode: Device driver enabled. 
  73:../../DaisyExamples/libDaisy/src/per/qspi.h ****         */
  74:../../DaisyExamples/libDaisy/src/per/qspi.h ****         enum Mode
  75:../../DaisyExamples/libDaisy/src/per/qspi.h ****         {
  76:../../DaisyExamples/libDaisy/src/per/qspi.h ****             MEMORY_MAPPED,    /**< & */
  77:../../DaisyExamples/libDaisy/src/per/qspi.h ****             INDIRECT_POLLING, /**< & */
  78:../../DaisyExamples/libDaisy/src/per/qspi.h ****             MODE_LAST,
  79:../../DaisyExamples/libDaisy/src/per/qspi.h ****         };
  80:../../DaisyExamples/libDaisy/src/per/qspi.h **** 
  81:../../DaisyExamples/libDaisy/src/per/qspi.h ****         //SCK,  CE# (active low)
  82:../../DaisyExamples/libDaisy/src/per/qspi.h ****         struct
  83:../../DaisyExamples/libDaisy/src/per/qspi.h ****         {
  84:../../DaisyExamples/libDaisy/src/per/qspi.h ****             dsy_gpio_pin io0; /**< & */
  85:../../DaisyExamples/libDaisy/src/per/qspi.h ****             dsy_gpio_pin io1; /**< & */
  86:../../DaisyExamples/libDaisy/src/per/qspi.h ****             dsy_gpio_pin io2; /**< & */
  87:../../DaisyExamples/libDaisy/src/per/qspi.h ****             dsy_gpio_pin io3; /**< & */
  88:../../DaisyExamples/libDaisy/src/per/qspi.h ****             dsy_gpio_pin clk; /**< & */
  89:../../DaisyExamples/libDaisy/src/per/qspi.h ****             dsy_gpio_pin ncs; /**< & */
  90:../../DaisyExamples/libDaisy/src/per/qspi.h ****         } pin_config;
  91:../../DaisyExamples/libDaisy/src/per/qspi.h **** 
  92:../../DaisyExamples/libDaisy/src/per/qspi.h ****         Device device;
  93:../../DaisyExamples/libDaisy/src/per/qspi.h ****         Mode   mode;
  94:../../DaisyExamples/libDaisy/src/per/qspi.h ****     };
  95:../../DaisyExamples/libDaisy/src/per/qspi.h **** 
  96:../../DaisyExamples/libDaisy/src/per/qspi.h ****     /** 
  97:../../DaisyExamples/libDaisy/src/per/qspi.h ****         Initializes QSPI peripheral, and Resets, and prepares memory for access.
  98:../../DaisyExamples/libDaisy/src/per/qspi.h ****         \param config should be populated with the mode, device and pin_config before calling this 
  99:../../DaisyExamples/libDaisy/src/per/qspi.h ****         \return Result::OK or Result::ERR
 100:../../DaisyExamples/libDaisy/src/per/qspi.h ****         */
 101:../../DaisyExamples/libDaisy/src/per/qspi.h ****     Result Init(const Config& config);
 102:../../DaisyExamples/libDaisy/src/per/qspi.h **** 
 103:../../DaisyExamples/libDaisy/src/per/qspi.h ****     /** Returns the current config. */
 104:../../DaisyExamples/libDaisy/src/per/qspi.h ****     const Config& GetConfig() const;
 105:../../DaisyExamples/libDaisy/src/per/qspi.h **** 
 106:../../DaisyExamples/libDaisy/src/per/qspi.h ****     // Couldn't this just be called before anything else in init? That
 107:../../DaisyExamples/libDaisy/src/per/qspi.h ****     // would make manually calling it unnecessary.
 108:../../DaisyExamples/libDaisy/src/per/qspi.h ****     /** 
 109:../../DaisyExamples/libDaisy/src/per/qspi.h ****         Deinitializes the peripheral
 110:../../DaisyExamples/libDaisy/src/per/qspi.h ****         This should be called before reinitializing QSPI in a different mode.
 111:../../DaisyExamples/libDaisy/src/per/qspi.h ****         \return Result::OK or Result::ERR
 112:../../DaisyExamples/libDaisy/src/per/qspi.h ****         */
 113:../../DaisyExamples/libDaisy/src/per/qspi.h ****     Result DeInit();
 114:../../DaisyExamples/libDaisy/src/per/qspi.h **** 
 115:../../DaisyExamples/libDaisy/src/per/qspi.h ****     /** 
 116:../../DaisyExamples/libDaisy/src/per/qspi.h ****         Writes a single page to to the specified address on the QSPI chip.
 117:../../DaisyExamples/libDaisy/src/per/qspi.h ****         For IS25LP*, page size is 256 bytes.
ARM GAS  /var/folders/hp/45mn71hd0ps5f5pnytxy5bt00000gn/T//ccNGmXRQ.s 			page 43


 118:../../DaisyExamples/libDaisy/src/per/qspi.h ****         \param address Address to write to
 119:../../DaisyExamples/libDaisy/src/per/qspi.h ****         \param size Buffer size
 120:../../DaisyExamples/libDaisy/src/per/qspi.h ****         \param buffer Buffer to write
 121:../../DaisyExamples/libDaisy/src/per/qspi.h ****         \return Result::OK or Result::ERR
 122:../../DaisyExamples/libDaisy/src/per/qspi.h ****         */
 123:../../DaisyExamples/libDaisy/src/per/qspi.h ****     Result WritePage(uint32_t address, uint32_t size, uint8_t* buffer);
 124:../../DaisyExamples/libDaisy/src/per/qspi.h **** 
 125:../../DaisyExamples/libDaisy/src/per/qspi.h ****     /** 
 126:../../DaisyExamples/libDaisy/src/per/qspi.h ****         Writes data in buffer to to the QSPI. Starting at address to address+size 
 127:../../DaisyExamples/libDaisy/src/per/qspi.h ****         \param address Address to write to
 128:../../DaisyExamples/libDaisy/src/per/qspi.h ****         \param size Buffer size
 129:../../DaisyExamples/libDaisy/src/per/qspi.h ****         \param buffer Buffer to write
 130:../../DaisyExamples/libDaisy/src/per/qspi.h ****         \return Result::OK or Result::ERR
 131:../../DaisyExamples/libDaisy/src/per/qspi.h ****         */
 132:../../DaisyExamples/libDaisy/src/per/qspi.h ****     Result Write(uint32_t address, uint32_t size, uint8_t* buffer);
 133:../../DaisyExamples/libDaisy/src/per/qspi.h **** 
 134:../../DaisyExamples/libDaisy/src/per/qspi.h ****     /** 
 135:../../DaisyExamples/libDaisy/src/per/qspi.h ****         Erases the area specified on the chip.
 136:../../DaisyExamples/libDaisy/src/per/qspi.h ****         Erasures will happen by 4K, 32K or 64K increments.
 137:../../DaisyExamples/libDaisy/src/per/qspi.h ****         Smallest erase possible is 4kB at a time. (on IS25LP*)
 138:../../DaisyExamples/libDaisy/src/per/qspi.h ****         \param start_addr Address to begin erasing from
 139:../../DaisyExamples/libDaisy/src/per/qspi.h ****         \param end_addr  Address to stop erasing at
 140:../../DaisyExamples/libDaisy/src/per/qspi.h ****         \return Result::OK or Result::ERR
 141:../../DaisyExamples/libDaisy/src/per/qspi.h ****         */
 142:../../DaisyExamples/libDaisy/src/per/qspi.h ****     Result Erase(uint32_t start_addr, uint32_t end_addr);
 143:../../DaisyExamples/libDaisy/src/per/qspi.h **** 
 144:../../DaisyExamples/libDaisy/src/per/qspi.h ****     /**  
 145:../../DaisyExamples/libDaisy/src/per/qspi.h ****          Erases a single sector of the chip.  
 146:../../DaisyExamples/libDaisy/src/per/qspi.h ****         TODO: Document the size of this function. 
 147:../../DaisyExamples/libDaisy/src/per/qspi.h ****         \param address Address of sector to erase
 148:../../DaisyExamples/libDaisy/src/per/qspi.h ****         \return Result::OK or Result::ERR
 149:../../DaisyExamples/libDaisy/src/per/qspi.h ****         */
 150:../../DaisyExamples/libDaisy/src/per/qspi.h ****     Result EraseSector(uint32_t address);
 151:../../DaisyExamples/libDaisy/src/per/qspi.h **** 
 152:../../DaisyExamples/libDaisy/src/per/qspi.h ****     /** Returns the current class status. Useful for debugging.
 153:../../DaisyExamples/libDaisy/src/per/qspi.h ****      *  \returns Status
 154:../../DaisyExamples/libDaisy/src/per/qspi.h ****      */
 155:../../DaisyExamples/libDaisy/src/per/qspi.h ****     Status GetStatus();
 156:../../DaisyExamples/libDaisy/src/per/qspi.h **** 
 157:../../DaisyExamples/libDaisy/src/per/qspi.h ****     /** Returns a pointer to the actual memory used 
 158:../../DaisyExamples/libDaisy/src/per/qspi.h ****      *  The memory at this address is read-only
 159:../../DaisyExamples/libDaisy/src/per/qspi.h ****      *  to write to it use the Write function.
 160:../../DaisyExamples/libDaisy/src/per/qspi.h ****      * 
 161:../../DaisyExamples/libDaisy/src/per/qspi.h ****      *  \param offset returns the pointer starting this 
 162:../../DaisyExamples/libDaisy/src/per/qspi.h ****      *                many bytes into the memory
 163:../../DaisyExamples/libDaisy/src/per/qspi.h ****     */
 164:../../DaisyExamples/libDaisy/src/per/qspi.h ****     void* GetData(uint32_t offset = 0);
 165:../../DaisyExamples/libDaisy/src/per/qspi.h **** 
 166:../../DaisyExamples/libDaisy/src/per/qspi.h ****     QSPIHandle() : pimpl_(nullptr) {}
 886              		.loc 19 166 5 view .LVU250
 887              	.LBE541:
 888              	.LBE540:
 889              	.LBE539:
 890              	.LBE538:
 891              	.LBE537:
 892              	.LBE536:
 893              	.LBE535:
ARM GAS  /var/folders/hp/45mn71hd0ps5f5pnytxy5bt00000gn/T//ccNGmXRQ.s 			page 44


 894              		.loc 18 78 1 is_stmt 0 view .LVU251
 895 0000 70B5     		push	{r4, r5, r6, lr}
 896              		.cfi_def_cfa_offset 16
 897              		.cfi_offset 4, -16
 898              		.cfi_offset 5, -12
 899              		.cfi_offset 6, -8
 900              		.cfi_offset 14, -4
 901              	.LBB648:
 902              	.LBB646:
 903              	.LBB634:
 904              	.LBB630:
 905              	.LBB564:
 906              	.LBB561:
 907              	.LBB546:
 908              	.LBB542:
 909              	.LBB543:
 910              		.loc 19 166 34 view .LVU252
 911 0002 1D4C     		ldr	r4, .L39
 912 0004 0025     		movs	r5, #0
 913              	.LBE543:
 914              	.LBE542:
 915              	.LBE546:
 916              	.LBE561:
 917              	.LBE564:
 918              	.LBE630:
 919              	.LBE634:
   7:SynthV3.cpp   **** static Oscillator osc;
 920              		.loc 18 7 17 view .LVU253
 921 0006 1D4E     		ldr	r6, .L39+4
 922              	.LBB635:
 923              	.LBB631:
 924              	.LBB565:
 925              	.LBB562:
 926              	.LBB547:
 927              	.LBB545:
 928              	.LBB544:
 929              		.loc 19 166 34 view .LVU254
 930 0008 2560     		str	r5, [r4]
 931              	.LVL52:
 932              		.loc 19 166 34 view .LVU255
 933              	.LBE544:
 934              	.LBE545:
 935              	.LBE547:
 936              	.LBB548:
 937              	.LBI548:
  95:../../DaisyExamples/libDaisy/src/hid/audio.h ****     ~AudioHandle() {}
 938              		.loc 15 95 5 is_stmt 1 view .LVU256
 939              	.LBE548:
 940              	.LBE562:
 941              	.LBE565:
 942              	.LBB566:
 943              	.LBB567:
 944              	.LBB568:
 945              	.LBB569:
 157:../../DaisyExamples/libDaisy/src/hid/midi.h **** 
 158:../../DaisyExamples/libDaisy/src/hid/midi.h ****     struct Config
 946              		.loc 4 158 12 is_stmt 0 view .LVU257
ARM GAS  /var/folders/hp/45mn71hd0ps5f5pnytxy5bt00000gn/T//ccNGmXRQ.s 			page 45


 947 000a 04F5C070 		add	r0, r4, #384
 948              	.LBE569:
 949              	.LBE568:
 950              	.LBE567:
 951              	.LBE566:
 952              	.LBB609:
 953              	.LBB563:
 954              	.LBB551:
 955              	.LBB549:
 956              	.LBB550:
  95:../../DaisyExamples/libDaisy/src/hid/audio.h ****     ~AudioHandle() {}
 957              		.loc 15 95 35 view .LVU258
 958 000e 6561     		str	r5, [r4, #20]
 959              	.LVL53:
  95:../../DaisyExamples/libDaisy/src/hid/audio.h ****     ~AudioHandle() {}
 960              		.loc 15 95 35 view .LVU259
 961              	.LBE550:
 962              	.LBE549:
 963              	.LBE551:
 964              	.LBB552:
 965              	.LBI552:
 109:../../DaisyExamples/libDaisy/src/per/adc.h ****     ~AdcHandle() {}
 966              		.loc 14 109 5 is_stmt 1 view .LVU260
 109:../../DaisyExamples/libDaisy/src/per/adc.h ****     ~AdcHandle() {}
 967              		.loc 14 109 5 is_stmt 0 view .LVU261
 968              	.LBE552:
 969              	.LBB553:
 970              	.LBI553:
 971              		.file 20 "../../DaisyExamples/libDaisy/src/per/dac.h"
   1:../../DaisyExamples/libDaisy/src/per/dac.h **** #pragma once
   2:../../DaisyExamples/libDaisy/src/per/dac.h **** #ifndef DSY_DAC_H
   3:../../DaisyExamples/libDaisy/src/per/dac.h **** #define DSY_DAC_H
   4:../../DaisyExamples/libDaisy/src/per/dac.h **** 
   5:../../DaisyExamples/libDaisy/src/per/dac.h **** #include "daisy_core.h"
   6:../../DaisyExamples/libDaisy/src/per/dac.h **** 
   7:../../DaisyExamples/libDaisy/src/per/dac.h **** namespace daisy
   8:../../DaisyExamples/libDaisy/src/per/dac.h **** {
   9:../../DaisyExamples/libDaisy/src/per/dac.h **** /** @brief DAC handle for Built-in DAC Peripheral 
  10:../../DaisyExamples/libDaisy/src/per/dac.h ****  *  @ingroup per_analog
  11:../../DaisyExamples/libDaisy/src/per/dac.h ****  ** 
  12:../../DaisyExamples/libDaisy/src/per/dac.h ****  ** For now only Normal Mode is supported,
  13:../../DaisyExamples/libDaisy/src/per/dac.h ****  ** Sample and hold mode provides reduced power consumption, but requires a bit more setup.
  14:../../DaisyExamples/libDaisy/src/per/dac.h ****  **
  15:../../DaisyExamples/libDaisy/src/per/dac.h ****  ** For now connecting the DAC through other internal peripherals is also not supported.
  16:../../DaisyExamples/libDaisy/src/per/dac.h ****  **
  17:../../DaisyExamples/libDaisy/src/per/dac.h ****  ** Since the DAC channels have dedicated pins we don't need to pass in a pin config like with
  18:../../DaisyExamples/libDaisy/src/per/dac.h ****  ** other modules. However, it is still important to not try to use the DAC pins for anything else.
  19:../../DaisyExamples/libDaisy/src/per/dac.h ****  ** DAC Channel 1 is on PA4, and DAC Channel 2 is on PA5
  20:../../DaisyExamples/libDaisy/src/per/dac.h ****  ***/
  21:../../DaisyExamples/libDaisy/src/per/dac.h **** class DacHandle
  22:../../DaisyExamples/libDaisy/src/per/dac.h **** {
  23:../../DaisyExamples/libDaisy/src/per/dac.h ****   public:
  24:../../DaisyExamples/libDaisy/src/per/dac.h ****     /** Return Values for the DacHandle class */
  25:../../DaisyExamples/libDaisy/src/per/dac.h ****     enum class Result
  26:../../DaisyExamples/libDaisy/src/per/dac.h ****     {
  27:../../DaisyExamples/libDaisy/src/per/dac.h ****         OK,
  28:../../DaisyExamples/libDaisy/src/per/dac.h ****         ERR,
ARM GAS  /var/folders/hp/45mn71hd0ps5f5pnytxy5bt00000gn/T//ccNGmXRQ.s 			page 46


  29:../../DaisyExamples/libDaisy/src/per/dac.h ****     };
  30:../../DaisyExamples/libDaisy/src/per/dac.h **** 
  31:../../DaisyExamples/libDaisy/src/per/dac.h ****     /** Selects which channel(s) will be configured for use. */
  32:../../DaisyExamples/libDaisy/src/per/dac.h ****     enum class Channel
  33:../../DaisyExamples/libDaisy/src/per/dac.h ****     {
  34:../../DaisyExamples/libDaisy/src/per/dac.h ****         ONE,
  35:../../DaisyExamples/libDaisy/src/per/dac.h ****         TWO,
  36:../../DaisyExamples/libDaisy/src/per/dac.h ****         BOTH,
  37:../../DaisyExamples/libDaisy/src/per/dac.h ****     };
  38:../../DaisyExamples/libDaisy/src/per/dac.h **** 
  39:../../DaisyExamples/libDaisy/src/per/dac.h ****     /** Sets the Mode for the DAC channels.
  40:../../DaisyExamples/libDaisy/src/per/dac.h ****      **
  41:../../DaisyExamples/libDaisy/src/per/dac.h ****      ** Polling mode uses the blocking mode to transmit a single value at a time.
  42:../../DaisyExamples/libDaisy/src/per/dac.h ****      **
  43:../../DaisyExamples/libDaisy/src/per/dac.h ****      ** DMA mode uses a buffer, and periodically transmits it triggering a 
  44:../../DaisyExamples/libDaisy/src/per/dac.h ****      ** callback to fill the buffer when it is ready for more samples.
  45:../../DaisyExamples/libDaisy/src/per/dac.h ****      ***/
  46:../../DaisyExamples/libDaisy/src/per/dac.h ****     enum class Mode
  47:../../DaisyExamples/libDaisy/src/per/dac.h ****     {
  48:../../DaisyExamples/libDaisy/src/per/dac.h ****         POLLING,
  49:../../DaisyExamples/libDaisy/src/per/dac.h ****         DMA,
  50:../../DaisyExamples/libDaisy/src/per/dac.h ****     };
  51:../../DaisyExamples/libDaisy/src/per/dac.h **** 
  52:../../DaisyExamples/libDaisy/src/per/dac.h ****     /** Sets the number of bits per sample transmitted out of the DAC.
  53:../../DaisyExamples/libDaisy/src/per/dac.h ****      ** The output range will be: 0V - VDDA
  54:../../DaisyExamples/libDaisy/src/per/dac.h ****      ** The resolution will be roughly: bitdepth / (VDDA - 0V) 
  55:../../DaisyExamples/libDaisy/src/per/dac.h ****      ***/
  56:../../DaisyExamples/libDaisy/src/per/dac.h ****     enum class BitDepth
  57:../../DaisyExamples/libDaisy/src/per/dac.h ****     {
  58:../../DaisyExamples/libDaisy/src/per/dac.h ****         BITS_8,
  59:../../DaisyExamples/libDaisy/src/per/dac.h ****         BITS_12
  60:../../DaisyExamples/libDaisy/src/per/dac.h ****     };
  61:../../DaisyExamples/libDaisy/src/per/dac.h **** 
  62:../../DaisyExamples/libDaisy/src/per/dac.h ****     /** Sets whether the DAC output is buffered for higher drive ability. */
  63:../../DaisyExamples/libDaisy/src/per/dac.h ****     enum class BufferState
  64:../../DaisyExamples/libDaisy/src/per/dac.h ****     {
  65:../../DaisyExamples/libDaisy/src/per/dac.h ****         ENABLED,
  66:../../DaisyExamples/libDaisy/src/per/dac.h ****         DISABLED,
  67:../../DaisyExamples/libDaisy/src/per/dac.h ****     };
  68:../../DaisyExamples/libDaisy/src/per/dac.h **** 
  69:../../DaisyExamples/libDaisy/src/per/dac.h ****     /** Configuration structure for initializing the DAC structure. */
  70:../../DaisyExamples/libDaisy/src/per/dac.h ****     struct Config
  71:../../DaisyExamples/libDaisy/src/per/dac.h ****     {
  72:../../DaisyExamples/libDaisy/src/per/dac.h ****         /** Target Samplerate in Hz used to configure the internal 
  73:../../DaisyExamples/libDaisy/src/per/dac.h ****          ** timebase for DMA mode. Does nothing in POLLING mode.
  74:../../DaisyExamples/libDaisy/src/per/dac.h ****          ** If the value is 0 at Init time this will default to 48000Hz 
  75:../../DaisyExamples/libDaisy/src/per/dac.h ****          ** otherwise the driver will attempt meet the target.*/
  76:../../DaisyExamples/libDaisy/src/per/dac.h ****         uint32_t target_samplerate;
  77:../../DaisyExamples/libDaisy/src/per/dac.h **** 
  78:../../DaisyExamples/libDaisy/src/per/dac.h ****         Channel     chn;
  79:../../DaisyExamples/libDaisy/src/per/dac.h ****         Mode        mode;
  80:../../DaisyExamples/libDaisy/src/per/dac.h ****         BitDepth    bitdepth;
  81:../../DaisyExamples/libDaisy/src/per/dac.h ****         BufferState buff_state;
  82:../../DaisyExamples/libDaisy/src/per/dac.h ****     };
  83:../../DaisyExamples/libDaisy/src/per/dac.h **** 
  84:../../DaisyExamples/libDaisy/src/per/dac.h ****     DacHandle() : pimpl_(nullptr) {}
 972              		.loc 20 84 5 is_stmt 1 view .LVU262
ARM GAS  /var/folders/hp/45mn71hd0ps5f5pnytxy5bt00000gn/T//ccNGmXRQ.s 			page 47


 973              	.LBB554:
 974              	.LBB555:
 975              		.loc 20 84 33 is_stmt 0 view .LVU263
 976 0010 2562     		str	r5, [r4, #32]
 977              	.LVL54:
 978              		.loc 20 84 33 view .LVU264
 979              	.LBE555:
 980              	.LBE554:
 981              	.LBE553:
 982              	.LBB556:
 983              	.LBI556:
  40:../../DaisyExamples/libDaisy/src/hid/usb.h **** 
 984              		.loc 13 40 5 is_stmt 1 view .LVU265
  40:../../DaisyExamples/libDaisy/src/hid/usb.h **** 
 985              		.loc 13 40 5 is_stmt 0 view .LVU266
 986              	.LBE556:
 987              	.LBB557:
 988              	.LBI557:
  96:../../DaisyExamples/libDaisy/src/sys/system.h ****     ~System() {}
 989              		.loc 12 96 5 is_stmt 1 view .LVU267
  96:../../DaisyExamples/libDaisy/src/sys/system.h ****     ~System() {}
 990              		.loc 12 96 5 is_stmt 0 view .LVU268
 991              	.LBE557:
 992              	.LBB558:
 993              	.LBI558:
 994              		.file 21 "../../DaisyExamples/libDaisy/src/per/sai.h"
   1:../../DaisyExamples/libDaisy/src/per/sai.h **** #pragma once
   2:../../DaisyExamples/libDaisy/src/per/sai.h **** #ifndef DSY_SAI_H
   3:../../DaisyExamples/libDaisy/src/per/sai.h **** #define DSY_SAI_H
   4:../../DaisyExamples/libDaisy/src/per/sai.h **** 
   5:../../DaisyExamples/libDaisy/src/per/sai.h **** #include "daisy_core.h"
   6:../../DaisyExamples/libDaisy/src/per/sai.h **** 
   7:../../DaisyExamples/libDaisy/src/per/sai.h **** namespace daisy
   8:../../DaisyExamples/libDaisy/src/per/sai.h **** {
   9:../../DaisyExamples/libDaisy/src/per/sai.h **** /** 
  10:../../DaisyExamples/libDaisy/src/per/sai.h ****  * Support for I2S Audio Protocol with different bit-depth, samplerate options
  11:../../DaisyExamples/libDaisy/src/per/sai.h ****  * Allows for master or slave, as well as freedom of selecting direction, 
  12:../../DaisyExamples/libDaisy/src/per/sai.h ****  * and other behavior for each peripheral, and block.
  13:../../DaisyExamples/libDaisy/src/per/sai.h ****  * 
  14:../../DaisyExamples/libDaisy/src/per/sai.h ****  * DMA Transfer commands must use buffers located within non-cached memory or use cache maintenance
  15:../../DaisyExamples/libDaisy/src/per/sai.h ****  * To declare an unitialized global element in the DMA memory section:
  16:../../DaisyExamples/libDaisy/src/per/sai.h ****  *    int32_t DSY_DMA_BUFFER_SECTOR my_buffer[96];
  17:../../DaisyExamples/libDaisy/src/per/sai.h ****  *
  18:../../DaisyExamples/libDaisy/src/per/sai.h ****  * Callback functions will be called once per half of the buffer. In the above example, 
  19:../../DaisyExamples/libDaisy/src/per/sai.h ****  * the callback function would be called once for every 48 samples.
  20:../../DaisyExamples/libDaisy/src/per/sai.h ****  * 
  21:../../DaisyExamples/libDaisy/src/per/sai.h ****  * Use SAI Handle like this:
  22:../../DaisyExamples/libDaisy/src/per/sai.h ****  * 
  23:../../DaisyExamples/libDaisy/src/per/sai.h ****  *  SaiHandle::Config sai_config;
  24:../../DaisyExamples/libDaisy/src/per/sai.h ****  *  sai_config.periph          = SaiHandle::Config::Peripheral::SAI_1;
  25:../../DaisyExamples/libDaisy/src/per/sai.h ****  *  sai_config.sr              = SaiHandle::Config::SampleRate::SAI_48KHZ;
  26:../../DaisyExamples/libDaisy/src/per/sai.h ****  *  sai_config.bit_depth       = SaiHandle::Config::BitDepth::SAI_24BIT;
  27:../../DaisyExamples/libDaisy/src/per/sai.h ****  *  sai_config.a_sync          = SaiHandle::Config::Sync::MASTER;
  28:../../DaisyExamples/libDaisy/src/per/sai.h ****  *  sai_config.b_sync          = SaiHandle::Config::Sync::SLAVE;
  29:../../DaisyExamples/libDaisy/src/per/sai.h ****  *  sai_config.a_dir           = SaiHandle::Config::Direction::RECEIVE;
  30:../../DaisyExamples/libDaisy/src/per/sai.h ****  *  sai_config.b_dir           = SaiHandle::Config::Direction::TRANSMIT;
  31:../../DaisyExamples/libDaisy/src/per/sai.h ****  *  sai_config.pin_config.fs   = {DSY_GPIOE, 4};
ARM GAS  /var/folders/hp/45mn71hd0ps5f5pnytxy5bt00000gn/T//ccNGmXRQ.s 			page 48


  32:../../DaisyExamples/libDaisy/src/per/sai.h ****  *  sai_config.pin_config.mclk = {DSY_GPIOE, 2};
  33:../../DaisyExamples/libDaisy/src/per/sai.h ****  *  sai_config.pin_config.sck  = {DSY_GPIOE, 5};
  34:../../DaisyExamples/libDaisy/src/per/sai.h ****  *  sai_config.pin_config.sa   = {DSY_GPIOE, 6};
  35:../../DaisyExamples/libDaisy/src/per/sai.h ****  *  sai_config.pin_config.sb   = {DSY_GPIOE, 3};
  36:../../DaisyExamples/libDaisy/src/per/sai.h ****  *  // Then Initialize
  37:../../DaisyExamples/libDaisy/src/per/sai.h ****  *  SaiHandle sai;
  38:../../DaisyExamples/libDaisy/src/per/sai.h ****  *  sai.Init(sai_config);
  39:../../DaisyExamples/libDaisy/src/per/sai.h ****  *  // Now you can use it:
  40:../../DaisyExamples/libDaisy/src/per/sai.h ****  *  sai.StartDma(. . .);
  41:../../DaisyExamples/libDaisy/src/per/sai.h ****  */
  42:../../DaisyExamples/libDaisy/src/per/sai.h **** class SaiHandle
  43:../../DaisyExamples/libDaisy/src/per/sai.h **** {
  44:../../DaisyExamples/libDaisy/src/per/sai.h ****   public:
  45:../../DaisyExamples/libDaisy/src/per/sai.h ****     /** Contains settings for initialising an SAI Interface */
  46:../../DaisyExamples/libDaisy/src/per/sai.h ****     struct Config
  47:../../DaisyExamples/libDaisy/src/per/sai.h ****     {
  48:../../DaisyExamples/libDaisy/src/per/sai.h ****         /** Specifies the internal peripheral to use (mapped to different hardware pins) */
  49:../../DaisyExamples/libDaisy/src/per/sai.h ****         enum class Peripheral
  50:../../DaisyExamples/libDaisy/src/per/sai.h ****         {
  51:../../DaisyExamples/libDaisy/src/per/sai.h ****             SAI_1,
  52:../../DaisyExamples/libDaisy/src/per/sai.h ****             SAI_2,
  53:../../DaisyExamples/libDaisy/src/per/sai.h ****         };
  54:../../DaisyExamples/libDaisy/src/per/sai.h **** 
  55:../../DaisyExamples/libDaisy/src/per/sai.h ****         /** Rate at which samples will be streaming to/from the device. */
  56:../../DaisyExamples/libDaisy/src/per/sai.h ****         enum class SampleRate
  57:../../DaisyExamples/libDaisy/src/per/sai.h ****         {
  58:../../DaisyExamples/libDaisy/src/per/sai.h ****             SAI_8KHZ,
  59:../../DaisyExamples/libDaisy/src/per/sai.h ****             SAI_16KHZ,
  60:../../DaisyExamples/libDaisy/src/per/sai.h ****             SAI_32KHZ,
  61:../../DaisyExamples/libDaisy/src/per/sai.h ****             SAI_48KHZ,
  62:../../DaisyExamples/libDaisy/src/per/sai.h ****             SAI_96KHZ,
  63:../../DaisyExamples/libDaisy/src/per/sai.h ****         };
  64:../../DaisyExamples/libDaisy/src/per/sai.h **** 
  65:../../DaisyExamples/libDaisy/src/per/sai.h ****         /** Bit Depth that the hardware expects to be transferred to/from the device. */
  66:../../DaisyExamples/libDaisy/src/per/sai.h ****         enum class BitDepth
  67:../../DaisyExamples/libDaisy/src/per/sai.h ****         {
  68:../../DaisyExamples/libDaisy/src/per/sai.h ****             SAI_16BIT,
  69:../../DaisyExamples/libDaisy/src/per/sai.h ****             SAI_24BIT,
  70:../../DaisyExamples/libDaisy/src/per/sai.h ****             SAI_32BIT,
  71:../../DaisyExamples/libDaisy/src/per/sai.h ****         };
  72:../../DaisyExamples/libDaisy/src/per/sai.h **** 
  73:../../DaisyExamples/libDaisy/src/per/sai.h ****         /** Specifies whether a particular block is the master or the slave 
  74:../../DaisyExamples/libDaisy/src/per/sai.h ****          ** If both are set to slave, no MCLK signal will be used, and it is
  75:../../DaisyExamples/libDaisy/src/per/sai.h ****          ** expected that the codec will have its own xtal.
  76:../../DaisyExamples/libDaisy/src/per/sai.h ****          */
  77:../../DaisyExamples/libDaisy/src/per/sai.h ****         enum class Sync
  78:../../DaisyExamples/libDaisy/src/per/sai.h ****         {
  79:../../DaisyExamples/libDaisy/src/per/sai.h ****             MASTER,
  80:../../DaisyExamples/libDaisy/src/per/sai.h ****             SLAVE,
  81:../../DaisyExamples/libDaisy/src/per/sai.h ****         };
  82:../../DaisyExamples/libDaisy/src/per/sai.h **** 
  83:../../DaisyExamples/libDaisy/src/per/sai.h ****         /** Specifies the direction for each peripheral block. */
  84:../../DaisyExamples/libDaisy/src/per/sai.h ****         enum class Direction
  85:../../DaisyExamples/libDaisy/src/per/sai.h ****         {
  86:../../DaisyExamples/libDaisy/src/per/sai.h ****             TRANSMIT,
  87:../../DaisyExamples/libDaisy/src/per/sai.h ****             RECEIVE,
  88:../../DaisyExamples/libDaisy/src/per/sai.h ****         };
ARM GAS  /var/folders/hp/45mn71hd0ps5f5pnytxy5bt00000gn/T//ccNGmXRQ.s 			page 49


  89:../../DaisyExamples/libDaisy/src/per/sai.h **** 
  90:../../DaisyExamples/libDaisy/src/per/sai.h ****         Peripheral periph;
  91:../../DaisyExamples/libDaisy/src/per/sai.h ****         struct
  92:../../DaisyExamples/libDaisy/src/per/sai.h ****         {
  93:../../DaisyExamples/libDaisy/src/per/sai.h ****             dsy_gpio_pin mclk, fs, sck, sa, sb;
  94:../../DaisyExamples/libDaisy/src/per/sai.h ****         } pin_config;
  95:../../DaisyExamples/libDaisy/src/per/sai.h ****         SampleRate sr;
  96:../../DaisyExamples/libDaisy/src/per/sai.h ****         BitDepth   bit_depth;
  97:../../DaisyExamples/libDaisy/src/per/sai.h ****         Sync       a_sync, b_sync;
  98:../../DaisyExamples/libDaisy/src/per/sai.h ****         Direction  a_dir, b_dir;
  99:../../DaisyExamples/libDaisy/src/per/sai.h ****     };
 100:../../DaisyExamples/libDaisy/src/per/sai.h **** 
 101:../../DaisyExamples/libDaisy/src/per/sai.h ****     /** Return values for SAI functions */
 102:../../DaisyExamples/libDaisy/src/per/sai.h ****     enum class Result
 103:../../DaisyExamples/libDaisy/src/per/sai.h ****     {
 104:../../DaisyExamples/libDaisy/src/per/sai.h ****         OK,
 105:../../DaisyExamples/libDaisy/src/per/sai.h ****         ERR,
 106:../../DaisyExamples/libDaisy/src/per/sai.h ****     };
 107:../../DaisyExamples/libDaisy/src/per/sai.h **** 
 108:../../DaisyExamples/libDaisy/src/per/sai.h ****     SaiHandle() : pimpl_(nullptr) {}
 995              		.loc 21 108 5 is_stmt 1 view .LVU269
 996              	.LBB559:
 997              	.LBB560:
 998              		.loc 21 108 33 is_stmt 0 view .LVU270
 999 0012 E563     		str	r5, [r4, #60]
 1000              	.LVL55:
 1001              		.loc 21 108 33 view .LVU271
 1002              	.LBE560:
 1003              	.LBE559:
 1004              	.LBE558:
 1005              	.LBE563:
 1006              	.LBE609:
 1007              	.LBB610:
 1008              	.LBI610:
  20:../../DaisyExamples/libDaisy/src/hid/encoder.h ****     ~Encoder() {}
 1009              		.loc 10 20 5 is_stmt 1 view .LVU272
 1010              	.LBB611:
 1011              	.LBB612:
 1012              	.LBI612:
  41:../../DaisyExamples/libDaisy/src/hid/switch.h ****     ~Switch() {}
 1013              		.loc 9 41 5 view .LVU273
  41:../../DaisyExamples/libDaisy/src/hid/switch.h ****     ~Switch() {}
 1014              		.loc 9 41 5 is_stmt 0 view .LVU274
 1015              	.LBE612:
 1016              	.LBE611:
 1017              	.LBE610:
 1018              	.LBB613:
 1019              	.LBI613:
  21:../../DaisyExamples/libDaisy/src/hid/ctrl.h ****     /** destructor */
 1020              		.loc 2 21 5 is_stmt 1 view .LVU275
  21:../../DaisyExamples/libDaisy/src/hid/ctrl.h ****     /** destructor */
 1021              		.loc 2 21 5 is_stmt 0 view .LVU276
 1022              	.LBE613:
 1023              	.LBB614:
 1024              	.LBI614:
  21:../../DaisyExamples/libDaisy/src/hid/ctrl.h ****     /** destructor */
 1025              		.loc 2 21 5 is_stmt 1 view .LVU277
ARM GAS  /var/folders/hp/45mn71hd0ps5f5pnytxy5bt00000gn/T//ccNGmXRQ.s 			page 50


  21:../../DaisyExamples/libDaisy/src/hid/ctrl.h ****     /** destructor */
 1026              		.loc 2 21 5 is_stmt 0 view .LVU278
 1027              	.LBE614:
 1028              	.LBB615:
 1029              	.LBI615:
  41:../../DaisyExamples/libDaisy/src/hid/switch.h ****     ~Switch() {}
 1030              		.loc 9 41 5 is_stmt 1 view .LVU279
  41:../../DaisyExamples/libDaisy/src/hid/switch.h ****     ~Switch() {}
 1031              		.loc 9 41 5 is_stmt 0 view .LVU280
 1032              	.LBE615:
 1033              	.LBB616:
 1034              	.LBI616:
  41:../../DaisyExamples/libDaisy/src/hid/switch.h ****     ~Switch() {}
 1035              		.loc 9 41 5 is_stmt 1 view .LVU281
  41:../../DaisyExamples/libDaisy/src/hid/switch.h ****     ~Switch() {}
 1036              		.loc 9 41 5 is_stmt 0 view .LVU282
 1037              	.LBE616:
 1038              	.LBB617:
 1039              	.LBI617:
  17:../../DaisyExamples/libDaisy/src/hid/rgb_led.h ****     ~RgbLed() {}
 1040              		.loc 7 17 5 is_stmt 1 view .LVU283
 1041              	.LBB618:
 1042              	.LBB619:
 1043              	.LBI619:
  24:../../DaisyExamples/libDaisy/src/hid/led.h ****     ~Led() {}
 1044              		.loc 8 24 5 view .LVU284
  24:../../DaisyExamples/libDaisy/src/hid/led.h ****     ~Led() {}
 1045              		.loc 8 24 5 is_stmt 0 view .LVU285
 1046              	.LBE619:
 1047              	.LBB620:
 1048              	.LBI620:
  24:../../DaisyExamples/libDaisy/src/hid/led.h ****     ~Led() {}
 1049              		.loc 8 24 5 is_stmt 1 view .LVU286
  24:../../DaisyExamples/libDaisy/src/hid/led.h ****     ~Led() {}
 1050              		.loc 8 24 5 is_stmt 0 view .LVU287
 1051              	.LBE620:
 1052              	.LBB621:
 1053              	.LBI621:
  24:../../DaisyExamples/libDaisy/src/hid/led.h ****     ~Led() {}
 1054              		.loc 8 24 5 is_stmt 1 view .LVU288
  24:../../DaisyExamples/libDaisy/src/hid/led.h ****     ~Led() {}
 1055              		.loc 8 24 5 is_stmt 0 view .LVU289
 1056              	.LBE621:
 1057              	.LBE618:
 1058              	.LBE617:
 1059              	.LBB622:
 1060              	.LBI622:
  17:../../DaisyExamples/libDaisy/src/hid/rgb_led.h ****     ~RgbLed() {}
 1061              		.loc 7 17 5 is_stmt 1 view .LVU290
 1062              	.LBB623:
 1063              	.LBB624:
 1064              	.LBI624:
  24:../../DaisyExamples/libDaisy/src/hid/led.h ****     ~Led() {}
 1065              		.loc 8 24 5 view .LVU291
  24:../../DaisyExamples/libDaisy/src/hid/led.h ****     ~Led() {}
 1066              		.loc 8 24 5 is_stmt 0 view .LVU292
 1067              	.LBE624:
ARM GAS  /var/folders/hp/45mn71hd0ps5f5pnytxy5bt00000gn/T//ccNGmXRQ.s 			page 51


 1068              	.LBB625:
 1069              	.LBI625:
  24:../../DaisyExamples/libDaisy/src/hid/led.h ****     ~Led() {}
 1070              		.loc 8 24 5 is_stmt 1 view .LVU293
  24:../../DaisyExamples/libDaisy/src/hid/led.h ****     ~Led() {}
 1071              		.loc 8 24 5 is_stmt 0 view .LVU294
 1072              	.LBE625:
 1073              	.LBB626:
 1074              	.LBI626:
  24:../../DaisyExamples/libDaisy/src/hid/led.h ****     ~Led() {}
 1075              		.loc 8 24 5 is_stmt 1 view .LVU295
  24:../../DaisyExamples/libDaisy/src/hid/led.h ****     ~Led() {}
 1076              		.loc 8 24 5 is_stmt 0 view .LVU296
 1077              	.LBE626:
 1078              	.LBE623:
 1079              	.LBE622:
 1080              	.LBB627:
 1081              	.LBI566:
 155:../../DaisyExamples/libDaisy/src/hid/midi.h ****     ~MidiHandler() {}
 1082              		.loc 4 155 5 is_stmt 1 view .LVU297
 1083              	.LBB606:
 1084              	.LBB571:
 1085              	.LBI568:
 1086              		.loc 4 158 12 view .LVU298
 1087              	.LBB570:
 1088 0014 FFF7FEFF 		bl	_ZN5daisy17MidiUartTransport6ConfigC1Ev
 1089              	.LVL56:
 1090              		.loc 4 158 12 is_stmt 0 view .LVU299
 1091              	.LBE570:
 1092              	.LBE571:
 1093              	.LBB572:
 1094              	.LBI572:
  31:../../DaisyExamples/libDaisy/src/hid/midi.h ****     ~MidiUartTransport() {}
 1095              		.loc 4 31 5 is_stmt 1 view .LVU300
 1096              	.LBB573:
 1097              	.LBB574:
 1098              	.LBI574:
 1099              		.file 22 "../../DaisyExamples/libDaisy/src/per/uart.h"
   1:../../DaisyExamples/libDaisy/src/per/uart.h **** /* 
   2:../../DaisyExamples/libDaisy/src/per/uart.h **** TODO
   3:../../DaisyExamples/libDaisy/src/per/uart.h **** - Overflow handling, etc. for Rx Queue.
   4:../../DaisyExamples/libDaisy/src/per/uart.h **** */
   5:../../DaisyExamples/libDaisy/src/per/uart.h **** 
   6:../../DaisyExamples/libDaisy/src/per/uart.h **** #pragma once
   7:../../DaisyExamples/libDaisy/src/per/uart.h **** #ifndef DSY_UART_H
   8:../../DaisyExamples/libDaisy/src/per/uart.h **** #define DSY_UART_H /**< macro */
   9:../../DaisyExamples/libDaisy/src/per/uart.h **** #include "daisy_core.h"
  10:../../DaisyExamples/libDaisy/src/per/uart.h **** 
  11:../../DaisyExamples/libDaisy/src/per/uart.h **** 
  12:../../DaisyExamples/libDaisy/src/per/uart.h **** namespace daisy
  13:../../DaisyExamples/libDaisy/src/per/uart.h **** {
  14:../../DaisyExamples/libDaisy/src/per/uart.h **** /** @addtogroup serial
  15:../../DaisyExamples/libDaisy/src/per/uart.h ****     @{
  16:../../DaisyExamples/libDaisy/src/per/uart.h ****     */
  17:../../DaisyExamples/libDaisy/src/per/uart.h **** 
  18:../../DaisyExamples/libDaisy/src/per/uart.h **** /** 
  19:../../DaisyExamples/libDaisy/src/per/uart.h ****     Uart Peripheral
ARM GAS  /var/folders/hp/45mn71hd0ps5f5pnytxy5bt00000gn/T//ccNGmXRQ.s 			page 52


  20:../../DaisyExamples/libDaisy/src/per/uart.h ****     @author shensley
  21:../../DaisyExamples/libDaisy/src/per/uart.h ****     @date March 2020
  22:../../DaisyExamples/libDaisy/src/per/uart.h ****     */
  23:../../DaisyExamples/libDaisy/src/per/uart.h **** class UartHandler
  24:../../DaisyExamples/libDaisy/src/per/uart.h **** {
  25:../../DaisyExamples/libDaisy/src/per/uart.h ****   public:
  26:../../DaisyExamples/libDaisy/src/per/uart.h ****     struct Config
  27:../../DaisyExamples/libDaisy/src/per/uart.h ****     {
  28:../../DaisyExamples/libDaisy/src/per/uart.h ****         enum class Peripheral
  29:../../DaisyExamples/libDaisy/src/per/uart.h ****         {
  30:../../DaisyExamples/libDaisy/src/per/uart.h ****             USART_1,
  31:../../DaisyExamples/libDaisy/src/per/uart.h ****             USART_2,
  32:../../DaisyExamples/libDaisy/src/per/uart.h ****             USART_3,
  33:../../DaisyExamples/libDaisy/src/per/uart.h ****             UART_4,
  34:../../DaisyExamples/libDaisy/src/per/uart.h ****             UART_5,
  35:../../DaisyExamples/libDaisy/src/per/uart.h ****             USART_6,
  36:../../DaisyExamples/libDaisy/src/per/uart.h ****             UART_7,
  37:../../DaisyExamples/libDaisy/src/per/uart.h ****             UART_8,
  38:../../DaisyExamples/libDaisy/src/per/uart.h ****             LPUART_1,
  39:../../DaisyExamples/libDaisy/src/per/uart.h ****         };
  40:../../DaisyExamples/libDaisy/src/per/uart.h **** 
  41:../../DaisyExamples/libDaisy/src/per/uart.h ****         enum class StopBits
  42:../../DaisyExamples/libDaisy/src/per/uart.h ****         {
  43:../../DaisyExamples/libDaisy/src/per/uart.h ****             BITS_0_5,
  44:../../DaisyExamples/libDaisy/src/per/uart.h ****             BITS_1,
  45:../../DaisyExamples/libDaisy/src/per/uart.h ****             BITS_1_5,
  46:../../DaisyExamples/libDaisy/src/per/uart.h ****             BITS_2,
  47:../../DaisyExamples/libDaisy/src/per/uart.h ****         };
  48:../../DaisyExamples/libDaisy/src/per/uart.h **** 
  49:../../DaisyExamples/libDaisy/src/per/uart.h ****         enum class Parity
  50:../../DaisyExamples/libDaisy/src/per/uart.h ****         {
  51:../../DaisyExamples/libDaisy/src/per/uart.h ****             NONE,
  52:../../DaisyExamples/libDaisy/src/per/uart.h ****             EVEN,
  53:../../DaisyExamples/libDaisy/src/per/uart.h ****             ODD,
  54:../../DaisyExamples/libDaisy/src/per/uart.h ****         };
  55:../../DaisyExamples/libDaisy/src/per/uart.h **** 
  56:../../DaisyExamples/libDaisy/src/per/uart.h ****         enum class Mode
  57:../../DaisyExamples/libDaisy/src/per/uart.h ****         {
  58:../../DaisyExamples/libDaisy/src/per/uart.h ****             RX,
  59:../../DaisyExamples/libDaisy/src/per/uart.h ****             TX,
  60:../../DaisyExamples/libDaisy/src/per/uart.h ****             TX_RX,
  61:../../DaisyExamples/libDaisy/src/per/uart.h ****         };
  62:../../DaisyExamples/libDaisy/src/per/uart.h **** 
  63:../../DaisyExamples/libDaisy/src/per/uart.h ****         enum class WordLength
  64:../../DaisyExamples/libDaisy/src/per/uart.h ****         {
  65:../../DaisyExamples/libDaisy/src/per/uart.h ****             BITS_7,
  66:../../DaisyExamples/libDaisy/src/per/uart.h ****             BITS_8,
  67:../../DaisyExamples/libDaisy/src/per/uart.h ****             BITS_9,
  68:../../DaisyExamples/libDaisy/src/per/uart.h ****         };
  69:../../DaisyExamples/libDaisy/src/per/uart.h **** 
  70:../../DaisyExamples/libDaisy/src/per/uart.h ****         struct
  71:../../DaisyExamples/libDaisy/src/per/uart.h ****         {
  72:../../DaisyExamples/libDaisy/src/per/uart.h ****             dsy_gpio_pin tx; /**< & */
  73:../../DaisyExamples/libDaisy/src/per/uart.h ****             dsy_gpio_pin rx; /**< & */
  74:../../DaisyExamples/libDaisy/src/per/uart.h ****         } pin_config;        /**< & */
  75:../../DaisyExamples/libDaisy/src/per/uart.h **** 
  76:../../DaisyExamples/libDaisy/src/per/uart.h ****         Config()
ARM GAS  /var/folders/hp/45mn71hd0ps5f5pnytxy5bt00000gn/T//ccNGmXRQ.s 			page 53


  77:../../DaisyExamples/libDaisy/src/per/uart.h ****         {
  78:../../DaisyExamples/libDaisy/src/per/uart.h ****             // user must init periph, pin_config, and mode
  79:../../DaisyExamples/libDaisy/src/per/uart.h ****             stopbits   = StopBits::BITS_1;
  80:../../DaisyExamples/libDaisy/src/per/uart.h ****             parity     = Parity::NONE;
  81:../../DaisyExamples/libDaisy/src/per/uart.h ****             wordlength = WordLength::BITS_8;
  82:../../DaisyExamples/libDaisy/src/per/uart.h ****             baudrate   = 31250;
  83:../../DaisyExamples/libDaisy/src/per/uart.h ****         }
  84:../../DaisyExamples/libDaisy/src/per/uart.h **** 
  85:../../DaisyExamples/libDaisy/src/per/uart.h ****         Peripheral periph;
  86:../../DaisyExamples/libDaisy/src/per/uart.h ****         StopBits   stopbits;
  87:../../DaisyExamples/libDaisy/src/per/uart.h ****         Parity     parity;
  88:../../DaisyExamples/libDaisy/src/per/uart.h ****         Mode       mode;
  89:../../DaisyExamples/libDaisy/src/per/uart.h ****         WordLength wordlength;
  90:../../DaisyExamples/libDaisy/src/per/uart.h ****         uint32_t   baudrate;
  91:../../DaisyExamples/libDaisy/src/per/uart.h ****     };
  92:../../DaisyExamples/libDaisy/src/per/uart.h **** 
  93:../../DaisyExamples/libDaisy/src/per/uart.h **** 
  94:../../DaisyExamples/libDaisy/src/per/uart.h ****     UartHandler() : pimpl_(nullptr) {}
 1100              		.loc 22 94 5 view .LVU301
 1101              		.loc 22 94 5 is_stmt 0 view .LVU302
 1102              	.LBE574:
 1103              	.LBE573:
 1104              	.LBE572:
 1105              	.LBB579:
 1106              	.LBI579:
  18:../../DaisyExamples/libDaisy/src/hid/midi_parser.h ****     ~MidiParser() {}
 1107              		.loc 6 18 5 is_stmt 1 view .LVU303
 1108              	.LBB580:
  18:../../DaisyExamples/libDaisy/src/hid/midi_parser.h ****     ~MidiParser() {}
 1109              		.loc 6 18 17 is_stmt 0 view .LVU304
 1110 0018 40F20F73 		movw	r3, #1807
 1111              	.LBE580:
 1112              	.LBE579:
 1113              	.LBB583:
 1114              	.LBB584:
 1115              	.LBB585:
 1116              	.LBB586:
 1117              	.LBB587:
  15:../../DaisyExamples/libDaisy/src/util/FIFO.h ****     {
 1118              		.loc 5 15 75 view .LVU305
 1119 001c 04F51471 		add	r1, r4, #592
 1120              	.LBE587:
 1121              	.LBE586:
 1122              	.LBE585:
 1123              	.LBE584:
 1124              	.LBE583:
 1125              	.LBB600:
 1126              	.LBB581:
  18:../../DaisyExamples/libDaisy/src/hid/midi_parser.h ****     ~MidiParser() {}
 1127              		.loc 6 18 17 view .LVU306
 1128 0020 174A     		ldr	r2, .L39+8
 1129 0022 A4F83C32 		strh	r3, [r4, #572]	@ movhi
 1130              	.LVL57:
  18:../../DaisyExamples/libDaisy/src/hid/midi_parser.h ****     ~MidiParser() {}
 1131              		.loc 6 18 17 view .LVU307
 1132              	.LBE581:
 1133              	.LBE600:
ARM GAS  /var/folders/hp/45mn71hd0ps5f5pnytxy5bt00000gn/T//ccNGmXRQ.s 			page 54


 1134              	.LBB601:
 1135              	.LBI583:
 299:../../DaisyExamples/libDaisy/src/util/FIFO.h **** {
 300:../../DaisyExamples/libDaisy/src/util/FIFO.h ****   public:
 301:../../DaisyExamples/libDaisy/src/util/FIFO.h ****     /** Creates an empty FIFO */
 302:../../DaisyExamples/libDaisy/src/util/FIFO.h ****     FIFO() : FIFOBase<T>(buffer_, capacity + 1) {}
 1136              		.loc 5 302 5 is_stmt 1 view .LVU308
 1137              	.LBB597:
 1138              	.LBB594:
 1139              	.LBI585:
  14:../../DaisyExamples/libDaisy/src/util/FIFO.h ****     : buffer_(buffer), bufferSize_(bufferSize), bufferIn_(0), bufferOut_(0)
 1140              		.loc 5 14 5 view .LVU309
 1141              	.LBB591:
 1142              	.LBB588:
  15:../../DaisyExamples/libDaisy/src/util/FIFO.h ****     {
 1143              		.loc 5 15 75 is_stmt 0 view .LVU310
 1144 0026 40F20113 		movw	r3, #257
 1145              	.LBE588:
 1146              	.LBE591:
 1147              	.LBE594:
 1148              	.LBE597:
 1149              	.LBE601:
 1150              	.LBB602:
 1151              	.LBB578:
 1152              	.LBB577:
 1153              	.LBB575:
 1154              	.LBB576:
 1155              		.loc 22 94 35 view .LVU311
 1156 002a C4F89051 		str	r5, [r4, #400]
 1157              	.LBE576:
 1158              	.LBE575:
 1159              	.LBE577:
 1160              	.LBE578:
 1161              	.LBE602:
 1162              	.LBE606:
 1163              	.LBE627:
 1164              	.LBE631:
 1165              	.LBE635:
   7:SynthV3.cpp   **** static Oscillator osc;
 1166              		.loc 18 7 17 view .LVU312
 1167 002e 2046     		mov	r0, r4
 1168              	.LBB636:
 1169              	.LBB632:
 1170              	.LBB628:
 1171              	.LBB607:
 1172              	.LBB603:
 1173              	.LBB598:
 1174              	.LBB595:
 1175              	.LBB592:
 1176              	.LBB589:
  15:../../DaisyExamples/libDaisy/src/util/FIFO.h ****     {
 1177              		.loc 5 15 75 view .LVU313
 1178 0030 C4F84852 		str	r5, [r4, #584]
 1179              	.LBE589:
 1180              	.LBE592:
 1181              	.LBE595:
 1182              	.LBE598:
ARM GAS  /var/folders/hp/45mn71hd0ps5f5pnytxy5bt00000gn/T//ccNGmXRQ.s 			page 55


 1183              	.LBE603:
 1184              	.LBB604:
 1185              	.LBB582:
  18:../../DaisyExamples/libDaisy/src/hid/midi_parser.h ****     ~MidiParser() {}
 1186              		.loc 6 18 17 view .LVU314
 1187 0034 C4F83822 		str	r2, [r4, #568]
 1188              	.LBE582:
 1189              	.LBE604:
 1190              	.LBE607:
 1191              	.LBE628:
 1192              	.LBE632:
 1193              	.LBE636:
   7:SynthV3.cpp   **** static Oscillator osc;
 1194              		.loc 18 7 17 view .LVU315
 1195 0038 3246     		mov	r2, r6
 1196              	.LBB637:
 1197              	.LBB633:
 1198              	.LBB629:
 1199              	.LBB608:
 1200              	.LBB605:
 1201              	.LBB599:
 1202              	.LBB596:
 1203              	.LBB593:
 1204              	.LBB590:
  15:../../DaisyExamples/libDaisy/src/util/FIFO.h ****     {
 1205              		.loc 5 15 75 view .LVU316
 1206 003a C4F84C52 		str	r5, [r4, #588]
 1207              	.LVL58:
  15:../../DaisyExamples/libDaisy/src/util/FIFO.h ****     {
 1208              		.loc 5 15 75 view .LVU317
 1209 003e C4E99013 		strd	r1, r3, [r4, #576]
 1210              	.LBE590:
 1211              	.LBE593:
 1212              	.LBE596:
 1213              	.LBE599:
 1214              	.LBE605:
 1215              	.LBE608:
 1216              	.LBE629:
 1217              	.LBE633:
 1218              	.LBE637:
   7:SynthV3.cpp   **** static Oscillator osc;
 1219              		.loc 18 7 17 view .LVU318
 1220 0042 1049     		ldr	r1, .L39+12
 1221 0044 FFF7FEFF 		bl	__aeabi_atexit
 1222              	.LVL59:
 1223              	.LBB638:
 1224              	.LBI638:
  23:../../DaisyExamples/DaisySP/Source/Synthesis/oscillator.h ****     ~Oscillator() {}
 1225              		.loc 17 23 5 is_stmt 1 view .LVU319
  23:../../DaisyExamples/DaisySP/Source/Synthesis/oscillator.h ****     ~Oscillator() {}
 1226              		.loc 17 23 5 is_stmt 0 view .LVU320
 1227              	.LBE638:
  10:SynthV3.cpp   **** static Parameter p_release;
 1228              		.loc 18 10 19 view .LVU321
 1229 0048 0F4C     		ldr	r4, .L39+16
   8:SynthV3.cpp   **** static AdEnv ad;
 1230              		.loc 18 8 19 view .LVU322
ARM GAS  /var/folders/hp/45mn71hd0ps5f5pnytxy5bt00000gn/T//ccNGmXRQ.s 			page 56


 1231 004a 3246     		mov	r2, r6
 1232 004c 0F49     		ldr	r1, .L39+20
 1233 004e 1048     		ldr	r0, .L39+24
 1234 0050 FFF7FEFF 		bl	__aeabi_atexit
 1235              	.LVL60:
 1236              	.LBB639:
 1237              	.LBI639:
  42:../../DaisyExamples/DaisySP/Source/Control/adenv.h ****     ~AdEnv() {}
 1238              		.loc 16 42 5 is_stmt 1 view .LVU323
  42:../../DaisyExamples/DaisySP/Source/Control/adenv.h ****     ~AdEnv() {}
 1239              		.loc 16 42 5 is_stmt 0 view .LVU324
 1240              	.LBE639:
   9:SynthV3.cpp   **** static Parameter  p_freq;
 1241              		.loc 18 9 14 view .LVU325
 1242 0054 3246     		mov	r2, r6
 1243 0056 0F49     		ldr	r1, .L39+28
 1244 0058 0F48     		ldr	r0, .L39+32
 1245 005a FFF7FEFF 		bl	__aeabi_atexit
 1246              	.LVL61:
 1247              	.LBB640:
 1248              	.LBI640:
  25:../../DaisyExamples/libDaisy/src/hid/parameter.h ****     /** Destructor */
 1249              		.loc 1 25 5 is_stmt 1 view .LVU326
 1250              	.LBB641:
 1251              	.LBB642:
 1252              	.LBI642:
  21:../../DaisyExamples/libDaisy/src/hid/ctrl.h ****     /** destructor */
 1253              		.loc 2 21 5 view .LVU327
  21:../../DaisyExamples/libDaisy/src/hid/ctrl.h ****     /** destructor */
 1254              		.loc 2 21 5 is_stmt 0 view .LVU328
 1255              	.LBE642:
 1256              	.LBE641:
 1257              	.LBE640:
  10:SynthV3.cpp   **** static Parameter p_release;
 1258              		.loc 18 10 19 view .LVU329
 1259 005e 3246     		mov	r2, r6
 1260 0060 2146     		mov	r1, r4
 1261 0062 0E48     		ldr	r0, .L39+36
 1262 0064 FFF7FEFF 		bl	__aeabi_atexit
 1263              	.LVL62:
 1264              	.LBB643:
 1265              	.LBI643:
  25:../../DaisyExamples/libDaisy/src/hid/parameter.h ****     /** Destructor */
 1266              		.loc 1 25 5 is_stmt 1 view .LVU330
 1267              	.LBB644:
 1268              	.LBB645:
 1269              	.LBI645:
  21:../../DaisyExamples/libDaisy/src/hid/ctrl.h ****     /** destructor */
 1270              		.loc 2 21 5 view .LVU331
  21:../../DaisyExamples/libDaisy/src/hid/ctrl.h ****     /** destructor */
 1271              		.loc 2 21 5 is_stmt 0 view .LVU332
 1272              	.LBE645:
 1273              	.LBE644:
 1274              	.LBE643:
  11:SynthV3.cpp   **** 
 1275              		.loc 18 11 18 view .LVU333
 1276 0068 3246     		mov	r2, r6
ARM GAS  /var/folders/hp/45mn71hd0ps5f5pnytxy5bt00000gn/T//ccNGmXRQ.s 			page 57


 1277 006a 2146     		mov	r1, r4
 1278 006c 0C48     		ldr	r0, .L39+40
 1279              	.LBE646:
 1280              	.LBE648:
 1281              		.loc 18 78 1 view .LVU334
 1282 006e BDE87040 		pop	{r4, r5, r6, lr}
 1283              		.cfi_restore 14
 1284              		.cfi_restore 6
 1285              		.cfi_restore 5
 1286              		.cfi_restore 4
 1287              		.cfi_def_cfa_offset 0
 1288              	.LBB649:
 1289              	.LBB647:
  11:SynthV3.cpp   **** 
 1290              		.loc 18 11 18 view .LVU335
 1291 0072 FFF7FEBF 		b	__aeabi_atexit
 1292              	.LVL63:
 1293              	.L40:
 1294 0076 00BF     		.align	2
 1295              	.L39:
 1296 0078 00000000 		.word	_ZL2hw
 1297 007c 00000000 		.word	__dso_handle
 1298 0080 0080707F 		.word	2138079232
 1299 0084 00000000 		.word	_ZN5daisy8DaisyPodD1Ev
 1300 0088 00000000 		.word	_ZN5daisy9ParameterD1Ev
 1301 008c 00000000 		.word	_ZN7daisysp10OscillatorD1Ev
 1302 0090 00000000 		.word	.LANCHOR6
 1303 0094 00000000 		.word	_ZN7daisysp5AdEnvD1Ev
 1304 0098 00000000 		.word	.LANCHOR1
 1305 009c 00000000 		.word	.LANCHOR2
 1306 00a0 00000000 		.word	.LANCHOR4
 1307              	.LBE647:
 1308              	.LBE649:
 1309              		.cfi_endproc
 1310              	.LFE5439:
 1312              		.section	.init_array,"aw",%init_array
 1313              		.align	2
 1314 0000 00000000 		.word	_GLOBAL__sub_I_freq(target1)
 1315              		.global	adCycle
 1316              		.global	adRelease
 1317              		.global	freq
 1318              		.section	.bss._ZL2ad,"aw",%nobits
 1319              		.align	2
 1320              		.set	.LANCHOR1,. + 0
 1323              	_ZL2ad:
 1324 0000 00000000 		.space	56
 1324      00000000 
 1324      00000000 
 1324      00000000 
 1324      00000000 
 1325              		.section	.bss._ZL2hw,"aw",%nobits
 1326              		.align	2
 1329              	_ZL2hw:
 1330 0000 00000000 		.space	37600
 1330      00000000 
 1330      00000000 
 1330      00000000 
ARM GAS  /var/folders/hp/45mn71hd0ps5f5pnytxy5bt00000gn/T//ccNGmXRQ.s 			page 58


 1330      00000000 
 1331              		.section	.bss._ZL3osc,"aw",%nobits
 1332              		.align	2
 1333              		.set	.LANCHOR6,. + 0
 1336              	_ZL3osc:
 1337 0000 00000000 		.space	44
 1337      00000000 
 1337      00000000 
 1337      00000000 
 1337      00000000 
 1338              		.section	.bss._ZL6p_freq,"aw",%nobits
 1339              		.align	2
 1340              		.set	.LANCHOR2,. + 0
 1343              	_ZL6p_freq:
 1344 0000 00000000 		.space	56
 1344      00000000 
 1344      00000000 
 1344      00000000 
 1344      00000000 
 1345              		.section	.bss._ZL9p_release,"aw",%nobits
 1346              		.align	2
 1347              		.set	.LANCHOR4,. + 0
 1350              	_ZL9p_release:
 1351 0000 00000000 		.space	56
 1351      00000000 
 1351      00000000 
 1351      00000000 
 1351      00000000 
 1352              		.section	.bss.adCycle,"aw",%nobits
 1353              		.set	.LANCHOR0,. + 0
 1356              	adCycle:
 1357 0000 00       		.space	1
 1358              		.section	.bss.adRelease,"aw",%nobits
 1359              		.align	2
 1360              		.set	.LANCHOR5,. + 0
 1363              	adRelease:
 1364 0000 00000000 		.space	4
 1365              		.section	.bss.freq,"aw",%nobits
 1366              		.align	2
 1367              		.set	.LANCHOR3,. + 0
 1370              	freq:
 1371 0000 00000000 		.space	4
 1372              		.text
 1373              	.Letext0:
 1374              		.file 23 "/Library/DaisyToolchain/0.2.0/arm/arm-none-eabi/include/machine/_default_types.h"
 1375              		.file 24 "/Library/DaisyToolchain/0.2.0/arm/arm-none-eabi/include/sys/_stdint.h"
 1376              		.file 25 "/Library/DaisyToolchain/0.2.0/arm/arm-none-eabi/include/stdint.h"
 1377              		.file 26 "/Library/DaisyToolchain/0.2.0/arm/lib/gcc/arm-none-eabi/10.3.1/include/stddef.h"
 1378              		.file 27 "/Library/DaisyToolchain/0.2.0/arm/arm-none-eabi/include/c++/10.3.1/cmath"
 1379              		.file 28 "/Library/DaisyToolchain/0.2.0/arm/arm-none-eabi/include/c++/10.3.1/bits/std_abs.h"
 1380              		.file 29 "/Library/DaisyToolchain/0.2.0/arm/arm-none-eabi/include/c++/10.3.1/cstdlib"
 1381              		.file 30 "/Library/DaisyToolchain/0.2.0/arm/arm-none-eabi/include/c++/10.3.1/cstdint"
 1382              		.file 31 "/Library/DaisyToolchain/0.2.0/arm/arm-none-eabi/include/c++/10.3.1/arm-none-eabi/thumb/v
 1383              		.file 32 "/Library/DaisyToolchain/0.2.0/arm/arm-none-eabi/include/c++/10.3.1/type_traits"
 1384              		.file 33 "/Library/DaisyToolchain/0.2.0/arm/arm-none-eabi/include/c++/10.3.1/debug/debug.h"
 1385              		.file 34 "/Library/DaisyToolchain/0.2.0/arm/arm-none-eabi/include/c++/10.3.1/bits/algorithmfwd.h"
 1386              		.file 35 "/Library/DaisyToolchain/0.2.0/arm/arm-none-eabi/include/c++/10.3.1/bits/stl_pair.h"
ARM GAS  /var/folders/hp/45mn71hd0ps5f5pnytxy5bt00000gn/T//ccNGmXRQ.s 			page 59


 1387              		.file 36 "/Library/DaisyToolchain/0.2.0/arm/arm-none-eabi/include/c++/10.3.1/bits/exception_ptr.h"
 1388              		.file 37 "/Library/DaisyToolchain/0.2.0/arm/arm-none-eabi/include/c++/10.3.1/initializer_list"
 1389              		.file 38 "/Library/DaisyToolchain/0.2.0/arm/arm-none-eabi/include/c++/10.3.1/cstdarg"
 1390              		.file 39 "/Library/DaisyToolchain/0.2.0/arm/arm-none-eabi/include/c++/10.3.1/cstdio"
 1391              		.file 40 "/Library/DaisyToolchain/0.2.0/arm/arm-none-eabi/include/c++/10.3.1/cstring"
 1392              		.file 41 "/Library/DaisyToolchain/0.2.0/arm/arm-none-eabi/include/c++/10.3.1/cwchar"
 1393              		.file 42 "/Library/DaisyToolchain/0.2.0/arm/arm-none-eabi/include/c++/10.3.1/clocale"
 1394              		.file 43 "/Library/DaisyToolchain/0.2.0/arm/arm-none-eabi/include/c++/10.3.1/bits/basic_string.h"
 1395              		.file 44 "/Library/DaisyToolchain/0.2.0/arm/arm-none-eabi/include/c++/10.3.1/bits/stl_iterator.h"
 1396              		.file 45 "/Library/DaisyToolchain/0.2.0/arm/arm-none-eabi/include/c++/10.3.1/bits/predefined_ops.h
 1397              		.file 46 "/Library/DaisyToolchain/0.2.0/arm/arm-none-eabi/include/sys/_types.h"
 1398              		.file 47 "/Library/DaisyToolchain/0.2.0/arm/arm-none-eabi/include/sys/reent.h"
 1399              		.file 48 "/Library/DaisyToolchain/0.2.0/arm/arm-none-eabi/include/sys/lock.h"
 1400              		.file 49 "/Library/DaisyToolchain/0.2.0/arm/arm-none-eabi/include/math.h"
 1401              		.file 50 "/Library/DaisyToolchain/0.2.0/arm/arm-none-eabi/include/stdlib.h"
 1402              		.file 51 "/Library/DaisyToolchain/0.2.0/arm/arm-none-eabi/include/c++/10.3.1/math.h"
 1403              		.file 52 "/Library/DaisyToolchain/0.2.0/arm/arm-none-eabi/include/c++/10.3.1/stdlib.h"
 1404              		.file 53 "../../DaisyExamples/libDaisy/src/daisy_core.h"
 1405              		.file 54 "../../DaisyExamples/libDaisy/src/per/tim.h"
 1406              		.file 55 "../../DaisyExamples/libDaisy/src/hid/MidiEvent.h"
 1407              		.file 56 "../../DaisyExamples/libDaisy/src/util/wav_format.h"
 1408              		.file 57 "../../DaisyExamples/libDaisy/src/util/color.h"
 1409              		.file 58 "../../DaisyExamples/libDaisy/src/dev/max11300.h"
 1410              		.file 59 "../../DaisyExamples/libDaisy/src/per/gpio.h"
 1411              		.file 60 "../../DaisyExamples/libDaisy/src/dev/sdram.h"
 1412              		.file 61 "/Library/DaisyToolchain/0.2.0/arm/lib/gcc/arm-none-eabi/10.3.1/include/stdarg.h"
 1413              		.file 62 "/Library/DaisyToolchain/0.2.0/arm/arm-none-eabi/include/stdio.h"
 1414              		.file 63 "/Library/DaisyToolchain/0.2.0/arm/arm-none-eabi/include/string.h"
 1415              		.file 64 "../../DaisyExamples/DaisySP/Source/Utility/dsp.h"
 1416              		.file 65 "/Library/DaisyToolchain/0.2.0/arm/arm-none-eabi/include/wchar.h"
 1417              		.file 66 "/Library/DaisyToolchain/0.2.0/arm/arm-none-eabi/include/locale.h"
 1418              		.file 67 "../../DaisyExamples/libDaisy/src/dev/sr_595.h"
 1419              		.file 68 "<built-in>"
ARM GAS  /var/folders/hp/45mn71hd0ps5f5pnytxy5bt00000gn/T//ccNGmXRQ.s 			page 60

