ARM GAS  /var/folders/hp/45mn71hd0ps5f5pnytxy5bt00000gn/T//ccIwDN9B.s 			page 1


   1              		.cpu cortex-m7
   2              		.arch armv7e-m
   3              		.fpu fpv5-d16
   4              		.eabi_attribute 28, 1
   5              		.eabi_attribute 20, 1
   6              		.eabi_attribute 21, 1
   7              		.eabi_attribute 23, 3
   8              		.eabi_attribute 24, 1
   9              		.eabi_attribute 25, 1
  10              		.eabi_attribute 26, 1
  11              		.eabi_attribute 30, 2
  12              		.eabi_attribute 34, 1
  13              		.eabi_attribute 18, 4
  14              		.file	"SynthV5.cpp"
  15              		.text
  16              	.Ltext0:
  17              		.cfi_sections	.debug_frame
  18              		.section	.text._ZN5daisy9ParameterD2Ev,"axG",%progbits,_ZN5daisy9ParameterD5Ev,comdat
  19              		.align	1
  20              		.p2align 2,,3
  21              		.weak	_ZN5daisy9ParameterD2Ev
  22              		.syntax unified
  23              		.thumb
  24              		.thumb_func
  26              	_ZN5daisy9ParameterD2Ev:
  27              	.LVL0:
  28              	.LFB1689:
  29              		.file 1 "../../DaisyExamples/libDaisy/src/hid/parameter.h"
   1:../../DaisyExamples/libDaisy/src/hid/parameter.h **** #pragma once
   2:../../DaisyExamples/libDaisy/src/hid/parameter.h **** #include <stdint.h>
   3:../../DaisyExamples/libDaisy/src/hid/parameter.h **** #include "hid/ctrl.h"
   4:../../DaisyExamples/libDaisy/src/hid/parameter.h **** 
   5:../../DaisyExamples/libDaisy/src/hid/parameter.h **** namespace daisy
   6:../../DaisyExamples/libDaisy/src/hid/parameter.h **** {
   7:../../DaisyExamples/libDaisy/src/hid/parameter.h **** /** @addtogroup controls
   8:../../DaisyExamples/libDaisy/src/hid/parameter.h ****     @{
   9:../../DaisyExamples/libDaisy/src/hid/parameter.h **** */
  10:../../DaisyExamples/libDaisy/src/hid/parameter.h **** 
  11:../../DaisyExamples/libDaisy/src/hid/parameter.h **** /**      Simple parameter mapping tool that takes a 0-1 input from an hid_ctrl. */
  12:../../DaisyExamples/libDaisy/src/hid/parameter.h **** class Parameter
  13:../../DaisyExamples/libDaisy/src/hid/parameter.h **** {
  14:../../DaisyExamples/libDaisy/src/hid/parameter.h ****   public:
  15:../../DaisyExamples/libDaisy/src/hid/parameter.h ****     /** Curves are applied to the output signal */
  16:../../DaisyExamples/libDaisy/src/hid/parameter.h ****     enum Curve
  17:../../DaisyExamples/libDaisy/src/hid/parameter.h ****     {
  18:../../DaisyExamples/libDaisy/src/hid/parameter.h ****         LINEAR,      /**< Linear curve */
  19:../../DaisyExamples/libDaisy/src/hid/parameter.h ****         EXPONENTIAL, /**< Exponential curve */
  20:../../DaisyExamples/libDaisy/src/hid/parameter.h ****         LOGARITHMIC, /**<  Logarithmic curve */
  21:../../DaisyExamples/libDaisy/src/hid/parameter.h ****         CUBE,        /**< Cubic curve */
  22:../../DaisyExamples/libDaisy/src/hid/parameter.h ****         LAST,        /**< Final enum element. */
  23:../../DaisyExamples/libDaisy/src/hid/parameter.h ****     };
  24:../../DaisyExamples/libDaisy/src/hid/parameter.h ****     /** Constructor */
  25:../../DaisyExamples/libDaisy/src/hid/parameter.h ****     Parameter() {}
  26:../../DaisyExamples/libDaisy/src/hid/parameter.h ****     /** Destructor */
  27:../../DaisyExamples/libDaisy/src/hid/parameter.h ****     ~Parameter() {}
  30              		.loc 1 27 5 view -0
  31              		.cfi_startproc
ARM GAS  /var/folders/hp/45mn71hd0ps5f5pnytxy5bt00000gn/T//ccIwDN9B.s 			page 2


  32              		@ args = 0, pretend = 0, frame = 0
  33              		@ frame_needed = 0, uses_anonymous_args = 0
  34              		@ link register save eliminated.
  35              	.LBB474:
  36              	.LBI474:
  37              		.file 2 "../../DaisyExamples/libDaisy/src/hid/ctrl.h"
   1:../../DaisyExamples/libDaisy/src/hid/ctrl.h **** #pragma once
   2:../../DaisyExamples/libDaisy/src/hid/ctrl.h **** #ifndef DSY_KNOB_H
   3:../../DaisyExamples/libDaisy/src/hid/ctrl.h **** #define DSY_KNOB_H /**< & */
   4:../../DaisyExamples/libDaisy/src/hid/ctrl.h **** #include <stdint.h>
   5:../../DaisyExamples/libDaisy/src/hid/ctrl.h **** 
   6:../../DaisyExamples/libDaisy/src/hid/ctrl.h **** #ifdef __cplusplus
   7:../../DaisyExamples/libDaisy/src/hid/ctrl.h **** namespace daisy
   8:../../DaisyExamples/libDaisy/src/hid/ctrl.h **** {
   9:../../DaisyExamples/libDaisy/src/hid/ctrl.h **** /**
  10:../../DaisyExamples/libDaisy/src/hid/ctrl.h ****     @brief Hardware Interface for control inputs \n 
  11:../../DaisyExamples/libDaisy/src/hid/ctrl.h ****     Primarily designed for ADC input controls such as \n 
  12:../../DaisyExamples/libDaisy/src/hid/ctrl.h ****     potentiometers, and control voltage. \n 
  13:../../DaisyExamples/libDaisy/src/hid/ctrl.h ****     @author Stephen Hensley
  14:../../DaisyExamples/libDaisy/src/hid/ctrl.h ****     @date November 2019
  15:../../DaisyExamples/libDaisy/src/hid/ctrl.h ****     @ingroup controls
  16:../../DaisyExamples/libDaisy/src/hid/ctrl.h **** */
  17:../../DaisyExamples/libDaisy/src/hid/ctrl.h **** class AnalogControl
  18:../../DaisyExamples/libDaisy/src/hid/ctrl.h **** {
  19:../../DaisyExamples/libDaisy/src/hid/ctrl.h ****   public:
  20:../../DaisyExamples/libDaisy/src/hid/ctrl.h ****     /** Constructor */
  21:../../DaisyExamples/libDaisy/src/hid/ctrl.h ****     AnalogControl() {}
  22:../../DaisyExamples/libDaisy/src/hid/ctrl.h ****     /** destructor */
  23:../../DaisyExamples/libDaisy/src/hid/ctrl.h ****     ~AnalogControl() {}
  38              		.loc 2 23 5 view .LVU1
  39              		.loc 2 23 5 is_stmt 0 view .LVU2
  40              	.LBE474:
  41              		.loc 1 27 19 view .LVU3
  42 0000 7047     		bx	lr
  43              		.cfi_endproc
  44              	.LFE1689:
  46              		.weak	_ZN5daisy9ParameterD1Ev
  47              		.thumb_set _ZN5daisy9ParameterD1Ev,_ZN5daisy9ParameterD2Ev
  48 0002 00BF     		.section	.text._ZN5daisy8DaisyPodD2Ev,"axG",%progbits,_ZN5daisy8DaisyPodD5Ev,comdat
  49              		.align	1
  50              		.p2align 2,,3
  51              		.weak	_ZN5daisy8DaisyPodD2Ev
  52              		.syntax unified
  53              		.thumb
  54              		.thumb_func
  56              	_ZN5daisy8DaisyPodD2Ev:
  57              	.LVL1:
  58              	.LFB2565:
  59              		.file 3 "../../DaisyExamples/libDaisy/src/daisy_pod.h"
   1:../../DaisyExamples/libDaisy/src/daisy_pod.h **** #pragma once
   2:../../DaisyExamples/libDaisy/src/daisy_pod.h **** #ifndef DSY_POD_BSP_H
   3:../../DaisyExamples/libDaisy/src/daisy_pod.h **** #define DSY_POD_BSP_H
   4:../../DaisyExamples/libDaisy/src/daisy_pod.h **** 
   5:../../DaisyExamples/libDaisy/src/daisy_pod.h **** #include "daisy_seed.h"
   6:../../DaisyExamples/libDaisy/src/daisy_pod.h **** 
   7:../../DaisyExamples/libDaisy/src/daisy_pod.h **** namespace daisy
   8:../../DaisyExamples/libDaisy/src/daisy_pod.h **** {
ARM GAS  /var/folders/hp/45mn71hd0ps5f5pnytxy5bt00000gn/T//ccIwDN9B.s 			page 3


   9:../../DaisyExamples/libDaisy/src/daisy_pod.h **** /**
  10:../../DaisyExamples/libDaisy/src/daisy_pod.h ****     @brief Class that handles initializing all of the hardware specific to the Daisy Patch Board. \
  11:../../DaisyExamples/libDaisy/src/daisy_pod.h ****     Helper funtions are also in place to provide easy access to built-in controls and peripherals.
  12:../../DaisyExamples/libDaisy/src/daisy_pod.h ****     @author Stephen Hensley
  13:../../DaisyExamples/libDaisy/src/daisy_pod.h ****     @date November 2019
  14:../../DaisyExamples/libDaisy/src/daisy_pod.h ****     @ingroup boards
  15:../../DaisyExamples/libDaisy/src/daisy_pod.h **** */
  16:../../DaisyExamples/libDaisy/src/daisy_pod.h **** class DaisyPod
  17:../../DaisyExamples/libDaisy/src/daisy_pod.h **** {
  18:../../DaisyExamples/libDaisy/src/daisy_pod.h ****   public:
  19:../../DaisyExamples/libDaisy/src/daisy_pod.h ****     /** Switches */
  20:../../DaisyExamples/libDaisy/src/daisy_pod.h ****     enum Sw
  21:../../DaisyExamples/libDaisy/src/daisy_pod.h ****     {
  22:../../DaisyExamples/libDaisy/src/daisy_pod.h ****         BUTTON_1,    /** & */
  23:../../DaisyExamples/libDaisy/src/daisy_pod.h ****         BUTTON_2,    /** & */
  24:../../DaisyExamples/libDaisy/src/daisy_pod.h ****         BUTTON_LAST, /** &  */
  25:../../DaisyExamples/libDaisy/src/daisy_pod.h ****     };
  26:../../DaisyExamples/libDaisy/src/daisy_pod.h **** 
  27:../../DaisyExamples/libDaisy/src/daisy_pod.h ****     /** Knobs */
  28:../../DaisyExamples/libDaisy/src/daisy_pod.h ****     enum Knob
  29:../../DaisyExamples/libDaisy/src/daisy_pod.h ****     {
  30:../../DaisyExamples/libDaisy/src/daisy_pod.h ****         KNOB_1,    /** &  */
  31:../../DaisyExamples/libDaisy/src/daisy_pod.h ****         KNOB_2,    /** & */
  32:../../DaisyExamples/libDaisy/src/daisy_pod.h ****         KNOB_LAST, /** & */
  33:../../DaisyExamples/libDaisy/src/daisy_pod.h ****     };
  34:../../DaisyExamples/libDaisy/src/daisy_pod.h **** 
  35:../../DaisyExamples/libDaisy/src/daisy_pod.h ****     DaisyPod() {}
  36:../../DaisyExamples/libDaisy/src/daisy_pod.h ****     ~DaisyPod() {}
  60              		.loc 3 36 5 is_stmt 1 view -0
  61              		.cfi_startproc
  62              		@ args = 0, pretend = 0, frame = 0
  63              		@ frame_needed = 0, uses_anonymous_args = 0
  64              		@ link register save eliminated.
  65              	.LBB475:
  66              	.LBI475:
  67              		.file 4 "../../DaisyExamples/libDaisy/src/hid/midi.h"
   1:../../DaisyExamples/libDaisy/src/hid/midi.h **** #pragma once
   2:../../DaisyExamples/libDaisy/src/hid/midi.h **** #ifndef DSY_MIDI_H
   3:../../DaisyExamples/libDaisy/src/hid/midi.h **** #define DSY_MIDI_H
   4:../../DaisyExamples/libDaisy/src/hid/midi.h **** 
   5:../../DaisyExamples/libDaisy/src/hid/midi.h **** #include <stdint.h>
   6:../../DaisyExamples/libDaisy/src/hid/midi.h **** #include <stdlib.h>
   7:../../DaisyExamples/libDaisy/src/hid/midi.h **** #include <algorithm>
   8:../../DaisyExamples/libDaisy/src/hid/midi.h **** #include "per/uart.h"
   9:../../DaisyExamples/libDaisy/src/hid/midi.h **** #include "util/ringbuffer.h"
  10:../../DaisyExamples/libDaisy/src/hid/midi.h **** #include "util/FIFO.h"
  11:../../DaisyExamples/libDaisy/src/hid/midi.h **** #include "hid/midi_parser.h"
  12:../../DaisyExamples/libDaisy/src/hid/midi.h **** #include "hid/usb_midi.h"
  13:../../DaisyExamples/libDaisy/src/hid/midi.h **** #include "sys/dma.h"
  14:../../DaisyExamples/libDaisy/src/hid/midi.h **** #include "sys/system.h"
  15:../../DaisyExamples/libDaisy/src/hid/midi.h **** 
  16:../../DaisyExamples/libDaisy/src/hid/midi.h **** namespace daisy
  17:../../DaisyExamples/libDaisy/src/hid/midi.h **** {
  18:../../DaisyExamples/libDaisy/src/hid/midi.h **** /** @brief   Transport layer for sending and receiving MIDI data over UART
  19:../../DaisyExamples/libDaisy/src/hid/midi.h ****  *  @details This is the mode of communication used for TRS and DIN MIDI
  20:../../DaisyExamples/libDaisy/src/hid/midi.h ****  *           There is an additional 2kB of RAM data used within this class
  21:../../DaisyExamples/libDaisy/src/hid/midi.h ****  *           for processing bulk data from the UART peripheral
ARM GAS  /var/folders/hp/45mn71hd0ps5f5pnytxy5bt00000gn/T//ccIwDN9B.s 			page 4


  22:../../DaisyExamples/libDaisy/src/hid/midi.h ****  *  @ingroup midi
  23:../../DaisyExamples/libDaisy/src/hid/midi.h **** */
  24:../../DaisyExamples/libDaisy/src/hid/midi.h **** class MidiUartTransport
  25:../../DaisyExamples/libDaisy/src/hid/midi.h **** {
  26:../../DaisyExamples/libDaisy/src/hid/midi.h ****   public:
  27:../../DaisyExamples/libDaisy/src/hid/midi.h ****     typedef void (*MidiRxParseCallback)(uint8_t* data,
  28:../../DaisyExamples/libDaisy/src/hid/midi.h ****                                         size_t   size,
  29:../../DaisyExamples/libDaisy/src/hid/midi.h ****                                         void*    context);
  30:../../DaisyExamples/libDaisy/src/hid/midi.h **** 
  31:../../DaisyExamples/libDaisy/src/hid/midi.h ****     MidiUartTransport() {}
  32:../../DaisyExamples/libDaisy/src/hid/midi.h ****     ~MidiUartTransport() {}
  33:../../DaisyExamples/libDaisy/src/hid/midi.h **** 
  34:../../DaisyExamples/libDaisy/src/hid/midi.h ****     /** @brief Configuration structure for UART MIDI */
  35:../../DaisyExamples/libDaisy/src/hid/midi.h ****     struct Config
  36:../../DaisyExamples/libDaisy/src/hid/midi.h ****     {
  37:../../DaisyExamples/libDaisy/src/hid/midi.h ****         UartHandler::Config::Peripheral periph;
  38:../../DaisyExamples/libDaisy/src/hid/midi.h ****         dsy_gpio_pin                    rx;
  39:../../DaisyExamples/libDaisy/src/hid/midi.h ****         dsy_gpio_pin                    tx;
  40:../../DaisyExamples/libDaisy/src/hid/midi.h **** 
  41:../../DaisyExamples/libDaisy/src/hid/midi.h ****         /** Pointer to buffer for DMA UART rx byte transfer in background.
  42:../../DaisyExamples/libDaisy/src/hid/midi.h ****          *
  43:../../DaisyExamples/libDaisy/src/hid/midi.h ****          *  @details By default this uses a shared buffer in DMA_BUFFER_MEM_SECTION,
  44:../../DaisyExamples/libDaisy/src/hid/midi.h ****          *           which can only be utilized for a single UART peripheral. To
  45:../../DaisyExamples/libDaisy/src/hid/midi.h ****          *           use MIDI with multiple UART peripherals, you must provide your own
  46:../../DaisyExamples/libDaisy/src/hid/midi.h ****          *           buffer, allocated to a DMA-capable memory section.
  47:../../DaisyExamples/libDaisy/src/hid/midi.h ****          */
  48:../../DaisyExamples/libDaisy/src/hid/midi.h ****         uint8_t* rx_buffer;
  49:../../DaisyExamples/libDaisy/src/hid/midi.h **** 
  50:../../DaisyExamples/libDaisy/src/hid/midi.h ****         /** Size in bytes of rx_buffer.
  51:../../DaisyExamples/libDaisy/src/hid/midi.h ****          *
  52:../../DaisyExamples/libDaisy/src/hid/midi.h ****          *  @details This size determines the maximum Rx bytes readable by the UART in the backgrou
  53:../../DaisyExamples/libDaisy/src/hid/midi.h ****          *           By default it's set to the size of the default shared rx_buffer (256 bytes).
  54:../../DaisyExamples/libDaisy/src/hid/midi.h ****          *           While much smaller sizes can be used, data can get missed if the buffer is too
  55:../../DaisyExamples/libDaisy/src/hid/midi.h ****          */
  56:../../DaisyExamples/libDaisy/src/hid/midi.h ****         size_t rx_buffer_size;
  57:../../DaisyExamples/libDaisy/src/hid/midi.h **** 
  58:../../DaisyExamples/libDaisy/src/hid/midi.h ****         Config();
  59:../../DaisyExamples/libDaisy/src/hid/midi.h ****     };
  60:../../DaisyExamples/libDaisy/src/hid/midi.h **** 
  61:../../DaisyExamples/libDaisy/src/hid/midi.h ****     /** @brief Initialization of UART using config struct */
  62:../../DaisyExamples/libDaisy/src/hid/midi.h ****     inline void Init(Config config)
  63:../../DaisyExamples/libDaisy/src/hid/midi.h ****     {
  64:../../DaisyExamples/libDaisy/src/hid/midi.h ****         UartHandler::Config uart_config;
  65:../../DaisyExamples/libDaisy/src/hid/midi.h **** 
  66:../../DaisyExamples/libDaisy/src/hid/midi.h ****         //defaults
  67:../../DaisyExamples/libDaisy/src/hid/midi.h ****         uart_config.baudrate   = 31250;
  68:../../DaisyExamples/libDaisy/src/hid/midi.h ****         uart_config.stopbits   = UartHandler::Config::StopBits::BITS_1;
  69:../../DaisyExamples/libDaisy/src/hid/midi.h ****         uart_config.parity     = UartHandler::Config::Parity::NONE;
  70:../../DaisyExamples/libDaisy/src/hid/midi.h ****         uart_config.mode       = UartHandler::Config::Mode::TX_RX;
  71:../../DaisyExamples/libDaisy/src/hid/midi.h ****         uart_config.wordlength = UartHandler::Config::WordLength::BITS_8;
  72:../../DaisyExamples/libDaisy/src/hid/midi.h **** 
  73:../../DaisyExamples/libDaisy/src/hid/midi.h ****         //user settings
  74:../../DaisyExamples/libDaisy/src/hid/midi.h ****         uart_config.periph        = config.periph;
  75:../../DaisyExamples/libDaisy/src/hid/midi.h ****         uart_config.pin_config.rx = config.rx;
  76:../../DaisyExamples/libDaisy/src/hid/midi.h ****         uart_config.pin_config.tx = config.tx;
  77:../../DaisyExamples/libDaisy/src/hid/midi.h **** 
  78:../../DaisyExamples/libDaisy/src/hid/midi.h ****         rx_buffer      = config.rx_buffer;
ARM GAS  /var/folders/hp/45mn71hd0ps5f5pnytxy5bt00000gn/T//ccIwDN9B.s 			page 5


  79:../../DaisyExamples/libDaisy/src/hid/midi.h ****         rx_buffer_size = config.rx_buffer_size;
  80:../../DaisyExamples/libDaisy/src/hid/midi.h **** 
  81:../../DaisyExamples/libDaisy/src/hid/midi.h ****         /** zero the buffer to ensure emptiness regardless of source memory */
  82:../../DaisyExamples/libDaisy/src/hid/midi.h ****         std::fill(rx_buffer, rx_buffer + rx_buffer_size, 0);
  83:../../DaisyExamples/libDaisy/src/hid/midi.h **** 
  84:../../DaisyExamples/libDaisy/src/hid/midi.h ****         uart_.Init(uart_config);
  85:../../DaisyExamples/libDaisy/src/hid/midi.h ****     }
  86:../../DaisyExamples/libDaisy/src/hid/midi.h **** 
  87:../../DaisyExamples/libDaisy/src/hid/midi.h ****     /** @brief Start the UART peripheral in listening mode.
  88:../../DaisyExamples/libDaisy/src/hid/midi.h ****      *  This will fill an internal data structure in the background */
  89:../../DaisyExamples/libDaisy/src/hid/midi.h ****     inline void StartRx(MidiRxParseCallback parse_callback, void* context)
  90:../../DaisyExamples/libDaisy/src/hid/midi.h ****     {
  91:../../DaisyExamples/libDaisy/src/hid/midi.h ****         parse_context_  = context;
  92:../../DaisyExamples/libDaisy/src/hid/midi.h ****         parse_callback_ = parse_callback;
  93:../../DaisyExamples/libDaisy/src/hid/midi.h ****         dsy_dma_clear_cache_for_buffer((uint8_t*)this,
  94:../../DaisyExamples/libDaisy/src/hid/midi.h ****                                        sizeof(MidiUartTransport));
  95:../../DaisyExamples/libDaisy/src/hid/midi.h ****         uart_.DmaListenStart(
  96:../../DaisyExamples/libDaisy/src/hid/midi.h ****             rx_buffer, rx_buffer_size, MidiUartTransport::rxCallback, this);
  97:../../DaisyExamples/libDaisy/src/hid/midi.h ****     }
  98:../../DaisyExamples/libDaisy/src/hid/midi.h **** 
  99:../../DaisyExamples/libDaisy/src/hid/midi.h ****     /** @brief returns whether the UART peripheral is actively listening in the background or not *
 100:../../DaisyExamples/libDaisy/src/hid/midi.h ****     inline bool RxActive() { return uart_.IsListening(); }
 101:../../DaisyExamples/libDaisy/src/hid/midi.h **** 
 102:../../DaisyExamples/libDaisy/src/hid/midi.h ****     /** @brief This is a no-op for UART transport - Rx is via DMA callback with circular buffer */
 103:../../DaisyExamples/libDaisy/src/hid/midi.h ****     inline void FlushRx() {}
 104:../../DaisyExamples/libDaisy/src/hid/midi.h **** 
 105:../../DaisyExamples/libDaisy/src/hid/midi.h ****     /** @brief sends the buffer of bytes out of the UART peripheral */
 106:../../DaisyExamples/libDaisy/src/hid/midi.h ****     inline void Tx(uint8_t* buff, size_t size) { uart_.PollTx(buff, size); }
 107:../../DaisyExamples/libDaisy/src/hid/midi.h **** 
 108:../../DaisyExamples/libDaisy/src/hid/midi.h ****   private:
 109:../../DaisyExamples/libDaisy/src/hid/midi.h ****     UartHandler         uart_;
 110:../../DaisyExamples/libDaisy/src/hid/midi.h ****     uint8_t*            rx_buffer;
 111:../../DaisyExamples/libDaisy/src/hid/midi.h ****     size_t              rx_buffer_size;
 112:../../DaisyExamples/libDaisy/src/hid/midi.h ****     void*               parse_context_;
 113:../../DaisyExamples/libDaisy/src/hid/midi.h ****     MidiRxParseCallback parse_callback_;
 114:../../DaisyExamples/libDaisy/src/hid/midi.h **** 
 115:../../DaisyExamples/libDaisy/src/hid/midi.h ****     /** Static callback for Uart MIDI that occurs when
 116:../../DaisyExamples/libDaisy/src/hid/midi.h ****          *  new data is available from the peripheral.
 117:../../DaisyExamples/libDaisy/src/hid/midi.h ****          *  The new data is transferred from the peripheral to the
 118:../../DaisyExamples/libDaisy/src/hid/midi.h ****          *  MIDI instance's byte FIFO that feeds the MIDI parser.
 119:../../DaisyExamples/libDaisy/src/hid/midi.h ****          *
 120:../../DaisyExamples/libDaisy/src/hid/midi.h ****          *  TODO: Handle UartHandler errors better/at all.
 121:../../DaisyExamples/libDaisy/src/hid/midi.h ****          *  (If there is a UART error, there's not really any recovery
 122:../../DaisyExamples/libDaisy/src/hid/midi.h ****          *  option at the moment)
 123:../../DaisyExamples/libDaisy/src/hid/midi.h ****          */
 124:../../DaisyExamples/libDaisy/src/hid/midi.h ****     static void rxCallback(uint8_t*            data,
 125:../../DaisyExamples/libDaisy/src/hid/midi.h ****                            size_t              size,
 126:../../DaisyExamples/libDaisy/src/hid/midi.h ****                            void*               context,
 127:../../DaisyExamples/libDaisy/src/hid/midi.h ****                            UartHandler::Result res)
 128:../../DaisyExamples/libDaisy/src/hid/midi.h ****     {
 129:../../DaisyExamples/libDaisy/src/hid/midi.h ****         /** Read context as transport type */
 130:../../DaisyExamples/libDaisy/src/hid/midi.h ****         MidiUartTransport* transport
 131:../../DaisyExamples/libDaisy/src/hid/midi.h ****             = reinterpret_cast<MidiUartTransport*>(context);
 132:../../DaisyExamples/libDaisy/src/hid/midi.h ****         if(res == UartHandler::Result::OK)
 133:../../DaisyExamples/libDaisy/src/hid/midi.h ****         {
 134:../../DaisyExamples/libDaisy/src/hid/midi.h ****             if(transport->parse_callback_)
 135:../../DaisyExamples/libDaisy/src/hid/midi.h ****             {
ARM GAS  /var/folders/hp/45mn71hd0ps5f5pnytxy5bt00000gn/T//ccIwDN9B.s 			page 6


 136:../../DaisyExamples/libDaisy/src/hid/midi.h ****                 transport->parse_callback_(
 137:../../DaisyExamples/libDaisy/src/hid/midi.h ****                     data, size, transport->parse_context_);
 138:../../DaisyExamples/libDaisy/src/hid/midi.h ****             }
 139:../../DaisyExamples/libDaisy/src/hid/midi.h ****         }
 140:../../DaisyExamples/libDaisy/src/hid/midi.h ****     }
 141:../../DaisyExamples/libDaisy/src/hid/midi.h **** };
 142:../../DaisyExamples/libDaisy/src/hid/midi.h **** 
 143:../../DaisyExamples/libDaisy/src/hid/midi.h **** /**
 144:../../DaisyExamples/libDaisy/src/hid/midi.h ****     @brief Simple MIDI Handler \n
 145:../../DaisyExamples/libDaisy/src/hid/midi.h ****     Parses bytes from an input into valid MidiEvents. \n
 146:../../DaisyExamples/libDaisy/src/hid/midi.h ****     The MidiEvents fill a FIFO queue that the user can pop messages from.
 147:../../DaisyExamples/libDaisy/src/hid/midi.h ****     @author shensley
 148:../../DaisyExamples/libDaisy/src/hid/midi.h ****     @date March 2020
 149:../../DaisyExamples/libDaisy/src/hid/midi.h ****     @ingroup midi
 150:../../DaisyExamples/libDaisy/src/hid/midi.h **** */
 151:../../DaisyExamples/libDaisy/src/hid/midi.h **** template <typename Transport>
 152:../../DaisyExamples/libDaisy/src/hid/midi.h **** class MidiHandler
 153:../../DaisyExamples/libDaisy/src/hid/midi.h **** {
 154:../../DaisyExamples/libDaisy/src/hid/midi.h ****   public:
 155:../../DaisyExamples/libDaisy/src/hid/midi.h ****     MidiHandler() {}
 156:../../DaisyExamples/libDaisy/src/hid/midi.h ****     ~MidiHandler() {}
  68              		.loc 4 156 5 view .LVU5
  69              	.LBB476:
  70              	.LBI476:
  71              		.file 5 "../../DaisyExamples/libDaisy/src/util/FIFO.h"
   1:../../DaisyExamples/libDaisy/src/util/FIFO.h **** #pragma once
   2:../../DaisyExamples/libDaisy/src/util/FIFO.h **** 
   3:../../DaisyExamples/libDaisy/src/util/FIFO.h **** #include <stdint.h>
   4:../../DaisyExamples/libDaisy/src/util/FIFO.h **** #include <stddef.h>
   5:../../DaisyExamples/libDaisy/src/util/FIFO.h **** #include <initializer_list>
   6:../../DaisyExamples/libDaisy/src/util/FIFO.h **** 
   7:../../DaisyExamples/libDaisy/src/util/FIFO.h **** namespace daisy
   8:../../DaisyExamples/libDaisy/src/util/FIFO.h **** {
   9:../../DaisyExamples/libDaisy/src/util/FIFO.h **** /** Capacity-independent base class for FIFO. Use FIFO instead. */
  10:../../DaisyExamples/libDaisy/src/util/FIFO.h **** template <typename T>
  11:../../DaisyExamples/libDaisy/src/util/FIFO.h **** class FIFOBase
  12:../../DaisyExamples/libDaisy/src/util/FIFO.h **** {
  13:../../DaisyExamples/libDaisy/src/util/FIFO.h ****   protected:
  14:../../DaisyExamples/libDaisy/src/util/FIFO.h ****     FIFOBase(T* buffer, size_t bufferSize)
  15:../../DaisyExamples/libDaisy/src/util/FIFO.h ****     : buffer_(buffer), bufferSize_(bufferSize), bufferIn_(0), bufferOut_(0)
  16:../../DaisyExamples/libDaisy/src/util/FIFO.h ****     {
  17:../../DaisyExamples/libDaisy/src/util/FIFO.h ****     }
  18:../../DaisyExamples/libDaisy/src/util/FIFO.h **** 
  19:../../DaisyExamples/libDaisy/src/util/FIFO.h ****     FIFOBase(T* buffer, size_t bufferSize, std::initializer_list<T> valuesToAdd)
  20:../../DaisyExamples/libDaisy/src/util/FIFO.h ****     : buffer_(buffer), bufferSize_(bufferSize), bufferIn_(0), bufferOut_(0)
  21:../../DaisyExamples/libDaisy/src/util/FIFO.h ****     {
  22:../../DaisyExamples/libDaisy/src/util/FIFO.h ****         PushBack(valuesToAdd);
  23:../../DaisyExamples/libDaisy/src/util/FIFO.h ****     }
  24:../../DaisyExamples/libDaisy/src/util/FIFO.h **** 
  25:../../DaisyExamples/libDaisy/src/util/FIFO.h ****   public:
  26:../../DaisyExamples/libDaisy/src/util/FIFO.h ****     /** Copies all elements from another FIFO */
  27:../../DaisyExamples/libDaisy/src/util/FIFO.h ****     FIFOBase<T>& operator=(const FIFOBase<T>& other)
  28:../../DaisyExamples/libDaisy/src/util/FIFO.h ****     {
  29:../../DaisyExamples/libDaisy/src/util/FIFO.h ****         bufferIn_ = bufferOut_ = 0;
  30:../../DaisyExamples/libDaisy/src/util/FIFO.h ****         if(!other.IsEmpty())
  31:../../DaisyExamples/libDaisy/src/util/FIFO.h ****         {
  32:../../DaisyExamples/libDaisy/src/util/FIFO.h ****             int readPtr = other.bufferOut_;
ARM GAS  /var/folders/hp/45mn71hd0ps5f5pnytxy5bt00000gn/T//ccIwDN9B.s 			page 7


  33:../../DaisyExamples/libDaisy/src/util/FIFO.h ****             while((readPtr != other.bufferIn_) && (bufferIn_ < bufferSize_))
  34:../../DaisyExamples/libDaisy/src/util/FIFO.h ****             {
  35:../../DaisyExamples/libDaisy/src/util/FIFO.h ****                 buffer_[bufferIn_++] = other.buffer_[readPtr++];
  36:../../DaisyExamples/libDaisy/src/util/FIFO.h ****                 if(readPtr >= other.bufferSize_)
  37:../../DaisyExamples/libDaisy/src/util/FIFO.h ****                     readPtr -= other.bufferSize_;
  38:../../DaisyExamples/libDaisy/src/util/FIFO.h ****             }
  39:../../DaisyExamples/libDaisy/src/util/FIFO.h ****         }
  40:../../DaisyExamples/libDaisy/src/util/FIFO.h ****         return *this;
  41:../../DaisyExamples/libDaisy/src/util/FIFO.h ****     }
  42:../../DaisyExamples/libDaisy/src/util/FIFO.h ****     ~FIFOBase() {}
  43:../../DaisyExamples/libDaisy/src/util/FIFO.h **** 
  44:../../DaisyExamples/libDaisy/src/util/FIFO.h ****     /** Removes all elements from the FIFO */
  45:../../DaisyExamples/libDaisy/src/util/FIFO.h ****     void Clear() { bufferIn_ = bufferOut_ = 0; }
  46:../../DaisyExamples/libDaisy/src/util/FIFO.h **** 
  47:../../DaisyExamples/libDaisy/src/util/FIFO.h ****     /** Adds an element to the back of the buffer, returning true on
  48:../../DaisyExamples/libDaisy/src/util/FIFO.h ****         success */
  49:../../DaisyExamples/libDaisy/src/util/FIFO.h ****     bool PushBack(const T& elementToAdd)
  50:../../DaisyExamples/libDaisy/src/util/FIFO.h ****     {
  51:../../DaisyExamples/libDaisy/src/util/FIFO.h ****         if(!IsFull())
  52:../../DaisyExamples/libDaisy/src/util/FIFO.h ****         {
  53:../../DaisyExamples/libDaisy/src/util/FIFO.h ****             buffer_[bufferIn_++] = elementToAdd;
  54:../../DaisyExamples/libDaisy/src/util/FIFO.h ****             if(bufferIn_ >= bufferSize_)
  55:../../DaisyExamples/libDaisy/src/util/FIFO.h ****                 bufferIn_ -= bufferSize_;
  56:../../DaisyExamples/libDaisy/src/util/FIFO.h ****             return true;
  57:../../DaisyExamples/libDaisy/src/util/FIFO.h ****         }
  58:../../DaisyExamples/libDaisy/src/util/FIFO.h ****         return false;
  59:../../DaisyExamples/libDaisy/src/util/FIFO.h ****     }
  60:../../DaisyExamples/libDaisy/src/util/FIFO.h **** 
  61:../../DaisyExamples/libDaisy/src/util/FIFO.h ****     /** Adds multiple elements and returns the number of elements that were added */
  62:../../DaisyExamples/libDaisy/src/util/FIFO.h ****     int PushBack(std::initializer_list<T> valuesToAdd)
  63:../../DaisyExamples/libDaisy/src/util/FIFO.h ****     {
  64:../../DaisyExamples/libDaisy/src/util/FIFO.h ****         int numAdded = 0;
  65:../../DaisyExamples/libDaisy/src/util/FIFO.h ****         for(const auto& v : valuesToAdd)
  66:../../DaisyExamples/libDaisy/src/util/FIFO.h ****         {
  67:../../DaisyExamples/libDaisy/src/util/FIFO.h ****             if(IsFull())
  68:../../DaisyExamples/libDaisy/src/util/FIFO.h ****                 return numAdded;
  69:../../DaisyExamples/libDaisy/src/util/FIFO.h **** 
  70:../../DaisyExamples/libDaisy/src/util/FIFO.h ****             PushBack(v);
  71:../../DaisyExamples/libDaisy/src/util/FIFO.h ****             numAdded++;
  72:../../DaisyExamples/libDaisy/src/util/FIFO.h ****         }
  73:../../DaisyExamples/libDaisy/src/util/FIFO.h ****         return numAdded;
  74:../../DaisyExamples/libDaisy/src/util/FIFO.h ****     }
  75:../../DaisyExamples/libDaisy/src/util/FIFO.h **** 
  76:../../DaisyExamples/libDaisy/src/util/FIFO.h ****     /** returns a reference to the last element */
  77:../../DaisyExamples/libDaisy/src/util/FIFO.h ****     T& Back()
  78:../../DaisyExamples/libDaisy/src/util/FIFO.h ****     {
  79:../../DaisyExamples/libDaisy/src/util/FIFO.h ****         if(IsEmpty())
  80:../../DaisyExamples/libDaisy/src/util/FIFO.h ****             // invalid, but better not pass a temporary T() object as a reference...
  81:../../DaisyExamples/libDaisy/src/util/FIFO.h ****             return buffer_[0];
  82:../../DaisyExamples/libDaisy/src/util/FIFO.h ****         int idx = bufferIn_ - 1;
  83:../../DaisyExamples/libDaisy/src/util/FIFO.h ****         if(idx < 0)
  84:../../DaisyExamples/libDaisy/src/util/FIFO.h ****             idx += bufferSize_;
  85:../../DaisyExamples/libDaisy/src/util/FIFO.h ****         return buffer_[idx];
  86:../../DaisyExamples/libDaisy/src/util/FIFO.h ****     }
  87:../../DaisyExamples/libDaisy/src/util/FIFO.h **** 
  88:../../DaisyExamples/libDaisy/src/util/FIFO.h ****     /** returns a reference to the last element */
  89:../../DaisyExamples/libDaisy/src/util/FIFO.h ****     const T& Back() const
ARM GAS  /var/folders/hp/45mn71hd0ps5f5pnytxy5bt00000gn/T//ccIwDN9B.s 			page 8


  90:../../DaisyExamples/libDaisy/src/util/FIFO.h ****     {
  91:../../DaisyExamples/libDaisy/src/util/FIFO.h ****         if(IsEmpty())
  92:../../DaisyExamples/libDaisy/src/util/FIFO.h ****             // invalid, but better not pass a temporary T() object as a reference...
  93:../../DaisyExamples/libDaisy/src/util/FIFO.h ****             return buffer_[0];
  94:../../DaisyExamples/libDaisy/src/util/FIFO.h ****         int idx = bufferIn_ - 1;
  95:../../DaisyExamples/libDaisy/src/util/FIFO.h ****         if(idx < 0)
  96:../../DaisyExamples/libDaisy/src/util/FIFO.h ****             idx += bufferSize_;
  97:../../DaisyExamples/libDaisy/src/util/FIFO.h ****         return buffer_[idx];
  98:../../DaisyExamples/libDaisy/src/util/FIFO.h ****     }
  99:../../DaisyExamples/libDaisy/src/util/FIFO.h **** 
 100:../../DaisyExamples/libDaisy/src/util/FIFO.h ****     /** removes and returns an element from the front of the buffer */
 101:../../DaisyExamples/libDaisy/src/util/FIFO.h ****     T PopFront()
 102:../../DaisyExamples/libDaisy/src/util/FIFO.h ****     {
 103:../../DaisyExamples/libDaisy/src/util/FIFO.h ****         if(IsEmpty())
 104:../../DaisyExamples/libDaisy/src/util/FIFO.h ****             return T();
 105:../../DaisyExamples/libDaisy/src/util/FIFO.h ****         else
 106:../../DaisyExamples/libDaisy/src/util/FIFO.h ****         {
 107:../../DaisyExamples/libDaisy/src/util/FIFO.h ****             const auto result = buffer_[bufferOut_];
 108:../../DaisyExamples/libDaisy/src/util/FIFO.h ****             bufferOut_++;
 109:../../DaisyExamples/libDaisy/src/util/FIFO.h ****             if(bufferOut_ >= bufferSize_)
 110:../../DaisyExamples/libDaisy/src/util/FIFO.h ****                 bufferOut_ -= bufferSize_;
 111:../../DaisyExamples/libDaisy/src/util/FIFO.h ****             return result;
 112:../../DaisyExamples/libDaisy/src/util/FIFO.h ****         }
 113:../../DaisyExamples/libDaisy/src/util/FIFO.h ****     }
 114:../../DaisyExamples/libDaisy/src/util/FIFO.h **** 
 115:../../DaisyExamples/libDaisy/src/util/FIFO.h ****     /** returns a copy of the first element */
 116:../../DaisyExamples/libDaisy/src/util/FIFO.h ****     T& Front()
 117:../../DaisyExamples/libDaisy/src/util/FIFO.h ****     {
 118:../../DaisyExamples/libDaisy/src/util/FIFO.h ****         if(IsEmpty())
 119:../../DaisyExamples/libDaisy/src/util/FIFO.h ****             // invalid, but better not pass a temporary T() object as a reference...
 120:../../DaisyExamples/libDaisy/src/util/FIFO.h ****             return buffer_[0];
 121:../../DaisyExamples/libDaisy/src/util/FIFO.h ****         return buffer_[bufferOut_];
 122:../../DaisyExamples/libDaisy/src/util/FIFO.h ****     }
 123:../../DaisyExamples/libDaisy/src/util/FIFO.h **** 
 124:../../DaisyExamples/libDaisy/src/util/FIFO.h ****     /** returns a reference to the first element */
 125:../../DaisyExamples/libDaisy/src/util/FIFO.h ****     const T& Front() const
 126:../../DaisyExamples/libDaisy/src/util/FIFO.h ****     {
 127:../../DaisyExamples/libDaisy/src/util/FIFO.h ****         if(IsEmpty())
 128:../../DaisyExamples/libDaisy/src/util/FIFO.h ****             // invalid, but better not pass a temporary T() object as a reference...
 129:../../DaisyExamples/libDaisy/src/util/FIFO.h ****             return buffer_[0];
 130:../../DaisyExamples/libDaisy/src/util/FIFO.h ****         return buffer_[bufferOut_];
 131:../../DaisyExamples/libDaisy/src/util/FIFO.h ****     }
 132:../../DaisyExamples/libDaisy/src/util/FIFO.h **** 
 133:../../DaisyExamples/libDaisy/src/util/FIFO.h ****     /** Returns true if the buffer contains an element equal to the provided value */
 134:../../DaisyExamples/libDaisy/src/util/FIFO.h ****     bool Contains(const T& element)
 135:../../DaisyExamples/libDaisy/src/util/FIFO.h ****     {
 136:../../DaisyExamples/libDaisy/src/util/FIFO.h ****         auto idx = bufferOut_;
 137:../../DaisyExamples/libDaisy/src/util/FIFO.h ****         while(idx != bufferIn_)
 138:../../DaisyExamples/libDaisy/src/util/FIFO.h ****         {
 139:../../DaisyExamples/libDaisy/src/util/FIFO.h ****             if(buffer_[idx] == element)
 140:../../DaisyExamples/libDaisy/src/util/FIFO.h ****                 return true;
 141:../../DaisyExamples/libDaisy/src/util/FIFO.h ****             idx++;
 142:../../DaisyExamples/libDaisy/src/util/FIFO.h ****             if(idx >= bufferSize_)
 143:../../DaisyExamples/libDaisy/src/util/FIFO.h ****                 idx -= bufferSize_;
 144:../../DaisyExamples/libDaisy/src/util/FIFO.h ****         }
 145:../../DaisyExamples/libDaisy/src/util/FIFO.h ****         return false;
 146:../../DaisyExamples/libDaisy/src/util/FIFO.h ****     }
ARM GAS  /var/folders/hp/45mn71hd0ps5f5pnytxy5bt00000gn/T//ccIwDN9B.s 			page 9


 147:../../DaisyExamples/libDaisy/src/util/FIFO.h **** 
 148:../../DaisyExamples/libDaisy/src/util/FIFO.h ****     /** Returns the number of elements in the buffer that are equal to the provided value */
 149:../../DaisyExamples/libDaisy/src/util/FIFO.h ****     size_t CountEqualTo(const T& element)
 150:../../DaisyExamples/libDaisy/src/util/FIFO.h ****     {
 151:../../DaisyExamples/libDaisy/src/util/FIFO.h ****         size_t result = 0;
 152:../../DaisyExamples/libDaisy/src/util/FIFO.h ****         size_t idx    = bufferOut_;
 153:../../DaisyExamples/libDaisy/src/util/FIFO.h ****         while(idx != bufferIn_)
 154:../../DaisyExamples/libDaisy/src/util/FIFO.h ****         {
 155:../../DaisyExamples/libDaisy/src/util/FIFO.h ****             if(buffer_[idx] == element)
 156:../../DaisyExamples/libDaisy/src/util/FIFO.h ****                 result++;
 157:../../DaisyExamples/libDaisy/src/util/FIFO.h ****             idx++;
 158:../../DaisyExamples/libDaisy/src/util/FIFO.h ****             if(idx >= bufferSize_)
 159:../../DaisyExamples/libDaisy/src/util/FIFO.h ****                 idx -= bufferSize_;
 160:../../DaisyExamples/libDaisy/src/util/FIFO.h ****         }
 161:../../DaisyExamples/libDaisy/src/util/FIFO.h ****         return result;
 162:../../DaisyExamples/libDaisy/src/util/FIFO.h ****     }
 163:../../DaisyExamples/libDaisy/src/util/FIFO.h **** 
 164:../../DaisyExamples/libDaisy/src/util/FIFO.h ****     /** returns true, if the buffer is empty */
 165:../../DaisyExamples/libDaisy/src/util/FIFO.h ****     bool IsEmpty() const { return bufferIn_ == bufferOut_; }
 166:../../DaisyExamples/libDaisy/src/util/FIFO.h **** 
 167:../../DaisyExamples/libDaisy/src/util/FIFO.h ****     /** returns true, if the buffer is Full */
 168:../../DaisyExamples/libDaisy/src/util/FIFO.h ****     bool IsFull() const { return GetNumElements() == bufferSize_ - 1; }
 169:../../DaisyExamples/libDaisy/src/util/FIFO.h **** 
 170:../../DaisyExamples/libDaisy/src/util/FIFO.h ****     /** returns the number of elements in the buffer */
 171:../../DaisyExamples/libDaisy/src/util/FIFO.h ****     size_t GetNumElements() const
 172:../../DaisyExamples/libDaisy/src/util/FIFO.h ****     {
 173:../../DaisyExamples/libDaisy/src/util/FIFO.h ****         int32_t numElements = bufferIn_ - bufferOut_;
 174:../../DaisyExamples/libDaisy/src/util/FIFO.h ****         if(numElements < 0)
 175:../../DaisyExamples/libDaisy/src/util/FIFO.h ****             numElements += bufferSize_;
 176:../../DaisyExamples/libDaisy/src/util/FIFO.h ****         return size_t(numElements);
 177:../../DaisyExamples/libDaisy/src/util/FIFO.h ****     }
 178:../../DaisyExamples/libDaisy/src/util/FIFO.h **** 
 179:../../DaisyExamples/libDaisy/src/util/FIFO.h ****     /** inserts an element "idx" positions behind the first element and returns true if successful 
 180:../../DaisyExamples/libDaisy/src/util/FIFO.h ****     bool Insert(size_t idx, const T& element)
 181:../../DaisyExamples/libDaisy/src/util/FIFO.h ****     {
 182:../../DaisyExamples/libDaisy/src/util/FIFO.h ****         if(idx > GetNumElements())
 183:../../DaisyExamples/libDaisy/src/util/FIFO.h ****             return false;
 184:../../DaisyExamples/libDaisy/src/util/FIFO.h ****         if(IsFull())
 185:../../DaisyExamples/libDaisy/src/util/FIFO.h ****             return false;
 186:../../DaisyExamples/libDaisy/src/util/FIFO.h ****         if(idx == GetNumElements())
 187:../../DaisyExamples/libDaisy/src/util/FIFO.h ****         {
 188:../../DaisyExamples/libDaisy/src/util/FIFO.h ****             PushBack(element);
 189:../../DaisyExamples/libDaisy/src/util/FIFO.h ****             return true;
 190:../../DaisyExamples/libDaisy/src/util/FIFO.h ****         }
 191:../../DaisyExamples/libDaisy/src/util/FIFO.h ****         // copy last element
 192:../../DaisyExamples/libDaisy/src/util/FIFO.h ****         PushBack(Back());
 193:../../DaisyExamples/libDaisy/src/util/FIFO.h ****         // move remaining elements: n => n+1
 194:../../DaisyExamples/libDaisy/src/util/FIFO.h ****         for(int i = GetNumElements() - 2; i > int(idx); i--)
 195:../../DaisyExamples/libDaisy/src/util/FIFO.h ****             (*this)[i] = (*this)[i - 1];
 196:../../DaisyExamples/libDaisy/src/util/FIFO.h ****         // insert element
 197:../../DaisyExamples/libDaisy/src/util/FIFO.h ****         (*this)[idx] = element;
 198:../../DaisyExamples/libDaisy/src/util/FIFO.h ****         return true;
 199:../../DaisyExamples/libDaisy/src/util/FIFO.h ****     }
 200:../../DaisyExamples/libDaisy/src/util/FIFO.h **** 
 201:../../DaisyExamples/libDaisy/src/util/FIFO.h ****     /** removes the element "idx" positions behind the first element 
 202:../../DaisyExamples/libDaisy/src/util/FIFO.h ****      *  and returns true if successful */
 203:../../DaisyExamples/libDaisy/src/util/FIFO.h ****     bool Remove(size_t idx)
ARM GAS  /var/folders/hp/45mn71hd0ps5f5pnytxy5bt00000gn/T//ccIwDN9B.s 			page 10


 204:../../DaisyExamples/libDaisy/src/util/FIFO.h ****     {
 205:../../DaisyExamples/libDaisy/src/util/FIFO.h ****         if(idx >= GetNumElements())
 206:../../DaisyExamples/libDaisy/src/util/FIFO.h ****             return false;
 207:../../DaisyExamples/libDaisy/src/util/FIFO.h **** 
 208:../../DaisyExamples/libDaisy/src/util/FIFO.h ****         size_t index = bufferOut_ + idx;
 209:../../DaisyExamples/libDaisy/src/util/FIFO.h ****         if(index >= bufferSize_)
 210:../../DaisyExamples/libDaisy/src/util/FIFO.h ****             index -= bufferSize_;
 211:../../DaisyExamples/libDaisy/src/util/FIFO.h ****         size_t nextIndex = index + 1;
 212:../../DaisyExamples/libDaisy/src/util/FIFO.h ****         if(nextIndex >= bufferSize_)
 213:../../DaisyExamples/libDaisy/src/util/FIFO.h ****             nextIndex -= bufferSize_;
 214:../../DaisyExamples/libDaisy/src/util/FIFO.h **** 
 215:../../DaisyExamples/libDaisy/src/util/FIFO.h ****         while(nextIndex != bufferIn_)
 216:../../DaisyExamples/libDaisy/src/util/FIFO.h ****         {
 217:../../DaisyExamples/libDaisy/src/util/FIFO.h ****             buffer_[index] = buffer_[nextIndex];
 218:../../DaisyExamples/libDaisy/src/util/FIFO.h ****             index++;
 219:../../DaisyExamples/libDaisy/src/util/FIFO.h ****             nextIndex++;
 220:../../DaisyExamples/libDaisy/src/util/FIFO.h ****             if(index >= bufferSize_)
 221:../../DaisyExamples/libDaisy/src/util/FIFO.h ****                 index -= bufferSize_;
 222:../../DaisyExamples/libDaisy/src/util/FIFO.h ****             if(nextIndex >= bufferSize_)
 223:../../DaisyExamples/libDaisy/src/util/FIFO.h ****                 nextIndex -= bufferSize_;
 224:../../DaisyExamples/libDaisy/src/util/FIFO.h ****         }
 225:../../DaisyExamples/libDaisy/src/util/FIFO.h **** 
 226:../../DaisyExamples/libDaisy/src/util/FIFO.h ****         int32_t nextBufferIn = int32_t(bufferIn_) - 1;
 227:../../DaisyExamples/libDaisy/src/util/FIFO.h ****         if(nextBufferIn < 0)
 228:../../DaisyExamples/libDaisy/src/util/FIFO.h ****             nextBufferIn += bufferSize_;
 229:../../DaisyExamples/libDaisy/src/util/FIFO.h ****         bufferIn_ = size_t(nextBufferIn);
 230:../../DaisyExamples/libDaisy/src/util/FIFO.h **** 
 231:../../DaisyExamples/libDaisy/src/util/FIFO.h ****         return true;
 232:../../DaisyExamples/libDaisy/src/util/FIFO.h ****     }
 233:../../DaisyExamples/libDaisy/src/util/FIFO.h **** 
 234:../../DaisyExamples/libDaisy/src/util/FIFO.h ****     /** removes all elements from the buffer for which
 235:../../DaisyExamples/libDaisy/src/util/FIFO.h ****         (buffer(index) == element) returns true and returns the number of
 236:../../DaisyExamples/libDaisy/src/util/FIFO.h ****         elements that were removed. */
 237:../../DaisyExamples/libDaisy/src/util/FIFO.h ****     size_t RemoveAllEqualTo(const T& element)
 238:../../DaisyExamples/libDaisy/src/util/FIFO.h ****     {
 239:../../DaisyExamples/libDaisy/src/util/FIFO.h ****         size_t numRemoved = 0;
 240:../../DaisyExamples/libDaisy/src/util/FIFO.h ****         int    idx        = GetNumElements() - 1;
 241:../../DaisyExamples/libDaisy/src/util/FIFO.h ****         while(idx >= 0)
 242:../../DaisyExamples/libDaisy/src/util/FIFO.h ****         {
 243:../../DaisyExamples/libDaisy/src/util/FIFO.h ****             if((*this)[idx] == element)
 244:../../DaisyExamples/libDaisy/src/util/FIFO.h ****             {
 245:../../DaisyExamples/libDaisy/src/util/FIFO.h ****                 numRemoved++;
 246:../../DaisyExamples/libDaisy/src/util/FIFO.h ****                 Remove(idx);
 247:../../DaisyExamples/libDaisy/src/util/FIFO.h ****                 // was that the last element?
 248:../../DaisyExamples/libDaisy/src/util/FIFO.h ****                 if(idx == int(GetNumElements()) - 1)
 249:../../DaisyExamples/libDaisy/src/util/FIFO.h ****                     idx--;
 250:../../DaisyExamples/libDaisy/src/util/FIFO.h ****             }
 251:../../DaisyExamples/libDaisy/src/util/FIFO.h ****             else
 252:../../DaisyExamples/libDaisy/src/util/FIFO.h ****                 idx--;
 253:../../DaisyExamples/libDaisy/src/util/FIFO.h ****         }
 254:../../DaisyExamples/libDaisy/src/util/FIFO.h ****         return numRemoved;
 255:../../DaisyExamples/libDaisy/src/util/FIFO.h ****     }
 256:../../DaisyExamples/libDaisy/src/util/FIFO.h **** 
 257:../../DaisyExamples/libDaisy/src/util/FIFO.h ****     /** returns the element "idx" positions behind the first element */
 258:../../DaisyExamples/libDaisy/src/util/FIFO.h ****     T& operator[](size_t idx)
 259:../../DaisyExamples/libDaisy/src/util/FIFO.h ****     {
 260:../../DaisyExamples/libDaisy/src/util/FIFO.h ****         if(idx >= GetNumElements())
ARM GAS  /var/folders/hp/45mn71hd0ps5f5pnytxy5bt00000gn/T//ccIwDN9B.s 			page 11


 261:../../DaisyExamples/libDaisy/src/util/FIFO.h ****             // invalid, but better not pass a temporary T() object as a reference...
 262:../../DaisyExamples/libDaisy/src/util/FIFO.h ****             return buffer_[0];
 263:../../DaisyExamples/libDaisy/src/util/FIFO.h **** 
 264:../../DaisyExamples/libDaisy/src/util/FIFO.h ****         size_t index = bufferOut_ + idx;
 265:../../DaisyExamples/libDaisy/src/util/FIFO.h ****         if(index >= bufferSize_)
 266:../../DaisyExamples/libDaisy/src/util/FIFO.h ****             index -= bufferSize_;
 267:../../DaisyExamples/libDaisy/src/util/FIFO.h ****         return buffer_[index];
 268:../../DaisyExamples/libDaisy/src/util/FIFO.h ****     }
 269:../../DaisyExamples/libDaisy/src/util/FIFO.h **** 
 270:../../DaisyExamples/libDaisy/src/util/FIFO.h ****     /** returns the element "idx" positions behind the first element */
 271:../../DaisyExamples/libDaisy/src/util/FIFO.h ****     const T& operator[](size_t idx) const
 272:../../DaisyExamples/libDaisy/src/util/FIFO.h ****     {
 273:../../DaisyExamples/libDaisy/src/util/FIFO.h ****         if(idx >= GetNumElements())
 274:../../DaisyExamples/libDaisy/src/util/FIFO.h ****             // invalid, but better not pass a temporary T() object as a reference...
 275:../../DaisyExamples/libDaisy/src/util/FIFO.h ****             return buffer_[0];
 276:../../DaisyExamples/libDaisy/src/util/FIFO.h **** 
 277:../../DaisyExamples/libDaisy/src/util/FIFO.h ****         size_t index = bufferOut_ + idx;
 278:../../DaisyExamples/libDaisy/src/util/FIFO.h ****         if(index >= bufferSize_)
 279:../../DaisyExamples/libDaisy/src/util/FIFO.h ****             index -= bufferSize_;
 280:../../DaisyExamples/libDaisy/src/util/FIFO.h ****         return buffer_[index];
 281:../../DaisyExamples/libDaisy/src/util/FIFO.h ****     }
 282:../../DaisyExamples/libDaisy/src/util/FIFO.h **** 
 283:../../DaisyExamples/libDaisy/src/util/FIFO.h ****     /** returns the total capacity */
 284:../../DaisyExamples/libDaisy/src/util/FIFO.h ****     size_t GetCapacity() const { return bufferSize_ - 1; }
 285:../../DaisyExamples/libDaisy/src/util/FIFO.h **** 
 286:../../DaisyExamples/libDaisy/src/util/FIFO.h ****   private:
 287:../../DaisyExamples/libDaisy/src/util/FIFO.h ****     FIFOBase(const FIFOBase<T>&) {} // non copyable
 288:../../DaisyExamples/libDaisy/src/util/FIFO.h **** 
 289:../../DaisyExamples/libDaisy/src/util/FIFO.h ****   private:
 290:../../DaisyExamples/libDaisy/src/util/FIFO.h ****     T*           buffer_;
 291:../../DaisyExamples/libDaisy/src/util/FIFO.h ****     const size_t bufferSize_;
 292:../../DaisyExamples/libDaisy/src/util/FIFO.h ****     size_t       bufferIn_;
 293:../../DaisyExamples/libDaisy/src/util/FIFO.h ****     size_t       bufferOut_;
 294:../../DaisyExamples/libDaisy/src/util/FIFO.h **** };
 295:../../DaisyExamples/libDaisy/src/util/FIFO.h **** 
 296:../../DaisyExamples/libDaisy/src/util/FIFO.h **** /** A simple FIFO ring buffer with a fixed size. */
 297:../../DaisyExamples/libDaisy/src/util/FIFO.h **** template <typename T, size_t capacity>
 298:../../DaisyExamples/libDaisy/src/util/FIFO.h **** class FIFO : public FIFOBase<T>
  72              		.loc 5 298 7 view .LVU6
  73              	.LBB477:
  74              	.LBI477:
  42:../../DaisyExamples/libDaisy/src/util/FIFO.h **** 
  75              		.loc 5 42 5 view .LVU7
  42:../../DaisyExamples/libDaisy/src/util/FIFO.h **** 
  76              		.loc 5 42 5 is_stmt 0 view .LVU8
  77              	.LBE477:
  78              	.LBE476:
  79              	.LBB478:
  80              	.LBI478:
  81              		.file 6 "../../DaisyExamples/libDaisy/src/hid/midi_parser.h"
   1:../../DaisyExamples/libDaisy/src/hid/midi_parser.h **** #pragma once
   2:../../DaisyExamples/libDaisy/src/hid/midi_parser.h **** #ifndef DSY_MIDI_PARSER_H
   3:../../DaisyExamples/libDaisy/src/hid/midi_parser.h **** #define DSY_MIDI_PARSER_H
   4:../../DaisyExamples/libDaisy/src/hid/midi_parser.h **** 
   5:../../DaisyExamples/libDaisy/src/hid/midi_parser.h **** #include <stdint.h>
   6:../../DaisyExamples/libDaisy/src/hid/midi_parser.h **** #include <stdlib.h>
   7:../../DaisyExamples/libDaisy/src/hid/midi_parser.h **** #include "hid/MidiEvent.h"
ARM GAS  /var/folders/hp/45mn71hd0ps5f5pnytxy5bt00000gn/T//ccIwDN9B.s 			page 12


   8:../../DaisyExamples/libDaisy/src/hid/midi_parser.h **** 
   9:../../DaisyExamples/libDaisy/src/hid/midi_parser.h **** namespace daisy
  10:../../DaisyExamples/libDaisy/src/hid/midi_parser.h **** {
  11:../../DaisyExamples/libDaisy/src/hid/midi_parser.h **** /** @brief   Utility class for parsing raw byte streams into MIDI messages
  12:../../DaisyExamples/libDaisy/src/hid/midi_parser.h ****  *  @details Implemented as a state machine designed to parse one byte at a time
  13:../../DaisyExamples/libDaisy/src/hid/midi_parser.h ****  *  @ingroup midi
  14:../../DaisyExamples/libDaisy/src/hid/midi_parser.h ****  */
  15:../../DaisyExamples/libDaisy/src/hid/midi_parser.h **** class MidiParser
  16:../../DaisyExamples/libDaisy/src/hid/midi_parser.h **** {
  17:../../DaisyExamples/libDaisy/src/hid/midi_parser.h ****   public:
  18:../../DaisyExamples/libDaisy/src/hid/midi_parser.h ****     MidiParser(){};
  19:../../DaisyExamples/libDaisy/src/hid/midi_parser.h ****     ~MidiParser() {}
  82              		.loc 6 19 5 is_stmt 1 view .LVU9
  83              		.loc 6 19 5 is_stmt 0 view .LVU10
  84              	.LBE478:
  85              	.LBB479:
  86              	.LBI479:
  32:../../DaisyExamples/libDaisy/src/hid/midi.h **** 
  87              		.loc 4 32 5 is_stmt 1 view .LVU11
  32:../../DaisyExamples/libDaisy/src/hid/midi.h **** 
  88              		.loc 4 32 5 is_stmt 0 view .LVU12
  89              	.LBE479:
  90              	.LBE475:
  91              	.LBB480:
  92              	.LBI480:
  93              		.file 7 "../../DaisyExamples/libDaisy/src/hid/rgb_led.h"
   1:../../DaisyExamples/libDaisy/src/hid/rgb_led.h **** #pragma once
   2:../../DaisyExamples/libDaisy/src/hid/rgb_led.h **** #ifndef DSY_RGB_LED_H
   3:../../DaisyExamples/libDaisy/src/hid/rgb_led.h **** #define DSY_RGB_LED_H
   4:../../DaisyExamples/libDaisy/src/hid/rgb_led.h **** #include "hid/led.h"
   5:../../DaisyExamples/libDaisy/src/hid/rgb_led.h **** #include "util/color.h"
   6:../../DaisyExamples/libDaisy/src/hid/rgb_led.h **** 
   7:../../DaisyExamples/libDaisy/src/hid/rgb_led.h **** namespace daisy
   8:../../DaisyExamples/libDaisy/src/hid/rgb_led.h **** {
   9:../../DaisyExamples/libDaisy/src/hid/rgb_led.h **** /** @addtogroup feedback
  10:../../DaisyExamples/libDaisy/src/hid/rgb_led.h ****     @{
  11:../../DaisyExamples/libDaisy/src/hid/rgb_led.h **** */
  12:../../DaisyExamples/libDaisy/src/hid/rgb_led.h **** 
  13:../../DaisyExamples/libDaisy/src/hid/rgb_led.h **** /** 3x LEDs configured as an RGB for ease of use. */
  14:../../DaisyExamples/libDaisy/src/hid/rgb_led.h **** class RgbLed
  15:../../DaisyExamples/libDaisy/src/hid/rgb_led.h **** {
  16:../../DaisyExamples/libDaisy/src/hid/rgb_led.h ****   public:
  17:../../DaisyExamples/libDaisy/src/hid/rgb_led.h ****     RgbLed() {}
  18:../../DaisyExamples/libDaisy/src/hid/rgb_led.h ****     ~RgbLed() {}
  94              		.loc 7 18 5 is_stmt 1 view .LVU13
  95              	.LBB481:
  96              	.LBI481:
  97              		.file 8 "../../DaisyExamples/libDaisy/src/hid/led.h"
   1:../../DaisyExamples/libDaisy/src/hid/led.h **** 
   2:../../DaisyExamples/libDaisy/src/hid/led.h **** #pragma once
   3:../../DaisyExamples/libDaisy/src/hid/led.h **** #ifndef DSY_LED_H
   4:../../DaisyExamples/libDaisy/src/hid/led.h **** #define DSY_LED_H
   5:../../DaisyExamples/libDaisy/src/hid/led.h **** #include "daisy_core.h"
   6:../../DaisyExamples/libDaisy/src/hid/led.h **** #include "per/gpio.h"
   7:../../DaisyExamples/libDaisy/src/hid/led.h **** 
   8:../../DaisyExamples/libDaisy/src/hid/led.h **** /* TODO - Get this set up to work with the dev_leddriver stuff as well
   9:../../DaisyExamples/libDaisy/src/hid/led.h **** - Setup Hardware PWM for pins that have it
ARM GAS  /var/folders/hp/45mn71hd0ps5f5pnytxy5bt00000gn/T//ccIwDN9B.s 			page 13


  10:../../DaisyExamples/libDaisy/src/hid/led.h **** */
  11:../../DaisyExamples/libDaisy/src/hid/led.h **** 
  12:../../DaisyExamples/libDaisy/src/hid/led.h **** namespace daisy
  13:../../DaisyExamples/libDaisy/src/hid/led.h **** {
  14:../../DaisyExamples/libDaisy/src/hid/led.h **** /**
  15:../../DaisyExamples/libDaisy/src/hid/led.h ****     @brief LED Class providing simple Software PWM ability, etc \n 
  16:../../DaisyExamples/libDaisy/src/hid/led.h ****     Eventually this will work with hardware PWM, and external LED Driver devices as well.
  17:../../DaisyExamples/libDaisy/src/hid/led.h ****     @author shensley
  18:../../DaisyExamples/libDaisy/src/hid/led.h ****     @date March 2020
  19:../../DaisyExamples/libDaisy/src/hid/led.h ****     @ingroup feedback
  20:../../DaisyExamples/libDaisy/src/hid/led.h **** */
  21:../../DaisyExamples/libDaisy/src/hid/led.h **** class Led
  22:../../DaisyExamples/libDaisy/src/hid/led.h **** {
  23:../../DaisyExamples/libDaisy/src/hid/led.h ****   public:
  24:../../DaisyExamples/libDaisy/src/hid/led.h ****     Led() {}
  25:../../DaisyExamples/libDaisy/src/hid/led.h ****     ~Led() {}
  98              		.loc 8 25 5 view .LVU14
  99              		.loc 8 25 5 is_stmt 0 view .LVU15
 100              	.LBE481:
 101              	.LBB482:
 102              	.LBI482:
 103              		.loc 8 25 5 is_stmt 1 view .LVU16
 104              		.loc 8 25 5 is_stmt 0 view .LVU17
 105              	.LBE482:
 106              	.LBB483:
 107              	.LBI483:
 108              		.loc 8 25 5 is_stmt 1 view .LVU18
 109              		.loc 8 25 5 is_stmt 0 view .LVU19
 110              	.LBE483:
 111              	.LBE480:
 112              	.LBB484:
 113              	.LBI484:
 114              		.loc 7 18 5 is_stmt 1 view .LVU20
 115              	.LBB485:
 116              	.LBI485:
 117              		.loc 8 25 5 view .LVU21
 118              		.loc 8 25 5 is_stmt 0 view .LVU22
 119              	.LBE485:
 120              	.LBB486:
 121              	.LBI486:
 122              		.loc 8 25 5 is_stmt 1 view .LVU23
 123              		.loc 8 25 5 is_stmt 0 view .LVU24
 124              	.LBE486:
 125              	.LBB487:
 126              	.LBI487:
 127              		.loc 8 25 5 is_stmt 1 view .LVU25
 128              		.loc 8 25 5 is_stmt 0 view .LVU26
 129              	.LBE487:
 130              	.LBE484:
 131              	.LBB488:
 132              	.LBI488:
 133              		.file 9 "../../DaisyExamples/libDaisy/src/hid/switch.h"
   1:../../DaisyExamples/libDaisy/src/hid/switch.h **** #pragma once
   2:../../DaisyExamples/libDaisy/src/hid/switch.h **** #ifndef DSY_SWITCH_H
   3:../../DaisyExamples/libDaisy/src/hid/switch.h **** #define DSY_SWITCH_H
   4:../../DaisyExamples/libDaisy/src/hid/switch.h **** #include "daisy_core.h"
   5:../../DaisyExamples/libDaisy/src/hid/switch.h **** #include "per/gpio.h"
ARM GAS  /var/folders/hp/45mn71hd0ps5f5pnytxy5bt00000gn/T//ccIwDN9B.s 			page 14


   6:../../DaisyExamples/libDaisy/src/hid/switch.h **** #include "sys/system.h"
   7:../../DaisyExamples/libDaisy/src/hid/switch.h **** 
   8:../../DaisyExamples/libDaisy/src/hid/switch.h **** namespace daisy
   9:../../DaisyExamples/libDaisy/src/hid/switch.h **** {
  10:../../DaisyExamples/libDaisy/src/hid/switch.h **** /** 
  11:../../DaisyExamples/libDaisy/src/hid/switch.h ****     Generic Class for handling momentary/latching switches \n 
  12:../../DaisyExamples/libDaisy/src/hid/switch.h ****     Inspired/influenced by Mutable Instruments (pichenettes) Switch classes
  13:../../DaisyExamples/libDaisy/src/hid/switch.h ****     @author Stephen Hensley
  14:../../DaisyExamples/libDaisy/src/hid/switch.h ****     @date December 2019
  15:../../DaisyExamples/libDaisy/src/hid/switch.h ****     @ingroup controls
  16:../../DaisyExamples/libDaisy/src/hid/switch.h **** */
  17:../../DaisyExamples/libDaisy/src/hid/switch.h **** class Switch
  18:../../DaisyExamples/libDaisy/src/hid/switch.h **** {
  19:../../DaisyExamples/libDaisy/src/hid/switch.h ****   public:
  20:../../DaisyExamples/libDaisy/src/hid/switch.h ****     /** Specifies the expected behavior of the switch */
  21:../../DaisyExamples/libDaisy/src/hid/switch.h ****     enum Type
  22:../../DaisyExamples/libDaisy/src/hid/switch.h ****     {
  23:../../DaisyExamples/libDaisy/src/hid/switch.h ****         TYPE_TOGGLE,    /**< & */
  24:../../DaisyExamples/libDaisy/src/hid/switch.h ****         TYPE_MOMENTARY, /**< & */
  25:../../DaisyExamples/libDaisy/src/hid/switch.h ****     };
  26:../../DaisyExamples/libDaisy/src/hid/switch.h ****     /** Specifies whether the pressed is HIGH or LOW. */
  27:../../DaisyExamples/libDaisy/src/hid/switch.h ****     enum Polarity
  28:../../DaisyExamples/libDaisy/src/hid/switch.h ****     {
  29:../../DaisyExamples/libDaisy/src/hid/switch.h ****         POLARITY_NORMAL,   /**< & */
  30:../../DaisyExamples/libDaisy/src/hid/switch.h ****         POLARITY_INVERTED, /**< & */
  31:../../DaisyExamples/libDaisy/src/hid/switch.h ****     };
  32:../../DaisyExamples/libDaisy/src/hid/switch.h **** 
  33:../../DaisyExamples/libDaisy/src/hid/switch.h ****     /** Specifies whether to use built-in Pull Up/Down resistors to hold button at a given state wh
  34:../../DaisyExamples/libDaisy/src/hid/switch.h ****     enum Pull
  35:../../DaisyExamples/libDaisy/src/hid/switch.h ****     {
  36:../../DaisyExamples/libDaisy/src/hid/switch.h ****         PULL_UP,   /**< & */
  37:../../DaisyExamples/libDaisy/src/hid/switch.h ****         PULL_DOWN, /**< & */
  38:../../DaisyExamples/libDaisy/src/hid/switch.h ****         PULL_NONE, /**< & */
  39:../../DaisyExamples/libDaisy/src/hid/switch.h ****     };
  40:../../DaisyExamples/libDaisy/src/hid/switch.h **** 
  41:../../DaisyExamples/libDaisy/src/hid/switch.h ****     Switch() {}
  42:../../DaisyExamples/libDaisy/src/hid/switch.h ****     ~Switch() {}
 134              		.loc 9 42 5 is_stmt 1 view .LVU27
 135              		.loc 9 42 5 is_stmt 0 view .LVU28
 136              	.LBE488:
 137              	.LBB489:
 138              	.LBI489:
 139              		.loc 9 42 5 is_stmt 1 view .LVU29
 140              		.loc 9 42 5 is_stmt 0 view .LVU30
 141              	.LBE489:
 142              	.LBB490:
 143              	.LBI490:
 144              		.loc 2 23 5 is_stmt 1 view .LVU31
 145              		.loc 2 23 5 is_stmt 0 view .LVU32
 146              	.LBE490:
 147              	.LBB491:
 148              	.LBI491:
 149              		.loc 2 23 5 is_stmt 1 view .LVU33
 150              		.loc 2 23 5 is_stmt 0 view .LVU34
 151              	.LBE491:
 152              	.LBB492:
 153              	.LBI492:
ARM GAS  /var/folders/hp/45mn71hd0ps5f5pnytxy5bt00000gn/T//ccIwDN9B.s 			page 15


 154              		.file 10 "../../DaisyExamples/libDaisy/src/hid/encoder.h"
   1:../../DaisyExamples/libDaisy/src/hid/encoder.h **** #pragma once
   2:../../DaisyExamples/libDaisy/src/hid/encoder.h **** #ifndef DSY_ENCODER_H
   3:../../DaisyExamples/libDaisy/src/hid/encoder.h **** #define DSY_ENCODER_H
   4:../../DaisyExamples/libDaisy/src/hid/encoder.h **** #include "daisy_core.h"
   5:../../DaisyExamples/libDaisy/src/hid/encoder.h **** #include "per/gpio.h"
   6:../../DaisyExamples/libDaisy/src/hid/encoder.h **** #include "hid/switch.h"
   7:../../DaisyExamples/libDaisy/src/hid/encoder.h **** 
   8:../../DaisyExamples/libDaisy/src/hid/encoder.h **** namespace daisy
   9:../../DaisyExamples/libDaisy/src/hid/encoder.h **** {
  10:../../DaisyExamples/libDaisy/src/hid/encoder.h **** /** 
  11:../../DaisyExamples/libDaisy/src/hid/encoder.h ****     @brief Generic Class for handling Quadrature Encoders \n 
  12:../../DaisyExamples/libDaisy/src/hid/encoder.h ****     Inspired/influenced by Mutable Instruments (pichenettes) Encoder classes
  13:../../DaisyExamples/libDaisy/src/hid/encoder.h ****     @author Stephen Hensley
  14:../../DaisyExamples/libDaisy/src/hid/encoder.h ****     @date December 2019
  15:../../DaisyExamples/libDaisy/src/hid/encoder.h ****     @ingroup controls
  16:../../DaisyExamples/libDaisy/src/hid/encoder.h **** */
  17:../../DaisyExamples/libDaisy/src/hid/encoder.h **** class Encoder
  18:../../DaisyExamples/libDaisy/src/hid/encoder.h **** {
  19:../../DaisyExamples/libDaisy/src/hid/encoder.h ****   public:
  20:../../DaisyExamples/libDaisy/src/hid/encoder.h ****     Encoder() {}
  21:../../DaisyExamples/libDaisy/src/hid/encoder.h ****     ~Encoder() {}
 155              		.loc 10 21 5 is_stmt 1 view .LVU35
 156              	.LBB493:
 157              	.LBI493:
 158              		.loc 9 42 5 view .LVU36
 159              		.loc 9 42 5 is_stmt 0 view .LVU37
 160              	.LBE493:
 161              	.LBE492:
 162              	.LBB494:
 163              	.LBI494:
 164              		.file 11 "../../DaisyExamples/libDaisy/src/daisy_seed.h"
   1:../../DaisyExamples/libDaisy/src/daisy_seed.h **** #pragma once
   2:../../DaisyExamples/libDaisy/src/daisy_seed.h **** #ifndef DSY_SEED_H
   3:../../DaisyExamples/libDaisy/src/daisy_seed.h **** #define DSY_SEED_H
   4:../../DaisyExamples/libDaisy/src/daisy_seed.h **** 
   5:../../DaisyExamples/libDaisy/src/daisy_seed.h **** #include "daisy.h"
   6:../../DaisyExamples/libDaisy/src/daisy_seed.h **** 
   7:../../DaisyExamples/libDaisy/src/daisy_seed.h **** //Uncomment this out if you're still using the rev2 hardware
   8:../../DaisyExamples/libDaisy/src/daisy_seed.h **** //#define SEED_REV2
   9:../../DaisyExamples/libDaisy/src/daisy_seed.h **** 
  10:../../DaisyExamples/libDaisy/src/daisy_seed.h **** namespace daisy
  11:../../DaisyExamples/libDaisy/src/daisy_seed.h **** {
  12:../../DaisyExamples/libDaisy/src/daisy_seed.h **** /**
  13:../../DaisyExamples/libDaisy/src/daisy_seed.h ****    @brief This is the higher-level interface for the Daisy board. \n 
  14:../../DaisyExamples/libDaisy/src/daisy_seed.h ****     All basic peripheral configuration/initialization is setup here. \n
  15:../../DaisyExamples/libDaisy/src/daisy_seed.h **** 
  16:../../DaisyExamples/libDaisy/src/daisy_seed.h ****    @ingroup boards
  17:../../DaisyExamples/libDaisy/src/daisy_seed.h **** */
  18:../../DaisyExamples/libDaisy/src/daisy_seed.h **** class DaisySeed
  19:../../DaisyExamples/libDaisy/src/daisy_seed.h **** {
  20:../../DaisyExamples/libDaisy/src/daisy_seed.h ****   public:
  21:../../DaisyExamples/libDaisy/src/daisy_seed.h ****     DaisySeed() {}
  22:../../DaisyExamples/libDaisy/src/daisy_seed.h ****     ~DaisySeed() {}
 165              		.loc 11 22 5 is_stmt 1 view .LVU38
 166              	.LBB495:
 167              	.LBI495:
ARM GAS  /var/folders/hp/45mn71hd0ps5f5pnytxy5bt00000gn/T//ccIwDN9B.s 			page 16


 168              		.file 12 "../../DaisyExamples/libDaisy/src/sys/system.h"
   1:../../DaisyExamples/libDaisy/src/sys/system.h **** #ifndef DSY_SYSTEM_H
   2:../../DaisyExamples/libDaisy/src/sys/system.h **** #define DSY_SYSTEM_H
   3:../../DaisyExamples/libDaisy/src/sys/system.h **** 
   4:../../DaisyExamples/libDaisy/src/sys/system.h **** #ifndef UNIT_TEST // for unit tests, a dummy implementation is provided below
   5:../../DaisyExamples/libDaisy/src/sys/system.h **** 
   6:../../DaisyExamples/libDaisy/src/sys/system.h **** #include <cstdint>
   7:../../DaisyExamples/libDaisy/src/sys/system.h **** #include "per/tim.h"
   8:../../DaisyExamples/libDaisy/src/sys/system.h **** 
   9:../../DaisyExamples/libDaisy/src/sys/system.h **** namespace daisy
  10:../../DaisyExamples/libDaisy/src/sys/system.h **** {
  11:../../DaisyExamples/libDaisy/src/sys/system.h **** /** A handle for interacting with the Core System.
  12:../../DaisyExamples/libDaisy/src/sys/system.h ****  ** This includes the Clock tree, MPU, global DMA initialization,
  13:../../DaisyExamples/libDaisy/src/sys/system.h ****  ** cache handling, and any other necessary global initiailzation
  14:../../DaisyExamples/libDaisy/src/sys/system.h ****  **
  15:../../DaisyExamples/libDaisy/src/sys/system.h ****  ** @author shensley
  16:../../DaisyExamples/libDaisy/src/sys/system.h ****  ** @ingroup system
  17:../../DaisyExamples/libDaisy/src/sys/system.h ****  */
  18:../../DaisyExamples/libDaisy/src/sys/system.h **** class System
  19:../../DaisyExamples/libDaisy/src/sys/system.h **** {
  20:../../DaisyExamples/libDaisy/src/sys/system.h ****   public:
  21:../../DaisyExamples/libDaisy/src/sys/system.h ****     /** Contains settings for initializing the System */
  22:../../DaisyExamples/libDaisy/src/sys/system.h ****     struct Config
  23:../../DaisyExamples/libDaisy/src/sys/system.h ****     {
  24:../../DaisyExamples/libDaisy/src/sys/system.h ****         /** Specifies the system clock frequency that feeds APB/AHB clocks, etc. */
  25:../../DaisyExamples/libDaisy/src/sys/system.h ****         enum class SysClkFreq
  26:../../DaisyExamples/libDaisy/src/sys/system.h ****         {
  27:../../DaisyExamples/libDaisy/src/sys/system.h ****             FREQ_400MHZ,
  28:../../DaisyExamples/libDaisy/src/sys/system.h ****             FREQ_480MHZ,
  29:../../DaisyExamples/libDaisy/src/sys/system.h ****         };
  30:../../DaisyExamples/libDaisy/src/sys/system.h **** 
  31:../../DaisyExamples/libDaisy/src/sys/system.h ****         /** Method to call on the struct to set to defaults
  32:../../DaisyExamples/libDaisy/src/sys/system.h ****          ** CPU Freq set to 400MHz
  33:../../DaisyExamples/libDaisy/src/sys/system.h ****          ** Cache Enabled
  34:../../DaisyExamples/libDaisy/src/sys/system.h ****          ** */
  35:../../DaisyExamples/libDaisy/src/sys/system.h ****         void Defaults()
  36:../../DaisyExamples/libDaisy/src/sys/system.h ****         {
  37:../../DaisyExamples/libDaisy/src/sys/system.h ****             cpu_freq    = SysClkFreq::FREQ_400MHZ;
  38:../../DaisyExamples/libDaisy/src/sys/system.h ****             use_dcache  = true;
  39:../../DaisyExamples/libDaisy/src/sys/system.h ****             use_icache  = true;
  40:../../DaisyExamples/libDaisy/src/sys/system.h ****             skip_clocks = false;
  41:../../DaisyExamples/libDaisy/src/sys/system.h ****         }
  42:../../DaisyExamples/libDaisy/src/sys/system.h **** 
  43:../../DaisyExamples/libDaisy/src/sys/system.h ****         /** Method to call on the struct to set to boost mode:
  44:../../DaisyExamples/libDaisy/src/sys/system.h ****          ** CPU Freq set to 480MHz
  45:../../DaisyExamples/libDaisy/src/sys/system.h ****          ** Cache Enabled
  46:../../DaisyExamples/libDaisy/src/sys/system.h ****          ** */
  47:../../DaisyExamples/libDaisy/src/sys/system.h ****         void Boost()
  48:../../DaisyExamples/libDaisy/src/sys/system.h ****         {
  49:../../DaisyExamples/libDaisy/src/sys/system.h ****             cpu_freq    = SysClkFreq::FREQ_480MHZ;
  50:../../DaisyExamples/libDaisy/src/sys/system.h ****             use_dcache  = true;
  51:../../DaisyExamples/libDaisy/src/sys/system.h ****             use_icache  = true;
  52:../../DaisyExamples/libDaisy/src/sys/system.h ****             skip_clocks = false;
  53:../../DaisyExamples/libDaisy/src/sys/system.h ****         }
  54:../../DaisyExamples/libDaisy/src/sys/system.h **** 
  55:../../DaisyExamples/libDaisy/src/sys/system.h ****         SysClkFreq cpu_freq;
  56:../../DaisyExamples/libDaisy/src/sys/system.h ****         bool       use_dcache;
ARM GAS  /var/folders/hp/45mn71hd0ps5f5pnytxy5bt00000gn/T//ccIwDN9B.s 			page 17


  57:../../DaisyExamples/libDaisy/src/sys/system.h ****         bool       use_icache;
  58:../../DaisyExamples/libDaisy/src/sys/system.h ****         bool       skip_clocks;
  59:../../DaisyExamples/libDaisy/src/sys/system.h ****     };
  60:../../DaisyExamples/libDaisy/src/sys/system.h **** 
  61:../../DaisyExamples/libDaisy/src/sys/system.h ****     /** Describes the different regions of memory available to the Daisy */
  62:../../DaisyExamples/libDaisy/src/sys/system.h ****     enum MemoryRegion
  63:../../DaisyExamples/libDaisy/src/sys/system.h ****     {
  64:../../DaisyExamples/libDaisy/src/sys/system.h ****         INTERNAL_FLASH = 0,
  65:../../DaisyExamples/libDaisy/src/sys/system.h ****         ITCMRAM,
  66:../../DaisyExamples/libDaisy/src/sys/system.h ****         DTCMRAM,
  67:../../DaisyExamples/libDaisy/src/sys/system.h ****         SRAM_D1,
  68:../../DaisyExamples/libDaisy/src/sys/system.h ****         SRAM_D2,
  69:../../DaisyExamples/libDaisy/src/sys/system.h ****         SRAM_D3,
  70:../../DaisyExamples/libDaisy/src/sys/system.h ****         SDRAM,
  71:../../DaisyExamples/libDaisy/src/sys/system.h ****         QSPI,
  72:../../DaisyExamples/libDaisy/src/sys/system.h ****         INVALID_ADDRESS,
  73:../../DaisyExamples/libDaisy/src/sys/system.h ****     };
  74:../../DaisyExamples/libDaisy/src/sys/system.h **** 
  75:../../DaisyExamples/libDaisy/src/sys/system.h ****     /** Bootloader struct for controlling bootloading parameters */
  76:../../DaisyExamples/libDaisy/src/sys/system.h ****     struct BootInfo
  77:../../DaisyExamples/libDaisy/src/sys/system.h ****     {
  78:../../DaisyExamples/libDaisy/src/sys/system.h ****         enum class Type : uint32_t
  79:../../DaisyExamples/libDaisy/src/sys/system.h ****         {
  80:../../DaisyExamples/libDaisy/src/sys/system.h ****             INVALID      = 0x00000000,
  81:../../DaisyExamples/libDaisy/src/sys/system.h ****             JUMP         = 0xDEADBEEF,
  82:../../DaisyExamples/libDaisy/src/sys/system.h ****             SKIP_TIMEOUT = 0x5AFEB007,
  83:../../DaisyExamples/libDaisy/src/sys/system.h ****             INF_TIMEOUT  = 0xB0074EFA,
  84:../../DaisyExamples/libDaisy/src/sys/system.h ****         } status;
  85:../../DaisyExamples/libDaisy/src/sys/system.h ****         uint32_t data;
  86:../../DaisyExamples/libDaisy/src/sys/system.h ****         enum class Version : uint32_t
  87:../../DaisyExamples/libDaisy/src/sys/system.h ****         {
  88:../../DaisyExamples/libDaisy/src/sys/system.h ****             LT_v6_0 = 0, // Less than v6.0
  89:../../DaisyExamples/libDaisy/src/sys/system.h ****             NONE,        // No bootloader present
  90:../../DaisyExamples/libDaisy/src/sys/system.h ****             v6_0,        // v6.0
  91:../../DaisyExamples/libDaisy/src/sys/system.h ****             v6_1,        // v6.1 or greater
  92:../../DaisyExamples/libDaisy/src/sys/system.h ****             LAST
  93:../../DaisyExamples/libDaisy/src/sys/system.h ****         } version;
  94:../../DaisyExamples/libDaisy/src/sys/system.h ****     };
  95:../../DaisyExamples/libDaisy/src/sys/system.h **** 
  96:../../DaisyExamples/libDaisy/src/sys/system.h ****     System() {}
  97:../../DaisyExamples/libDaisy/src/sys/system.h ****     ~System() {}
 169              		.loc 12 97 5 view .LVU39
 170              		.loc 12 97 5 is_stmt 0 view .LVU40
 171              	.LBE495:
 172              	.LBB496:
 173              	.LBI496:
 174              		.file 13 "../../DaisyExamples/libDaisy/src/hid/usb.h"
   1:../../DaisyExamples/libDaisy/src/hid/usb.h **** #pragma once
   2:../../DaisyExamples/libDaisy/src/hid/usb.h **** #ifndef DSY_HID_USB_H
   3:../../DaisyExamples/libDaisy/src/hid/usb.h **** #define DSY_HID_USB_H
   4:../../DaisyExamples/libDaisy/src/hid/usb.h **** #include <stdint.h>
   5:../../DaisyExamples/libDaisy/src/hid/usb.h **** #include <stdlib.h>
   6:../../DaisyExamples/libDaisy/src/hid/usb.h **** 
   7:../../DaisyExamples/libDaisy/src/hid/usb.h **** namespace daisy
   8:../../DaisyExamples/libDaisy/src/hid/usb.h **** /** @addtogroup human_interface
   9:../../DaisyExamples/libDaisy/src/hid/usb.h ****     @{
  10:../../DaisyExamples/libDaisy/src/hid/usb.h **** */
ARM GAS  /var/folders/hp/45mn71hd0ps5f5pnytxy5bt00000gn/T//ccIwDN9B.s 			page 18


  11:../../DaisyExamples/libDaisy/src/hid/usb.h **** 
  12:../../DaisyExamples/libDaisy/src/hid/usb.h **** {
  13:../../DaisyExamples/libDaisy/src/hid/usb.h **** /** 
  14:../../DaisyExamples/libDaisy/src/hid/usb.h ****     @brief Interface for initializing and using the USB Peripherals on the daisy
  15:../../DaisyExamples/libDaisy/src/hid/usb.h ****     @author Stephen Hensley
  16:../../DaisyExamples/libDaisy/src/hid/usb.h ****     @date December 2019
  17:../../DaisyExamples/libDaisy/src/hid/usb.h **** */
  18:../../DaisyExamples/libDaisy/src/hid/usb.h **** class UsbHandle
  19:../../DaisyExamples/libDaisy/src/hid/usb.h **** {
  20:../../DaisyExamples/libDaisy/src/hid/usb.h ****   public:
  21:../../DaisyExamples/libDaisy/src/hid/usb.h ****     /** Return values for USBHandle Functions */
  22:../../DaisyExamples/libDaisy/src/hid/usb.h ****     enum class Result
  23:../../DaisyExamples/libDaisy/src/hid/usb.h ****     {
  24:../../DaisyExamples/libDaisy/src/hid/usb.h ****         OK,
  25:../../DaisyExamples/libDaisy/src/hid/usb.h ****         ERR,
  26:../../DaisyExamples/libDaisy/src/hid/usb.h ****     };
  27:../../DaisyExamples/libDaisy/src/hid/usb.h **** 
  28:../../DaisyExamples/libDaisy/src/hid/usb.h ****     /** Specified which of the two USB Peripherals to initialize. */
  29:../../DaisyExamples/libDaisy/src/hid/usb.h ****     enum UsbPeriph
  30:../../DaisyExamples/libDaisy/src/hid/usb.h ****     {
  31:../../DaisyExamples/libDaisy/src/hid/usb.h ****         FS_INTERNAL, /**< Internal pin */
  32:../../DaisyExamples/libDaisy/src/hid/usb.h ****         FS_EXTERNAL, /**< FS External D+ pin is Pin 38 (GPIO32). FS External D- pin is Pin 37 (GPIO
  33:../../DaisyExamples/libDaisy/src/hid/usb.h ****         FS_BOTH,     /**< Both */
  34:../../DaisyExamples/libDaisy/src/hid/usb.h ****     };
  35:../../DaisyExamples/libDaisy/src/hid/usb.h **** 
  36:../../DaisyExamples/libDaisy/src/hid/usb.h **** 
  37:../../DaisyExamples/libDaisy/src/hid/usb.h ****     /** Function called upon reception of a buffer */
  38:../../DaisyExamples/libDaisy/src/hid/usb.h ****     typedef void (*ReceiveCallback)(uint8_t* buff, uint32_t* len);
  39:../../DaisyExamples/libDaisy/src/hid/usb.h **** 
  40:../../DaisyExamples/libDaisy/src/hid/usb.h ****     UsbHandle() {}
  41:../../DaisyExamples/libDaisy/src/hid/usb.h **** 
  42:../../DaisyExamples/libDaisy/src/hid/usb.h ****     ~UsbHandle() {}
 175              		.loc 13 42 5 is_stmt 1 view .LVU41
 176              		.loc 13 42 5 is_stmt 0 view .LVU42
 177              	.LBE496:
 178              	.LBB497:
 179              	.LBI497:
 180              		.file 14 "../../DaisyExamples/libDaisy/src/per/adc.h"
   1:../../DaisyExamples/libDaisy/src/per/adc.h **** #pragma once
   2:../../DaisyExamples/libDaisy/src/per/adc.h **** #ifndef DSY_ADC_H
   3:../../DaisyExamples/libDaisy/src/per/adc.h **** #define DSY_ADC_H /**< Macro */
   4:../../DaisyExamples/libDaisy/src/per/adc.h **** #include <stdint.h>
   5:../../DaisyExamples/libDaisy/src/per/adc.h **** #include <stdlib.h>
   6:../../DaisyExamples/libDaisy/src/per/adc.h **** #include "daisy_core.h"
   7:../../DaisyExamples/libDaisy/src/per/adc.h **** #include "per/gpio.h"
   8:../../DaisyExamples/libDaisy/src/per/adc.h **** 
   9:../../DaisyExamples/libDaisy/src/per/adc.h **** #define DSY_ADC_MAX_CHANNELS 16 /**< Maximum number of ADC channels */
  10:../../DaisyExamples/libDaisy/src/per/adc.h **** 
  11:../../DaisyExamples/libDaisy/src/per/adc.h **** namespace daisy
  12:../../DaisyExamples/libDaisy/src/per/adc.h **** {
  13:../../DaisyExamples/libDaisy/src/per/adc.h **** /** @addtogroup per_analog
  14:../../DaisyExamples/libDaisy/src/per/adc.h ****     @{
  15:../../DaisyExamples/libDaisy/src/per/adc.h **** */
  16:../../DaisyExamples/libDaisy/src/per/adc.h **** 
  17:../../DaisyExamples/libDaisy/src/per/adc.h **** /* While there may not be many configuration options here,
  18:../../DaisyExamples/libDaisy/src/per/adc.h **** using a struct like this allows us to add more configuration
  19:../../DaisyExamples/libDaisy/src/per/adc.h **** later without breaking existing functionality.
ARM GAS  /var/folders/hp/45mn71hd0ps5f5pnytxy5bt00000gn/T//ccIwDN9B.s 			page 19


  20:../../DaisyExamples/libDaisy/src/per/adc.h **** */
  21:../../DaisyExamples/libDaisy/src/per/adc.h **** 
  22:../../DaisyExamples/libDaisy/src/per/adc.h **** /** @brief   Configuration Structure for an ADC Channel 
  23:../../DaisyExamples/libDaisy/src/per/adc.h ****  *  @details This can be used to configure a a single input, 
  24:../../DaisyExamples/libDaisy/src/per/adc.h ****  *           or a multiplexed input, allowing up to 8 inputs on 
  25:../../DaisyExamples/libDaisy/src/per/adc.h ****  *           one channel.
  26:../../DaisyExamples/libDaisy/src/per/adc.h ****  *  @note    Sharing data lines to multiple muxes _is_ possible, but
  27:../../DaisyExamples/libDaisy/src/per/adc.h ****  *           each channel sharing data lines must be set to the maximum
  28:../../DaisyExamples/libDaisy/src/per/adc.h ****  *           number of channels, even if some multiplexers have fewer
  29:../../DaisyExamples/libDaisy/src/per/adc.h ****  *           inputs connected.
  30:../../DaisyExamples/libDaisy/src/per/adc.h **** */
  31:../../DaisyExamples/libDaisy/src/per/adc.h **** struct AdcChannelConfig
  32:../../DaisyExamples/libDaisy/src/per/adc.h **** {
  33:../../DaisyExamples/libDaisy/src/per/adc.h ****     /** Which pin to use for multiplexing */
  34:../../DaisyExamples/libDaisy/src/per/adc.h ****     enum MuxPin
  35:../../DaisyExamples/libDaisy/src/per/adc.h ****     {
  36:../../DaisyExamples/libDaisy/src/per/adc.h ****         MUX_SEL_0,    /**< & */
  37:../../DaisyExamples/libDaisy/src/per/adc.h ****         MUX_SEL_1,    /**< & */
  38:../../DaisyExamples/libDaisy/src/per/adc.h ****         MUX_SEL_2,    /**< & */
  39:../../DaisyExamples/libDaisy/src/per/adc.h ****         MUX_SEL_LAST, /**< & */
  40:../../DaisyExamples/libDaisy/src/per/adc.h ****     };
  41:../../DaisyExamples/libDaisy/src/per/adc.h **** 
  42:../../DaisyExamples/libDaisy/src/per/adc.h ****     /** \brief per channel conversion speed added to fixed time based on bitdepth, etc. */
  43:../../DaisyExamples/libDaisy/src/per/adc.h ****     enum ConversionSpeed
  44:../../DaisyExamples/libDaisy/src/per/adc.h ****     {
  45:../../DaisyExamples/libDaisy/src/per/adc.h ****         SPEED_1CYCLES_5,
  46:../../DaisyExamples/libDaisy/src/per/adc.h ****         SPEED_2CYCLES_5,
  47:../../DaisyExamples/libDaisy/src/per/adc.h ****         SPEED_8CYCLES_5,
  48:../../DaisyExamples/libDaisy/src/per/adc.h ****         SPEED_16CYCLES_5,
  49:../../DaisyExamples/libDaisy/src/per/adc.h ****         SPEED_32CYCLES_5,
  50:../../DaisyExamples/libDaisy/src/per/adc.h ****         SPEED_64CYCLES_5,
  51:../../DaisyExamples/libDaisy/src/per/adc.h ****         SPEED_387CYCLES_5,
  52:../../DaisyExamples/libDaisy/src/per/adc.h ****         SPEED_810CYCLES_5,
  53:../../DaisyExamples/libDaisy/src/per/adc.h ****     };
  54:../../DaisyExamples/libDaisy/src/per/adc.h **** 
  55:../../DaisyExamples/libDaisy/src/per/adc.h ****     /** Initializes a single ADC pin as an ADC. 
  56:../../DaisyExamples/libDaisy/src/per/adc.h ****     \param pin Pin to init.
  57:../../DaisyExamples/libDaisy/src/per/adc.h ****     \param speed conversion speed for this pin defaults to 8.5 cycles
  58:../../DaisyExamples/libDaisy/src/per/adc.h ****      */
  59:../../DaisyExamples/libDaisy/src/per/adc.h ****     void InitSingle(dsy_gpio_pin pin, ConversionSpeed speed = SPEED_8CYCLES_5);
  60:../../DaisyExamples/libDaisy/src/per/adc.h **** 
  61:../../DaisyExamples/libDaisy/src/per/adc.h ****     /** 
  62:../../DaisyExamples/libDaisy/src/per/adc.h ****     Initializes a single ADC pin as a Multiplexed ADC.
  63:../../DaisyExamples/libDaisy/src/per/adc.h ****     Requires a CD405X Multiplexer connected to the pin.
  64:../../DaisyExamples/libDaisy/src/per/adc.h ****     You only need to supply the mux pins that are required,
  65:../../DaisyExamples/libDaisy/src/per/adc.h ****     e.g. a 4052 mux would only require mux_0 and mux_1.
  66:../../DaisyExamples/libDaisy/src/per/adc.h ****     Internal Callbacks handle the pin addressing.
  67:../../DaisyExamples/libDaisy/src/per/adc.h ****     \param adc_pin &
  68:../../DaisyExamples/libDaisy/src/per/adc.h ****     \param mux_channels must be 1-8
  69:../../DaisyExamples/libDaisy/src/per/adc.h ****     \param mux_0 First mux pin
  70:../../DaisyExamples/libDaisy/src/per/adc.h ****     \param mux_1 Second mux pin
  71:../../DaisyExamples/libDaisy/src/per/adc.h ****     \param mux_2 Third mux pin
  72:../../DaisyExamples/libDaisy/src/per/adc.h ****     \param speed conversion speed for this pin defaults to 8.5 cycles
  73:../../DaisyExamples/libDaisy/src/per/adc.h ****     */
  74:../../DaisyExamples/libDaisy/src/per/adc.h ****     void InitMux(dsy_gpio_pin    adc_pin,
  75:../../DaisyExamples/libDaisy/src/per/adc.h ****                  size_t          mux_channels,
  76:../../DaisyExamples/libDaisy/src/per/adc.h ****                  dsy_gpio_pin    mux_0,
ARM GAS  /var/folders/hp/45mn71hd0ps5f5pnytxy5bt00000gn/T//ccIwDN9B.s 			page 20


  77:../../DaisyExamples/libDaisy/src/per/adc.h ****                  dsy_gpio_pin    mux_1 = {DSY_GPIOX, 0},
  78:../../DaisyExamples/libDaisy/src/per/adc.h ****                  dsy_gpio_pin    mux_2 = {DSY_GPIOX, 0},
  79:../../DaisyExamples/libDaisy/src/per/adc.h ****                  ConversionSpeed speed = SPEED_8CYCLES_5);
  80:../../DaisyExamples/libDaisy/src/per/adc.h **** 
  81:../../DaisyExamples/libDaisy/src/per/adc.h ****     dsy_gpio        pin_;                   /**< & */
  82:../../DaisyExamples/libDaisy/src/per/adc.h ****     dsy_gpio        mux_pin_[MUX_SEL_LAST]; /**< & */
  83:../../DaisyExamples/libDaisy/src/per/adc.h ****     uint8_t         mux_channels_;          /**< & */
  84:../../DaisyExamples/libDaisy/src/per/adc.h ****     ConversionSpeed speed_;
  85:../../DaisyExamples/libDaisy/src/per/adc.h **** };
  86:../../DaisyExamples/libDaisy/src/per/adc.h **** 
  87:../../DaisyExamples/libDaisy/src/per/adc.h **** /**
  88:../../DaisyExamples/libDaisy/src/per/adc.h ****    @brief Handler for analog to digital conversion
  89:../../DaisyExamples/libDaisy/src/per/adc.h **** */
  90:../../DaisyExamples/libDaisy/src/per/adc.h **** class AdcHandle
  91:../../DaisyExamples/libDaisy/src/per/adc.h **** {
  92:../../DaisyExamples/libDaisy/src/per/adc.h ****   public:
  93:../../DaisyExamples/libDaisy/src/per/adc.h ****     /** Supported oversampling amounts */
  94:../../DaisyExamples/libDaisy/src/per/adc.h ****     enum OverSampling
  95:../../DaisyExamples/libDaisy/src/per/adc.h ****     {
  96:../../DaisyExamples/libDaisy/src/per/adc.h ****         OVS_NONE, /**< & */
  97:../../DaisyExamples/libDaisy/src/per/adc.h ****         OVS_4,    /**< & */
  98:../../DaisyExamples/libDaisy/src/per/adc.h ****         OVS_8,    /**< & */
  99:../../DaisyExamples/libDaisy/src/per/adc.h ****         OVS_16,   /**< & */
 100:../../DaisyExamples/libDaisy/src/per/adc.h ****         OVS_32,   /**< & */
 101:../../DaisyExamples/libDaisy/src/per/adc.h ****         OVS_64,   /**< & */
 102:../../DaisyExamples/libDaisy/src/per/adc.h ****         OVS_128,  /**< & */
 103:../../DaisyExamples/libDaisy/src/per/adc.h ****         OVS_256,  /**< & */
 104:../../DaisyExamples/libDaisy/src/per/adc.h ****         OVS_512,  /**< & */
 105:../../DaisyExamples/libDaisy/src/per/adc.h ****         OVS_1024, /**< & */
 106:../../DaisyExamples/libDaisy/src/per/adc.h ****         OVS_LAST, /**< & */
 107:../../DaisyExamples/libDaisy/src/per/adc.h ****     };
 108:../../DaisyExamples/libDaisy/src/per/adc.h **** 
 109:../../DaisyExamples/libDaisy/src/per/adc.h ****     AdcHandle() {}
 110:../../DaisyExamples/libDaisy/src/per/adc.h ****     ~AdcHandle() {}
 181              		.loc 14 110 5 is_stmt 1 view .LVU43
 182              		.loc 14 110 5 is_stmt 0 view .LVU44
 183              	.LBE497:
 184              	.LBB498:
 185              	.LBI498:
 186              		.file 15 "../../DaisyExamples/libDaisy/src/hid/audio.h"
   1:../../DaisyExamples/libDaisy/src/hid/audio.h **** #ifndef DSY_AUDIO_H
   2:../../DaisyExamples/libDaisy/src/hid/audio.h **** #define DSY_AUDIO_H /**< & */
   3:../../DaisyExamples/libDaisy/src/hid/audio.h **** 
   4:../../DaisyExamples/libDaisy/src/hid/audio.h **** #include "per/sai.h"
   5:../../DaisyExamples/libDaisy/src/hid/audio.h **** 
   6:../../DaisyExamples/libDaisy/src/hid/audio.h **** namespace daisy
   7:../../DaisyExamples/libDaisy/src/hid/audio.h **** {
   8:../../DaisyExamples/libDaisy/src/hid/audio.h **** /** @brief Audio Engine Handle
   9:../../DaisyExamples/libDaisy/src/hid/audio.h ****  *  @ingroup audio 
  10:../../DaisyExamples/libDaisy/src/hid/audio.h ****  *  @details This class allows for higher level access to an audio engine.
  11:../../DaisyExamples/libDaisy/src/hid/audio.h ****  *           If you're using a SOM like the DaisySeed or DaisyPatchSM (or any 
  12:../../DaisyExamples/libDaisy/src/hid/audio.h ****  *            board that includes one of those objects) then the intialization
  13:../../DaisyExamples/libDaisy/src/hid/audio.h ****  *            is already taken  care of.
  14:../../DaisyExamples/libDaisy/src/hid/audio.h ****  *           If you're setting up your own custom hardware, or need to make changes
  15:../../DaisyExamples/libDaisy/src/hid/audio.h ****  *           you will have to take the following steps:
  16:../../DaisyExamples/libDaisy/src/hid/audio.h ****  *             1. Create and Initialize an SaiHandle or two depending on your requirements
  17:../../DaisyExamples/libDaisy/src/hid/audio.h ****  *             2. Initialize the Audio Handle with the desired settings and the Initialized SaiHand
ARM GAS  /var/folders/hp/45mn71hd0ps5f5pnytxy5bt00000gn/T//ccIwDN9B.s 			page 21


  18:../../DaisyExamples/libDaisy/src/hid/audio.h ****  *             3. If the connected codec requires special configuration or initialization, do so
  19:../../DaisyExamples/libDaisy/src/hid/audio.h ****  *             4. Write a callback method using either the AudioCallback or the InterleavingAudioCa
  20:../../DaisyExamples/libDaisy/src/hid/audio.h ****  *             5. Start the Audio using one of the StartAudio function
  21:../../DaisyExamples/libDaisy/src/hid/audio.h ****  */
  22:../../DaisyExamples/libDaisy/src/hid/audio.h **** class AudioHandle
  23:../../DaisyExamples/libDaisy/src/hid/audio.h **** {
  24:../../DaisyExamples/libDaisy/src/hid/audio.h ****   public:
  25:../../DaisyExamples/libDaisy/src/hid/audio.h ****     /** Manually configurable details about the Audio Engine */
  26:../../DaisyExamples/libDaisy/src/hid/audio.h ****     /** TODO: Figure out how to get samplerate in here. */
  27:../../DaisyExamples/libDaisy/src/hid/audio.h ****     struct Config
  28:../../DaisyExamples/libDaisy/src/hid/audio.h ****     {
  29:../../DaisyExamples/libDaisy/src/hid/audio.h ****         /** number of samples to process per callback */
  30:../../DaisyExamples/libDaisy/src/hid/audio.h ****         size_t blocksize;
  31:../../DaisyExamples/libDaisy/src/hid/audio.h **** 
  32:../../DaisyExamples/libDaisy/src/hid/audio.h ****         /**< Sample rate of audio */
  33:../../DaisyExamples/libDaisy/src/hid/audio.h ****         SaiHandle::Config::SampleRate samplerate;
  34:../../DaisyExamples/libDaisy/src/hid/audio.h **** 
  35:../../DaisyExamples/libDaisy/src/hid/audio.h ****         /** factor for adjustment before and after callback for hardware that may have extra headro
  36:../../DaisyExamples/libDaisy/src/hid/audio.h ****         float postgain;
  37:../../DaisyExamples/libDaisy/src/hid/audio.h **** 
  38:../../DaisyExamples/libDaisy/src/hid/audio.h ****         /** factor for additional one-sided compensation to audio path for hardware that may
  39:../../DaisyExamples/libDaisy/src/hid/audio.h ****          *  have unequal input/output ranges
  40:../../DaisyExamples/libDaisy/src/hid/audio.h ****          */
  41:../../DaisyExamples/libDaisy/src/hid/audio.h ****         float output_compensation;
  42:../../DaisyExamples/libDaisy/src/hid/audio.h **** 
  43:../../DaisyExamples/libDaisy/src/hid/audio.h ****         /** Sets default values for config struct */
  44:../../DaisyExamples/libDaisy/src/hid/audio.h ****         Config()
  45:../../DaisyExamples/libDaisy/src/hid/audio.h ****         : blocksize(48),
  46:../../DaisyExamples/libDaisy/src/hid/audio.h ****           samplerate(SaiHandle::Config::SampleRate::SAI_48KHZ),
  47:../../DaisyExamples/libDaisy/src/hid/audio.h ****           postgain(1.f),
  48:../../DaisyExamples/libDaisy/src/hid/audio.h ****           output_compensation(1.f)
  49:../../DaisyExamples/libDaisy/src/hid/audio.h ****         {
  50:../../DaisyExamples/libDaisy/src/hid/audio.h ****         }
  51:../../DaisyExamples/libDaisy/src/hid/audio.h ****     };
  52:../../DaisyExamples/libDaisy/src/hid/audio.h **** 
  53:../../DaisyExamples/libDaisy/src/hid/audio.h ****     enum class Result
  54:../../DaisyExamples/libDaisy/src/hid/audio.h ****     {
  55:../../DaisyExamples/libDaisy/src/hid/audio.h ****         OK,
  56:../../DaisyExamples/libDaisy/src/hid/audio.h ****         ERR,
  57:../../DaisyExamples/libDaisy/src/hid/audio.h ****     };
  58:../../DaisyExamples/libDaisy/src/hid/audio.h **** 
  59:../../DaisyExamples/libDaisy/src/hid/audio.h ****     /** Non-Interleaving input buffer
  60:../../DaisyExamples/libDaisy/src/hid/audio.h ****      * Buffer arranged by float[chn][sample] 
  61:../../DaisyExamples/libDaisy/src/hid/audio.h ****      * const so that the user can't modify the input
  62:../../DaisyExamples/libDaisy/src/hid/audio.h ****      */
  63:../../DaisyExamples/libDaisy/src/hid/audio.h ****     typedef const float* const* InputBuffer;
  64:../../DaisyExamples/libDaisy/src/hid/audio.h **** 
  65:../../DaisyExamples/libDaisy/src/hid/audio.h ****     /** Non-Interleaving output buffer
  66:../../DaisyExamples/libDaisy/src/hid/audio.h ****      * Arranged by float[chn][sample] 
  67:../../DaisyExamples/libDaisy/src/hid/audio.h ****      */
  68:../../DaisyExamples/libDaisy/src/hid/audio.h ****     typedef float** OutputBuffer;
  69:../../DaisyExamples/libDaisy/src/hid/audio.h **** 
  70:../../DaisyExamples/libDaisy/src/hid/audio.h ****     /** Type for a Non-Interleaving audio callback 
  71:../../DaisyExamples/libDaisy/src/hid/audio.h ****      * Non-Interleaving audio callbacks in daisy will be of this type
  72:../../DaisyExamples/libDaisy/src/hid/audio.h ****      */
  73:../../DaisyExamples/libDaisy/src/hid/audio.h ****     typedef void (*AudioCallback)(InputBuffer  in,
  74:../../DaisyExamples/libDaisy/src/hid/audio.h ****                                   OutputBuffer out,
ARM GAS  /var/folders/hp/45mn71hd0ps5f5pnytxy5bt00000gn/T//ccIwDN9B.s 			page 22


  75:../../DaisyExamples/libDaisy/src/hid/audio.h ****                                   size_t       size);
  76:../../DaisyExamples/libDaisy/src/hid/audio.h **** 
  77:../../DaisyExamples/libDaisy/src/hid/audio.h ****     /** Interleaving Input buffer
  78:../../DaisyExamples/libDaisy/src/hid/audio.h ****      ** audio is prepared as { L0, R0, L1, R1, . . . LN, RN }]
  79:../../DaisyExamples/libDaisy/src/hid/audio.h ****      ** this is const, as the user shouldn't modify it
  80:../../DaisyExamples/libDaisy/src/hid/audio.h ****     */
  81:../../DaisyExamples/libDaisy/src/hid/audio.h ****     typedef const float* InterleavingInputBuffer;
  82:../../DaisyExamples/libDaisy/src/hid/audio.h **** 
  83:../../DaisyExamples/libDaisy/src/hid/audio.h ****     /** Interleaving Output buffer 
  84:../../DaisyExamples/libDaisy/src/hid/audio.h ****      ** audio is prepared as { L0, R0, L1, R1, . . . LN, RN }
  85:../../DaisyExamples/libDaisy/src/hid/audio.h ****     */
  86:../../DaisyExamples/libDaisy/src/hid/audio.h ****     typedef float* InterleavingOutputBuffer;
  87:../../DaisyExamples/libDaisy/src/hid/audio.h **** 
  88:../../DaisyExamples/libDaisy/src/hid/audio.h ****     /** Interleaving Audio Callback 
  89:../../DaisyExamples/libDaisy/src/hid/audio.h ****      * Interleaving audio callbacks in daisy must be of this type
  90:../../DaisyExamples/libDaisy/src/hid/audio.h ****      */
  91:../../DaisyExamples/libDaisy/src/hid/audio.h ****     typedef void (*InterleavingAudioCallback)(InterleavingInputBuffer  in,
  92:../../DaisyExamples/libDaisy/src/hid/audio.h ****                                               InterleavingOutputBuffer out,
  93:../../DaisyExamples/libDaisy/src/hid/audio.h ****                                               size_t                   size);
  94:../../DaisyExamples/libDaisy/src/hid/audio.h **** 
  95:../../DaisyExamples/libDaisy/src/hid/audio.h ****     AudioHandle() : pimpl_(nullptr) {}
  96:../../DaisyExamples/libDaisy/src/hid/audio.h ****     ~AudioHandle() {}
 187              		.loc 15 96 5 is_stmt 1 view .LVU45
 188              		.loc 15 96 5 is_stmt 0 view .LVU46
 189              	.LBE498:
 190              	.LBE494:
 191              		.loc 3 36 18 view .LVU47
 192 0000 7047     		bx	lr
 193              		.cfi_endproc
 194              	.LFE2565:
 196              		.weak	_ZN5daisy8DaisyPodD1Ev
 197              		.thumb_set _ZN5daisy8DaisyPodD1Ev,_ZN5daisy8DaisyPodD2Ev
 198 0002 00BF     		.section	.text._ZN7daisysp5AdEnvD2Ev,"axG",%progbits,_ZN7daisysp5AdEnvD5Ev,comdat
 199              		.align	1
 200              		.p2align 2,,3
 201              		.weak	_ZN7daisysp5AdEnvD2Ev
 202              		.syntax unified
 203              		.thumb
 204              		.thumb_func
 206              	_ZN7daisysp5AdEnvD2Ev:
 207              	.LVL2:
 208              	.LFB2572:
 209              		.file 16 "../../DaisyExamples/DaisySP/Source/Control/adenv.h"
   1:../../DaisyExamples/DaisySP/Source/Control/adenv.h **** /*
   2:../../DaisyExamples/DaisySP/Source/Control/adenv.h **** Copyright (c) 2020 Electrosmith, Corp
   3:../../DaisyExamples/DaisySP/Source/Control/adenv.h **** 
   4:../../DaisyExamples/DaisySP/Source/Control/adenv.h **** Use of this source code is governed by an MIT-style
   5:../../DaisyExamples/DaisySP/Source/Control/adenv.h **** license that can be found in the LICENSE file or at
   6:../../DaisyExamples/DaisySP/Source/Control/adenv.h **** https://opensource.org/licenses/MIT.
   7:../../DaisyExamples/DaisySP/Source/Control/adenv.h **** */
   8:../../DaisyExamples/DaisySP/Source/Control/adenv.h **** 
   9:../../DaisyExamples/DaisySP/Source/Control/adenv.h **** #pragma once
  10:../../DaisyExamples/DaisySP/Source/Control/adenv.h **** #ifndef ADENV_H
  11:../../DaisyExamples/DaisySP/Source/Control/adenv.h **** #define ADENV_H
  12:../../DaisyExamples/DaisySP/Source/Control/adenv.h **** #include <stdint.h>
  13:../../DaisyExamples/DaisySP/Source/Control/adenv.h **** #ifdef __cplusplus
  14:../../DaisyExamples/DaisySP/Source/Control/adenv.h **** 
ARM GAS  /var/folders/hp/45mn71hd0ps5f5pnytxy5bt00000gn/T//ccIwDN9B.s 			page 23


  15:../../DaisyExamples/DaisySP/Source/Control/adenv.h **** namespace daisysp
  16:../../DaisyExamples/DaisySP/Source/Control/adenv.h **** {
  17:../../DaisyExamples/DaisySP/Source/Control/adenv.h **** /** Distinct stages that the phase of the envelope can be located in.
  18:../../DaisyExamples/DaisySP/Source/Control/adenv.h ****     @see AdEnv
  19:../../DaisyExamples/DaisySP/Source/Control/adenv.h **** */
  20:../../DaisyExamples/DaisySP/Source/Control/adenv.h **** enum AdEnvSegment
  21:../../DaisyExamples/DaisySP/Source/Control/adenv.h **** {
  22:../../DaisyExamples/DaisySP/Source/Control/adenv.h ****     /** located at phase location 0, and not currently running */
  23:../../DaisyExamples/DaisySP/Source/Control/adenv.h ****     ADENV_SEG_IDLE,
  24:../../DaisyExamples/DaisySP/Source/Control/adenv.h ****     /** First segment of envelope where phase moves from MIN value to MAX value */
  25:../../DaisyExamples/DaisySP/Source/Control/adenv.h ****     ADENV_SEG_ATTACK,
  26:../../DaisyExamples/DaisySP/Source/Control/adenv.h ****     /** Second segment of envelope where phase moves from MAX to MIN value */
  27:../../DaisyExamples/DaisySP/Source/Control/adenv.h ****     ADENV_SEG_DECAY,
  28:../../DaisyExamples/DaisySP/Source/Control/adenv.h ****     /** The final segment of the envelope (currently decay) */
  29:../../DaisyExamples/DaisySP/Source/Control/adenv.h ****     ADENV_SEG_LAST,
  30:../../DaisyExamples/DaisySP/Source/Control/adenv.h **** };
  31:../../DaisyExamples/DaisySP/Source/Control/adenv.h **** 
  32:../../DaisyExamples/DaisySP/Source/Control/adenv.h **** /** Trigger-able envelope with adjustable min/max, and independent per-segment time control.
  33:../../DaisyExamples/DaisySP/Source/Control/adenv.h **** 
  34:../../DaisyExamples/DaisySP/Source/Control/adenv.h ****     \author shensley
  35:../../DaisyExamples/DaisySP/Source/Control/adenv.h ****     \todo - Add Cycling
  36:../../DaisyExamples/DaisySP/Source/Control/adenv.h ****     \todo - Implement Curve (its only linear for now).
  37:../../DaisyExamples/DaisySP/Source/Control/adenv.h ****     \todo - Maybe make this an ADsr_ that has AD/AR/Asr_ modes.
  38:../../DaisyExamples/DaisySP/Source/Control/adenv.h ****  */
  39:../../DaisyExamples/DaisySP/Source/Control/adenv.h **** class AdEnv
  40:../../DaisyExamples/DaisySP/Source/Control/adenv.h **** {
  41:../../DaisyExamples/DaisySP/Source/Control/adenv.h ****   public:
  42:../../DaisyExamples/DaisySP/Source/Control/adenv.h ****     AdEnv() {}
  43:../../DaisyExamples/DaisySP/Source/Control/adenv.h ****     ~AdEnv() {}
 210              		.loc 16 43 5 is_stmt 1 view -0
 211              		.cfi_startproc
 212              		@ args = 0, pretend = 0, frame = 0
 213              		@ frame_needed = 0, uses_anonymous_args = 0
 214              		@ link register save eliminated.
 215              		.loc 16 43 15 is_stmt 0 view .LVU49
 216 0000 7047     		bx	lr
 217              		.cfi_endproc
 218              	.LFE2572:
 220              		.weak	_ZN7daisysp5AdEnvD1Ev
 221              		.thumb_set _ZN7daisysp5AdEnvD1Ev,_ZN7daisysp5AdEnvD2Ev
 222 0002 00BF     		.section	.text._ZN7daisysp10OscillatorD2Ev,"axG",%progbits,_ZN7daisysp10OscillatorD5Ev,comdat
 223              		.align	1
 224              		.p2align 2,,3
 225              		.weak	_ZN7daisysp10OscillatorD2Ev
 226              		.syntax unified
 227              		.thumb
 228              		.thumb_func
 230              	_ZN7daisysp10OscillatorD2Ev:
 231              	.LVL3:
 232              	.LFB4248:
 233              		.file 17 "../../DaisyExamples/DaisySP/Source/Synthesis/oscillator.h"
   1:../../DaisyExamples/DaisySP/Source/Synthesis/oscillator.h **** /*
   2:../../DaisyExamples/DaisySP/Source/Synthesis/oscillator.h **** Copyright (c) 2020 Electrosmith, Corp
   3:../../DaisyExamples/DaisySP/Source/Synthesis/oscillator.h **** 
   4:../../DaisyExamples/DaisySP/Source/Synthesis/oscillator.h **** Use of this source code is governed by an MIT-style
   5:../../DaisyExamples/DaisySP/Source/Synthesis/oscillator.h **** license that can be found in the LICENSE file or at
   6:../../DaisyExamples/DaisySP/Source/Synthesis/oscillator.h **** https://opensource.org/licenses/MIT.
ARM GAS  /var/folders/hp/45mn71hd0ps5f5pnytxy5bt00000gn/T//ccIwDN9B.s 			page 24


   7:../../DaisyExamples/DaisySP/Source/Synthesis/oscillator.h **** */
   8:../../DaisyExamples/DaisySP/Source/Synthesis/oscillator.h **** 
   9:../../DaisyExamples/DaisySP/Source/Synthesis/oscillator.h **** #pragma once
  10:../../DaisyExamples/DaisySP/Source/Synthesis/oscillator.h **** #ifndef DSY_OSCILLATOR_H
  11:../../DaisyExamples/DaisySP/Source/Synthesis/oscillator.h **** #define DSY_OSCILLATOR_H
  12:../../DaisyExamples/DaisySP/Source/Synthesis/oscillator.h **** #include <stdint.h>
  13:../../DaisyExamples/DaisySP/Source/Synthesis/oscillator.h **** #include "Utility/dsp.h"
  14:../../DaisyExamples/DaisySP/Source/Synthesis/oscillator.h **** #ifdef __cplusplus
  15:../../DaisyExamples/DaisySP/Source/Synthesis/oscillator.h **** 
  16:../../DaisyExamples/DaisySP/Source/Synthesis/oscillator.h **** namespace daisysp
  17:../../DaisyExamples/DaisySP/Source/Synthesis/oscillator.h **** {
  18:../../DaisyExamples/DaisySP/Source/Synthesis/oscillator.h **** /** Synthesis of several waveforms, including polyBLEP bandlimited waveforms.
  19:../../DaisyExamples/DaisySP/Source/Synthesis/oscillator.h **** */
  20:../../DaisyExamples/DaisySP/Source/Synthesis/oscillator.h **** class Oscillator
  21:../../DaisyExamples/DaisySP/Source/Synthesis/oscillator.h **** {
  22:../../DaisyExamples/DaisySP/Source/Synthesis/oscillator.h ****   public:
  23:../../DaisyExamples/DaisySP/Source/Synthesis/oscillator.h ****     Oscillator() {}
  24:../../DaisyExamples/DaisySP/Source/Synthesis/oscillator.h ****     ~Oscillator() {}
 234              		.loc 17 24 5 is_stmt 1 view -0
 235              		.cfi_startproc
 236              		@ args = 0, pretend = 0, frame = 0
 237              		@ frame_needed = 0, uses_anonymous_args = 0
 238              		@ link register save eliminated.
 239              		.loc 17 24 20 is_stmt 0 view .LVU51
 240 0000 7047     		bx	lr
 241              		.cfi_endproc
 242              	.LFE4248:
 244              		.weak	_ZN7daisysp10OscillatorD1Ev
 245              		.thumb_set _ZN7daisysp10OscillatorD1Ev,_ZN7daisysp10OscillatorD2Ev
 246 0002 00BF     		.section	.text._ZN5daisy11MidiHandlerINS_16MidiUsbTransportEED2Ev,"axG",%progbits,_ZN5daisy11MidiH
 247              		.align	1
 248              		.p2align 2,,3
 249              		.weak	_ZN5daisy11MidiHandlerINS_16MidiUsbTransportEED2Ev
 250              		.syntax unified
 251              		.thumb
 252              		.thumb_func
 254              	_ZN5daisy11MidiHandlerINS_16MidiUsbTransportEED2Ev:
 255              	.LVL4:
 256              	.LFB5459:
 257              		.loc 4 156 5 is_stmt 1 view -0
 258              		.cfi_startproc
 259              		@ args = 0, pretend = 0, frame = 0
 260              		@ frame_needed = 0, uses_anonymous_args = 0
 261              		@ link register save eliminated.
 262              	.LBB499:
 263              	.LBI499:
 264              		.loc 5 298 7 view .LVU53
 265              	.LBB500:
 266              	.LBI500:
  42:../../DaisyExamples/libDaisy/src/util/FIFO.h **** 
 267              		.loc 5 42 5 view .LVU54
  42:../../DaisyExamples/libDaisy/src/util/FIFO.h **** 
 268              		.loc 5 42 5 is_stmt 0 view .LVU55
 269              	.LBE500:
 270              	.LBE499:
 271              	.LBB501:
 272              	.LBI501:
ARM GAS  /var/folders/hp/45mn71hd0ps5f5pnytxy5bt00000gn/T//ccIwDN9B.s 			page 25


 273              		.loc 6 19 5 is_stmt 1 view .LVU56
 274              		.loc 6 19 5 is_stmt 0 view .LVU57
 275              	.LBE501:
 276              	.LBB502:
 277              	.LBI502:
 278              		.file 18 "../../DaisyExamples/libDaisy/src/hid/usb_midi.h"
   1:../../DaisyExamples/libDaisy/src/hid/usb_midi.h **** #pragma once
   2:../../DaisyExamples/libDaisy/src/hid/usb_midi.h **** #ifndef __DSY_MIDIUSBTRANSPORT_H__
   3:../../DaisyExamples/libDaisy/src/hid/usb_midi.h **** #define __DSY_MIDIUSBTRANSPORT_H__
   4:../../DaisyExamples/libDaisy/src/hid/usb_midi.h **** 
   5:../../DaisyExamples/libDaisy/src/hid/usb_midi.h **** #include "hid/usb.h"
   6:../../DaisyExamples/libDaisy/src/hid/usb_midi.h **** #include "sys/system.h"
   7:../../DaisyExamples/libDaisy/src/hid/usb_midi.h **** #include "util/ringbuffer.h"
   8:../../DaisyExamples/libDaisy/src/hid/usb_midi.h **** 
   9:../../DaisyExamples/libDaisy/src/hid/usb_midi.h **** namespace daisy
  10:../../DaisyExamples/libDaisy/src/hid/usb_midi.h **** {
  11:../../DaisyExamples/libDaisy/src/hid/usb_midi.h **** /** @brief USB Transport for MIDI
  12:../../DaisyExamples/libDaisy/src/hid/usb_midi.h ****  *  @ingroup midi
  13:../../DaisyExamples/libDaisy/src/hid/usb_midi.h ****  */
  14:../../DaisyExamples/libDaisy/src/hid/usb_midi.h **** class MidiUsbTransport
  15:../../DaisyExamples/libDaisy/src/hid/usb_midi.h **** {
  16:../../DaisyExamples/libDaisy/src/hid/usb_midi.h ****   public:
  17:../../DaisyExamples/libDaisy/src/hid/usb_midi.h ****     typedef void (*MidiRxParseCallback)(uint8_t* data,
  18:../../DaisyExamples/libDaisy/src/hid/usb_midi.h ****                                         size_t   size,
  19:../../DaisyExamples/libDaisy/src/hid/usb_midi.h ****                                         void*    context);
  20:../../DaisyExamples/libDaisy/src/hid/usb_midi.h **** 
  21:../../DaisyExamples/libDaisy/src/hid/usb_midi.h ****     struct Config
  22:../../DaisyExamples/libDaisy/src/hid/usb_midi.h ****     {
  23:../../DaisyExamples/libDaisy/src/hid/usb_midi.h ****         enum Periph
  24:../../DaisyExamples/libDaisy/src/hid/usb_midi.h ****         {
  25:../../DaisyExamples/libDaisy/src/hid/usb_midi.h ****             INTERNAL = 0,
  26:../../DaisyExamples/libDaisy/src/hid/usb_midi.h ****             EXTERNAL
  27:../../DaisyExamples/libDaisy/src/hid/usb_midi.h ****         };
  28:../../DaisyExamples/libDaisy/src/hid/usb_midi.h **** 
  29:../../DaisyExamples/libDaisy/src/hid/usb_midi.h ****         Periph periph;
  30:../../DaisyExamples/libDaisy/src/hid/usb_midi.h **** 
  31:../../DaisyExamples/libDaisy/src/hid/usb_midi.h ****         /**
  32:../../DaisyExamples/libDaisy/src/hid/usb_midi.h ****          * When sending MIDI messages immediately back-to-back in user code,
  33:../../DaisyExamples/libDaisy/src/hid/usb_midi.h ****          * sometimes the USB CDC driver is still "busy".
  34:../../DaisyExamples/libDaisy/src/hid/usb_midi.h ****          *
  35:../../DaisyExamples/libDaisy/src/hid/usb_midi.h ****          * This option configures the number of times to retry a Tx after
  36:../../DaisyExamples/libDaisy/src/hid/usb_midi.h ****          * delaying for 100 microseconds (default = 3 retries).
  37:../../DaisyExamples/libDaisy/src/hid/usb_midi.h ****          *
  38:../../DaisyExamples/libDaisy/src/hid/usb_midi.h ****          * If you set this to zero, Tx will not retry so the attempt will block
  39:../../DaisyExamples/libDaisy/src/hid/usb_midi.h ****          * for slightly less time, but transmit can fail if the Tx state is busy.
  40:../../DaisyExamples/libDaisy/src/hid/usb_midi.h ****          */
  41:../../DaisyExamples/libDaisy/src/hid/usb_midi.h ****         uint8_t tx_retry_count;
  42:../../DaisyExamples/libDaisy/src/hid/usb_midi.h **** 
  43:../../DaisyExamples/libDaisy/src/hid/usb_midi.h ****         Config() : periph(INTERNAL), tx_retry_count(3) {}
  44:../../DaisyExamples/libDaisy/src/hid/usb_midi.h ****     };
  45:../../DaisyExamples/libDaisy/src/hid/usb_midi.h **** 
  46:../../DaisyExamples/libDaisy/src/hid/usb_midi.h ****     void Init(Config config);
  47:../../DaisyExamples/libDaisy/src/hid/usb_midi.h **** 
  48:../../DaisyExamples/libDaisy/src/hid/usb_midi.h ****     void StartRx(MidiRxParseCallback callback, void* context);
  49:../../DaisyExamples/libDaisy/src/hid/usb_midi.h ****     bool RxActive();
  50:../../DaisyExamples/libDaisy/src/hid/usb_midi.h ****     void FlushRx();
  51:../../DaisyExamples/libDaisy/src/hid/usb_midi.h ****     void Tx(uint8_t* buffer, size_t size);
ARM GAS  /var/folders/hp/45mn71hd0ps5f5pnytxy5bt00000gn/T//ccIwDN9B.s 			page 26


  52:../../DaisyExamples/libDaisy/src/hid/usb_midi.h **** 
  53:../../DaisyExamples/libDaisy/src/hid/usb_midi.h ****     class Impl;
  54:../../DaisyExamples/libDaisy/src/hid/usb_midi.h **** 
  55:../../DaisyExamples/libDaisy/src/hid/usb_midi.h ****     MidiUsbTransport() : pimpl_(nullptr) {}
  56:../../DaisyExamples/libDaisy/src/hid/usb_midi.h ****     ~MidiUsbTransport() {}
 279              		.loc 18 56 5 is_stmt 1 view .LVU58
 280              		.loc 18 56 5 is_stmt 0 view .LVU59
 281              	.LBE502:
 282              		.loc 4 156 21 view .LVU60
 283 0000 7047     		bx	lr
 284              		.cfi_endproc
 285              	.LFE5459:
 287              		.weak	_ZN5daisy11MidiHandlerINS_16MidiUsbTransportEED1Ev
 288              		.thumb_set _ZN5daisy11MidiHandlerINS_16MidiUsbTransportEED1Ev,_ZN5daisy11MidiHandlerINS_16MidiUsbT
 289 0002 00BF     		.section	.text._ZL13AudioCallbackPKfPfj,"ax",%progbits
 290              		.align	1
 291              		.p2align 2,,3
 292              		.syntax unified
 293              		.thumb
 294              		.thumb_func
 296              	_ZL13AudioCallbackPKfPfj:
 297              	.LVL5:
 298              	.LFB4854:
 299              		.file 19 "SynthV5.cpp"
   1:SynthV5.cpp   **** #include "daisy_pod.h"
   2:SynthV5.cpp   **** #include "daisysp.h"
   3:SynthV5.cpp   **** 
   4:SynthV5.cpp   **** using namespace daisy;
   5:SynthV5.cpp   **** using namespace daisysp;
   6:SynthV5.cpp   **** 
   7:SynthV5.cpp   **** static DaisyPod hw;
   8:SynthV5.cpp   **** static Oscillator osc;
   9:SynthV5.cpp   **** static AdEnv ad;
  10:SynthV5.cpp   **** static Parameter p_release;
  11:SynthV5.cpp   **** static MidiUsbHandler midi;
  12:SynthV5.cpp   **** static Parameter tuning;
  13:SynthV5.cpp   **** 
  14:SynthV5.cpp   **** static float volChange;
  15:SynthV5.cpp   **** static float inc;
  16:SynthV5.cpp   **** float adRelease;
  17:SynthV5.cpp   **** float midiFreq;
  18:SynthV5.cpp   **** float totalFreq;
  19:SynthV5.cpp   **** bool adCycle;
  20:SynthV5.cpp   **** bool isVolumeOn;
  21:SynthV5.cpp   **** 
  22:SynthV5.cpp   **** static void AudioCallback(AudioHandle::InterleavingInputBuffer  in,
  23:SynthV5.cpp   ****                           AudioHandle::InterleavingOutputBuffer out,
  24:SynthV5.cpp   ****                           size_t                                size)
  25:SynthV5.cpp   **** {
 300              		.loc 19 25 1 is_stmt 1 view -0
 301              		.cfi_startproc
 302              		@ args = 0, pretend = 0, frame = 0
 303              		@ frame_needed = 0, uses_anonymous_args = 0
  26:SynthV5.cpp   ****     hw.ProcessAnalogControls();
 304              		.loc 19 26 5 view .LVU62
  25:SynthV5.cpp   ****     hw.ProcessAnalogControls();
 305              		.loc 19 25 1 is_stmt 0 view .LVU63
ARM GAS  /var/folders/hp/45mn71hd0ps5f5pnytxy5bt00000gn/T//ccIwDN9B.s 			page 27


 306 0000 2DE9F047 		push	{r4, r5, r6, r7, r8, r9, r10, lr}
 307              		.cfi_def_cfa_offset 32
 308              		.cfi_offset 4, -32
 309              		.cfi_offset 5, -28
 310              		.cfi_offset 6, -24
 311              		.cfi_offset 7, -20
 312              		.cfi_offset 8, -16
 313              		.cfi_offset 9, -12
 314              		.cfi_offset 10, -8
 315              		.cfi_offset 14, -4
 316              		.loc 19 26 29 view .LVU64
 317 0004 604D     		ldr	r5, .L53+8
  25:SynthV5.cpp   ****     hw.ProcessAnalogControls();
 318              		.loc 19 25 1 view .LVU65
 319 0006 0C46     		mov	r4, r1
 320 0008 1646     		mov	r6, r2
 321              		.loc 19 26 29 view .LVU66
 322 000a 2846     		mov	r0, r5
 323              	.LVL6:
  25:SynthV5.cpp   ****     hw.ProcessAnalogControls();
 324              		.loc 19 25 1 view .LVU67
 325 000c 2DED028B 		vpush.64	{d8}
 326              		.cfi_def_cfa_offset 40
 327              		.cfi_offset 80, -40
 328              		.cfi_offset 81, -36
 329              		.loc 19 26 29 view .LVU68
 330 0010 FFF7FEFF 		bl	_ZN5daisy8DaisyPod21ProcessAnalogControlsEv
 331              	.LVL7:
  27:SynthV5.cpp   ****     hw.ProcessDigitalControls();
 332              		.loc 19 27 5 is_stmt 1 view .LVU69
 333              		.loc 19 27 30 is_stmt 0 view .LVU70
 334 0014 2846     		mov	r0, r5
 335 0016 FFF7FEFF 		bl	_ZN5daisy8DaisyPod22ProcessDigitalControlsEv
 336              	.LVL8:
  28:SynthV5.cpp   **** 
  29:SynthV5.cpp   ****     if(hw.button1.RisingEdge() || (adCycle && !ad.IsRunning()))
 337              		.loc 19 29 5 is_stmt 1 view .LVU71
 338              	.LBB503:
 339              	.LBI503:
  43:../../DaisyExamples/libDaisy/src/hid/switch.h **** 
  44:../../DaisyExamples/libDaisy/src/hid/switch.h ****     /** 
  45:../../DaisyExamples/libDaisy/src/hid/switch.h ****     Initializes the switch object with a given port/pin combo.
  46:../../DaisyExamples/libDaisy/src/hid/switch.h ****     \param pin port/pin object to tell the switch which hardware pin to use.
  47:../../DaisyExamples/libDaisy/src/hid/switch.h ****     \param update_rate Does nothing. Backwards compatibility until next breaking update.
  48:../../DaisyExamples/libDaisy/src/hid/switch.h ****     \param t switch type -- Default: TYPE_MOMENTARY
  49:../../DaisyExamples/libDaisy/src/hid/switch.h ****     \param pol switch polarity -- Default: POLARITY_INVERTED
  50:../../DaisyExamples/libDaisy/src/hid/switch.h ****     \param pu switch pull up/down -- Default: PULL_UP
  51:../../DaisyExamples/libDaisy/src/hid/switch.h ****     */
  52:../../DaisyExamples/libDaisy/src/hid/switch.h ****     void
  53:../../DaisyExamples/libDaisy/src/hid/switch.h ****     Init(dsy_gpio_pin pin, float update_rate, Type t, Polarity pol, Pull pu);
  54:../../DaisyExamples/libDaisy/src/hid/switch.h **** 
  55:../../DaisyExamples/libDaisy/src/hid/switch.h ****     /**
  56:../../DaisyExamples/libDaisy/src/hid/switch.h ****        Simplified Init.
  57:../../DaisyExamples/libDaisy/src/hid/switch.h ****        \param pin port/pin object to tell the switch which hardware pin to use.
  58:../../DaisyExamples/libDaisy/src/hid/switch.h ****        \param update_rate Left for backwards compatibility until next breaking change.
  59:../../DaisyExamples/libDaisy/src/hid/switch.h ****     */
  60:../../DaisyExamples/libDaisy/src/hid/switch.h ****     void Init(dsy_gpio_pin pin, float update_rate = 0.f);
ARM GAS  /var/folders/hp/45mn71hd0ps5f5pnytxy5bt00000gn/T//ccIwDN9B.s 			page 28


  61:../../DaisyExamples/libDaisy/src/hid/switch.h **** 
  62:../../DaisyExamples/libDaisy/src/hid/switch.h ****     /** 
  63:../../DaisyExamples/libDaisy/src/hid/switch.h ****     Called at update_rate to debounce and handle timing for the switch.
  64:../../DaisyExamples/libDaisy/src/hid/switch.h ****     In order for events not to be missed, its important that the Edge/Pressed checks
  65:../../DaisyExamples/libDaisy/src/hid/switch.h ****     be made at the same rate as the debounce function is being called.
  66:../../DaisyExamples/libDaisy/src/hid/switch.h ****     */
  67:../../DaisyExamples/libDaisy/src/hid/switch.h ****     void Debounce();
  68:../../DaisyExamples/libDaisy/src/hid/switch.h **** 
  69:../../DaisyExamples/libDaisy/src/hid/switch.h ****     /** \return true if a button was just pressed. */
  70:../../DaisyExamples/libDaisy/src/hid/switch.h ****     inline bool RisingEdge() const { return updated_ ? state_ == 0x7f : false; }
 340              		.loc 9 70 17 view .LVU72
 341              	.LBB504:
 342              		.loc 9 70 38 view .LVU73
 343              		.loc 9 70 54 is_stmt 0 view .LVU74
 344 001a 95F8B430 		ldrb	r3, [r5, #180]	@ zero_extendqisi2
 345 001e 002B     		cmp	r3, #0
 346 0020 5DD0     		beq	.L8
 347              	.LVL9:
 348              		.loc 9 70 54 view .LVU75
 349              	.LBE504:
 350              	.LBE503:
 351              		.loc 19 29 32 view .LVU76
 352 0022 95F8BA30 		ldrb	r3, [r5, #186]	@ zero_extendqisi2
 353 0026 7F2B     		cmp	r3, #127
 354 0028 59D1     		bne	.L8
 355 002a 584F     		ldr	r7, .L53+12
 356              	.L9:
  30:SynthV5.cpp   ****         ad.Trigger();
 357              		.loc 19 30 9 is_stmt 1 discriminator 5 view .LVU77
 358              	.LVL10:
 359              	.LBB505:
 360              	.LBI505:
  44:../../DaisyExamples/DaisySP/Source/Control/adenv.h ****     /** Initializes the ad envelope.
  45:../../DaisyExamples/DaisySP/Source/Control/adenv.h **** 
  46:../../DaisyExamples/DaisySP/Source/Control/adenv.h ****         Defaults:
  47:../../DaisyExamples/DaisySP/Source/Control/adenv.h ****             - current segment = idle
  48:../../DaisyExamples/DaisySP/Source/Control/adenv.h ****             - curve = linear
  49:../../DaisyExamples/DaisySP/Source/Control/adenv.h ****             - phase = 0
  50:../../DaisyExamples/DaisySP/Source/Control/adenv.h ****             - min = 0
  51:../../DaisyExamples/DaisySP/Source/Control/adenv.h ****             - max = 1
  52:../../DaisyExamples/DaisySP/Source/Control/adenv.h **** 
  53:../../DaisyExamples/DaisySP/Source/Control/adenv.h ****         \param sample_rate      sample rate of the audio engine being run
  54:../../DaisyExamples/DaisySP/Source/Control/adenv.h ****     */
  55:../../DaisyExamples/DaisySP/Source/Control/adenv.h ****     void Init(float sample_rate);
  56:../../DaisyExamples/DaisySP/Source/Control/adenv.h **** 
  57:../../DaisyExamples/DaisySP/Source/Control/adenv.h ****     /** Processes the current sample of the envelope. This should be called once
  58:../../DaisyExamples/DaisySP/Source/Control/adenv.h ****         per sample period.
  59:../../DaisyExamples/DaisySP/Source/Control/adenv.h ****         \return the current envelope value.
  60:../../DaisyExamples/DaisySP/Source/Control/adenv.h ****     */
  61:../../DaisyExamples/DaisySP/Source/Control/adenv.h ****     float Process();
  62:../../DaisyExamples/DaisySP/Source/Control/adenv.h **** 
  63:../../DaisyExamples/DaisySP/Source/Control/adenv.h ****     /** Starts or retriggers the envelope.*/
  64:../../DaisyExamples/DaisySP/Source/Control/adenv.h ****     inline void Trigger() { trigger_ = 1; }
 361              		.loc 16 64 17 discriminator 5 view .LVU78
 362              	.LBB506:
 363              		.loc 16 64 29 discriminator 5 view .LVU79
 364              		.loc 16 64 38 is_stmt 0 discriminator 5 view .LVU80
ARM GAS  /var/folders/hp/45mn71hd0ps5f5pnytxy5bt00000gn/T//ccIwDN9B.s 			page 29


 365 002c 0123     		movs	r3, #1
 366 002e 87F83430 		strb	r3, [r7, #52]
 367              	.LVL11:
 368              	.L10:
 369              		.loc 16 64 38 discriminator 5 view .LVU81
 370              	.LBE506:
 371              	.LBE505:
  31:SynthV5.cpp   **** 
  32:SynthV5.cpp   ****     if(hw.button2.RisingEdge())
 372              		.loc 19 32 5 is_stmt 1 view .LVU82
 373              	.LBB507:
 374              	.LBI507:
 375              		.loc 9 70 17 view .LVU83
 376              	.LBB508:
 377              		.loc 9 70 38 view .LVU84
 378              		.loc 9 70 54 is_stmt 0 view .LVU85
 379 0032 95F8C430 		ldrb	r3, [r5, #196]	@ zero_extendqisi2
 380 0036 23B1     		cbz	r3, .L11
 381              	.LVL12:
 382              		.loc 9 70 54 view .LVU86
 383              	.LBE508:
 384              	.LBE507:
 385              		.loc 19 32 5 view .LVU87
 386 0038 95F8CA30 		ldrb	r3, [r5, #202]	@ zero_extendqisi2
 387 003c 7F2B     		cmp	r3, #127
 388 003e 00F08780 		beq	.L49
 389              	.L11:
  33:SynthV5.cpp   ****         adCycle = !adCycle;
  34:SynthV5.cpp   **** 
  35:SynthV5.cpp   ****     adRelease = p_release.Process();
 390              		.loc 19 35 5 is_stmt 1 view .LVU88
 391              		.loc 19 35 34 is_stmt 0 view .LVU89
 392 0042 5348     		ldr	r0, .L53+16
 393 0044 FFF7FEFF 		bl	_ZN5daisy9Parameter7ProcessEv
 394              	.LVL13:
 395              		.loc 19 35 15 view .LVU90
 396 0048 DFF85091 		ldr	r9, .L53+28
 397              	.LBB509:
 398              	.LBB510:
  22:../../DaisyExamples/libDaisy/src/hid/encoder.h **** 
  23:../../DaisyExamples/libDaisy/src/hid/encoder.h ****     /** Initializes the encoder with the specified hardware pins.
  24:../../DaisyExamples/libDaisy/src/hid/encoder.h ****      * Update rate is to be deprecated in a future release
  25:../../DaisyExamples/libDaisy/src/hid/encoder.h ****      */
  26:../../DaisyExamples/libDaisy/src/hid/encoder.h ****     void Init(dsy_gpio_pin a,
  27:../../DaisyExamples/libDaisy/src/hid/encoder.h ****               dsy_gpio_pin b,
  28:../../DaisyExamples/libDaisy/src/hid/encoder.h ****               dsy_gpio_pin click,
  29:../../DaisyExamples/libDaisy/src/hid/encoder.h ****               float        update_rate = 0.f);
  30:../../DaisyExamples/libDaisy/src/hid/encoder.h ****     /** Called at update_rate to debounce and handle timing for the switch.
  31:../../DaisyExamples/libDaisy/src/hid/encoder.h ****      * In order for events not to be missed, its important that the Edge/Pressed checks be made at 
  32:../../DaisyExamples/libDaisy/src/hid/encoder.h ****      */
  33:../../DaisyExamples/libDaisy/src/hid/encoder.h ****     void Debounce();
  34:../../DaisyExamples/libDaisy/src/hid/encoder.h **** 
  35:../../DaisyExamples/libDaisy/src/hid/encoder.h ****     /** Returns +1 if the encoder was turned clockwise, -1 if it was turned counter-clockwise, or 0
  36:../../DaisyExamples/libDaisy/src/hid/encoder.h ****     inline int32_t Increment() const { return updated_ ? inc_ : 0; }
 399              		.loc 10 36 56 view .LVU91
 400 004c 95F84430 		ldrb	r3, [r5, #68]	@ zero_extendqisi2
 401              	.LBE510:
ARM GAS  /var/folders/hp/45mn71hd0ps5f5pnytxy5bt00000gn/T//ccIwDN9B.s 			page 30


 402              	.LBE509:
 403              		.loc 19 35 15 view .LVU92
 404 0050 89ED000A 		vstr.32	s0, [r9]
  36:SynthV5.cpp   ****     
  37:SynthV5.cpp   ****     inc = hw.encoder.Increment();
 405              		.loc 19 37 5 is_stmt 1 view .LVU93
 406              	.LVL14:
 407              	.LBB512:
 408              	.LBI509:
 409              		.loc 10 36 20 view .LVU94
 410              	.LBB511:
 411              		.loc 10 36 40 view .LVU95
 412              		.loc 10 36 56 is_stmt 0 view .LVU96
 413 0054 002B     		cmp	r3, #0
 414 0056 4BD1     		bne	.L12
 415              	.LVL15:
 416              	.L16:
 417              		.loc 10 36 56 view .LVU97
 418              	.LBE511:
 419              	.LBE512:
  38:SynthV5.cpp   ****     if(inc > 0)
  39:SynthV5.cpp   ****         volChange += 0.02;
  40:SynthV5.cpp   ****     else if(inc < 0)
  41:SynthV5.cpp   ****         volChange -= 0.02;
  42:SynthV5.cpp   **** 
  43:SynthV5.cpp   ****     if (volChange > 1)
 420              		.loc 19 43 19 view .LVU98
 421 0058 DFF844A1 		ldr	r10, .L53+32
 422 005c 9AED007A 		vldr.32	s14, [r10]
 423              	.L13:
 424              		.loc 19 43 5 is_stmt 1 view .LVU99
 425 0060 F7EE007A 		vmov.f32	s15, #1.0e+0
 426 0064 B4EEE77A 		vcmpe.f32	s14, s15
 427 0068 F1EE10FA 		vmrs	APSR_nzcv, FPSCR
 428 006c 5EDD     		ble	.L47
 429              	.L52:
  44:SynthV5.cpp   ****         volChange = 1;
 430              		.loc 19 44 9 view .LVU100
 431              		.loc 19 44 19 is_stmt 0 view .LVU101
 432 006e CAED007A 		vstr.32	s15, [r10]
 433              	.L20:
  45:SynthV5.cpp   ****     else if(volChange < 0)
  46:SynthV5.cpp   ****         volChange = 0;
  47:SynthV5.cpp   **** 
  48:SynthV5.cpp   ****     if(hw.encoder.RisingEdge())
 434              		.loc 19 48 5 is_stmt 1 view .LVU102
 435              	.LVL16:
 436              	.LBB513:
 437              	.LBI513:
  37:../../DaisyExamples/libDaisy/src/hid/encoder.h **** 
  38:../../DaisyExamples/libDaisy/src/hid/encoder.h ****     /** Returns true if the encoder was just pressed. */
  39:../../DaisyExamples/libDaisy/src/hid/encoder.h ****     inline bool RisingEdge() const { return sw_.RisingEdge(); }
 438              		.loc 10 39 17 view .LVU103
 439              	.LBE513:
 440              		.loc 10 39 38 view .LVU104
 441              	.LBB516:
 442              	.LBB514:
ARM GAS  /var/folders/hp/45mn71hd0ps5f5pnytxy5bt00000gn/T//ccIwDN9B.s 			page 31


 443              	.LBI514:
 444              		.loc 9 70 17 view .LVU105
 445              	.LBB515:
 446              		.loc 9 70 38 view .LVU106
 447              		.loc 9 70 54 is_stmt 0 view .LVU107
 448 0072 95F84C30 		ldrb	r3, [r5, #76]	@ zero_extendqisi2
 449 0076 1BB1     		cbz	r3, .L22
 450              	.LVL17:
 451              		.loc 9 70 54 view .LVU108
 452              	.LBE515:
 453              	.LBE514:
 454              	.LBE516:
 455              		.loc 19 48 5 view .LVU109
 456 0078 95F85230 		ldrb	r3, [r5, #82]	@ zero_extendqisi2
 457 007c 7F2B     		cmp	r3, #127
 458 007e 5ED0     		beq	.L50
 459              	.L22:
 460              	.LVL18:
 461              	.LBB517:
  49:SynthV5.cpp   ****         isVolumeOn = !isVolumeOn;
  50:SynthV5.cpp   ****     
  51:SynthV5.cpp   ****     for(size_t i = 0; i < size; i += 2)
 462              		.loc 19 51 25 is_stmt 1 discriminator 3 view .LVU110
 463 0080 4EB3     		cbz	r6, .L7
 464 0082 013E     		subs	r6, r6, #1
 465              	.LVL19:
 466              		.loc 19 51 25 is_stmt 0 view .LVU111
 467 0084 0025     		movs	r5, #0
 468 0086 414F     		ldr	r7, .L53+12
 469 0088 7608     		lsrs	r6, r6, #1
 470              	.LVL20:
 471              		.loc 19 51 25 view .LVU112
 472 008a DFF81881 		ldr	r8, .L53+36
 473 008e 01E0     		b	.L24
 474              	.LVL21:
 475              	.L51:
 476              	.LBB518:
  52:SynthV5.cpp   ****     {
  53:SynthV5.cpp   ****         float sig;
  54:SynthV5.cpp   ****         float adOut;
  55:SynthV5.cpp   **** 
  56:SynthV5.cpp   ****         ad.SetTime(ADENV_SEG_DECAY, adRelease);
 477              		.loc 19 56 19 view .LVU113
 478 0090 99ED000A 		vldr.32	s0, [r9]
 479              	.LVL22:
 480              	.L24:
  53:SynthV5.cpp   ****         float adOut;
 481              		.loc 19 53 9 is_stmt 1 discriminator 2 view .LVU114
  54:SynthV5.cpp   **** 
 482              		.loc 19 54 9 discriminator 2 view .LVU115
 483              		.loc 19 56 9 discriminator 2 view .LVU116
 484              	.LBB519:
 485              	.LBI519:
  65:../../DaisyExamples/DaisySP/Source/Control/adenv.h ****     /** Sets the length of time (in seconds) for a specific segment. */
  66:../../DaisyExamples/DaisySP/Source/Control/adenv.h ****     inline void SetTime(uint8_t seg, float time) { segment_time_[seg] = time; }
 486              		.loc 16 66 17 discriminator 2 view .LVU117
 487              	.LBB520:
ARM GAS  /var/folders/hp/45mn71hd0ps5f5pnytxy5bt00000gn/T//ccIwDN9B.s 			page 32


 488              		.loc 16 66 52 discriminator 2 view .LVU118
 489              	.LBE520:
 490              	.LBE519:
  57:SynthV5.cpp   ****         adOut = ad.Process();
 491              		.loc 19 57 27 is_stmt 0 discriminator 2 view .LVU119
 492 0094 3D48     		ldr	r0, .L53+12
 493              	.LBE518:
  51:SynthV5.cpp   ****     {
 494              		.loc 19 51 25 discriminator 2 view .LVU120
 495 0096 0834     		adds	r4, r4, #8
 496              	.LBB523:
 497              	.LBB522:
 498              	.LBB521:
 499              		.loc 16 66 71 discriminator 2 view .LVU121
 500 0098 87ED030A 		vstr.32	s0, [r7, #12]
 501              	.LVL23:
 502              		.loc 16 66 71 discriminator 2 view .LVU122
 503              	.LBE521:
 504              	.LBE522:
 505              		.loc 19 57 9 is_stmt 1 discriminator 2 view .LVU123
 506              		.loc 19 57 27 is_stmt 0 discriminator 2 view .LVU124
 507 009c FFF7FEFF 		bl	_ZN7daisysp5AdEnv7ProcessEv
 508              	.LVL24:
 509 00a0 B0EE408A 		vmov.f32	s16, s0
 510              	.LVL25:
  58:SynthV5.cpp   ****         sig = osc.Process();
 511              		.loc 19 58 9 is_stmt 1 discriminator 2 view .LVU125
 512              		.loc 19 58 26 is_stmt 0 discriminator 2 view .LVU126
 513 00a4 3B48     		ldr	r0, .L53+20
 514 00a6 FFF7FEFF 		bl	_ZN7daisysp10Oscillator7ProcessEv
 515              	.LVL26:
  59:SynthV5.cpp   ****         sig *= adOut;
 516              		.loc 19 59 9 is_stmt 1 discriminator 2 view .LVU127
  60:SynthV5.cpp   ****         sig *= volChange;
  61:SynthV5.cpp   ****         sig *= isVolumeOn;
 517              		.loc 19 61 13 is_stmt 0 discriminator 2 view .LVU128
 518 00aa 98F80030 		ldrb	r3, [r8]	@ zero_extendqisi2
  60:SynthV5.cpp   ****         sig *= volChange;
 519              		.loc 19 60 13 discriminator 2 view .LVU129
 520 00ae DAED007A 		vldr.32	s15, [r10]
 521              	.LBE523:
  51:SynthV5.cpp   ****     {
 522              		.loc 19 51 25 discriminator 2 view .LVU130
 523 00b2 B542     		cmp	r5, r6
 524              	.LBB524:
  59:SynthV5.cpp   ****         sig *= adOut;
 525              		.loc 19 59 13 discriminator 2 view .LVU131
 526 00b4 28EE000A 		vmul.f32	s0, s16, s0
 527              	.LVL27:
  60:SynthV5.cpp   ****         sig *= volChange;
 528              		.loc 19 60 9 is_stmt 1 discriminator 2 view .LVU132
 529              		.loc 19 61 13 is_stmt 0 discriminator 2 view .LVU133
 530 00b8 07EE103A 		vmov	s14, r3	@ int
 531 00bc 05F10105 		add	r5, r5, #1
 532              	.LVL28:
 533              		.loc 19 61 13 discriminator 2 view .LVU134
 534 00c0 B8EEC78A 		vcvt.f32.s32	s16, s14
ARM GAS  /var/folders/hp/45mn71hd0ps5f5pnytxy5bt00000gn/T//ccIwDN9B.s 			page 33


 535              	.LVL29:
  60:SynthV5.cpp   ****         sig *= volChange;
 536              		.loc 19 60 13 discriminator 2 view .LVU135
 537 00c4 20EE270A 		vmul.f32	s0, s0, s15
 538              	.LVL30:
 539              		.loc 19 61 9 is_stmt 1 discriminator 2 view .LVU136
 540              		.loc 19 61 13 is_stmt 0 discriminator 2 view .LVU137
 541 00c8 28EE000A 		vmul.f32	s0, s16, s0
 542              	.LVL31:
  62:SynthV5.cpp   ****         out[i] = sig;
 543              		.loc 19 62 9 is_stmt 1 discriminator 2 view .LVU138
 544              		.loc 19 62 16 is_stmt 0 discriminator 2 view .LVU139
 545 00cc 04ED020A 		vstr.32	s0, [r4, #-8]
  63:SynthV5.cpp   ****         out[i + 1] = sig;
 546              		.loc 19 63 9 is_stmt 1 discriminator 2 view .LVU140
 547              		.loc 19 63 20 is_stmt 0 discriminator 2 view .LVU141
 548 00d0 04ED010A 		vstr.32	s0, [r4, #-4]
 549              	.LBE524:
  51:SynthV5.cpp   ****     {
 550              		.loc 19 51 5 is_stmt 1 discriminator 2 view .LVU142
 551              	.LVL32:
  51:SynthV5.cpp   ****     {
 552              		.loc 19 51 25 discriminator 2 view .LVU143
 553 00d4 DCD1     		bne	.L51
 554              	.LVL33:
 555              	.L7:
  51:SynthV5.cpp   ****     {
 556              		.loc 19 51 25 is_stmt 0 discriminator 2 view .LVU144
 557              	.LBE517:
  64:SynthV5.cpp   ****     }
  65:SynthV5.cpp   **** }
 558              		.loc 19 65 1 view .LVU145
 559 00d6 BDEC028B 		vldm	sp!, {d8}
 560              		.cfi_remember_state
 561              		.cfi_restore 80
 562              		.cfi_restore 81
 563              		.cfi_def_cfa_offset 32
 564 00da BDE8F087 		pop	{r4, r5, r6, r7, r8, r9, r10, pc}
 565              	.LVL34:
 566              	.L8:
 567              		.cfi_restore_state
  29:SynthV5.cpp   ****         ad.Trigger();
 568              		.loc 19 29 32 discriminator 2 view .LVU146
 569 00de 2E4B     		ldr	r3, .L53+24
 570 00e0 1B78     		ldrb	r3, [r3]	@ zero_extendqisi2
 571 00e2 002B     		cmp	r3, #0
 572 00e4 A5D0     		beq	.L10
 573              	.LVL35:
 574              	.LBB525:
 575              	.LBI525:
  67:../../DaisyExamples/DaisySP/Source/Control/adenv.h ****     /** Sets the amount of curve applied. A positve value will create a log
  68:../../DaisyExamples/DaisySP/Source/Control/adenv.h ****         curve. Input range: -100 to 100.  (or more)
  69:../../DaisyExamples/DaisySP/Source/Control/adenv.h ****     */
  70:../../DaisyExamples/DaisySP/Source/Control/adenv.h ****     inline void SetCurve(float scalar) { curve_scalar_ = scalar; }
  71:../../DaisyExamples/DaisySP/Source/Control/adenv.h ****     /** Sets the minimum value of the envelope output.
  72:../../DaisyExamples/DaisySP/Source/Control/adenv.h ****         Input range: -FLTmax_, to FLTmax_
  73:../../DaisyExamples/DaisySP/Source/Control/adenv.h ****     */
ARM GAS  /var/folders/hp/45mn71hd0ps5f5pnytxy5bt00000gn/T//ccIwDN9B.s 			page 34


  74:../../DaisyExamples/DaisySP/Source/Control/adenv.h ****     inline void SetMin(float min) { min_ = min; }
  75:../../DaisyExamples/DaisySP/Source/Control/adenv.h ****     /** Sets the maximum value of the envelope output.
  76:../../DaisyExamples/DaisySP/Source/Control/adenv.h ****         Input range: -FLTmax_, to FLTmax_
  77:../../DaisyExamples/DaisySP/Source/Control/adenv.h ****     */
  78:../../DaisyExamples/DaisySP/Source/Control/adenv.h ****     inline void SetMax(float max) { max_ = max; }
  79:../../DaisyExamples/DaisySP/Source/Control/adenv.h ****     /** Returns the current output value without processing the next sample */
  80:../../DaisyExamples/DaisySP/Source/Control/adenv.h ****     inline float GetValue() const { return (output_ * (max_ - min_)) + min_; }
  81:../../DaisyExamples/DaisySP/Source/Control/adenv.h ****     /** Returns the segment of the envelope that the phase is currently located
  82:../../DaisyExamples/DaisySP/Source/Control/adenv.h ****         in.
  83:../../DaisyExamples/DaisySP/Source/Control/adenv.h ****     */
  84:../../DaisyExamples/DaisySP/Source/Control/adenv.h ****     inline uint8_t GetCurrentSegment() { return current_segment_; }
  85:../../DaisyExamples/DaisySP/Source/Control/adenv.h ****     /** Returns true if the envelope is currently in any stage apart from idle.
  86:../../DaisyExamples/DaisySP/Source/Control/adenv.h ****     */
  87:../../DaisyExamples/DaisySP/Source/Control/adenv.h ****     inline bool IsRunning() const { return current_segment_ != ADENV_SEG_IDLE; }
 576              		.loc 16 87 17 is_stmt 1 view .LVU147
 577              	.LBB526:
 578              		.loc 16 87 37 view .LVU148
 579              		.loc 16 87 44 is_stmt 0 view .LVU149
 580 00e6 294F     		ldr	r7, .L53+12
 581              	.LBE526:
 582              	.LBE525:
  29:SynthV5.cpp   ****         ad.Trigger();
 583              		.loc 19 29 44 view .LVU150
 584 00e8 3B78     		ldrb	r3, [r7]	@ zero_extendqisi2
 585 00ea 002B     		cmp	r3, #0
 586 00ec A1D1     		bne	.L10
 587 00ee 9DE7     		b	.L9
 588              	.LVL36:
 589              	.L12:
  37:SynthV5.cpp   ****     if(inc > 0)
 590              		.loc 19 37 9 view .LVU151
 591 00f0 D5ED197A 		vldr.32	s15, [r5, #100]	@ int
 592 00f4 F8EEE77A 		vcvt.f32.s32	s15, s15
  38:SynthV5.cpp   ****         volChange += 0.02;
 593              		.loc 19 38 5 is_stmt 1 view .LVU152
 594 00f8 F5EEC07A 		vcmpe.f32	s15, #0
 595 00fc F1EE10FA 		vmrs	APSR_nzcv, FPSCR
 596 0100 2CDD     		ble	.L46
  39:SynthV5.cpp   ****     else if(inc < 0)
 597              		.loc 19 39 9 view .LVU153
  39:SynthV5.cpp   ****     else if(inc < 0)
 598              		.loc 19 39 19 is_stmt 0 view .LVU154
 599 0102 DFF89CA0 		ldr	r10, .L53+32
 600 0106 9AED007A 		vldr.32	s14, [r10]
 601 010a 9FED1D6B 		vldr.64	d6, .L53
 602 010e B7EEC77A 		vcvt.f64.f32	d7, s14
 603 0112 37EE067B 		vadd.f64	d7, d7, d6
 604 0116 B7EEC77B 		vcvt.f32.f64	s14, d7
  43:SynthV5.cpp   ****         volChange = 1;
 605              		.loc 19 43 5 view .LVU155
 606 011a F7EE007A 		vmov.f32	s15, #1.0e+0
  39:SynthV5.cpp   ****     else if(inc < 0)
 607              		.loc 19 39 19 view .LVU156
 608 011e 8AED007A 		vstr.32	s14, [r10]
  43:SynthV5.cpp   ****         volChange = 1;
 609              		.loc 19 43 5 is_stmt 1 view .LVU157
 610 0122 B4EEE77A 		vcmpe.f32	s14, s15
ARM GAS  /var/folders/hp/45mn71hd0ps5f5pnytxy5bt00000gn/T//ccIwDN9B.s 			page 35


 611 0126 F1EE10FA 		vmrs	APSR_nzcv, FPSCR
 612 012a A0DC     		bgt	.L52
 613              	.L47:
  45:SynthV5.cpp   ****         volChange = 0;
 614              		.loc 19 45 10 view .LVU158
 615 012c B5EEC07A 		vcmpe.f32	s14, #0
 616 0130 0023     		movs	r3, #0
 617 0132 F1EE10FA 		vmrs	APSR_nzcv, FPSCR
  46:SynthV5.cpp   **** 
 618              		.loc 19 46 9 view .LVU159
  46:SynthV5.cpp   **** 
 619              		.loc 19 46 19 is_stmt 0 view .LVU160
 620 0136 48BF     		it	mi
 621 0138 CAF80030 		strmi	r3, [r10]	@ float
 622 013c 99E7     		b	.L20
 623              	.L50:
  49:SynthV5.cpp   ****     
 624              		.loc 19 49 9 is_stmt 1 view .LVU161
  49:SynthV5.cpp   ****     
 625              		.loc 19 49 20 is_stmt 0 view .LVU162
 626 013e DFF86480 		ldr	r8, .L53+36
  49:SynthV5.cpp   ****     
 627              		.loc 19 49 22 view .LVU163
 628 0142 98F80030 		ldrb	r3, [r8]	@ zero_extendqisi2
 629 0146 83F00103 		eor	r3, r3, #1
  49:SynthV5.cpp   ****     
 630              		.loc 19 49 20 view .LVU164
 631 014a 88F80030 		strb	r3, [r8]
 632 014e 97E7     		b	.L22
 633              	.L49:
  33:SynthV5.cpp   **** 
 634              		.loc 19 33 9 is_stmt 1 view .LVU165
  33:SynthV5.cpp   **** 
 635              		.loc 19 33 17 is_stmt 0 view .LVU166
 636 0150 114A     		ldr	r2, .L53+24
  33:SynthV5.cpp   **** 
 637              		.loc 19 33 19 view .LVU167
 638 0152 1378     		ldrb	r3, [r2]	@ zero_extendqisi2
 639 0154 83F00103 		eor	r3, r3, #1
  33:SynthV5.cpp   **** 
 640              		.loc 19 33 17 view .LVU168
 641 0158 1370     		strb	r3, [r2]
 642 015a 72E7     		b	.L11
 643              	.L46:
  40:SynthV5.cpp   ****         volChange -= 0.02;
 644              		.loc 19 40 10 is_stmt 1 view .LVU169
 645 015c 7FF57CAF 		bpl	.L16
  41:SynthV5.cpp   **** 
 646              		.loc 19 41 9 view .LVU170
  41:SynthV5.cpp   **** 
 647              		.loc 19 41 19 is_stmt 0 view .LVU171
 648 0160 DFF83CA0 		ldr	r10, .L53+32
 649 0164 9AED007A 		vldr.32	s14, [r10]
 650 0168 9FED056B 		vldr.64	d6, .L53
 651 016c B7EEC77A 		vcvt.f64.f32	d7, s14
 652 0170 37EE467B 		vsub.f64	d7, d7, d6
 653 0174 B7EEC77B 		vcvt.f32.f64	s14, d7
ARM GAS  /var/folders/hp/45mn71hd0ps5f5pnytxy5bt00000gn/T//ccIwDN9B.s 			page 36


 654 0178 8AED007A 		vstr.32	s14, [r10]
 655 017c 70E7     		b	.L13
 656              	.L54:
 657 017e 00BF     		.align	3
 658              	.L53:
 659 0180 7B14AE47 		.word	1202590843
 660 0184 E17A943F 		.word	1066695393
 661 0188 00000000 		.word	_ZL2hw
 662 018c 00000000 		.word	.LANCHOR1
 663 0190 00000000 		.word	.LANCHOR2
 664 0194 00000000 		.word	.LANCHOR6
 665 0198 00000000 		.word	.LANCHOR0
 666 019c 00000000 		.word	.LANCHOR3
 667 01a0 00000000 		.word	.LANCHOR4
 668 01a4 00000000 		.word	.LANCHOR5
 669              		.cfi_endproc
 670              	.LFE4854:
 672              		.section	.text._ZN5daisy11MidiHandlerINS_16MidiUsbTransportEE13ParseCallbackEPhjPv,"axG",%progbits
 673              		.align	1
 674              		.p2align 2,,3
 675              		.weak	_ZN5daisy11MidiHandlerINS_16MidiUsbTransportEE13ParseCallbackEPhjPv
 676              		.syntax unified
 677              		.thumb
 678              		.thumb_func
 680              	_ZN5daisy11MidiHandlerINS_16MidiUsbTransportEE13ParseCallbackEPhjPv:
 681              	.LVL37:
 682              	.LFB5358:
 157:../../DaisyExamples/libDaisy/src/hid/midi.h **** 
 158:../../DaisyExamples/libDaisy/src/hid/midi.h ****     struct Config
 159:../../DaisyExamples/libDaisy/src/hid/midi.h ****     {
 160:../../DaisyExamples/libDaisy/src/hid/midi.h ****         typename Transport::Config transport_config;
 161:../../DaisyExamples/libDaisy/src/hid/midi.h ****     };
 162:../../DaisyExamples/libDaisy/src/hid/midi.h **** 
 163:../../DaisyExamples/libDaisy/src/hid/midi.h ****     /** Initializes the MidiHandler
 164:../../DaisyExamples/libDaisy/src/hid/midi.h ****      *  \param config Configuration structure used to define specifics to the MIDI Handler.
 165:../../DaisyExamples/libDaisy/src/hid/midi.h ****      */
 166:../../DaisyExamples/libDaisy/src/hid/midi.h ****     void Init(Config config)
 167:../../DaisyExamples/libDaisy/src/hid/midi.h ****     {
 168:../../DaisyExamples/libDaisy/src/hid/midi.h ****         config_ = config;
 169:../../DaisyExamples/libDaisy/src/hid/midi.h ****         transport_.Init(config_.transport_config);
 170:../../DaisyExamples/libDaisy/src/hid/midi.h ****         parser_.Init();
 171:../../DaisyExamples/libDaisy/src/hid/midi.h ****     }
 172:../../DaisyExamples/libDaisy/src/hid/midi.h **** 
 173:../../DaisyExamples/libDaisy/src/hid/midi.h ****     /** Starts listening on the selected input mode(s).
 174:../../DaisyExamples/libDaisy/src/hid/midi.h ****      * MidiEvent Queue will begin to fill, and can be checked with HasEvents() */
 175:../../DaisyExamples/libDaisy/src/hid/midi.h ****     void StartReceive()
 176:../../DaisyExamples/libDaisy/src/hid/midi.h ****     {
 177:../../DaisyExamples/libDaisy/src/hid/midi.h ****         transport_.StartRx(MidiHandler::ParseCallback, this);
 178:../../DaisyExamples/libDaisy/src/hid/midi.h ****     }
 179:../../DaisyExamples/libDaisy/src/hid/midi.h **** 
 180:../../DaisyExamples/libDaisy/src/hid/midi.h ****     /** Start listening */
 181:../../DaisyExamples/libDaisy/src/hid/midi.h ****     void Listen()
 182:../../DaisyExamples/libDaisy/src/hid/midi.h ****     {
 183:../../DaisyExamples/libDaisy/src/hid/midi.h ****         // In case of UART Error, (particularly
 184:../../DaisyExamples/libDaisy/src/hid/midi.h ****         //  overrun error), UART disables itself.
 185:../../DaisyExamples/libDaisy/src/hid/midi.h ****         // Flush the buff, and restart.
 186:../../DaisyExamples/libDaisy/src/hid/midi.h ****         if(!transport_.RxActive())
ARM GAS  /var/folders/hp/45mn71hd0ps5f5pnytxy5bt00000gn/T//ccIwDN9B.s 			page 37


 187:../../DaisyExamples/libDaisy/src/hid/midi.h ****         {
 188:../../DaisyExamples/libDaisy/src/hid/midi.h ****             parser_.Reset();
 189:../../DaisyExamples/libDaisy/src/hid/midi.h ****             transport_.FlushRx();
 190:../../DaisyExamples/libDaisy/src/hid/midi.h ****             StartReceive();
 191:../../DaisyExamples/libDaisy/src/hid/midi.h ****         }
 192:../../DaisyExamples/libDaisy/src/hid/midi.h ****     }
 193:../../DaisyExamples/libDaisy/src/hid/midi.h **** 
 194:../../DaisyExamples/libDaisy/src/hid/midi.h ****     /** Checks if there are unhandled messages in the queue
 195:../../DaisyExamples/libDaisy/src/hid/midi.h ****     \return True if there are events to be handled, else false.
 196:../../DaisyExamples/libDaisy/src/hid/midi.h ****      */
 197:../../DaisyExamples/libDaisy/src/hid/midi.h ****     bool HasEvents() const { return event_q_.GetNumElements() > 0; }
 198:../../DaisyExamples/libDaisy/src/hid/midi.h **** 
 199:../../DaisyExamples/libDaisy/src/hid/midi.h **** 
 200:../../DaisyExamples/libDaisy/src/hid/midi.h ****     /** Pops the oldest unhandled MidiEvent from the internal queue
 201:../../DaisyExamples/libDaisy/src/hid/midi.h ****     \return The event to be handled
 202:../../DaisyExamples/libDaisy/src/hid/midi.h ****      */
 203:../../DaisyExamples/libDaisy/src/hid/midi.h ****     MidiEvent PopEvent() { return event_q_.PopFront(); }
 204:../../DaisyExamples/libDaisy/src/hid/midi.h **** 
 205:../../DaisyExamples/libDaisy/src/hid/midi.h ****     /** SendMessage
 206:../../DaisyExamples/libDaisy/src/hid/midi.h ****     Send raw bytes as message
 207:../../DaisyExamples/libDaisy/src/hid/midi.h ****     */
 208:../../DaisyExamples/libDaisy/src/hid/midi.h ****     void SendMessage(uint8_t* bytes, size_t size)
 209:../../DaisyExamples/libDaisy/src/hid/midi.h ****     {
 210:../../DaisyExamples/libDaisy/src/hid/midi.h ****         transport_.Tx(bytes, size);
 211:../../DaisyExamples/libDaisy/src/hid/midi.h ****     }
 212:../../DaisyExamples/libDaisy/src/hid/midi.h **** 
 213:../../DaisyExamples/libDaisy/src/hid/midi.h ****     /** Feed in bytes to parser state machine from an external source.
 214:../../DaisyExamples/libDaisy/src/hid/midi.h ****         Populates internal FIFO queue with MIDI Messages.
 215:../../DaisyExamples/libDaisy/src/hid/midi.h **** 
 216:../../DaisyExamples/libDaisy/src/hid/midi.h ****         \note  Normally application code won't need to use this method directly.
 217:../../DaisyExamples/libDaisy/src/hid/midi.h ****         \param byte MIDI byte to be parsed
 218:../../DaisyExamples/libDaisy/src/hid/midi.h ****     */
 219:../../DaisyExamples/libDaisy/src/hid/midi.h ****     void Parse(uint8_t byte)
 220:../../DaisyExamples/libDaisy/src/hid/midi.h ****     {
 221:../../DaisyExamples/libDaisy/src/hid/midi.h ****         MidiEvent event;
 222:../../DaisyExamples/libDaisy/src/hid/midi.h ****         if(parser_.Parse(byte, &event))
 223:../../DaisyExamples/libDaisy/src/hid/midi.h ****         {
 224:../../DaisyExamples/libDaisy/src/hid/midi.h ****             event_q_.PushBack(event);
 225:../../DaisyExamples/libDaisy/src/hid/midi.h ****         }
 226:../../DaisyExamples/libDaisy/src/hid/midi.h ****     }
 227:../../DaisyExamples/libDaisy/src/hid/midi.h **** 
 228:../../DaisyExamples/libDaisy/src/hid/midi.h ****   private:
 229:../../DaisyExamples/libDaisy/src/hid/midi.h ****     Config               config_;
 230:../../DaisyExamples/libDaisy/src/hid/midi.h ****     Transport            transport_;
 231:../../DaisyExamples/libDaisy/src/hid/midi.h ****     MidiParser           parser_;
 232:../../DaisyExamples/libDaisy/src/hid/midi.h ****     FIFO<MidiEvent, 256> event_q_;
 233:../../DaisyExamples/libDaisy/src/hid/midi.h **** 
 234:../../DaisyExamples/libDaisy/src/hid/midi.h ****     static void ParseCallback(uint8_t* data, size_t size, void* context)
 683              		.loc 4 234 17 is_stmt 1 view -0
 684              		.cfi_startproc
 685              		@ args = 0, pretend = 0, frame = 144
 686              		@ frame_needed = 0, uses_anonymous_args = 0
 687              	.LBB536:
 235:../../DaisyExamples/libDaisy/src/hid/midi.h ****     {
 236:../../DaisyExamples/libDaisy/src/hid/midi.h ****         MidiHandler* handler = reinterpret_cast<MidiHandler*>(context);
 237:../../DaisyExamples/libDaisy/src/hid/midi.h ****         for(size_t i = 0; i < size; i++)
 688              		.loc 4 237 29 view .LVU173
ARM GAS  /var/folders/hp/45mn71hd0ps5f5pnytxy5bt00000gn/T//ccIwDN9B.s 			page 38


 689 0000 B9B3     		cbz	r1, .L65
 690 0002 0144     		add	r1, r1, r0
 691              	.LVL38:
 692              		.loc 4 237 29 is_stmt 0 view .LVU174
 693              	.LBE536:
 234:../../DaisyExamples/libDaisy/src/hid/midi.h ****     {
 694              		.loc 4 234 17 view .LVU175
 695 0004 F0B5     		push	{r4, r5, r6, r7, lr}
 696              		.cfi_def_cfa_offset 20
 697              		.cfi_offset 4, -20
 698              		.cfi_offset 5, -16
 699              		.cfi_offset 6, -12
 700              		.cfi_offset 7, -8
 701              		.cfi_offset 14, -4
 702 0006 1546     		mov	r5, r2
 703 0008 A5B0     		sub	sp, sp, #148
 704              		.cfi_def_cfa_offset 168
 705              	.LBB555:
 706              	.LBB537:
 707              	.LBB538:
 222:../../DaisyExamples/libDaisy/src/hid/midi.h ****         {
 708              		.loc 4 222 25 view .LVU176
 709 000a 02F10807 		add	r7, r2, #8
 710 000e 441E     		subs	r4, r0, #1
 711 0010 4E1E     		subs	r6, r1, #1
 712 0012 01E0     		b	.L63
 713              	.LVL39:
 714              	.L58:
 222:../../DaisyExamples/libDaisy/src/hid/midi.h ****         {
 715              		.loc 4 222 25 view .LVU177
 716              	.LBE538:
 717              	.LBE537:
 718              		.loc 4 237 9 is_stmt 1 view .LVU178
 719              		.loc 4 237 29 view .LVU179
 720 0014 A642     		cmp	r6, r4
 721 0016 2AD0     		beq	.L68
 722              	.LVL40:
 723              	.L63:
 724              	.LBB554:
 725              	.LBI537:
 219:../../DaisyExamples/libDaisy/src/hid/midi.h ****     {
 726              		.loc 4 219 10 discriminator 2 view .LVU180
 727              	.LBB553:
 222:../../DaisyExamples/libDaisy/src/hid/midi.h ****         {
 728              		.loc 4 222 25 is_stmt 0 discriminator 2 view .LVU181
 729 0018 14F8011F 		ldrb	r1, [r4, #1]!	@ zero_extendqisi2
 730              	.LVL41:
 222:../../DaisyExamples/libDaisy/src/hid/midi.h ****         {
 731              		.loc 4 222 25 discriminator 2 view .LVU182
 732 001c 6A46     		mov	r2, sp
 733 001e 3846     		mov	r0, r7
 734 0020 FFF7FEFF 		bl	_ZN5daisy10MidiParser5ParseEhPNS_9MidiEventE
 735              	.LVL42:
 222:../../DaisyExamples/libDaisy/src/hid/midi.h ****         {
 736              		.loc 4 222 9 discriminator 2 view .LVU183
 737 0024 0028     		cmp	r0, #0
 738 0026 F5D0     		beq	.L58
ARM GAS  /var/folders/hp/45mn71hd0ps5f5pnytxy5bt00000gn/T//ccIwDN9B.s 			page 39


 739              	.LVL43:
 740              	.LBB539:
 741              	.LBI539:
  49:../../DaisyExamples/libDaisy/src/util/FIFO.h ****     {
 742              		.loc 5 49 10 is_stmt 1 view .LVU184
 743              	.LBB540:
 744              	.LBB541:
 745              	.LBI541:
 168:../../DaisyExamples/libDaisy/src/util/FIFO.h **** 
 746              		.loc 5 168 10 view .LVU185
 747              	.LBB542:
 748              	.LBB543:
 749              	.LBI543:
 171:../../DaisyExamples/libDaisy/src/util/FIFO.h ****     {
 750              		.loc 5 171 12 view .LVU186
 751              	.LBB544:
 175:../../DaisyExamples/libDaisy/src/util/FIFO.h ****         return size_t(numElements);
 752              		.loc 5 175 28 is_stmt 0 view .LVU187
 753 0028 D5F8A8C0 		ldr	ip, [r5, #168]
 754              	.LBE544:
 755              	.LBE543:
 756              	.LBE542:
 757              	.LBE541:
  53:../../DaisyExamples/libDaisy/src/util/FIFO.h ****             if(bufferIn_ >= bufferSize_)
 758              		.loc 5 53 13 view .LVU188
 759 002c 9022     		movs	r2, #144
 760 002e 6946     		mov	r1, sp
 761              	.LBB551:
 762              	.LBB549:
 763              	.LBB547:
 764              	.LBB545:
 173:../../DaisyExamples/libDaisy/src/util/FIFO.h ****         if(numElements < 0)
 765              		.loc 5 173 41 view .LVU189
 766 0030 D5E92B03 		ldrd	r0, r3, [r5, #172]
 767              	.LVL44:
 174:../../DaisyExamples/libDaisy/src/util/FIFO.h ****             numElements += bufferSize_;
 768              		.loc 5 174 9 view .LVU190
 769 0034 C31A     		subs	r3, r0, r3
 770              	.LVL45:
 174:../../DaisyExamples/libDaisy/src/util/FIFO.h ****             numElements += bufferSize_;
 771              		.loc 5 174 9 view .LVU191
 772              	.LBE545:
 773              	.LBE547:
 774              	.LBE549:
 775              	.LBE551:
  53:../../DaisyExamples/libDaisy/src/util/FIFO.h ****             if(bufferIn_ >= bufferSize_)
 776              		.loc 5 53 13 view .LVU192
 777 0036 00F1010E 		add	lr, r0, #1
 778 003a 00EBC000 		add	r0, r0, r0, lsl #3
 779              	.LBB552:
 780              	.LBB550:
 781              	.LBB548:
 782              	.LBB546:
 175:../../DaisyExamples/libDaisy/src/util/FIFO.h ****         return size_t(numElements);
 783              		.loc 5 175 25 view .LVU193
 784 003e 48BF     		it	mi
 785 0040 6344     		addmi	r3, r3, ip
ARM GAS  /var/folders/hp/45mn71hd0ps5f5pnytxy5bt00000gn/T//ccIwDN9B.s 			page 40


 786              	.LVL46:
 175:../../DaisyExamples/libDaisy/src/util/FIFO.h ****         return size_t(numElements);
 787              		.loc 5 175 25 view .LVU194
 788              	.LBE546:
 789              	.LBE548:
 168:../../DaisyExamples/libDaisy/src/util/FIFO.h **** 
 790              		.loc 5 168 66 view .LVU195
 791 0042 0CF1FF3C 		add	ip, ip, #-1
 792              	.LBE550:
 793              	.LBE552:
  51:../../DaisyExamples/libDaisy/src/util/FIFO.h ****         {
 794              		.loc 5 51 9 view .LVU196
 795 0046 9C45     		cmp	ip, r3
 796 0048 E4D0     		beq	.L58
  53:../../DaisyExamples/libDaisy/src/util/FIFO.h ****             if(bufferIn_ >= bufferSize_)
 797              		.loc 5 53 13 view .LVU197
 798 004a D5F8A430 		ldr	r3, [r5, #164]
 799 004e C5F8ACE0 		str	lr, [r5, #172]
 800 0052 03EB0010 		add	r0, r3, r0, lsl #4
 801 0056 FFF7FEFF 		bl	memcpy
 802              	.LVL47:
  54:../../DaisyExamples/libDaisy/src/util/FIFO.h ****                 bufferIn_ -= bufferSize_;
 803              		.loc 5 54 29 view .LVU198
 804 005a D5E92A23 		ldrd	r2, r3, [r5, #168]
  54:../../DaisyExamples/libDaisy/src/util/FIFO.h ****                 bufferIn_ -= bufferSize_;
 805              		.loc 5 54 13 view .LVU199
 806 005e 9342     		cmp	r3, r2
  55:../../DaisyExamples/libDaisy/src/util/FIFO.h ****             return true;
 807              		.loc 5 55 27 view .LVU200
 808 0060 A3EB0203 		sub	r3, r3, r2
 809 0064 28BF     		it	cs
 810 0066 C5F8AC30 		strcs	r3, [r5, #172]
 811              	.LVL48:
  55:../../DaisyExamples/libDaisy/src/util/FIFO.h ****             return true;
 812              		.loc 5 55 27 view .LVU201
 813              	.LBE540:
 814              	.LBE539:
 815              	.LBE553:
 816              	.LBE554:
 817              		.loc 4 237 9 is_stmt 1 view .LVU202
 818              		.loc 4 237 29 view .LVU203
 819 006a A642     		cmp	r6, r4
 820 006c D4D1     		bne	.L63
 821              	.LVL49:
 822              	.L68:
 823              		.loc 4 237 29 is_stmt 0 view .LVU204
 824              	.LBE555:
 238:../../DaisyExamples/libDaisy/src/hid/midi.h ****         {
 239:../../DaisyExamples/libDaisy/src/hid/midi.h ****             handler->Parse(data[i]);
 240:../../DaisyExamples/libDaisy/src/hid/midi.h ****         }
 241:../../DaisyExamples/libDaisy/src/hid/midi.h ****     }
 825              		.loc 4 241 5 view .LVU205
 826 006e 25B0     		add	sp, sp, #148
 827              		.cfi_def_cfa_offset 20
 828              		@ sp needed
 829 0070 F0BD     		pop	{r4, r5, r6, r7, pc}
 830              	.LVL50:
ARM GAS  /var/folders/hp/45mn71hd0ps5f5pnytxy5bt00000gn/T//ccIwDN9B.s 			page 41


 831              	.L65:
 832              		.cfi_def_cfa_offset 0
 833              		.cfi_restore 4
 834              		.cfi_restore 5
 835              		.cfi_restore 6
 836              		.cfi_restore 7
 837              		.cfi_restore 14
 838              		.loc 4 241 5 view .LVU206
 839 0072 7047     		bx	lr
 840              		.cfi_endproc
 841              	.LFE5358:
 843              		.section	.text.startup.main,"ax",%progbits
 844              		.align	1
 845              		.p2align 2,,3
 846              		.global	main
 847              		.syntax unified
 848              		.thumb
 849              		.thumb_func
 851              	main:
 852              	.LFB4855:
  66:SynthV5.cpp   **** int main(void)
  67:SynthV5.cpp   **** {
 853              		.loc 19 67 1 is_stmt 1 view -0
 854              		.cfi_startproc
 855              		@ args = 0, pretend = 0, frame = 32
 856              		@ frame_needed = 0, uses_anonymous_args = 0
  68:SynthV5.cpp   ****     float samplerate;
 857              		.loc 19 68 5 view .LVU208
  69:SynthV5.cpp   **** 
  70:SynthV5.cpp   ****     hw.Init();
 858              		.loc 19 70 5 view .LVU209
  67:SynthV5.cpp   ****     float samplerate;
 859              		.loc 19 67 1 is_stmt 0 view .LVU210
 860 0000 2DE9F04F 		push	{r4, r5, r6, r7, r8, r9, r10, fp, lr}
 861              		.cfi_def_cfa_offset 36
 862              		.cfi_offset 4, -36
 863              		.cfi_offset 5, -32
 864              		.cfi_offset 6, -28
 865              		.cfi_offset 7, -24
 866              		.cfi_offset 8, -20
 867              		.cfi_offset 9, -16
 868              		.cfi_offset 10, -12
 869              		.cfi_offset 11, -8
 870              		.cfi_offset 14, -4
 871              		.loc 19 70 12 view .LVU211
 872 0004 0021     		movs	r1, #0
 873 0006 7948     		ldr	r0, .L85
 874              	.LBB618:
 875              	.LBB619:
 168:../../DaisyExamples/libDaisy/src/hid/midi.h ****         transport_.Init(config_.transport_config);
 876              		.loc 4 168 9 view .LVU212
 877 0008 794C     		ldr	r4, .L85+4
 878              	.LBE619:
 879              	.LBE618:
  71:SynthV5.cpp   ****     hw.SetAudioBlockSize(4);
  72:SynthV5.cpp   ****     samplerate = hw.AudioSampleRate();
  73:SynthV5.cpp   **** 
ARM GAS  /var/folders/hp/45mn71hd0ps5f5pnytxy5bt00000gn/T//ccIwDN9B.s 			page 42


  74:SynthV5.cpp   ****     MidiUsbHandler::Config midi_cfg;
  75:SynthV5.cpp   ****     midi_cfg.transport_config.periph = MidiUsbTransport::Config::INTERNAL;
  76:SynthV5.cpp   ****     midi.Init(midi_cfg);
  77:SynthV5.cpp   **** 
  78:SynthV5.cpp   ****     volChange = 0.5;
 880              		.loc 19 78 15 view .LVU213
 881 000a 4FF07C59 		mov	r9, #1056964608
 882              	.LBB624:
 883              	.LBB625:
  25:../../DaisyExamples/DaisySP/Source/Synthesis/oscillator.h ****     /** Choices for output waveforms, POLYBLEP are appropriately labeled. Others are naive forms.
  26:../../DaisyExamples/DaisySP/Source/Synthesis/oscillator.h ****     */
  27:../../DaisyExamples/DaisySP/Source/Synthesis/oscillator.h ****     enum
  28:../../DaisyExamples/DaisySP/Source/Synthesis/oscillator.h ****     {
  29:../../DaisyExamples/DaisySP/Source/Synthesis/oscillator.h ****         WAVE_SIN,
  30:../../DaisyExamples/DaisySP/Source/Synthesis/oscillator.h ****         WAVE_TRI,
  31:../../DaisyExamples/DaisySP/Source/Synthesis/oscillator.h ****         WAVE_SAW,
  32:../../DaisyExamples/DaisySP/Source/Synthesis/oscillator.h ****         WAVE_RAMP,
  33:../../DaisyExamples/DaisySP/Source/Synthesis/oscillator.h ****         WAVE_SQUARE,
  34:../../DaisyExamples/DaisySP/Source/Synthesis/oscillator.h ****         WAVE_POLYBLEP_TRI,
  35:../../DaisyExamples/DaisySP/Source/Synthesis/oscillator.h ****         WAVE_POLYBLEP_SAW,
  36:../../DaisyExamples/DaisySP/Source/Synthesis/oscillator.h ****         WAVE_POLYBLEP_SQUARE,
  37:../../DaisyExamples/DaisySP/Source/Synthesis/oscillator.h ****         WAVE_LAST,
  38:../../DaisyExamples/DaisySP/Source/Synthesis/oscillator.h ****     };
  39:../../DaisyExamples/DaisySP/Source/Synthesis/oscillator.h **** 
  40:../../DaisyExamples/DaisySP/Source/Synthesis/oscillator.h **** 
  41:../../DaisyExamples/DaisySP/Source/Synthesis/oscillator.h ****     /** Initializes the Oscillator
  42:../../DaisyExamples/DaisySP/Source/Synthesis/oscillator.h **** 
  43:../../DaisyExamples/DaisySP/Source/Synthesis/oscillator.h ****         \param sample_rate - sample rate of the audio engine being run, and the frequency that the 
  44:../../DaisyExamples/DaisySP/Source/Synthesis/oscillator.h **** 
  45:../../DaisyExamples/DaisySP/Source/Synthesis/oscillator.h ****         Defaults:
  46:../../DaisyExamples/DaisySP/Source/Synthesis/oscillator.h ****         - freq_ = 100 Hz
  47:../../DaisyExamples/DaisySP/Source/Synthesis/oscillator.h ****         - amp_ = 0.5
  48:../../DaisyExamples/DaisySP/Source/Synthesis/oscillator.h ****         - waveform_ = sine wave.
  49:../../DaisyExamples/DaisySP/Source/Synthesis/oscillator.h ****     */
  50:../../DaisyExamples/DaisySP/Source/Synthesis/oscillator.h ****     void Init(float sample_rate)
  51:../../DaisyExamples/DaisySP/Source/Synthesis/oscillator.h ****     {
  52:../../DaisyExamples/DaisySP/Source/Synthesis/oscillator.h ****         sr_        = sample_rate;
 884              		.loc 17 52 20 view .LVU214
 885 000e 794F     		ldr	r7, .L85+8
 886              	.LBE625:
 887              	.LBE624:
  79:SynthV5.cpp   ****     isVolumeOn = true;
 888              		.loc 19 79 16 view .LVU215
 889 0010 0125     		movs	r5, #1
 890              	.LBB634:
 891              	.LBB626:
  53:../../DaisyExamples/DaisySP/Source/Synthesis/oscillator.h ****         sr_recip_  = 1.0f / sample_rate;
  54:../../DaisyExamples/DaisySP/Source/Synthesis/oscillator.h ****         freq_      = 100.0f;
  55:../../DaisyExamples/DaisySP/Source/Synthesis/oscillator.h ****         amp_       = 0.5f;
  56:../../DaisyExamples/DaisySP/Source/Synthesis/oscillator.h ****         pw_        = 0.5f;
  57:../../DaisyExamples/DaisySP/Source/Synthesis/oscillator.h ****         phase_     = 0.0f;
 892              		.loc 17 57 20 view .LVU216
 893 0012 4FF0000A 		mov	r10, #0
 894              	.LBE626:
 895              	.LBE634:
  80:SynthV5.cpp   ****     inc = 0;
  81:SynthV5.cpp   **** 
ARM GAS  /var/folders/hp/45mn71hd0ps5f5pnytxy5bt00000gn/T//ccIwDN9B.s 			page 43


  82:SynthV5.cpp   ****     osc.Init(samplerate);
  83:SynthV5.cpp   ****     osc.SetWaveform(osc.WAVE_TRI);
  84:SynthV5.cpp   ****     osc.SetFreq(midiFreq + (midiFreq * tuning.Process()));
 896              		.loc 19 84 38 view .LVU217
 897 0016 DFF820B2 		ldr	fp, .L85+76
  85:SynthV5.cpp   ****     osc.SetAmp(0.1f);
  86:SynthV5.cpp   **** 
  87:SynthV5.cpp   ****     ad.Init(samplerate);
  88:SynthV5.cpp   ****     ad.SetTime(ADENV_SEG_ATTACK, 0.01f);
  89:SynthV5.cpp   ****     ad.SetTime(ADENV_SEG_DECAY, 1.0f);
  90:SynthV5.cpp   ****     ad.SetMax(1);
  91:SynthV5.cpp   ****     ad.SetMin(0);
  92:SynthV5.cpp   ****     ad.SetCurve(0.5);
  93:SynthV5.cpp   **** 
  94:SynthV5.cpp   ****     tuning.Init(hw.knob1, -0.1, 0.1, tuning.LINEAR);
 898              		.loc 19 94 20 view .LVU218
 899 001a DFF82082 		ldr	r8, .L85+80
  67:SynthV5.cpp   ****     float samplerate;
 900              		.loc 19 67 1 view .LVU219
 901 001e 2DED048B 		vpush.64	{d8, d9}
 902              		.cfi_def_cfa_offset 52
 903              		.cfi_offset 80, -52
 904              		.cfi_offset 81, -48
 905              		.cfi_offset 82, -44
 906              		.cfi_offset 83, -40
 907 0022 89B0     		sub	sp, sp, #36
 908              		.cfi_def_cfa_offset 88
 909              	.LBB635:
 910              	.LBB627:
  53:../../DaisyExamples/DaisySP/Source/Synthesis/oscillator.h ****         freq_      = 100.0f;
 911              		.loc 17 53 27 view .LVU220
 912 0024 F7EE008A 		vmov.f32	s17, #1.0e+0
 913              	.LBE627:
 914              	.LBE635:
  70:SynthV5.cpp   ****     hw.SetAudioBlockSize(4);
 915              		.loc 19 70 12 view .LVU221
 916 0028 FFF7FEFF 		bl	_ZN5daisy8DaisyPod4InitEb
 917              	.LVL51:
  71:SynthV5.cpp   ****     samplerate = hw.AudioSampleRate();
 918              		.loc 19 71 5 is_stmt 1 view .LVU222
  71:SynthV5.cpp   ****     samplerate = hw.AudioSampleRate();
 919              		.loc 19 71 25 is_stmt 0 view .LVU223
 920 002c 0421     		movs	r1, #4
 921 002e 6F48     		ldr	r0, .L85
 922 0030 FFF7FEFF 		bl	_ZN5daisy8DaisyPod17SetAudioBlockSizeEj
 923              	.LVL52:
  72:SynthV5.cpp   **** 
 924              		.loc 19 72 5 is_stmt 1 view .LVU224
  72:SynthV5.cpp   **** 
 925              		.loc 19 72 36 is_stmt 0 view .LVU225
 926 0034 6D48     		ldr	r0, .L85
 927 0036 FFF7FEFF 		bl	_ZN5daisy8DaisyPod15AudioSampleRateEv
 928              	.LVL53:
 929              	.LBB636:
 930              	.LBB622:
 168:../../DaisyExamples/libDaisy/src/hid/midi.h ****         transport_.Init(config_.transport_config);
 931              		.loc 4 168 9 view .LVU226
ARM GAS  /var/folders/hp/45mn71hd0ps5f5pnytxy5bt00000gn/T//ccIwDN9B.s 			page 44


 932 003a 4FF44073 		mov	r3, #768
 169:../../DaisyExamples/libDaisy/src/hid/midi.h ****         parser_.Init();
 933              		.loc 4 169 24 view .LVU227
 934 003e 2046     		mov	r0, r4
 935              	.LBE622:
 936              	.LBE636:
  72:SynthV5.cpp   **** 
 937              		.loc 19 72 36 view .LVU228
 938 0040 B0EE408A 		vmov.f32	s16, s0
 939              	.LVL54:
  74:SynthV5.cpp   ****     midi_cfg.transport_config.periph = MidiUsbTransport::Config::INTERNAL;
 940              		.loc 19 74 5 is_stmt 1 view .LVU229
 941              	.LBB637:
 942              	.LBI637:
 158:../../DaisyExamples/libDaisy/src/hid/midi.h ****     {
 943              		.loc 4 158 12 view .LVU230
 944              	.LBB638:
 945              	.LBI638:
  43:../../DaisyExamples/libDaisy/src/hid/usb_midi.h ****     };
 946              		.loc 18 43 9 view .LVU231
  43:../../DaisyExamples/libDaisy/src/hid/usb_midi.h ****     };
 947              		.loc 18 43 9 is_stmt 0 view .LVU232
 948              	.LBE638:
 949              	.LBE637:
  75:SynthV5.cpp   ****     midi.Init(midi_cfg);
 950              		.loc 19 75 5 is_stmt 1 view .LVU233
  76:SynthV5.cpp   **** 
 951              		.loc 19 76 5 view .LVU234
 952              	.LBB639:
 953              	.LBI618:
 166:../../DaisyExamples/libDaisy/src/hid/midi.h ****     {
 954              		.loc 4 166 10 view .LVU235
 955              	.LBB623:
 168:../../DaisyExamples/libDaisy/src/hid/midi.h ****         transport_.Init(config_.transport_config);
 956              		.loc 4 168 9 is_stmt 0 view .LVU236
 957 0044 2380     		strh	r3, [r4]	@ movhi
 169:../../DaisyExamples/libDaisy/src/hid/midi.h ****         parser_.Init();
 958              		.loc 4 169 24 view .LVU237
 959 0046 50F8041B 		ldr	r1, [r0], #4
 960 004a FFF7FEFF 		bl	_ZN5daisy16MidiUsbTransport4InitENS0_6ConfigE
 961              	.LVL55:
 962              	.LBB620:
 963              	.LBI620:
  20:../../DaisyExamples/libDaisy/src/hid/midi_parser.h **** 
  21:../../DaisyExamples/libDaisy/src/hid/midi_parser.h ****     inline void Init() { Reset(); }
 964              		.loc 6 21 17 is_stmt 1 view .LVU238
 965              	.LBB621:
 966              		.loc 6 21 26 view .LVU239
 967              		.loc 6 21 31 is_stmt 0 view .LVU240
 968 004e 04F10800 		add	r0, r4, #8
 969 0052 FFF7FEFF 		bl	_ZN5daisy10MidiParser5ResetEv
 970              	.LVL56:
 971              		.loc 6 21 31 view .LVU241
 972              	.LBE621:
 973              	.LBE620:
 974              	.LBE623:
 975              	.LBE639:
ARM GAS  /var/folders/hp/45mn71hd0ps5f5pnytxy5bt00000gn/T//ccIwDN9B.s 			page 45


  78:SynthV5.cpp   ****     isVolumeOn = true;
 976              		.loc 19 78 5 is_stmt 1 view .LVU242
 977              	.LBB640:
 978              	.LBB628:
  53:../../DaisyExamples/DaisySP/Source/Synthesis/oscillator.h ****         freq_      = 100.0f;
 979              		.loc 17 53 27 is_stmt 0 view .LVU243
 980 0056 C8EE887A 		vdiv.f32	s15, s17, s16
 981              	.LBE628:
 982              	.LBE640:
  78:SynthV5.cpp   ****     isVolumeOn = true;
 983              		.loc 19 78 15 view .LVU244
 984 005a 674B     		ldr	r3, .L85+12
 985              	.LBB641:
 986              	.LBB629:
  58:../../DaisyExamples/DaisySP/Source/Synthesis/oscillator.h ****         phase_inc_ = CalcPhaseInc(freq_);
 987              		.loc 17 58 34 view .LVU245
 988 005c 3846     		mov	r0, r7
  54:../../DaisyExamples/DaisySP/Source/Synthesis/oscillator.h ****         amp_       = 0.5f;
 989              		.loc 17 54 20 view .LVU246
 990 005e 9FED670A 		vldr.32	s0, .L85+16
 991              	.LBE629:
 992              	.LBE641:
  78:SynthV5.cpp   ****     isVolumeOn = true;
 993              		.loc 19 78 15 view .LVU247
 994 0062 C3F80090 		str	r9, [r3]	@ float
  79:SynthV5.cpp   ****     inc = 0;
 995              		.loc 19 79 5 is_stmt 1 view .LVU248
  79:SynthV5.cpp   ****     inc = 0;
 996              		.loc 19 79 16 is_stmt 0 view .LVU249
 997 0066 664B     		ldr	r3, .L85+20
 998              	.LBB642:
 999              	.LBB630:
  52:../../DaisyExamples/DaisySP/Source/Synthesis/oscillator.h ****         sr_recip_  = 1.0f / sample_rate;
 1000              		.loc 17 52 20 view .LVU250
 1001 0068 87ED048A 		vstr.32	s16, [r7, #16]
 1002              	.LBE630:
 1003              	.LBE642:
  79:SynthV5.cpp   ****     inc = 0;
 1004              		.loc 19 79 16 view .LVU251
 1005 006c 1D70     		strb	r5, [r3]
  80:SynthV5.cpp   **** 
 1006              		.loc 19 80 5 is_stmt 1 view .LVU252
  82:SynthV5.cpp   ****     osc.SetWaveform(osc.WAVE_TRI);
 1007              		.loc 19 82 5 view .LVU253
 1008              	.LVL57:
 1009              	.LBB643:
 1010              	.LBI624:
  50:../../DaisyExamples/DaisySP/Source/Synthesis/oscillator.h ****     {
 1011              		.loc 17 50 10 view .LVU254
 1012              	.LBB631:
  52:../../DaisyExamples/DaisySP/Source/Synthesis/oscillator.h ****         sr_recip_  = 1.0f / sample_rate;
 1013              		.loc 17 52 9 view .LVU255
  53:../../DaisyExamples/DaisySP/Source/Synthesis/oscillator.h ****         freq_      = 100.0f;
 1014              		.loc 17 53 9 view .LVU256
  54:../../DaisyExamples/DaisySP/Source/Synthesis/oscillator.h ****         amp_       = 0.5f;
 1015              		.loc 17 54 9 view .LVU257
  55:../../DaisyExamples/DaisySP/Source/Synthesis/oscillator.h ****         pw_        = 0.5f;
ARM GAS  /var/folders/hp/45mn71hd0ps5f5pnytxy5bt00000gn/T//ccIwDN9B.s 			page 46


 1016              		.loc 17 55 9 view .LVU258
  56:../../DaisyExamples/DaisySP/Source/Synthesis/oscillator.h ****         phase_     = 0.0f;
 1017              		.loc 17 56 9 view .LVU259
  57:../../DaisyExamples/DaisySP/Source/Synthesis/oscillator.h ****         phase_inc_ = CalcPhaseInc(freq_);
 1018              		.loc 17 57 9 view .LVU260
 1019              		.loc 17 58 9 view .LVU261
  54:../../DaisyExamples/DaisySP/Source/Synthesis/oscillator.h ****         amp_       = 0.5f;
 1020              		.loc 17 54 20 is_stmt 0 view .LVU262
 1021 006e 87ED020A 		vstr.32	s0, [r7, #8]
  55:../../DaisyExamples/DaisySP/Source/Synthesis/oscillator.h ****         pw_        = 0.5f;
 1022              		.loc 17 55 20 view .LVU263
 1023 0072 C7F80490 		str	r9, [r7, #4]	@ float
  56:../../DaisyExamples/DaisySP/Source/Synthesis/oscillator.h ****         phase_     = 0.0f;
 1024              		.loc 17 56 20 view .LVU264
 1025 0076 C7F80C90 		str	r9, [r7, #12]	@ float
  57:../../DaisyExamples/DaisySP/Source/Synthesis/oscillator.h ****         phase_inc_ = CalcPhaseInc(freq_);
 1026              		.loc 17 57 20 view .LVU265
 1027 007a C7F818A0 		str	r10, [r7, #24]	@ float
 1028              	.LBE631:
 1029              	.LBE643:
 1030              	.LBB644:
 1031              	.LBB645:
  59:../../DaisyExamples/DaisySP/Source/Synthesis/oscillator.h ****         waveform_  = WAVE_SIN;
  60:../../DaisyExamples/DaisySP/Source/Synthesis/oscillator.h ****         eoc_       = true;
  61:../../DaisyExamples/DaisySP/Source/Synthesis/oscillator.h ****         eor_       = true;
  62:../../DaisyExamples/DaisySP/Source/Synthesis/oscillator.h ****     }
  63:../../DaisyExamples/DaisySP/Source/Synthesis/oscillator.h **** 
  64:../../DaisyExamples/DaisySP/Source/Synthesis/oscillator.h **** 
  65:../../DaisyExamples/DaisySP/Source/Synthesis/oscillator.h ****     /** Changes the frequency of the Oscillator, and recalculates phase increment.
  66:../../DaisyExamples/DaisySP/Source/Synthesis/oscillator.h ****     */
  67:../../DaisyExamples/DaisySP/Source/Synthesis/oscillator.h ****     inline void SetFreq(const float f)
  68:../../DaisyExamples/DaisySP/Source/Synthesis/oscillator.h ****     {
  69:../../DaisyExamples/DaisySP/Source/Synthesis/oscillator.h ****         freq_      = f;
  70:../../DaisyExamples/DaisySP/Source/Synthesis/oscillator.h ****         phase_inc_ = CalcPhaseInc(f);
  71:../../DaisyExamples/DaisySP/Source/Synthesis/oscillator.h ****     }
  72:../../DaisyExamples/DaisySP/Source/Synthesis/oscillator.h **** 
  73:../../DaisyExamples/DaisySP/Source/Synthesis/oscillator.h **** 
  74:../../DaisyExamples/DaisySP/Source/Synthesis/oscillator.h ****     /** Sets the amplitude of the waveform.
  75:../../DaisyExamples/DaisySP/Source/Synthesis/oscillator.h ****     */
  76:../../DaisyExamples/DaisySP/Source/Synthesis/oscillator.h ****     inline void SetAmp(const float a) { amp_ = a; }
 1032              		.loc 17 76 46 view .LVU266
 1033 007e DFED619A 		vldr.32	s19, .L85+24
 1034              	.LBE645:
 1035              	.LBE644:
 1036              	.LBB648:
 1037              	.LBB649:
  66:../../DaisyExamples/DaisySP/Source/Control/adenv.h ****     /** Sets the amount of curve applied. A positve value will create a log
 1038              		.loc 16 66 71 view .LVU267
 1039 0082 9FED619A 		vldr.32	s18, .L85+28
 1040              	.LBE649:
 1041              	.LBE648:
 1042              	.LBB652:
 1043              	.LBB632:
  53:../../DaisyExamples/DaisySP/Source/Synthesis/oscillator.h ****         freq_      = 100.0f;
 1044              		.loc 17 53 20 view .LVU268
 1045 0086 C7ED057A 		vstr.32	s15, [r7, #20]
  58:../../DaisyExamples/DaisySP/Source/Synthesis/oscillator.h ****         waveform_  = WAVE_SIN;
ARM GAS  /var/folders/hp/45mn71hd0ps5f5pnytxy5bt00000gn/T//ccIwDN9B.s 			page 47


 1046              		.loc 17 58 34 view .LVU269
 1047 008a FFF7FEFF 		bl	_ZN7daisysp10Oscillator12CalcPhaseIncEf
 1048              	.LVL58:
  61:../../DaisyExamples/DaisySP/Source/Synthesis/oscillator.h ****     }
 1049              		.loc 17 61 20 view .LVU270
 1050 008e 40F20113 		movw	r3, #257
 1051              	.LBE632:
 1052              	.LBE652:
  84:SynthV5.cpp   ****     osc.SetAmp(0.1f);
 1053              		.loc 19 84 54 view .LVU271
 1054 0092 5E48     		ldr	r0, .L85+32
 1055              	.LBB653:
 1056              	.LBB654:
  77:../../DaisyExamples/DaisySP/Source/Synthesis/oscillator.h ****     /** Sets the waveform to be synthesized by the Process() function.
  78:../../DaisyExamples/DaisySP/Source/Synthesis/oscillator.h ****     */
  79:../../DaisyExamples/DaisySP/Source/Synthesis/oscillator.h ****     inline void SetWaveform(const uint8_t wf)
  80:../../DaisyExamples/DaisySP/Source/Synthesis/oscillator.h ****     {
  81:../../DaisyExamples/DaisySP/Source/Synthesis/oscillator.h ****         waveform_ = wf < WAVE_LAST ? wf : WAVE_SIN;
 1057              		.loc 17 81 19 view .LVU272
 1058 0094 3D70     		strb	r5, [r7]
 1059              	.LBE654:
 1060              	.LBE653:
 1061              	.LBB656:
 1062              	.LBB633:
  61:../../DaisyExamples/DaisySP/Source/Synthesis/oscillator.h ****     }
 1063              		.loc 17 61 20 view .LVU273
 1064 0096 3B85     		strh	r3, [r7, #40]	@ movhi
  58:../../DaisyExamples/DaisySP/Source/Synthesis/oscillator.h ****         waveform_  = WAVE_SIN;
 1065              		.loc 17 58 20 view .LVU274
 1066 0098 87ED070A 		vstr.32	s0, [r7, #28]
  59:../../DaisyExamples/DaisySP/Source/Synthesis/oscillator.h ****         eoc_       = true;
 1067              		.loc 17 59 9 is_stmt 1 view .LVU275
  60:../../DaisyExamples/DaisySP/Source/Synthesis/oscillator.h ****         eor_       = true;
 1068              		.loc 17 60 9 view .LVU276
  61:../../DaisyExamples/DaisySP/Source/Synthesis/oscillator.h ****     }
 1069              		.loc 17 61 9 view .LVU277
 1070              	.LVL59:
  61:../../DaisyExamples/DaisySP/Source/Synthesis/oscillator.h ****     }
 1071              		.loc 17 61 9 is_stmt 0 view .LVU278
 1072              	.LBE633:
 1073              	.LBE656:
  83:SynthV5.cpp   ****     osc.SetFreq(midiFreq + (midiFreq * tuning.Process()));
 1074              		.loc 19 83 5 is_stmt 1 view .LVU279
 1075              	.LBB657:
 1076              	.LBI653:
  79:../../DaisyExamples/DaisySP/Source/Synthesis/oscillator.h ****     {
 1077              		.loc 17 79 17 view .LVU280
 1078              	.LBB655:
 1079              		.loc 17 81 9 view .LVU281
 1080              		.loc 17 81 9 is_stmt 0 view .LVU282
 1081              	.LBE655:
 1082              	.LBE657:
  84:SynthV5.cpp   ****     osc.SetAmp(0.1f);
 1083              		.loc 19 84 5 is_stmt 1 view .LVU283
  84:SynthV5.cpp   ****     osc.SetAmp(0.1f);
 1084              		.loc 19 84 54 is_stmt 0 view .LVU284
 1085 009c FFF7FEFF 		bl	_ZN5daisy9Parameter7ProcessEv
ARM GAS  /var/folders/hp/45mn71hd0ps5f5pnytxy5bt00000gn/T//ccIwDN9B.s 			page 48


 1086              	.LVL60:
  84:SynthV5.cpp   ****     osc.SetAmp(0.1f);
 1087              		.loc 19 84 38 view .LVU285
 1088 00a0 DBED007A 		vldr.32	s15, [fp]
 1089              	.LBB658:
 1090              	.LBB659:
  70:../../DaisyExamples/DaisySP/Source/Synthesis/oscillator.h ****     }
 1091              		.loc 17 70 34 view .LVU286
 1092 00a4 3846     		mov	r0, r7
 1093              	.LBE659:
 1094              	.LBE658:
  87:SynthV5.cpp   ****     ad.SetTime(ADENV_SEG_ATTACK, 0.01f);
 1095              		.loc 19 87 12 view .LVU287
 1096 00a6 5A4D     		ldr	r5, .L85+36
  84:SynthV5.cpp   ****     osc.SetAmp(0.1f);
 1097              		.loc 19 84 16 view .LVU288
 1098 00a8 E0EE277A 		vfma.f32	s15, s0, s15
 1099              	.LVL61:
 1100              	.LBB662:
 1101              	.LBI658:
  67:../../DaisyExamples/DaisySP/Source/Synthesis/oscillator.h ****     {
 1102              		.loc 17 67 17 is_stmt 1 view .LVU289
 1103              	.LBB660:
  69:../../DaisyExamples/DaisySP/Source/Synthesis/oscillator.h ****         phase_inc_ = CalcPhaseInc(f);
 1104              		.loc 17 69 9 view .LVU290
  70:../../DaisyExamples/DaisySP/Source/Synthesis/oscillator.h ****     }
 1105              		.loc 17 70 34 is_stmt 0 view .LVU291
 1106 00ac B0EE670A 		vmov.f32	s0, s15
  69:../../DaisyExamples/DaisySP/Source/Synthesis/oscillator.h ****         phase_inc_ = CalcPhaseInc(f);
 1107              		.loc 17 69 20 view .LVU292
 1108 00b0 C7ED027A 		vstr.32	s15, [r7, #8]
  70:../../DaisyExamples/DaisySP/Source/Synthesis/oscillator.h ****     }
 1109              		.loc 17 70 9 is_stmt 1 view .LVU293
  70:../../DaisyExamples/DaisySP/Source/Synthesis/oscillator.h ****     }
 1110              		.loc 17 70 34 is_stmt 0 view .LVU294
 1111 00b4 FFF7FEFF 		bl	_ZN7daisysp10Oscillator12CalcPhaseIncEf
 1112              	.LVL62:
  70:../../DaisyExamples/DaisySP/Source/Synthesis/oscillator.h ****     }
 1113              		.loc 17 70 34 view .LVU295
 1114              	.LBE660:
 1115              	.LBE662:
  87:SynthV5.cpp   ****     ad.SetTime(ADENV_SEG_ATTACK, 0.01f);
 1116              		.loc 19 87 12 view .LVU296
 1117 00b8 2846     		mov	r0, r5
 1118              	.LBB663:
 1119              	.LBB661:
  70:../../DaisyExamples/DaisySP/Source/Synthesis/oscillator.h ****     }
 1120              		.loc 17 70 20 view .LVU297
 1121 00ba 87ED070A 		vstr.32	s0, [r7, #28]
 1122              	.LVL63:
  70:../../DaisyExamples/DaisySP/Source/Synthesis/oscillator.h ****     }
 1123              		.loc 17 70 20 view .LVU298
 1124              	.LBE661:
 1125              	.LBE663:
  85:SynthV5.cpp   **** 
 1126              		.loc 19 85 5 is_stmt 1 view .LVU299
 1127              	.LBB664:
ARM GAS  /var/folders/hp/45mn71hd0ps5f5pnytxy5bt00000gn/T//ccIwDN9B.s 			page 49


 1128              	.LBI644:
  76:../../DaisyExamples/DaisySP/Source/Synthesis/oscillator.h ****     /** Sets the waveform to be synthesized by the Process() function.
 1129              		.loc 17 76 17 view .LVU300
 1130              	.LBB646:
  76:../../DaisyExamples/DaisySP/Source/Synthesis/oscillator.h ****     /** Sets the waveform to be synthesized by the Process() function.
 1131              		.loc 17 76 41 view .LVU301
 1132              	.LBE646:
 1133              	.LBE664:
  87:SynthV5.cpp   ****     ad.SetTime(ADENV_SEG_ATTACK, 0.01f);
 1134              		.loc 19 87 12 is_stmt 0 view .LVU302
 1135 00be B0EE480A 		vmov.f32	s0, s16
 1136              	.LBB665:
 1137              	.LBB647:
  76:../../DaisyExamples/DaisySP/Source/Synthesis/oscillator.h ****     /** Sets the waveform to be synthesized by the Process() function.
 1138              		.loc 17 76 46 view .LVU303
 1139 00c2 C7ED019A 		vstr.32	s19, [r7, #4]
 1140              	.LVL64:
  76:../../DaisyExamples/DaisySP/Source/Synthesis/oscillator.h ****     /** Sets the waveform to be synthesized by the Process() function.
 1141              		.loc 17 76 46 view .LVU304
 1142              	.LBE647:
 1143              	.LBE665:
  87:SynthV5.cpp   ****     ad.SetTime(ADENV_SEG_ATTACK, 0.01f);
 1144              		.loc 19 87 5 is_stmt 1 view .LVU305
  87:SynthV5.cpp   ****     ad.SetTime(ADENV_SEG_ATTACK, 0.01f);
 1145              		.loc 19 87 12 is_stmt 0 view .LVU306
 1146 00c6 FFF7FEFF 		bl	_ZN7daisysp5AdEnv4InitEf
 1147              	.LVL65:
  88:SynthV5.cpp   ****     ad.SetTime(ADENV_SEG_DECAY, 1.0f);
 1148              		.loc 19 88 5 is_stmt 1 view .LVU307
 1149              	.LBB666:
 1150              	.LBI648:
  66:../../DaisyExamples/DaisySP/Source/Control/adenv.h ****     /** Sets the amount of curve applied. A positve value will create a log
 1151              		.loc 16 66 17 view .LVU308
 1152              	.LBB650:
  66:../../DaisyExamples/DaisySP/Source/Control/adenv.h ****     /** Sets the amount of curve applied. A positve value will create a log
 1153              		.loc 16 66 52 view .LVU309
 1154              	.LBE650:
 1155              	.LBE666:
 1156              		.loc 19 94 20 is_stmt 0 view .LVU310
 1157 00ca 6F46     		mov	r7, sp
 1158              		.loc 19 94 16 view .LVU311
 1159 00cc F0EE690A 		vmov.f32	s1, s19
 1160 00d0 9FED500A 		vldr.32	s0, .L85+40
 1161              	.LBB667:
 1162              	.LBB651:
  66:../../DaisyExamples/DaisySP/Source/Control/adenv.h ****     /** Sets the amount of curve applied. A positve value will create a log
 1163              		.loc 16 66 71 view .LVU312
 1164 00d4 85ED029A 		vstr.32	s18, [r5, #8]
 1165              	.LVL66:
  66:../../DaisyExamples/DaisySP/Source/Control/adenv.h ****     /** Sets the amount of curve applied. A positve value will create a log
 1166              		.loc 16 66 71 view .LVU313
 1167              	.LBE651:
 1168              	.LBE667:
  89:SynthV5.cpp   ****     ad.SetMax(1);
 1169              		.loc 19 89 5 is_stmt 1 view .LVU314
 1170              	.LBB668:
 1171              	.LBI668:
ARM GAS  /var/folders/hp/45mn71hd0ps5f5pnytxy5bt00000gn/T//ccIwDN9B.s 			page 50


  66:../../DaisyExamples/DaisySP/Source/Control/adenv.h ****     /** Sets the amount of curve applied. A positve value will create a log
 1172              		.loc 16 66 17 view .LVU315
 1173              	.LBB669:
  66:../../DaisyExamples/DaisySP/Source/Control/adenv.h ****     /** Sets the amount of curve applied. A positve value will create a log
 1174              		.loc 16 66 52 view .LVU316
  66:../../DaisyExamples/DaisySP/Source/Control/adenv.h ****     /** Sets the amount of curve applied. A positve value will create a log
 1175              		.loc 16 66 71 is_stmt 0 view .LVU317
 1176 00d8 C5ED038A 		vstr.32	s17, [r5, #12]
 1177              	.LVL67:
  66:../../DaisyExamples/DaisySP/Source/Control/adenv.h ****     /** Sets the amount of curve applied. A positve value will create a log
 1178              		.loc 16 66 71 view .LVU318
 1179              	.LBE669:
 1180              	.LBE668:
  90:SynthV5.cpp   ****     ad.SetMin(0);
 1181              		.loc 19 90 5 is_stmt 1 view .LVU319
 1182              	.LBB670:
 1183              	.LBI670:
  78:../../DaisyExamples/DaisySP/Source/Control/adenv.h ****     /** Returns the current output value without processing the next sample */
 1184              		.loc 16 78 17 view .LVU320
 1185              	.LBB671:
  78:../../DaisyExamples/DaisySP/Source/Control/adenv.h ****     /** Returns the current output value without processing the next sample */
 1186              		.loc 16 78 37 view .LVU321
 1187              	.LBE671:
 1188              	.LBE670:
 1189              	.LBB673:
 1190              	.LBB674:
  74:../../DaisyExamples/DaisySP/Source/Control/adenv.h ****     /** Sets the maximum value of the envelope output.
 1191              		.loc 16 74 42 is_stmt 0 view .LVU322
 1192 00dc C5F814A0 		str	r10, [r5, #20]	@ float
 1193              	.LBE674:
 1194              	.LBE673:
 1195              	.LBB676:
 1196              	.LBB672:
  78:../../DaisyExamples/DaisySP/Source/Control/adenv.h ****     /** Returns the current output value without processing the next sample */
 1197              		.loc 16 78 42 view .LVU323
 1198 00e0 C5ED068A 		vstr.32	s17, [r5, #24]
 1199              	.LVL68:
  78:../../DaisyExamples/DaisySP/Source/Control/adenv.h ****     /** Returns the current output value without processing the next sample */
 1200              		.loc 16 78 42 view .LVU324
 1201              	.LBE672:
 1202              	.LBE676:
  91:SynthV5.cpp   ****     ad.SetCurve(0.5);
 1203              		.loc 19 91 5 is_stmt 1 view .LVU325
 1204              	.LBB677:
 1205              	.LBI673:
  74:../../DaisyExamples/DaisySP/Source/Control/adenv.h ****     /** Sets the maximum value of the envelope output.
 1206              		.loc 16 74 17 view .LVU326
 1207              	.LBB675:
  74:../../DaisyExamples/DaisySP/Source/Control/adenv.h ****     /** Sets the maximum value of the envelope output.
 1208              		.loc 16 74 37 view .LVU327
  74:../../DaisyExamples/DaisySP/Source/Control/adenv.h ****     /** Sets the maximum value of the envelope output.
 1209              		.loc 16 74 37 is_stmt 0 view .LVU328
 1210              	.LBE675:
 1211              	.LBE677:
  92:SynthV5.cpp   **** 
 1212              		.loc 19 92 5 is_stmt 1 view .LVU329
 1213              	.LBB678:
ARM GAS  /var/folders/hp/45mn71hd0ps5f5pnytxy5bt00000gn/T//ccIwDN9B.s 			page 51


 1214              	.LBI678:
  70:../../DaisyExamples/DaisySP/Source/Control/adenv.h ****     /** Sets the minimum value of the envelope output.
 1215              		.loc 16 70 17 view .LVU330
 1216              	.LBB679:
  70:../../DaisyExamples/DaisySP/Source/Control/adenv.h ****     /** Sets the minimum value of the envelope output.
 1217              		.loc 16 70 42 view .LVU331
  70:../../DaisyExamples/DaisySP/Source/Control/adenv.h ****     /** Sets the minimum value of the envelope output.
 1218              		.loc 16 70 56 is_stmt 0 view .LVU332
 1219 00e4 C5F82090 		str	r9, [r5, #32]	@ float
 1220              	.LVL69:
  70:../../DaisyExamples/DaisySP/Source/Control/adenv.h ****     /** Sets the minimum value of the envelope output.
 1221              		.loc 16 70 56 view .LVU333
 1222              	.LBE679:
 1223              	.LBE678:
 1224              		.loc 19 94 5 is_stmt 1 view .LVU334
 1225              		.loc 19 94 20 is_stmt 0 view .LVU335
 1226 00e8 B8E80F00 		ldmia	r8!, {r0, r1, r2, r3}
 1227 00ec 0FC7     		stmia	r7!, {r0, r1, r2, r3}
 1228 00ee 98E80F00 		ldm	r8, {r0, r1, r2, r3}
 1229 00f2 87E80F00 		stm	r7, {r0, r1, r2, r3}
 1230              		.loc 19 94 16 view .LVU336
 1231 00f6 0022     		movs	r2, #0
 1232 00f8 6946     		mov	r1, sp
 1233 00fa 4448     		ldr	r0, .L85+32
 1234 00fc FFF7FEFF 		bl	_ZN5daisy9Parameter4InitENS_13AnalogControlEffNS0_5CurveE
 1235              	.LVL70:
 1236              	.LBB680:
 1237              	.LBI680:
 1238              		.loc 2 23 5 is_stmt 1 view .LVU337
 1239              		.loc 2 23 5 is_stmt 0 view .LVU338
 1240              	.LBE680:
  95:SynthV5.cpp   **** 
  96:SynthV5.cpp   ****     p_release.Init(hw.knob2, 0.01f, 0.7f, Parameter::LINEAR);
 1241              		.loc 19 96 5 is_stmt 1 view .LVU339
 1242              		.loc 19 96 23 is_stmt 0 view .LVU340
 1243 0100 08F1100C 		add	ip, r8, #16
 1244 0104 EE46     		mov	lr, sp
 1245              		.loc 19 96 19 view .LVU341
 1246 0106 B0EE490A 		vmov.f32	s0, s18
 1247 010a DFED430A 		vldr.32	s1, .L85+44
 1248              		.loc 19 96 23 view .LVU342
 1249 010e BCE80F00 		ldmia	ip!, {r0, r1, r2, r3}
 1250 0112 AEE80F00 		stmia	lr!, {r0, r1, r2, r3}
 1251 0116 9CE80F00 		ldm	ip, {r0, r1, r2, r3}
 1252 011a 87E80F00 		stm	r7, {r0, r1, r2, r3}
 1253              		.loc 19 96 19 view .LVU343
 1254 011e 6946     		mov	r1, sp
 1255 0120 0022     		movs	r2, #0
 1256 0122 3E48     		ldr	r0, .L85+48
 1257 0124 FFF7FEFF 		bl	_ZN5daisy9Parameter4InitENS_13AnalogControlEffNS0_5CurveE
 1258              	.LVL71:
 1259              	.LBB681:
 1260              	.LBI681:
 1261              		.loc 2 23 5 is_stmt 1 view .LVU344
 1262              		.loc 2 23 5 is_stmt 0 view .LVU345
 1263              	.LBE681:
  97:SynthV5.cpp   **** 
ARM GAS  /var/folders/hp/45mn71hd0ps5f5pnytxy5bt00000gn/T//ccIwDN9B.s 			page 52


  98:SynthV5.cpp   ****     hw.StartAdc();
 1264              		.loc 19 98 5 is_stmt 1 view .LVU346
 1265              		.loc 19 98 16 is_stmt 0 view .LVU347
 1266 0128 A8F17800 		sub	r0, r8, #120
 1267 012c FFF7FEFF 		bl	_ZN5daisy8DaisyPod8StartAdcEv
 1268              	.LVL72:
  99:SynthV5.cpp   ****     hw.StartAudio(AudioCallback);
 1269              		.loc 19 99 5 is_stmt 1 view .LVU348
 1270              		.loc 19 99 18 is_stmt 0 view .LVU349
 1271 0130 3B49     		ldr	r1, .L85+52
 1272 0132 A8F17800 		sub	r0, r8, #120
 1273 0136 FFF7FEFF 		bl	_ZN5daisy8DaisyPod10StartAudioEPFvPKfPfjE
 1274              	.LVL73:
 1275              	.L72:
 100:SynthV5.cpp   **** 
 101:SynthV5.cpp   ****     while (1) 
 1276              		.loc 19 101 5 is_stmt 1 view .LVU350
 1277              	.LBB682:
 102:SynthV5.cpp   ****     {
 103:SynthV5.cpp   ****         midi.Listen();
 1278              		.loc 19 103 9 view .LVU351
 1279              	.LBB683:
 1280              	.LBI683:
 181:../../DaisyExamples/libDaisy/src/hid/midi.h ****     {
 1281              		.loc 4 181 10 view .LVU352
 1282              	.LBB684:
 186:../../DaisyExamples/libDaisy/src/hid/midi.h ****         {
 1283              		.loc 4 186 32 is_stmt 0 view .LVU353
 1284 013a 3A48     		ldr	r0, .L85+56
 1285 013c FFF7FEFF 		bl	_ZN5daisy16MidiUsbTransport8RxActiveEv
 1286              	.LVL74:
 186:../../DaisyExamples/libDaisy/src/hid/midi.h ****         {
 1287              		.loc 4 186 9 view .LVU354
 1288 0140 0028     		cmp	r0, #0
 1289 0142 47D0     		beq	.L83
 1290              	.L70:
 1291              	.LBE684:
 1292              	.LBE683:
 1293              	.LBB688:
 1294              	.LBB689:
 1295              	.LBB690:
 173:../../DaisyExamples/libDaisy/src/util/FIFO.h ****         if(numElements < 0)
 1296              		.loc 5 173 31 view .LVU355
 1297 0144 D4F8AC70 		ldr	r7, [r4, #172]
 1298              	.LVL75:
 1299              	.L82:
 173:../../DaisyExamples/libDaisy/src/util/FIFO.h ****         if(numElements < 0)
 1300              		.loc 5 173 43 view .LVU356
 1301 0148 D4F8B030 		ldr	r3, [r4, #176]
 1302 014c F91A     		subs	r1, r7, r3
 1303              	.L77:
 1304              	.LBE690:
 1305              	.LBE689:
 1306              	.LBE688:
 104:SynthV5.cpp   ****         while(midi.HasEvents())
 1307              		.loc 19 104 9 is_stmt 1 view .LVU357
 1308              		.loc 19 104 29 view .LVU358
ARM GAS  /var/folders/hp/45mn71hd0ps5f5pnytxy5bt00000gn/T//ccIwDN9B.s 			page 53


 1309              	.LVL76:
 1310              	.LBB697:
 1311              	.LBI688:
 197:../../DaisyExamples/libDaisy/src/hid/midi.h **** 
 1312              		.loc 4 197 10 view .LVU359
 1313              	.LBB694:
 1314              	.LBI689:
 171:../../DaisyExamples/libDaisy/src/util/FIFO.h ****     {
 1315              		.loc 5 171 12 view .LVU360
 1316              	.LBB691:
 174:../../DaisyExamples/libDaisy/src/util/FIFO.h ****             numElements += bufferSize_;
 1317              		.loc 5 174 9 is_stmt 0 view .LVU361
 1318 014e 0029     		cmp	r1, #0
 173:../../DaisyExamples/libDaisy/src/util/FIFO.h ****         if(numElements < 0)
 1319              		.loc 5 173 41 view .LVU362
 1320 0150 0A46     		mov	r2, r1
 1321              	.LVL77:
 174:../../DaisyExamples/libDaisy/src/util/FIFO.h ****             numElements += bufferSize_;
 1322              		.loc 5 174 9 view .LVU363
 1323 0152 3BDB     		blt	.L84
 1324              	.LVL78:
 1325              	.L71:
 174:../../DaisyExamples/libDaisy/src/util/FIFO.h ****             numElements += bufferSize_;
 1326              		.loc 5 174 9 view .LVU364
 1327              	.LBE691:
 1328              	.LBE694:
 1329              	.LBE697:
 1330              		.loc 19 104 29 view .LVU365
 1331 0154 002A     		cmp	r2, #0
 1332 0156 F0D0     		beq	.L72
 1333              	.LBB698:
 105:SynthV5.cpp   ****         {
 106:SynthV5.cpp   ****             auto msg = midi.PopEvent();
 1334              		.loc 19 106 13 is_stmt 1 view .LVU366
 1335              	.LVL79:
 1336              	.LBB699:
 1337              	.LBI699:
 203:../../DaisyExamples/libDaisy/src/hid/midi.h **** 
 1338              		.loc 4 203 15 view .LVU367
 1339              	.LBB700:
 1340              	.LBI700:
 101:../../DaisyExamples/libDaisy/src/util/FIFO.h ****     {
 1341              		.loc 5 101 7 view .LVU368
 1342              	.LBB701:
 103:../../DaisyExamples/libDaisy/src/util/FIFO.h ****             return T();
 1343              		.loc 5 103 9 is_stmt 0 view .LVU369
 1344 0158 9F42     		cmp	r7, r3
 1345 015a F8D0     		beq	.L77
 1346              	.LBB702:
 107:../../DaisyExamples/libDaisy/src/util/FIFO.h ****             bufferOut_++;
 1347              		.loc 5 107 40 view .LVU370
 1348 015c 03EBC302 		add	r2, r3, r3, lsl #3
 1349 0160 D4F8A400 		ldr	r0, [r4, #164]
 108:../../DaisyExamples/libDaisy/src/util/FIFO.h ****             if(bufferOut_ >= bufferSize_)
 1350              		.loc 5 108 13 view .LVU371
 1351 0164 0133     		adds	r3, r3, #1
 109:../../DaisyExamples/libDaisy/src/util/FIFO.h ****                 bufferOut_ -= bufferSize_;
ARM GAS  /var/folders/hp/45mn71hd0ps5f5pnytxy5bt00000gn/T//ccIwDN9B.s 			page 54


 1352              		.loc 5 109 30 view .LVU372
 1353 0166 D4F8A860 		ldr	r6, [r4, #168]
 107:../../DaisyExamples/libDaisy/src/util/FIFO.h ****             bufferOut_++;
 1354              		.loc 5 107 40 view .LVU373
 1355 016a 00EB0211 		add	r1, r0, r2, lsl #4
 109:../../DaisyExamples/libDaisy/src/util/FIFO.h ****                 bufferOut_ -= bufferSize_;
 1356              		.loc 5 109 13 view .LVU374
 1357 016e B342     		cmp	r3, r6
 107:../../DaisyExamples/libDaisy/src/util/FIFO.h ****             bufferOut_++;
 1358              		.loc 5 107 40 view .LVU375
 1359 0170 4FEA0212 		lsl	r2, r2, #4
 107:../../DaisyExamples/libDaisy/src/util/FIFO.h ****             bufferOut_++;
 1360              		.loc 5 107 24 view .LVU376
 1361 0174 91F808E0 		ldrb	lr, [r1, #8]	@ zero_extendqisi2
 1362 0178 825C     		ldrb	r2, [r0, r2]	@ zero_extendqisi2
 1363              	.LVL80:
 107:../../DaisyExamples/libDaisy/src/util/FIFO.h ****             bufferOut_++;
 1364              		.loc 5 107 24 view .LVU377
 1365 017a 497A     		ldrb	r1, [r1, #9]	@ zero_extendqisi2
 1366              	.LVL81:
 108:../../DaisyExamples/libDaisy/src/util/FIFO.h ****             if(bufferOut_ >= bufferSize_)
 1367              		.loc 5 108 13 view .LVU378
 1368 017c C4F8B030 		str	r3, [r4, #176]
 109:../../DaisyExamples/libDaisy/src/util/FIFO.h ****                 bufferOut_ -= bufferSize_;
 1369              		.loc 5 109 13 view .LVU379
 1370 0180 02D3     		bcc	.L74
 110:../../DaisyExamples/libDaisy/src/util/FIFO.h ****             return result;
 1371              		.loc 5 110 28 view .LVU380
 1372 0182 9B1B     		subs	r3, r3, r6
 1373 0184 C4F8B030 		str	r3, [r4, #176]
 1374              	.L74:
 1375              	.LVL82:
 110:../../DaisyExamples/libDaisy/src/util/FIFO.h ****             return result;
 1376              		.loc 5 110 28 view .LVU381
 1377              	.LBE702:
 1378              	.LBE701:
 1379              	.LBE700:
 1380              	.LBE699:
 107:SynthV5.cpp   ****             switch(msg.type)
 1381              		.loc 19 107 13 is_stmt 1 view .LVU382
 1382              	.LBB703:
 1383 0188 012A     		cmp	r2, #1
 1384 018a DDD1     		bne	.L82
 1385              	.LBE703:
 1386              	.LBE698:
 1387              	.LBE682:
 108:SynthV5.cpp   ****             {
 109:SynthV5.cpp   ****                 case NoteOn:
 1388              		.loc 19 109 17 view .LVU383
 110:SynthV5.cpp   ****                 {
 1389              		.loc 19 110 17 view .LVU384
 1390              	.LBB723:
 1391              	.LBB718:
 1392              	.LBB716:
 1393              	.LBB704:
 111:SynthV5.cpp   ****                     ad.Trigger();
 1394              		.loc 19 111 21 view .LVU385
ARM GAS  /var/folders/hp/45mn71hd0ps5f5pnytxy5bt00000gn/T//ccIwDN9B.s 			page 55


 1395              	.LVL83:
 1396              	.LBB705:
 1397              	.LBI705:
  64:../../DaisyExamples/DaisySP/Source/Control/adenv.h ****     /** Sets the length of time (in seconds) for a specific segment. */
 1398              		.loc 16 64 17 view .LVU386
 1399              	.LBB706:
  64:../../DaisyExamples/DaisySP/Source/Control/adenv.h ****     /** Sets the length of time (in seconds) for a specific segment. */
 1400              		.loc 16 64 29 view .LVU387
  64:../../DaisyExamples/DaisySP/Source/Control/adenv.h ****     /** Sets the length of time (in seconds) for a specific segment. */
 1401              		.loc 16 64 38 is_stmt 0 view .LVU388
 1402 018c 85F83420 		strb	r2, [r5, #52]
 1403              	.LVL84:
  64:../../DaisyExamples/DaisySP/Source/Control/adenv.h ****     /** Sets the length of time (in seconds) for a specific segment. */
 1404              		.loc 16 64 38 view .LVU389
 1405              	.LBE706:
 1406              	.LBE705:
 112:SynthV5.cpp   ****                     auto note_msg = msg.AsNoteOn();
 1407              		.loc 19 112 21 is_stmt 1 view .LVU390
 1408              	.LBB707:
 1409              	.LBI707:
 1410              		.file 20 "../../DaisyExamples/libDaisy/src/hid/MidiEvent.h"
   1:../../DaisyExamples/libDaisy/src/hid/MidiEvent.h **** // TODO: make this adjustable
   2:../../DaisyExamples/libDaisy/src/hid/MidiEvent.h **** #define SYSEX_BUFFER_LEN 128
   3:../../DaisyExamples/libDaisy/src/hid/MidiEvent.h **** 
   4:../../DaisyExamples/libDaisy/src/hid/MidiEvent.h **** namespace daisy
   5:../../DaisyExamples/libDaisy/src/hid/MidiEvent.h **** {
   6:../../DaisyExamples/libDaisy/src/hid/MidiEvent.h **** /** @addtogroup midi MIDI
   7:../../DaisyExamples/libDaisy/src/hid/MidiEvent.h ****  *  @ingroup human_interface
   8:../../DaisyExamples/libDaisy/src/hid/MidiEvent.h ****  *  @ingroup libdaisy
   9:../../DaisyExamples/libDaisy/src/hid/MidiEvent.h ****  *  @brief MIDI handlers, transports, and message types
  10:../../DaisyExamples/libDaisy/src/hid/MidiEvent.h ****  *  @{
  11:../../DaisyExamples/libDaisy/src/hid/MidiEvent.h ****  */
  12:../../DaisyExamples/libDaisy/src/hid/MidiEvent.h **** 
  13:../../DaisyExamples/libDaisy/src/hid/MidiEvent.h **** /** @defgroup midi_events MIDI_EVENTS
  14:../../DaisyExamples/libDaisy/src/hid/MidiEvent.h ****  *  @{
  15:../../DaisyExamples/libDaisy/src/hid/MidiEvent.h **** */
  16:../../DaisyExamples/libDaisy/src/hid/MidiEvent.h **** 
  17:../../DaisyExamples/libDaisy/src/hid/MidiEvent.h **** /** Parsed from the Status Byte, these are the common Midi Messages that can be handled. \n
  18:../../DaisyExamples/libDaisy/src/hid/MidiEvent.h **** At this time only 3-byte messages are correctly parsed into MidiEvents.
  19:../../DaisyExamples/libDaisy/src/hid/MidiEvent.h **** */
  20:../../DaisyExamples/libDaisy/src/hid/MidiEvent.h **** enum MidiMessageType
  21:../../DaisyExamples/libDaisy/src/hid/MidiEvent.h **** {
  22:../../DaisyExamples/libDaisy/src/hid/MidiEvent.h ****     NoteOff,               /**< & */
  23:../../DaisyExamples/libDaisy/src/hid/MidiEvent.h ****     NoteOn,                /**< & */
  24:../../DaisyExamples/libDaisy/src/hid/MidiEvent.h ****     PolyphonicKeyPressure, /**< & */
  25:../../DaisyExamples/libDaisy/src/hid/MidiEvent.h ****     ControlChange,         /**< & */
  26:../../DaisyExamples/libDaisy/src/hid/MidiEvent.h ****     ProgramChange,         /**< & */
  27:../../DaisyExamples/libDaisy/src/hid/MidiEvent.h ****     ChannelPressure,       /**< & */
  28:../../DaisyExamples/libDaisy/src/hid/MidiEvent.h ****     PitchBend,             /**< & */
  29:../../DaisyExamples/libDaisy/src/hid/MidiEvent.h ****     SystemCommon,          /**< & */
  30:../../DaisyExamples/libDaisy/src/hid/MidiEvent.h ****     SystemRealTime,        /**< & */
  31:../../DaisyExamples/libDaisy/src/hid/MidiEvent.h ****     ChannelMode,           /**< & */
  32:../../DaisyExamples/libDaisy/src/hid/MidiEvent.h ****     MessageLast,           /**< & */
  33:../../DaisyExamples/libDaisy/src/hid/MidiEvent.h **** };
  34:../../DaisyExamples/libDaisy/src/hid/MidiEvent.h **** 
  35:../../DaisyExamples/libDaisy/src/hid/MidiEvent.h **** enum SystemCommonType
  36:../../DaisyExamples/libDaisy/src/hid/MidiEvent.h **** {
ARM GAS  /var/folders/hp/45mn71hd0ps5f5pnytxy5bt00000gn/T//ccIwDN9B.s 			page 56


  37:../../DaisyExamples/libDaisy/src/hid/MidiEvent.h ****     SystemExclusive,     /**< & */
  38:../../DaisyExamples/libDaisy/src/hid/MidiEvent.h ****     MTCQuarterFrame,     /**< & */
  39:../../DaisyExamples/libDaisy/src/hid/MidiEvent.h ****     SongPositionPointer, /**< & */
  40:../../DaisyExamples/libDaisy/src/hid/MidiEvent.h ****     SongSelect,          /**< & */
  41:../../DaisyExamples/libDaisy/src/hid/MidiEvent.h ****     SCUndefined0,        /**< & */
  42:../../DaisyExamples/libDaisy/src/hid/MidiEvent.h ****     SCUndefined1,        /**< & */
  43:../../DaisyExamples/libDaisy/src/hid/MidiEvent.h ****     TuneRequest,         /**< & */
  44:../../DaisyExamples/libDaisy/src/hid/MidiEvent.h ****     SysExEnd,            /**< & */
  45:../../DaisyExamples/libDaisy/src/hid/MidiEvent.h ****     SystemCommonLast,    /**< & */
  46:../../DaisyExamples/libDaisy/src/hid/MidiEvent.h **** };
  47:../../DaisyExamples/libDaisy/src/hid/MidiEvent.h **** 
  48:../../DaisyExamples/libDaisy/src/hid/MidiEvent.h **** enum SystemRealTimeType
  49:../../DaisyExamples/libDaisy/src/hid/MidiEvent.h **** {
  50:../../DaisyExamples/libDaisy/src/hid/MidiEvent.h ****     TimingClock,        /**< & */
  51:../../DaisyExamples/libDaisy/src/hid/MidiEvent.h ****     SRTUndefined0,      /**< & */
  52:../../DaisyExamples/libDaisy/src/hid/MidiEvent.h ****     Start,              /**< & */
  53:../../DaisyExamples/libDaisy/src/hid/MidiEvent.h ****     Continue,           /**< & */
  54:../../DaisyExamples/libDaisy/src/hid/MidiEvent.h ****     Stop,               /**< & */
  55:../../DaisyExamples/libDaisy/src/hid/MidiEvent.h ****     SRTUndefined1,      /**< & */
  56:../../DaisyExamples/libDaisy/src/hid/MidiEvent.h ****     ActiveSensing,      /**< & */
  57:../../DaisyExamples/libDaisy/src/hid/MidiEvent.h ****     Reset,              /**< & */
  58:../../DaisyExamples/libDaisy/src/hid/MidiEvent.h ****     SystemRealTimeLast, /**< & */
  59:../../DaisyExamples/libDaisy/src/hid/MidiEvent.h **** };
  60:../../DaisyExamples/libDaisy/src/hid/MidiEvent.h **** 
  61:../../DaisyExamples/libDaisy/src/hid/MidiEvent.h **** enum ChannelModeType
  62:../../DaisyExamples/libDaisy/src/hid/MidiEvent.h **** {
  63:../../DaisyExamples/libDaisy/src/hid/MidiEvent.h ****     AllSoundOff,         /**< & */
  64:../../DaisyExamples/libDaisy/src/hid/MidiEvent.h ****     ResetAllControllers, /**< & */
  65:../../DaisyExamples/libDaisy/src/hid/MidiEvent.h ****     LocalControl,        /**< & */
  66:../../DaisyExamples/libDaisy/src/hid/MidiEvent.h ****     AllNotesOff,         /**< & */
  67:../../DaisyExamples/libDaisy/src/hid/MidiEvent.h ****     OmniModeOff,         /**< & */
  68:../../DaisyExamples/libDaisy/src/hid/MidiEvent.h ****     OmniModeOn,          /**< & */
  69:../../DaisyExamples/libDaisy/src/hid/MidiEvent.h ****     MonoModeOn,          /**< & */
  70:../../DaisyExamples/libDaisy/src/hid/MidiEvent.h ****     PolyModeOn,          /**< & */
  71:../../DaisyExamples/libDaisy/src/hid/MidiEvent.h ****     ChannelModeLast,     /**< & */
  72:../../DaisyExamples/libDaisy/src/hid/MidiEvent.h **** };
  73:../../DaisyExamples/libDaisy/src/hid/MidiEvent.h **** 
  74:../../DaisyExamples/libDaisy/src/hid/MidiEvent.h **** /** Struct containing note, and velocity data for a given channel.
  75:../../DaisyExamples/libDaisy/src/hid/MidiEvent.h **** Can be made from MidiEvent
  76:../../DaisyExamples/libDaisy/src/hid/MidiEvent.h **** */
  77:../../DaisyExamples/libDaisy/src/hid/MidiEvent.h **** struct NoteOffEvent
  78:../../DaisyExamples/libDaisy/src/hid/MidiEvent.h **** {
  79:../../DaisyExamples/libDaisy/src/hid/MidiEvent.h ****     int     channel;  /**< & */
  80:../../DaisyExamples/libDaisy/src/hid/MidiEvent.h ****     uint8_t note;     /**< & */
  81:../../DaisyExamples/libDaisy/src/hid/MidiEvent.h ****     uint8_t velocity; /**< & */
  82:../../DaisyExamples/libDaisy/src/hid/MidiEvent.h **** };
  83:../../DaisyExamples/libDaisy/src/hid/MidiEvent.h **** 
  84:../../DaisyExamples/libDaisy/src/hid/MidiEvent.h **** 
  85:../../DaisyExamples/libDaisy/src/hid/MidiEvent.h **** /** Struct containing note, and velocity data for a given channel.
  86:../../DaisyExamples/libDaisy/src/hid/MidiEvent.h **** Can be made from MidiEvent
  87:../../DaisyExamples/libDaisy/src/hid/MidiEvent.h **** */
  88:../../DaisyExamples/libDaisy/src/hid/MidiEvent.h **** struct NoteOnEvent
  89:../../DaisyExamples/libDaisy/src/hid/MidiEvent.h **** {
  90:../../DaisyExamples/libDaisy/src/hid/MidiEvent.h ****     int     channel;  /**< & */
  91:../../DaisyExamples/libDaisy/src/hid/MidiEvent.h ****     uint8_t note;     /**< & */
  92:../../DaisyExamples/libDaisy/src/hid/MidiEvent.h ****     uint8_t velocity; /**< & */
  93:../../DaisyExamples/libDaisy/src/hid/MidiEvent.h **** };
ARM GAS  /var/folders/hp/45mn71hd0ps5f5pnytxy5bt00000gn/T//ccIwDN9B.s 			page 57


  94:../../DaisyExamples/libDaisy/src/hid/MidiEvent.h **** /** Struct containing note, and pressure data for a given channel.
  95:../../DaisyExamples/libDaisy/src/hid/MidiEvent.h **** Can be made from MidiEvent
  96:../../DaisyExamples/libDaisy/src/hid/MidiEvent.h **** */
  97:../../DaisyExamples/libDaisy/src/hid/MidiEvent.h **** struct PolyphonicKeyPressureEvent
  98:../../DaisyExamples/libDaisy/src/hid/MidiEvent.h **** {
  99:../../DaisyExamples/libDaisy/src/hid/MidiEvent.h ****     int     channel;
 100:../../DaisyExamples/libDaisy/src/hid/MidiEvent.h ****     uint8_t note;
 101:../../DaisyExamples/libDaisy/src/hid/MidiEvent.h ****     uint8_t pressure;
 102:../../DaisyExamples/libDaisy/src/hid/MidiEvent.h **** };
 103:../../DaisyExamples/libDaisy/src/hid/MidiEvent.h **** /** Struct containing control number, and value for a given channel.
 104:../../DaisyExamples/libDaisy/src/hid/MidiEvent.h **** Can be made from MidiEvent
 105:../../DaisyExamples/libDaisy/src/hid/MidiEvent.h **** */
 106:../../DaisyExamples/libDaisy/src/hid/MidiEvent.h **** struct ControlChangeEvent
 107:../../DaisyExamples/libDaisy/src/hid/MidiEvent.h **** {
 108:../../DaisyExamples/libDaisy/src/hid/MidiEvent.h ****     int     channel;        /**< & */
 109:../../DaisyExamples/libDaisy/src/hid/MidiEvent.h ****     uint8_t control_number; /**< & */
 110:../../DaisyExamples/libDaisy/src/hid/MidiEvent.h ****     uint8_t value;          /**< & */
 111:../../DaisyExamples/libDaisy/src/hid/MidiEvent.h **** };
 112:../../DaisyExamples/libDaisy/src/hid/MidiEvent.h **** /** Struct containing new program number, for a given channel.
 113:../../DaisyExamples/libDaisy/src/hid/MidiEvent.h **** Can be made from MidiEvent
 114:../../DaisyExamples/libDaisy/src/hid/MidiEvent.h **** */
 115:../../DaisyExamples/libDaisy/src/hid/MidiEvent.h **** struct ProgramChangeEvent
 116:../../DaisyExamples/libDaisy/src/hid/MidiEvent.h **** {
 117:../../DaisyExamples/libDaisy/src/hid/MidiEvent.h ****     int     channel; /**< & */
 118:../../DaisyExamples/libDaisy/src/hid/MidiEvent.h ****     uint8_t program; /**< & */
 119:../../DaisyExamples/libDaisy/src/hid/MidiEvent.h **** };
 120:../../DaisyExamples/libDaisy/src/hid/MidiEvent.h **** /** Struct containing pressure (aftertouch), for a given channel.
 121:../../DaisyExamples/libDaisy/src/hid/MidiEvent.h **** Can be made from MidiEvent
 122:../../DaisyExamples/libDaisy/src/hid/MidiEvent.h **** */
 123:../../DaisyExamples/libDaisy/src/hid/MidiEvent.h **** struct ChannelPressureEvent
 124:../../DaisyExamples/libDaisy/src/hid/MidiEvent.h **** {
 125:../../DaisyExamples/libDaisy/src/hid/MidiEvent.h ****     int     channel;  /**< & */
 126:../../DaisyExamples/libDaisy/src/hid/MidiEvent.h ****     uint8_t pressure; /**< & */
 127:../../DaisyExamples/libDaisy/src/hid/MidiEvent.h **** };
 128:../../DaisyExamples/libDaisy/src/hid/MidiEvent.h **** /** Struct containing pitch bend value for a given channel.
 129:../../DaisyExamples/libDaisy/src/hid/MidiEvent.h **** Can be made from MidiEvent
 130:../../DaisyExamples/libDaisy/src/hid/MidiEvent.h **** */
 131:../../DaisyExamples/libDaisy/src/hid/MidiEvent.h **** struct PitchBendEvent
 132:../../DaisyExamples/libDaisy/src/hid/MidiEvent.h **** {
 133:../../DaisyExamples/libDaisy/src/hid/MidiEvent.h ****     int     channel; /**< & */
 134:../../DaisyExamples/libDaisy/src/hid/MidiEvent.h ****     int16_t value;   /**< & */
 135:../../DaisyExamples/libDaisy/src/hid/MidiEvent.h **** };
 136:../../DaisyExamples/libDaisy/src/hid/MidiEvent.h **** /** Struct containing channel mode event for a given channel.
 137:../../DaisyExamples/libDaisy/src/hid/MidiEvent.h **** Can be made from MidiEvent
 138:../../DaisyExamples/libDaisy/src/hid/MidiEvent.h **** */
 139:../../DaisyExamples/libDaisy/src/hid/MidiEvent.h **** struct ChannelModeEvent
 140:../../DaisyExamples/libDaisy/src/hid/MidiEvent.h **** {
 141:../../DaisyExamples/libDaisy/src/hid/MidiEvent.h ****     int             channel;    /**< & */
 142:../../DaisyExamples/libDaisy/src/hid/MidiEvent.h ****     ChannelModeType event_type; /**< & */
 143:../../DaisyExamples/libDaisy/src/hid/MidiEvent.h ****     int16_t         value;      /**< & */
 144:../../DaisyExamples/libDaisy/src/hid/MidiEvent.h **** };
 145:../../DaisyExamples/libDaisy/src/hid/MidiEvent.h **** /** Struct containing sysex data.
 146:../../DaisyExamples/libDaisy/src/hid/MidiEvent.h **** Can be made from MidiEvent
 147:../../DaisyExamples/libDaisy/src/hid/MidiEvent.h **** */
 148:../../DaisyExamples/libDaisy/src/hid/MidiEvent.h **** struct SystemExclusiveEvent
 149:../../DaisyExamples/libDaisy/src/hid/MidiEvent.h **** {
 150:../../DaisyExamples/libDaisy/src/hid/MidiEvent.h ****     int     length;
ARM GAS  /var/folders/hp/45mn71hd0ps5f5pnytxy5bt00000gn/T//ccIwDN9B.s 			page 58


 151:../../DaisyExamples/libDaisy/src/hid/MidiEvent.h ****     uint8_t data[SYSEX_BUFFER_LEN]; /**< & */
 152:../../DaisyExamples/libDaisy/src/hid/MidiEvent.h **** };
 153:../../DaisyExamples/libDaisy/src/hid/MidiEvent.h **** /** Struct containing QuarterFrame data.
 154:../../DaisyExamples/libDaisy/src/hid/MidiEvent.h **** Can be made from MidiEvent
 155:../../DaisyExamples/libDaisy/src/hid/MidiEvent.h **** */
 156:../../DaisyExamples/libDaisy/src/hid/MidiEvent.h **** struct MTCQuarterFrameEvent
 157:../../DaisyExamples/libDaisy/src/hid/MidiEvent.h **** {
 158:../../DaisyExamples/libDaisy/src/hid/MidiEvent.h ****     uint8_t message_type; /**< & */
 159:../../DaisyExamples/libDaisy/src/hid/MidiEvent.h ****     uint8_t value;        /**< & */
 160:../../DaisyExamples/libDaisy/src/hid/MidiEvent.h **** };
 161:../../DaisyExamples/libDaisy/src/hid/MidiEvent.h **** /** Struct containing song position data.
 162:../../DaisyExamples/libDaisy/src/hid/MidiEvent.h **** Can be made from MidiEvent
 163:../../DaisyExamples/libDaisy/src/hid/MidiEvent.h **** */
 164:../../DaisyExamples/libDaisy/src/hid/MidiEvent.h **** struct SongPositionPointerEvent
 165:../../DaisyExamples/libDaisy/src/hid/MidiEvent.h **** {
 166:../../DaisyExamples/libDaisy/src/hid/MidiEvent.h ****     uint16_t position; /**< & */
 167:../../DaisyExamples/libDaisy/src/hid/MidiEvent.h **** };
 168:../../DaisyExamples/libDaisy/src/hid/MidiEvent.h **** /** Struct containing song select data.
 169:../../DaisyExamples/libDaisy/src/hid/MidiEvent.h **** Can be made from MidiEvent
 170:../../DaisyExamples/libDaisy/src/hid/MidiEvent.h **** */
 171:../../DaisyExamples/libDaisy/src/hid/MidiEvent.h **** struct SongSelectEvent
 172:../../DaisyExamples/libDaisy/src/hid/MidiEvent.h **** {
 173:../../DaisyExamples/libDaisy/src/hid/MidiEvent.h ****     uint8_t song; /**< & */
 174:../../DaisyExamples/libDaisy/src/hid/MidiEvent.h **** };
 175:../../DaisyExamples/libDaisy/src/hid/MidiEvent.h **** /** Struct containing sound off data.
 176:../../DaisyExamples/libDaisy/src/hid/MidiEvent.h **** Can be made from MidiEvent
 177:../../DaisyExamples/libDaisy/src/hid/MidiEvent.h **** */
 178:../../DaisyExamples/libDaisy/src/hid/MidiEvent.h **** struct AllSoundOffEvent
 179:../../DaisyExamples/libDaisy/src/hid/MidiEvent.h **** {
 180:../../DaisyExamples/libDaisy/src/hid/MidiEvent.h ****     int channel; /**< & */
 181:../../DaisyExamples/libDaisy/src/hid/MidiEvent.h **** };
 182:../../DaisyExamples/libDaisy/src/hid/MidiEvent.h **** /** Struct containing ResetAllControllersEvent data.
 183:../../DaisyExamples/libDaisy/src/hid/MidiEvent.h **** Can be made from MidiEvent
 184:../../DaisyExamples/libDaisy/src/hid/MidiEvent.h **** */
 185:../../DaisyExamples/libDaisy/src/hid/MidiEvent.h **** struct ResetAllControllersEvent
 186:../../DaisyExamples/libDaisy/src/hid/MidiEvent.h **** {
 187:../../DaisyExamples/libDaisy/src/hid/MidiEvent.h ****     int     channel; /**< & */
 188:../../DaisyExamples/libDaisy/src/hid/MidiEvent.h ****     uint8_t value;   /**< & */
 189:../../DaisyExamples/libDaisy/src/hid/MidiEvent.h **** };
 190:../../DaisyExamples/libDaisy/src/hid/MidiEvent.h **** /** Struct containing LocalControlEvent data.
 191:../../DaisyExamples/libDaisy/src/hid/MidiEvent.h **** Can be made from MidiEvent
 192:../../DaisyExamples/libDaisy/src/hid/MidiEvent.h **** */
 193:../../DaisyExamples/libDaisy/src/hid/MidiEvent.h **** struct LocalControlEvent
 194:../../DaisyExamples/libDaisy/src/hid/MidiEvent.h **** {
 195:../../DaisyExamples/libDaisy/src/hid/MidiEvent.h ****     int  channel;           /**< & */
 196:../../DaisyExamples/libDaisy/src/hid/MidiEvent.h ****     bool local_control_off; /**< & */
 197:../../DaisyExamples/libDaisy/src/hid/MidiEvent.h ****     bool local_control_on;  /**< & */
 198:../../DaisyExamples/libDaisy/src/hid/MidiEvent.h **** };
 199:../../DaisyExamples/libDaisy/src/hid/MidiEvent.h **** /** Struct containing AllNotesOffEvent data.
 200:../../DaisyExamples/libDaisy/src/hid/MidiEvent.h **** Can be made from MidiEvent
 201:../../DaisyExamples/libDaisy/src/hid/MidiEvent.h **** */
 202:../../DaisyExamples/libDaisy/src/hid/MidiEvent.h **** struct AllNotesOffEvent
 203:../../DaisyExamples/libDaisy/src/hid/MidiEvent.h **** {
 204:../../DaisyExamples/libDaisy/src/hid/MidiEvent.h ****     int channel; /**< & */
 205:../../DaisyExamples/libDaisy/src/hid/MidiEvent.h **** };
 206:../../DaisyExamples/libDaisy/src/hid/MidiEvent.h **** /** Struct containing OmniModeOffEvent data.
 207:../../DaisyExamples/libDaisy/src/hid/MidiEvent.h ****  * Can be made from MidiEvent
ARM GAS  /var/folders/hp/45mn71hd0ps5f5pnytxy5bt00000gn/T//ccIwDN9B.s 			page 59


 208:../../DaisyExamples/libDaisy/src/hid/MidiEvent.h **** */
 209:../../DaisyExamples/libDaisy/src/hid/MidiEvent.h **** struct OmniModeOffEvent
 210:../../DaisyExamples/libDaisy/src/hid/MidiEvent.h **** {
 211:../../DaisyExamples/libDaisy/src/hid/MidiEvent.h ****     int channel; /**< & */
 212:../../DaisyExamples/libDaisy/src/hid/MidiEvent.h **** };
 213:../../DaisyExamples/libDaisy/src/hid/MidiEvent.h **** /** Struct containing OmniModeOnEvent data.
 214:../../DaisyExamples/libDaisy/src/hid/MidiEvent.h **** Can be made from MidiEvent
 215:../../DaisyExamples/libDaisy/src/hid/MidiEvent.h **** */
 216:../../DaisyExamples/libDaisy/src/hid/MidiEvent.h **** struct OmniModeOnEvent
 217:../../DaisyExamples/libDaisy/src/hid/MidiEvent.h **** {
 218:../../DaisyExamples/libDaisy/src/hid/MidiEvent.h ****     int channel; /**< & */
 219:../../DaisyExamples/libDaisy/src/hid/MidiEvent.h **** };
 220:../../DaisyExamples/libDaisy/src/hid/MidiEvent.h **** /** Struct containing MonoModeOnEvent data.
 221:../../DaisyExamples/libDaisy/src/hid/MidiEvent.h **** Can be made from MidiEvent
 222:../../DaisyExamples/libDaisy/src/hid/MidiEvent.h **** */
 223:../../DaisyExamples/libDaisy/src/hid/MidiEvent.h **** struct MonoModeOnEvent
 224:../../DaisyExamples/libDaisy/src/hid/MidiEvent.h **** {
 225:../../DaisyExamples/libDaisy/src/hid/MidiEvent.h ****     int     channel;      /**< & */
 226:../../DaisyExamples/libDaisy/src/hid/MidiEvent.h ****     uint8_t num_channels; /**< & */
 227:../../DaisyExamples/libDaisy/src/hid/MidiEvent.h **** };
 228:../../DaisyExamples/libDaisy/src/hid/MidiEvent.h **** /** Struct containing PolyModeOnEvent data.
 229:../../DaisyExamples/libDaisy/src/hid/MidiEvent.h **** Can be made from MidiEvent
 230:../../DaisyExamples/libDaisy/src/hid/MidiEvent.h **** */
 231:../../DaisyExamples/libDaisy/src/hid/MidiEvent.h **** struct PolyModeOnEvent
 232:../../DaisyExamples/libDaisy/src/hid/MidiEvent.h **** {
 233:../../DaisyExamples/libDaisy/src/hid/MidiEvent.h ****     int channel; /**< & */
 234:../../DaisyExamples/libDaisy/src/hid/MidiEvent.h **** };
 235:../../DaisyExamples/libDaisy/src/hid/MidiEvent.h **** 
 236:../../DaisyExamples/libDaisy/src/hid/MidiEvent.h **** 
 237:../../DaisyExamples/libDaisy/src/hid/MidiEvent.h **** /** Simple MidiEvent with message type, channel, and data[2] members.
 238:../../DaisyExamples/libDaisy/src/hid/MidiEvent.h **** */
 239:../../DaisyExamples/libDaisy/src/hid/MidiEvent.h **** struct MidiEvent
 240:../../DaisyExamples/libDaisy/src/hid/MidiEvent.h **** {
 241:../../DaisyExamples/libDaisy/src/hid/MidiEvent.h ****     // Newer ish.
 242:../../DaisyExamples/libDaisy/src/hid/MidiEvent.h ****     MidiMessageType    type;                         /**< & */
 243:../../DaisyExamples/libDaisy/src/hid/MidiEvent.h ****     int                channel;                      /**< & */
 244:../../DaisyExamples/libDaisy/src/hid/MidiEvent.h ****     uint8_t            data[2];                      /**< & */
 245:../../DaisyExamples/libDaisy/src/hid/MidiEvent.h ****     uint8_t            sysex_data[SYSEX_BUFFER_LEN]; /**< & */
 246:../../DaisyExamples/libDaisy/src/hid/MidiEvent.h ****     uint8_t            sysex_message_len;
 247:../../DaisyExamples/libDaisy/src/hid/MidiEvent.h ****     SystemCommonType   sc_type;
 248:../../DaisyExamples/libDaisy/src/hid/MidiEvent.h ****     SystemRealTimeType srt_type;
 249:../../DaisyExamples/libDaisy/src/hid/MidiEvent.h ****     ChannelModeType    cm_type;
 250:../../DaisyExamples/libDaisy/src/hid/MidiEvent.h **** 
 251:../../DaisyExamples/libDaisy/src/hid/MidiEvent.h ****     /** Returns the data within the MidiEvent as a NoteOffEvent struct */
 252:../../DaisyExamples/libDaisy/src/hid/MidiEvent.h ****     NoteOffEvent AsNoteOff()
 253:../../DaisyExamples/libDaisy/src/hid/MidiEvent.h ****     {
 254:../../DaisyExamples/libDaisy/src/hid/MidiEvent.h ****         NoteOffEvent m;
 255:../../DaisyExamples/libDaisy/src/hid/MidiEvent.h ****         m.channel  = channel;
 256:../../DaisyExamples/libDaisy/src/hid/MidiEvent.h ****         m.note     = data[0];
 257:../../DaisyExamples/libDaisy/src/hid/MidiEvent.h ****         m.velocity = data[1];
 258:../../DaisyExamples/libDaisy/src/hid/MidiEvent.h ****         return m;
 259:../../DaisyExamples/libDaisy/src/hid/MidiEvent.h ****     }
 260:../../DaisyExamples/libDaisy/src/hid/MidiEvent.h **** 
 261:../../DaisyExamples/libDaisy/src/hid/MidiEvent.h ****     /** Returns the data within the MidiEvent as a NoteOnEvent struct */
 262:../../DaisyExamples/libDaisy/src/hid/MidiEvent.h ****     NoteOnEvent AsNoteOn()
 1411              		.loc 20 262 17 view .LVU391
 1412              	.LBB708:
ARM GAS  /var/folders/hp/45mn71hd0ps5f5pnytxy5bt00000gn/T//ccIwDN9B.s 			page 60


 263:../../DaisyExamples/libDaisy/src/hid/MidiEvent.h ****     {
 264:../../DaisyExamples/libDaisy/src/hid/MidiEvent.h ****         NoteOnEvent m;
 1413              		.loc 20 264 9 view .LVU392
 265:../../DaisyExamples/libDaisy/src/hid/MidiEvent.h ****         m.channel  = channel;
 1414              		.loc 20 265 9 view .LVU393
 266:../../DaisyExamples/libDaisy/src/hid/MidiEvent.h ****         m.note     = data[0];
 1415              		.loc 20 266 9 view .LVU394
 267:../../DaisyExamples/libDaisy/src/hid/MidiEvent.h ****         m.velocity = data[1];
 1416              		.loc 20 267 9 view .LVU395
 268:../../DaisyExamples/libDaisy/src/hid/MidiEvent.h ****         return m;
 1417              		.loc 20 268 9 view .LVU396
 1418              		.loc 20 268 9 is_stmt 0 view .LVU397
 1419              	.LBE708:
 1420              	.LBE707:
 113:SynthV5.cpp   ****                     if(note_msg.velocity != 0)
 1421              		.loc 19 113 21 is_stmt 1 view .LVU398
 1422 0190 0029     		cmp	r1, #0
 1423 0192 D9D0     		beq	.L82
 114:SynthV5.cpp   ****                         midiFreq = mtof(note_msg.note);
 1424              		.loc 19 114 25 view .LVU399
 1425              	.LVL85:
 1426              	.LBB709:
 1427              	.LBI709:
 1428              		.file 21 "../../DaisyExamples/DaisySP/Source/Utility/dsp.h"
   1:../../DaisyExamples/DaisySP/Source/Utility/dsp.h **** /*
   2:../../DaisyExamples/DaisySP/Source/Utility/dsp.h **** Copyright (c) 2020 Electrosmith, Corp, Emilie Gillet
   3:../../DaisyExamples/DaisySP/Source/Utility/dsp.h **** 
   4:../../DaisyExamples/DaisySP/Source/Utility/dsp.h **** Use of this source code is governed by an MIT-style
   5:../../DaisyExamples/DaisySP/Source/Utility/dsp.h **** license that can be found in the LICENSE file or at
   6:../../DaisyExamples/DaisySP/Source/Utility/dsp.h **** https://opensource.org/licenses/MIT.
   7:../../DaisyExamples/DaisySP/Source/Utility/dsp.h **** */
   8:../../DaisyExamples/DaisySP/Source/Utility/dsp.h **** 
   9:../../DaisyExamples/DaisySP/Source/Utility/dsp.h **** /** Helpful defines, functions, and other utilities for use in/with daisysp modules.
  10:../../DaisyExamples/DaisySP/Source/Utility/dsp.h **** */
  11:../../DaisyExamples/DaisySP/Source/Utility/dsp.h **** #pragma once
  12:../../DaisyExamples/DaisySP/Source/Utility/dsp.h **** #ifndef DSY_CORE_DSP
  13:../../DaisyExamples/DaisySP/Source/Utility/dsp.h **** #define DSY_CORE_DSP
  14:../../DaisyExamples/DaisySP/Source/Utility/dsp.h **** #include <cassert>
  15:../../DaisyExamples/DaisySP/Source/Utility/dsp.h **** #include <cstdint>
  16:../../DaisyExamples/DaisySP/Source/Utility/dsp.h **** #include <random>
  17:../../DaisyExamples/DaisySP/Source/Utility/dsp.h **** #include <cmath>
  18:../../DaisyExamples/DaisySP/Source/Utility/dsp.h **** 
  19:../../DaisyExamples/DaisySP/Source/Utility/dsp.h **** /** PIs
  20:../../DaisyExamples/DaisySP/Source/Utility/dsp.h **** */
  21:../../DaisyExamples/DaisySP/Source/Utility/dsp.h **** #define PI_F 3.1415927410125732421875f
  22:../../DaisyExamples/DaisySP/Source/Utility/dsp.h **** #define TWOPI_F (2.0f * PI_F)
  23:../../DaisyExamples/DaisySP/Source/Utility/dsp.h **** #define HALFPI_F (PI_F * 0.5f)
  24:../../DaisyExamples/DaisySP/Source/Utility/dsp.h **** #define DSY_MIN(in, mn) (in < mn ? in : mn)
  25:../../DaisyExamples/DaisySP/Source/Utility/dsp.h **** #define DSY_MAX(in, mx) (in > mx ? in : mx)
  26:../../DaisyExamples/DaisySP/Source/Utility/dsp.h **** #define DSY_CLAMP(in, mn, mx) (DSY_MIN(DSY_MAX(in, mn), mx))
  27:../../DaisyExamples/DaisySP/Source/Utility/dsp.h **** #define DSY_COUNTOF(_arr) (sizeof(_arr) / sizeof(_arr[0]))
  28:../../DaisyExamples/DaisySP/Source/Utility/dsp.h **** 
  29:../../DaisyExamples/DaisySP/Source/Utility/dsp.h **** namespace daisysp
  30:../../DaisyExamples/DaisySP/Source/Utility/dsp.h **** {
  31:../../DaisyExamples/DaisySP/Source/Utility/dsp.h **** //Avoids division for random floats. e.g. rand() * kRandFrac
  32:../../DaisyExamples/DaisySP/Source/Utility/dsp.h **** static constexpr float kRandFrac = 1.f / (float)RAND_MAX;
  33:../../DaisyExamples/DaisySP/Source/Utility/dsp.h **** 
ARM GAS  /var/folders/hp/45mn71hd0ps5f5pnytxy5bt00000gn/T//ccIwDN9B.s 			page 61


  34:../../DaisyExamples/DaisySP/Source/Utility/dsp.h **** //Convert from semitones to other units. e.g. 2 ^ (kOneTwelfth * x)
  35:../../DaisyExamples/DaisySP/Source/Utility/dsp.h **** static constexpr float kOneTwelfth = 1.f / 12.f;
  36:../../DaisyExamples/DaisySP/Source/Utility/dsp.h **** 
  37:../../DaisyExamples/DaisySP/Source/Utility/dsp.h **** /** efficient floating point min/max
  38:../../DaisyExamples/DaisySP/Source/Utility/dsp.h **** c/o stephen mccaul
  39:../../DaisyExamples/DaisySP/Source/Utility/dsp.h **** */
  40:../../DaisyExamples/DaisySP/Source/Utility/dsp.h **** inline float fmax(float a, float b)
  41:../../DaisyExamples/DaisySP/Source/Utility/dsp.h **** {
  42:../../DaisyExamples/DaisySP/Source/Utility/dsp.h ****     float r;
  43:../../DaisyExamples/DaisySP/Source/Utility/dsp.h **** #ifdef __arm__
  44:../../DaisyExamples/DaisySP/Source/Utility/dsp.h ****     asm("vmaxnm.f32 %[d], %[n], %[m]" : [d] "=t"(r) : [n] "t"(a), [m] "t"(b) :);
  45:../../DaisyExamples/DaisySP/Source/Utility/dsp.h **** #else
  46:../../DaisyExamples/DaisySP/Source/Utility/dsp.h ****     r = (a > b) ? a : b;
  47:../../DaisyExamples/DaisySP/Source/Utility/dsp.h **** #endif // __arm__
  48:../../DaisyExamples/DaisySP/Source/Utility/dsp.h ****     return r;
  49:../../DaisyExamples/DaisySP/Source/Utility/dsp.h **** }
  50:../../DaisyExamples/DaisySP/Source/Utility/dsp.h **** 
  51:../../DaisyExamples/DaisySP/Source/Utility/dsp.h **** inline float fmin(float a, float b)
  52:../../DaisyExamples/DaisySP/Source/Utility/dsp.h **** {
  53:../../DaisyExamples/DaisySP/Source/Utility/dsp.h ****     float r;
  54:../../DaisyExamples/DaisySP/Source/Utility/dsp.h **** #ifdef __arm__
  55:../../DaisyExamples/DaisySP/Source/Utility/dsp.h ****     asm("vminnm.f32 %[d], %[n], %[m]" : [d] "=t"(r) : [n] "t"(a), [m] "t"(b) :);
  56:../../DaisyExamples/DaisySP/Source/Utility/dsp.h **** #else
  57:../../DaisyExamples/DaisySP/Source/Utility/dsp.h ****     r = (a < b) ? a : b;
  58:../../DaisyExamples/DaisySP/Source/Utility/dsp.h **** #endif // __arm__
  59:../../DaisyExamples/DaisySP/Source/Utility/dsp.h ****     return r;
  60:../../DaisyExamples/DaisySP/Source/Utility/dsp.h **** }
  61:../../DaisyExamples/DaisySP/Source/Utility/dsp.h **** 
  62:../../DaisyExamples/DaisySP/Source/Utility/dsp.h **** /** quick fp clamp
  63:../../DaisyExamples/DaisySP/Source/Utility/dsp.h **** */
  64:../../DaisyExamples/DaisySP/Source/Utility/dsp.h **** inline float fclamp(float in, float min, float max)
  65:../../DaisyExamples/DaisySP/Source/Utility/dsp.h **** {
  66:../../DaisyExamples/DaisySP/Source/Utility/dsp.h ****     return fmin(fmax(in, min), max);
  67:../../DaisyExamples/DaisySP/Source/Utility/dsp.h **** }
  68:../../DaisyExamples/DaisySP/Source/Utility/dsp.h **** 
  69:../../DaisyExamples/DaisySP/Source/Utility/dsp.h **** /** From Musicdsp.org "Fast power and root estimates for 32bit floats)
  70:../../DaisyExamples/DaisySP/Source/Utility/dsp.h **** Original code by Stefan Stenzel
  71:../../DaisyExamples/DaisySP/Source/Utility/dsp.h **** These are approximations
  72:../../DaisyExamples/DaisySP/Source/Utility/dsp.h **** */
  73:../../DaisyExamples/DaisySP/Source/Utility/dsp.h **** inline float fastpower(float f, int n)
  74:../../DaisyExamples/DaisySP/Source/Utility/dsp.h **** {
  75:../../DaisyExamples/DaisySP/Source/Utility/dsp.h ****     long *lp, l;
  76:../../DaisyExamples/DaisySP/Source/Utility/dsp.h ****     lp = (long *)(&f);
  77:../../DaisyExamples/DaisySP/Source/Utility/dsp.h ****     l  = *lp;
  78:../../DaisyExamples/DaisySP/Source/Utility/dsp.h ****     l -= 0x3F800000;
  79:../../DaisyExamples/DaisySP/Source/Utility/dsp.h ****     l <<= (n - 1);
  80:../../DaisyExamples/DaisySP/Source/Utility/dsp.h ****     l += 0x3F800000;
  81:../../DaisyExamples/DaisySP/Source/Utility/dsp.h ****     *lp = l;
  82:../../DaisyExamples/DaisySP/Source/Utility/dsp.h ****     return f;
  83:../../DaisyExamples/DaisySP/Source/Utility/dsp.h **** }
  84:../../DaisyExamples/DaisySP/Source/Utility/dsp.h **** 
  85:../../DaisyExamples/DaisySP/Source/Utility/dsp.h **** inline float fastroot(float f, int n)
  86:../../DaisyExamples/DaisySP/Source/Utility/dsp.h **** {
  87:../../DaisyExamples/DaisySP/Source/Utility/dsp.h ****     long *lp, l;
  88:../../DaisyExamples/DaisySP/Source/Utility/dsp.h ****     lp = (long *)(&f);
  89:../../DaisyExamples/DaisySP/Source/Utility/dsp.h ****     l  = *lp;
  90:../../DaisyExamples/DaisySP/Source/Utility/dsp.h ****     l -= 0x3F800000;
ARM GAS  /var/folders/hp/45mn71hd0ps5f5pnytxy5bt00000gn/T//ccIwDN9B.s 			page 62


  91:../../DaisyExamples/DaisySP/Source/Utility/dsp.h ****     l >>= (n - 1);
  92:../../DaisyExamples/DaisySP/Source/Utility/dsp.h ****     l += 0x3F800000;
  93:../../DaisyExamples/DaisySP/Source/Utility/dsp.h ****     *lp = l;
  94:../../DaisyExamples/DaisySP/Source/Utility/dsp.h ****     return f;
  95:../../DaisyExamples/DaisySP/Source/Utility/dsp.h **** }
  96:../../DaisyExamples/DaisySP/Source/Utility/dsp.h **** 
  97:../../DaisyExamples/DaisySP/Source/Utility/dsp.h **** /** Significantly more efficient than fmodf(x, 1.0f) for calculating
  98:../../DaisyExamples/DaisySP/Source/Utility/dsp.h ****  *  the decimal part of a floating point value.
  99:../../DaisyExamples/DaisySP/Source/Utility/dsp.h ****  */
 100:../../DaisyExamples/DaisySP/Source/Utility/dsp.h **** inline float fastmod1f(float x)
 101:../../DaisyExamples/DaisySP/Source/Utility/dsp.h **** {
 102:../../DaisyExamples/DaisySP/Source/Utility/dsp.h ****     return x - static_cast<int>(x);
 103:../../DaisyExamples/DaisySP/Source/Utility/dsp.h **** }
 104:../../DaisyExamples/DaisySP/Source/Utility/dsp.h **** 
 105:../../DaisyExamples/DaisySP/Source/Utility/dsp.h **** /** From http://openaudio.blogspot.com/2017/02/faster-log10-and-pow.html
 106:../../DaisyExamples/DaisySP/Source/Utility/dsp.h **** No approximation, pow10f(x) gives a 90% speed increase over powf(10.f, x)
 107:../../DaisyExamples/DaisySP/Source/Utility/dsp.h **** */
 108:../../DaisyExamples/DaisySP/Source/Utility/dsp.h **** inline float pow10f(float f)
 109:../../DaisyExamples/DaisySP/Source/Utility/dsp.h **** {
 110:../../DaisyExamples/DaisySP/Source/Utility/dsp.h ****     return expf(2.302585092994046f * f);
 111:../../DaisyExamples/DaisySP/Source/Utility/dsp.h **** }
 112:../../DaisyExamples/DaisySP/Source/Utility/dsp.h **** 
 113:../../DaisyExamples/DaisySP/Source/Utility/dsp.h **** /* Original code for fastlog2f by Dr. Paul Beckmann from the ARM community forum, adapted from the 
 114:../../DaisyExamples/DaisySP/Source/Utility/dsp.h **** About 25% performance increase over std::log10f
 115:../../DaisyExamples/DaisySP/Source/Utility/dsp.h **** */
 116:../../DaisyExamples/DaisySP/Source/Utility/dsp.h **** inline float fastlog2f(float f)
 117:../../DaisyExamples/DaisySP/Source/Utility/dsp.h **** {
 118:../../DaisyExamples/DaisySP/Source/Utility/dsp.h ****     float frac;
 119:../../DaisyExamples/DaisySP/Source/Utility/dsp.h ****     int   exp;
 120:../../DaisyExamples/DaisySP/Source/Utility/dsp.h ****     frac = frexpf(fabsf(f), &exp);
 121:../../DaisyExamples/DaisySP/Source/Utility/dsp.h ****     f    = 1.23149591368684f;
 122:../../DaisyExamples/DaisySP/Source/Utility/dsp.h ****     f *= frac;
 123:../../DaisyExamples/DaisySP/Source/Utility/dsp.h ****     f += -4.11852516267426f;
 124:../../DaisyExamples/DaisySP/Source/Utility/dsp.h ****     f *= frac;
 125:../../DaisyExamples/DaisySP/Source/Utility/dsp.h ****     f += 6.02197014179219f;
 126:../../DaisyExamples/DaisySP/Source/Utility/dsp.h ****     f *= frac;
 127:../../DaisyExamples/DaisySP/Source/Utility/dsp.h ****     f += -3.13396450166353f;
 128:../../DaisyExamples/DaisySP/Source/Utility/dsp.h ****     f += exp;
 129:../../DaisyExamples/DaisySP/Source/Utility/dsp.h ****     return (f);
 130:../../DaisyExamples/DaisySP/Source/Utility/dsp.h **** }
 131:../../DaisyExamples/DaisySP/Source/Utility/dsp.h **** 
 132:../../DaisyExamples/DaisySP/Source/Utility/dsp.h **** inline float fastlog10f(float f)
 133:../../DaisyExamples/DaisySP/Source/Utility/dsp.h **** {
 134:../../DaisyExamples/DaisySP/Source/Utility/dsp.h ****     return fastlog2f(f) * 0.3010299956639812f;
 135:../../DaisyExamples/DaisySP/Source/Utility/dsp.h **** }
 136:../../DaisyExamples/DaisySP/Source/Utility/dsp.h **** 
 137:../../DaisyExamples/DaisySP/Source/Utility/dsp.h **** /** Midi to frequency helper
 138:../../DaisyExamples/DaisySP/Source/Utility/dsp.h **** */
 139:../../DaisyExamples/DaisySP/Source/Utility/dsp.h **** inline float mtof(float m)
 1429              		.loc 21 139 14 view .LVU400
 1430              	.LBB710:
 140:../../DaisyExamples/DaisySP/Source/Utility/dsp.h **** {
 141:../../DaisyExamples/DaisySP/Source/Utility/dsp.h ****     return powf(2, (m - 69.0f) / 12.0f) * 440.0f;
 1431              		.loc 21 141 5 view .LVU401
 1432              	.LBE710:
 1433              	.LBE709:
 1434              		.loc 19 114 40 is_stmt 0 view .LVU402
ARM GAS  /var/folders/hp/45mn71hd0ps5f5pnytxy5bt00000gn/T//ccIwDN9B.s 			page 63


 1435 0194 07EE90EA 		vmov	s15, lr	@ int
 1436              	.LBB713:
 1437              	.LBB711:
 1438              		.loc 21 141 23 view .LVU403
 1439 0198 9FED237A 		vldr.32	s14, .L85+60
 1440              		.loc 21 141 16 view .LVU404
 1441 019c F2EE080A 		vmov.f32	s1, #1.2e+1
 1442              	.LBE711:
 1443              	.LBE713:
 1444              		.loc 19 114 40 view .LVU405
 1445 01a0 F8EE677A 		vcvt.f32.u32	s15, s15
 1446              	.LBB714:
 1447              	.LBB712:
 1448              		.loc 21 141 16 view .LVU406
 1449 01a4 B0EE000A 		vmov.f32	s0, #2.0e+0
 1450              		.loc 21 141 23 view .LVU407
 1451 01a8 77EEC77A 		vsub.f32	s15, s15, s14
 1452              		.loc 21 141 16 view .LVU408
 1453 01ac C7EEA00A 		vdiv.f32	s1, s15, s1
 1454 01b0 FFF7FEFF 		bl	powf
 1455              	.LVL86:
 1456              		.loc 21 141 43 view .LVU409
 1457 01b4 DFED1D7A 		vldr.32	s15, .L85+64
 1458 01b8 20EE270A 		vmul.f32	s0, s0, s15
 1459              	.LBE712:
 1460              	.LBE714:
 1461              	.LBE704:
 1462              	.LBE716:
 1463              	.LBE718:
 1464              	.LBB719:
 1465              	.LBB695:
 1466              	.LBB692:
 173:../../DaisyExamples/libDaisy/src/util/FIFO.h ****         if(numElements < 0)
 1467              		.loc 5 173 43 view .LVU410
 1468 01bc D4E92B73 		ldrd	r7, r3, [r4, #172]
 1469              	.LBE692:
 1470              	.LBE695:
 1471              	.LBE719:
 1472              	.LBB720:
 1473              	.LBB717:
 1474              	.LBB715:
 1475              		.loc 19 114 34 view .LVU411
 1476 01c0 8BED000A 		vstr.32	s0, [fp]
 1477 01c4 F91A     		subs	r1, r7, r3
 1478              		.loc 19 114 34 view .LVU412
 1479              	.LBE715:
 1480              	.LBE717:
 1481              	.LBE720:
 104:SynthV5.cpp   ****         {
 1482              		.loc 19 104 9 is_stmt 1 view .LVU413
 104:SynthV5.cpp   ****         {
 1483              		.loc 19 104 29 view .LVU414
 1484              	.LVL87:
 1485              	.LBB721:
 197:../../DaisyExamples/libDaisy/src/hid/midi.h **** 
 1486              		.loc 4 197 10 view .LVU415
 1487              	.LBB696:
ARM GAS  /var/folders/hp/45mn71hd0ps5f5pnytxy5bt00000gn/T//ccIwDN9B.s 			page 64


 171:../../DaisyExamples/libDaisy/src/util/FIFO.h ****     {
 1488              		.loc 5 171 12 view .LVU416
 1489              	.LBB693:
 174:../../DaisyExamples/libDaisy/src/util/FIFO.h ****             numElements += bufferSize_;
 1490              		.loc 5 174 9 is_stmt 0 view .LVU417
 1491 01c6 0029     		cmp	r1, #0
 173:../../DaisyExamples/libDaisy/src/util/FIFO.h ****         if(numElements < 0)
 1492              		.loc 5 173 41 view .LVU418
 1493 01c8 0A46     		mov	r2, r1
 1494              	.LVL88:
 174:../../DaisyExamples/libDaisy/src/util/FIFO.h ****             numElements += bufferSize_;
 1495              		.loc 5 174 9 view .LVU419
 1496 01ca C3DA     		bge	.L71
 1497              	.L84:
 175:../../DaisyExamples/libDaisy/src/util/FIFO.h ****         return size_t(numElements);
 1498              		.loc 5 175 25 view .LVU420
 1499 01cc D4F8A820 		ldr	r2, [r4, #168]
 1500 01d0 0A44     		add	r2, r2, r1
 1501              	.LVL89:
 175:../../DaisyExamples/libDaisy/src/util/FIFO.h ****         return size_t(numElements);
 1502              		.loc 5 175 25 view .LVU421
 1503 01d2 BFE7     		b	.L71
 1504              	.LVL90:
 1505              	.L83:
 175:../../DaisyExamples/libDaisy/src/util/FIFO.h ****         return size_t(numElements);
 1506              		.loc 5 175 25 view .LVU422
 1507              	.LBE693:
 1508              	.LBE696:
 1509              	.LBE721:
 1510              	.LBB722:
 1511              	.LBB687:
 188:../../DaisyExamples/libDaisy/src/hid/midi.h ****             transport_.FlushRx();
 1512              		.loc 4 188 26 view .LVU423
 1513 01d4 1648     		ldr	r0, .L85+68
 1514 01d6 FFF7FEFF 		bl	_ZN5daisy10MidiParser5ResetEv
 1515              	.LVL91:
 189:../../DaisyExamples/libDaisy/src/hid/midi.h ****             StartReceive();
 1516              		.loc 4 189 31 view .LVU424
 1517 01da 1248     		ldr	r0, .L85+56
 1518 01dc FFF7FEFF 		bl	_ZN5daisy16MidiUsbTransport7FlushRxEv
 1519              	.LVL92:
 1520              	.LBB685:
 1521              	.LBI685:
 175:../../DaisyExamples/libDaisy/src/hid/midi.h ****     {
 1522              		.loc 4 175 10 is_stmt 1 view .LVU425
 1523              	.LBB686:
 177:../../DaisyExamples/libDaisy/src/hid/midi.h ****     }
 1524              		.loc 4 177 27 is_stmt 0 view .LVU426
 1525 01e0 034A     		ldr	r2, .L85+4
 1526 01e2 1449     		ldr	r1, .L85+72
 1527 01e4 101D     		adds	r0, r2, #4
 1528 01e6 FFF7FEFF 		bl	_ZN5daisy16MidiUsbTransport7StartRxEPFvPhjPvES2_
 1529              	.LVL93:
 178:../../DaisyExamples/libDaisy/src/hid/midi.h **** 
 1530              		.loc 4 178 5 view .LVU427
 1531 01ea ABE7     		b	.L70
 1532              	.L86:
ARM GAS  /var/folders/hp/45mn71hd0ps5f5pnytxy5bt00000gn/T//ccIwDN9B.s 			page 65


 1533              		.align	2
 1534              	.L85:
 1535 01ec 00000000 		.word	_ZL2hw
 1536 01f0 00000000 		.word	_ZL4midi
 1537 01f4 00000000 		.word	.LANCHOR6
 1538 01f8 00000000 		.word	.LANCHOR4
 1539 01fc 0000C842 		.word	1120403456
 1540 0200 00000000 		.word	.LANCHOR5
 1541 0204 CDCCCC3D 		.word	1036831949
 1542 0208 0AD7233C 		.word	1008981770
 1543 020c 00000000 		.word	.LANCHOR7
 1544 0210 00000000 		.word	.LANCHOR1
 1545 0214 CDCCCCBD 		.word	-1110651699
 1546 0218 3333333F 		.word	1060320051
 1547 021c 00000000 		.word	.LANCHOR2
 1548 0220 00000000 		.word	_ZL13AudioCallbackPKfPfj
 1549 0224 04000000 		.word	_ZL4midi+4
 1550 0228 00008A42 		.word	1116340224
 1551 022c 0000DC43 		.word	1138491392
 1552 0230 08000000 		.word	_ZL4midi+8
 1553 0234 00000000 		.word	_ZN5daisy11MidiHandlerINS_16MidiUsbTransportEE13ParseCallbackEPhjPv
 1554 0238 00000000 		.word	.LANCHOR8
 1555 023c 68000000 		.word	_ZL2hw+104
 1556              	.LBE686:
 1557              	.LBE685:
 1558              	.LBE687:
 1559              	.LBE722:
 1560              	.LBE723:
 1561              		.cfi_endproc
 1562              	.LFE4855:
 1564              		.section	.text._Z22ProcessDigitalControlsv,"ax",%progbits
 1565              		.align	1
 1566              		.p2align 2,,3
 1567              		.global	_Z22ProcessDigitalControlsv
 1568              		.syntax unified
 1569              		.thumb
 1570              		.thumb_func
 1572              	_Z22ProcessDigitalControlsv:
 1573              	.LFB4859:
 115:SynthV5.cpp   ****                         // totalFreq = midiFreq *= tuning.Process();
 116:SynthV5.cpp   ****                         // osc.SetFreq(totalFreq);
 117:SynthV5.cpp   ****                 }
 118:SynthV5.cpp   ****                 break;
 119:SynthV5.cpp   ****                 default: break;
 120:SynthV5.cpp   ****             }
 121:SynthV5.cpp   ****         }
 122:SynthV5.cpp   ****     }
 123:SynthV5.cpp   **** }
 124:SynthV5.cpp   **** void ProcessDigitalControls()
 125:SynthV5.cpp   **** {
 1574              		.loc 19 125 1 is_stmt 1 view -0
 1575              		.cfi_startproc
 1576              		@ args = 0, pretend = 0, frame = 0
 1577              		@ frame_needed = 0, uses_anonymous_args = 0
 126:SynthV5.cpp   ****     hw.encoder.Debounce();
 1578              		.loc 19 126 5 view .LVU429
 125:SynthV5.cpp   ****     hw.encoder.Debounce();
ARM GAS  /var/folders/hp/45mn71hd0ps5f5pnytxy5bt00000gn/T//ccIwDN9B.s 			page 66


 1579              		.loc 19 125 1 is_stmt 0 view .LVU430
 1580 0000 10B5     		push	{r4, lr}
 1581              		.cfi_def_cfa_offset 8
 1582              		.cfi_offset 4, -8
 1583              		.cfi_offset 14, -4
 1584              		.loc 19 126 24 view .LVU431
 1585 0002 074C     		ldr	r4, .L89
 1586 0004 2046     		mov	r0, r4
 1587 0006 FFF7FEFF 		bl	_ZN5daisy7Encoder8DebounceEv
 1588              	.LVL94:
 127:SynthV5.cpp   ****     hw.button1.Debounce();
 1589              		.loc 19 127 5 is_stmt 1 view .LVU432
 1590              		.loc 19 127 24 is_stmt 0 view .LVU433
 1591 000a 04F17000 		add	r0, r4, #112
 1592 000e FFF7FEFF 		bl	_ZN5daisy6Switch8DebounceEv
 1593              	.LVL95:
 128:SynthV5.cpp   ****     hw.button2.Debounce();
 1594              		.loc 19 128 5 is_stmt 1 view .LVU434
 1595              		.loc 19 128 24 is_stmt 0 view .LVU435
 1596 0012 04F18000 		add	r0, r4, #128
 129:SynthV5.cpp   **** }
 1597              		.loc 19 129 1 view .LVU436
 1598 0016 BDE81040 		pop	{r4, lr}
 1599              		.cfi_restore 14
 1600              		.cfi_restore 4
 1601              		.cfi_def_cfa_offset 0
 128:SynthV5.cpp   ****     hw.button2.Debounce();
 1602              		.loc 19 128 24 view .LVU437
 1603 001a FFF7FEBF 		b	_ZN5daisy6Switch8DebounceEv
 1604              	.LVL96:
 1605              	.L90:
 1606 001e 00BF     		.align	2
 1607              	.L89:
 1608 0020 40000000 		.word	_ZL2hw+64
 1609              		.cfi_endproc
 1610              	.LFE4859:
 1612              		.section	.text.startup._GLOBAL__sub_I_adRelease,"ax",%progbits
 1613              		.align	1
 1614              		.p2align 2,,3
 1615              		.syntax unified
 1616              		.thumb
 1617              		.thumb_func
 1619              	_GLOBAL__sub_I_adRelease:
 1620              	.LFB5461:
 1621              		.loc 19 129 1 is_stmt 1 view -0
 1622              		.cfi_startproc
 1623              		@ args = 0, pretend = 0, frame = 0
 1624              		@ frame_needed = 0, uses_anonymous_args = 0
 1625              	.LBB823:
 1626              	.LBI823:
 1627              		.loc 19 129 1 view .LVU439
 1628              	.LVL97:
 1629              	.LBB824:
 1630              	.LBB825:
 1631              	.LBI825:
  35:../../DaisyExamples/libDaisy/src/daisy_pod.h ****     ~DaisyPod() {}
 1632              		.loc 3 35 5 view .LVU440
ARM GAS  /var/folders/hp/45mn71hd0ps5f5pnytxy5bt00000gn/T//ccIwDN9B.s 			page 67


 1633              	.LBB826:
 1634              	.LBB827:
 1635              	.LBI827:
  21:../../DaisyExamples/libDaisy/src/daisy_seed.h ****     ~DaisySeed() {}
 1636              		.loc 11 21 5 view .LVU441
 1637              	.LBB828:
 1638              	.LBB829:
 1639              	.LBI829:
 1640              		.file 22 "../../DaisyExamples/libDaisy/src/per/qspi.h"
   1:../../DaisyExamples/libDaisy/src/per/qspi.h **** #ifndef DSY_QSPI
   2:../../DaisyExamples/libDaisy/src/per/qspi.h **** #define DSY_QSPI /**< Macro */
   3:../../DaisyExamples/libDaisy/src/per/qspi.h **** 
   4:../../DaisyExamples/libDaisy/src/per/qspi.h **** #ifndef UNIT_TEST // for unit tests, a dummy implementation
   5:../../DaisyExamples/libDaisy/src/per/qspi.h **** 
   6:../../DaisyExamples/libDaisy/src/per/qspi.h **** #include <cstdint>
   7:../../DaisyExamples/libDaisy/src/per/qspi.h **** #include "daisy_core.h" // Added for dsy_gpio_pin typedef
   8:../../DaisyExamples/libDaisy/src/per/qspi.h **** 
   9:../../DaisyExamples/libDaisy/src/per/qspi.h **** #define DSY_QSPI_TEXT       \
  10:../../DaisyExamples/libDaisy/src/per/qspi.h ****     __attribute__((section( \
  11:../../DaisyExamples/libDaisy/src/per/qspi.h ****         ".qspiflash_text"))) /**< used for reading memory in memory_mapped mode. */
  12:../../DaisyExamples/libDaisy/src/per/qspi.h **** #define DSY_QSPI_DATA       \
  13:../../DaisyExamples/libDaisy/src/per/qspi.h ****     __attribute__((section( \
  14:../../DaisyExamples/libDaisy/src/per/qspi.h ****         ".qspiflash_data"))) /**< used for reading memory in memory_mapped mode. */
  15:../../DaisyExamples/libDaisy/src/per/qspi.h **** #define DSY_QSPI_BSS        \
  16:../../DaisyExamples/libDaisy/src/per/qspi.h ****     __attribute__((section( \
  17:../../DaisyExamples/libDaisy/src/per/qspi.h ****         ".qspiflash_bss"))) /**< used for reading memory in memory_mapped mode. */
  18:../../DaisyExamples/libDaisy/src/per/qspi.h **** 
  19:../../DaisyExamples/libDaisy/src/per/qspi.h **** namespace daisy
  20:../../DaisyExamples/libDaisy/src/per/qspi.h **** {
  21:../../DaisyExamples/libDaisy/src/per/qspi.h **** /** @addtogroup serial
  22:../../DaisyExamples/libDaisy/src/per/qspi.h **** @{
  23:../../DaisyExamples/libDaisy/src/per/qspi.h **** */
  24:../../DaisyExamples/libDaisy/src/per/qspi.h **** 
  25:../../DaisyExamples/libDaisy/src/per/qspi.h **** /** 
  26:../../DaisyExamples/libDaisy/src/per/qspi.h ****  Driver for QSPI peripheral to interface with external flash memory. \n 
  27:../../DaisyExamples/libDaisy/src/per/qspi.h ****     Currently supported QSPI Devices: \n 
  28:../../DaisyExamples/libDaisy/src/per/qspi.h ****     * IS25LP080D
  29:../../DaisyExamples/libDaisy/src/per/qspi.h **** */
  30:../../DaisyExamples/libDaisy/src/per/qspi.h **** class QSPIHandle
  31:../../DaisyExamples/libDaisy/src/per/qspi.h **** {
  32:../../DaisyExamples/libDaisy/src/per/qspi.h ****   public:
  33:../../DaisyExamples/libDaisy/src/per/qspi.h ****     enum Result
  34:../../DaisyExamples/libDaisy/src/per/qspi.h ****     {
  35:../../DaisyExamples/libDaisy/src/per/qspi.h ****         OK = 0,
  36:../../DaisyExamples/libDaisy/src/per/qspi.h ****         ERR
  37:../../DaisyExamples/libDaisy/src/per/qspi.h ****     };
  38:../../DaisyExamples/libDaisy/src/per/qspi.h **** 
  39:../../DaisyExamples/libDaisy/src/per/qspi.h ****     /** Indicates the current status of the module. 
  40:../../DaisyExamples/libDaisy/src/per/qspi.h ****          *  Warnings are indicated by a leading W.
  41:../../DaisyExamples/libDaisy/src/per/qspi.h ****          *  Errors are indicated by a leading E and cause an immediate exit.
  42:../../DaisyExamples/libDaisy/src/per/qspi.h ****          * 
  43:../../DaisyExamples/libDaisy/src/per/qspi.h ****          *  \param GOOD - No errors have been reported.
  44:../../DaisyExamples/libDaisy/src/per/qspi.h ****          *  \param E_HAL_ERROR - HAL code did not return HAL_OK.
  45:../../DaisyExamples/libDaisy/src/per/qspi.h ****          *  \param E_SWITCHING_MODES - An error was encountered while switching QSPI peripheral mod
  46:../../DaisyExamples/libDaisy/src/per/qspi.h ****          *  \param E_INVALID_MODE - QSPI should not be written to while the program is executing fr
  47:../../DaisyExamples/libDaisy/src/per/qspi.h ****          */
  48:../../DaisyExamples/libDaisy/src/per/qspi.h ****     enum Status
ARM GAS  /var/folders/hp/45mn71hd0ps5f5pnytxy5bt00000gn/T//ccIwDN9B.s 			page 68


  49:../../DaisyExamples/libDaisy/src/per/qspi.h ****     {
  50:../../DaisyExamples/libDaisy/src/per/qspi.h ****         GOOD = 0,
  51:../../DaisyExamples/libDaisy/src/per/qspi.h ****         E_HAL_ERROR,
  52:../../DaisyExamples/libDaisy/src/per/qspi.h ****         E_SWITCHING_MODES,
  53:../../DaisyExamples/libDaisy/src/per/qspi.h ****         E_INVALID_MODE,
  54:../../DaisyExamples/libDaisy/src/per/qspi.h ****     };
  55:../../DaisyExamples/libDaisy/src/per/qspi.h **** 
  56:../../DaisyExamples/libDaisy/src/per/qspi.h ****     /** Configuration structure for interfacing with QSPI Driver */
  57:../../DaisyExamples/libDaisy/src/per/qspi.h ****     struct Config
  58:../../DaisyExamples/libDaisy/src/per/qspi.h ****     {
  59:../../DaisyExamples/libDaisy/src/per/qspi.h ****         /** Flash Devices supported. (Both of these are more-or-less the same, just different sizes
  60:../../DaisyExamples/libDaisy/src/per/qspi.h ****         enum Device
  61:../../DaisyExamples/libDaisy/src/per/qspi.h ****         {
  62:../../DaisyExamples/libDaisy/src/per/qspi.h ****             IS25LP080D,  /**< & */
  63:../../DaisyExamples/libDaisy/src/per/qspi.h ****             IS25LP064A,  /**< & */
  64:../../DaisyExamples/libDaisy/src/per/qspi.h ****             DEVICE_LAST, /**< & */
  65:../../DaisyExamples/libDaisy/src/per/qspi.h ****         };
  66:../../DaisyExamples/libDaisy/src/per/qspi.h **** 
  67:../../DaisyExamples/libDaisy/src/per/qspi.h ****         /** 
  68:../../DaisyExamples/libDaisy/src/per/qspi.h ****         Modes of operation.
  69:../../DaisyExamples/libDaisy/src/per/qspi.h ****         Memory Mapped mode: QSPI configured so that the QSPI can be
  70:../../DaisyExamples/libDaisy/src/per/qspi.h ****         read from starting address 0x90000000. Writing is not
