ARM GAS  /var/folders/hp/45mn71hd0ps5f5pnytxy5bt00000gn/T//ccKbf7aq.s 			page 1


   1              		.cpu cortex-m7
   2              		.arch armv7e-m
   3              		.fpu fpv5-d16
   4              		.eabi_attribute 28, 1
   5              		.eabi_attribute 20, 1
   6              		.eabi_attribute 21, 1
   7              		.eabi_attribute 23, 3
   8              		.eabi_attribute 24, 1
   9              		.eabi_attribute 25, 1
  10              		.eabi_attribute 26, 1
  11              		.eabi_attribute 30, 2
  12              		.eabi_attribute 34, 1
  13              		.eabi_attribute 18, 4
  14              		.file	"SynthV8.cpp"
  15              		.text
  16              	.Ltext0:
  17              		.cfi_sections	.debug_frame
  18              		.section	.text._ZN5daisy9ParameterD2Ev,"axG",%progbits,_ZN5daisy9ParameterD5Ev,comdat
  19              		.align	1
  20              		.p2align 2,,3
  21              		.weak	_ZN5daisy9ParameterD2Ev
  22              		.syntax unified
  23              		.thumb
  24              		.thumb_func
  26              	_ZN5daisy9ParameterD2Ev:
  27              	.LVL0:
  28              	.LFB1714:
  29              		.file 1 "../lib/libDaisy/src/hid/parameter.h"
   1:../lib/libDaisy/src/hid/parameter.h **** #pragma once
   2:../lib/libDaisy/src/hid/parameter.h **** #include <stdint.h>
   3:../lib/libDaisy/src/hid/parameter.h **** #include "hid/ctrl.h"
   4:../lib/libDaisy/src/hid/parameter.h **** 
   5:../lib/libDaisy/src/hid/parameter.h **** namespace daisy
   6:../lib/libDaisy/src/hid/parameter.h **** {
   7:../lib/libDaisy/src/hid/parameter.h **** /** @addtogroup controls
   8:../lib/libDaisy/src/hid/parameter.h ****     @{
   9:../lib/libDaisy/src/hid/parameter.h **** */
  10:../lib/libDaisy/src/hid/parameter.h **** 
  11:../lib/libDaisy/src/hid/parameter.h **** /**      Simple parameter mapping tool that takes a 0-1 input from an hid_ctrl. */
  12:../lib/libDaisy/src/hid/parameter.h **** class Parameter
  13:../lib/libDaisy/src/hid/parameter.h **** {
  14:../lib/libDaisy/src/hid/parameter.h ****   public:
  15:../lib/libDaisy/src/hid/parameter.h ****     /** Curves are applied to the output signal */
  16:../lib/libDaisy/src/hid/parameter.h ****     enum Curve
  17:../lib/libDaisy/src/hid/parameter.h ****     {
  18:../lib/libDaisy/src/hid/parameter.h ****         LINEAR,      /**< Linear curve */
  19:../lib/libDaisy/src/hid/parameter.h ****         EXPONENTIAL, /**< Exponential curve */
  20:../lib/libDaisy/src/hid/parameter.h ****         LOGARITHMIC, /**<  Logarithmic curve */
  21:../lib/libDaisy/src/hid/parameter.h ****         CUBE,        /**< Cubic curve */
  22:../lib/libDaisy/src/hid/parameter.h ****         LAST,        /**< Final enum element. */
  23:../lib/libDaisy/src/hid/parameter.h ****     };
  24:../lib/libDaisy/src/hid/parameter.h ****     /** Constructor */
  25:../lib/libDaisy/src/hid/parameter.h ****     Parameter() {}
  26:../lib/libDaisy/src/hid/parameter.h ****     /** Destructor */
  27:../lib/libDaisy/src/hid/parameter.h ****     ~Parameter() {}
  30              		.loc 1 27 5 view -0
  31              		.cfi_startproc
ARM GAS  /var/folders/hp/45mn71hd0ps5f5pnytxy5bt00000gn/T//ccKbf7aq.s 			page 2


  32              		@ args = 0, pretend = 0, frame = 0
  33              		@ frame_needed = 0, uses_anonymous_args = 0
  34              		@ link register save eliminated.
  35              	.LBB619:
  36              	.LBI619:
  37              		.file 2 "../lib/libDaisy/src/hid/ctrl.h"
   1:../lib/libDaisy/src/hid/ctrl.h **** #pragma once
   2:../lib/libDaisy/src/hid/ctrl.h **** #ifndef DSY_KNOB_H
   3:../lib/libDaisy/src/hid/ctrl.h **** #define DSY_KNOB_H /**< & */
   4:../lib/libDaisy/src/hid/ctrl.h **** #include <stdint.h>
   5:../lib/libDaisy/src/hid/ctrl.h **** 
   6:../lib/libDaisy/src/hid/ctrl.h **** #ifdef __cplusplus
   7:../lib/libDaisy/src/hid/ctrl.h **** namespace daisy
   8:../lib/libDaisy/src/hid/ctrl.h **** {
   9:../lib/libDaisy/src/hid/ctrl.h **** /**
  10:../lib/libDaisy/src/hid/ctrl.h ****     @brief Hardware Interface for control inputs \n
  11:../lib/libDaisy/src/hid/ctrl.h ****     Primarily designed for ADC input controls such as \n
  12:../lib/libDaisy/src/hid/ctrl.h ****     potentiometers, and control voltage. \n
  13:../lib/libDaisy/src/hid/ctrl.h ****     @author Stephen Hensley
  14:../lib/libDaisy/src/hid/ctrl.h ****     @date November 2019
  15:../lib/libDaisy/src/hid/ctrl.h ****     @ingroup controls
  16:../lib/libDaisy/src/hid/ctrl.h **** */
  17:../lib/libDaisy/src/hid/ctrl.h **** class AnalogControl
  18:../lib/libDaisy/src/hid/ctrl.h **** {
  19:../lib/libDaisy/src/hid/ctrl.h ****   public:
  20:../lib/libDaisy/src/hid/ctrl.h ****     /** Constructor */
  21:../lib/libDaisy/src/hid/ctrl.h ****     AnalogControl() {}
  22:../lib/libDaisy/src/hid/ctrl.h ****     /** destructor */
  23:../lib/libDaisy/src/hid/ctrl.h ****     ~AnalogControl() {}
  38              		.loc 2 23 5 view .LVU1
  39              		.loc 2 23 5 is_stmt 0 view .LVU2
  40              	.LBE619:
  41              		.loc 1 27 19 view .LVU3
  42 0000 7047     		bx	lr
  43              		.cfi_endproc
  44              	.LFE1714:
  46              		.weak	_ZN5daisy9ParameterD1Ev
  47              		.thumb_set _ZN5daisy9ParameterD1Ev,_ZN5daisy9ParameterD2Ev
  48 0002 00BF     		.section	.text._ZN5daisy8DaisyPodD2Ev,"axG",%progbits,_ZN5daisy8DaisyPodD5Ev,comdat
  49              		.align	1
  50              		.p2align 2,,3
  51              		.weak	_ZN5daisy8DaisyPodD2Ev
  52              		.syntax unified
  53              		.thumb
  54              		.thumb_func
  56              	_ZN5daisy8DaisyPodD2Ev:
  57              	.LVL1:
  58              	.LFB2655:
  59              		.file 3 "../lib/libDaisy/src/daisy_pod.h"
   1:../lib/libDaisy/src/daisy_pod.h **** #pragma once
   2:../lib/libDaisy/src/daisy_pod.h **** #ifndef DSY_POD_BSP_H
   3:../lib/libDaisy/src/daisy_pod.h **** #define DSY_POD_BSP_H
   4:../lib/libDaisy/src/daisy_pod.h **** 
   5:../lib/libDaisy/src/daisy_pod.h **** #include "daisy_seed.h"
   6:../lib/libDaisy/src/daisy_pod.h **** 
   7:../lib/libDaisy/src/daisy_pod.h **** namespace daisy
   8:../lib/libDaisy/src/daisy_pod.h **** {
ARM GAS  /var/folders/hp/45mn71hd0ps5f5pnytxy5bt00000gn/T//ccKbf7aq.s 			page 3


   9:../lib/libDaisy/src/daisy_pod.h **** /**
  10:../lib/libDaisy/src/daisy_pod.h ****     @brief Class that handles initializing all of the hardware specific to the Daisy Patch Board. \
  11:../lib/libDaisy/src/daisy_pod.h ****     Helper funtions are also in place to provide easy access to built-in controls and peripherals.
  12:../lib/libDaisy/src/daisy_pod.h ****     @author Stephen Hensley
  13:../lib/libDaisy/src/daisy_pod.h ****     @date November 2019
  14:../lib/libDaisy/src/daisy_pod.h ****     @ingroup boards
  15:../lib/libDaisy/src/daisy_pod.h **** */
  16:../lib/libDaisy/src/daisy_pod.h **** class DaisyPod
  17:../lib/libDaisy/src/daisy_pod.h **** {
  18:../lib/libDaisy/src/daisy_pod.h ****   public:
  19:../lib/libDaisy/src/daisy_pod.h ****     /** Switches */
  20:../lib/libDaisy/src/daisy_pod.h ****     enum Sw
  21:../lib/libDaisy/src/daisy_pod.h ****     {
  22:../lib/libDaisy/src/daisy_pod.h ****         BUTTON_1,    /** & */
  23:../lib/libDaisy/src/daisy_pod.h ****         BUTTON_2,    /** & */
  24:../lib/libDaisy/src/daisy_pod.h ****         BUTTON_LAST, /** &  */
  25:../lib/libDaisy/src/daisy_pod.h ****     };
  26:../lib/libDaisy/src/daisy_pod.h **** 
  27:../lib/libDaisy/src/daisy_pod.h ****     /** Knobs */
  28:../lib/libDaisy/src/daisy_pod.h ****     enum Knob
  29:../lib/libDaisy/src/daisy_pod.h ****     {
  30:../lib/libDaisy/src/daisy_pod.h ****         KNOB_1,    /** &  */
  31:../lib/libDaisy/src/daisy_pod.h ****         KNOB_2,    /** & */
  32:../lib/libDaisy/src/daisy_pod.h ****         KNOB_LAST, /** & */
  33:../lib/libDaisy/src/daisy_pod.h ****     };
  34:../lib/libDaisy/src/daisy_pod.h **** 
  35:../lib/libDaisy/src/daisy_pod.h ****     DaisyPod() {}
  36:../lib/libDaisy/src/daisy_pod.h ****     ~DaisyPod() {}
  60              		.loc 3 36 5 is_stmt 1 view -0
  61              		.cfi_startproc
  62              		@ args = 0, pretend = 0, frame = 0
  63              		@ frame_needed = 0, uses_anonymous_args = 0
  64              		@ link register save eliminated.
  65              	.LBB620:
  66              	.LBI620:
  67              		.file 4 "../lib/libDaisy/src/hid/midi.h"
   1:../lib/libDaisy/src/hid/midi.h **** #pragma once
   2:../lib/libDaisy/src/hid/midi.h **** #ifndef DSY_MIDI_H
   3:../lib/libDaisy/src/hid/midi.h **** #define DSY_MIDI_H
   4:../lib/libDaisy/src/hid/midi.h **** 
   5:../lib/libDaisy/src/hid/midi.h **** #include <stdint.h>
   6:../lib/libDaisy/src/hid/midi.h **** #include <stdlib.h>
   7:../lib/libDaisy/src/hid/midi.h **** #include <algorithm>
   8:../lib/libDaisy/src/hid/midi.h **** #include "per/uart.h"
   9:../lib/libDaisy/src/hid/midi.h **** #include "util/ringbuffer.h"
  10:../lib/libDaisy/src/hid/midi.h **** #include "util/FIFO.h"
  11:../lib/libDaisy/src/hid/midi.h **** #include "hid/midi_parser.h"
  12:../lib/libDaisy/src/hid/midi.h **** #include "hid/usb_midi.h"
  13:../lib/libDaisy/src/hid/midi.h **** #include "sys/dma.h"
  14:../lib/libDaisy/src/hid/midi.h **** #include "sys/system.h"
  15:../lib/libDaisy/src/hid/midi.h **** 
  16:../lib/libDaisy/src/hid/midi.h **** namespace daisy
  17:../lib/libDaisy/src/hid/midi.h **** {
  18:../lib/libDaisy/src/hid/midi.h **** /** @brief   Transport layer for sending and receiving MIDI data over UART
  19:../lib/libDaisy/src/hid/midi.h ****  *  @details This is the mode of communication used for TRS and DIN MIDI
  20:../lib/libDaisy/src/hid/midi.h ****  *           There is an additional 2kB of RAM data used within this class
  21:../lib/libDaisy/src/hid/midi.h ****  *           for processing bulk data from the UART peripheral
ARM GAS  /var/folders/hp/45mn71hd0ps5f5pnytxy5bt00000gn/T//ccKbf7aq.s 			page 4


  22:../lib/libDaisy/src/hid/midi.h ****  *  @ingroup midi
  23:../lib/libDaisy/src/hid/midi.h **** */
  24:../lib/libDaisy/src/hid/midi.h **** class MidiUartTransport
  25:../lib/libDaisy/src/hid/midi.h **** {
  26:../lib/libDaisy/src/hid/midi.h ****   public:
  27:../lib/libDaisy/src/hid/midi.h ****     typedef void (*MidiRxParseCallback)(uint8_t* data,
  28:../lib/libDaisy/src/hid/midi.h ****                                         size_t   size,
  29:../lib/libDaisy/src/hid/midi.h ****                                         void*    context);
  30:../lib/libDaisy/src/hid/midi.h **** 
  31:../lib/libDaisy/src/hid/midi.h ****     MidiUartTransport() {}
  32:../lib/libDaisy/src/hid/midi.h ****     ~MidiUartTransport() {}
  33:../lib/libDaisy/src/hid/midi.h **** 
  34:../lib/libDaisy/src/hid/midi.h ****     /** @brief Configuration structure for UART MIDI */
  35:../lib/libDaisy/src/hid/midi.h ****     struct Config
  36:../lib/libDaisy/src/hid/midi.h ****     {
  37:../lib/libDaisy/src/hid/midi.h ****         UartHandler::Config::Peripheral periph;
  38:../lib/libDaisy/src/hid/midi.h ****         Pin                             rx;
  39:../lib/libDaisy/src/hid/midi.h ****         Pin                             tx;
  40:../lib/libDaisy/src/hid/midi.h **** 
  41:../lib/libDaisy/src/hid/midi.h ****         /** Pointer to buffer for DMA UART rx byte transfer in background.
  42:../lib/libDaisy/src/hid/midi.h ****          *
  43:../lib/libDaisy/src/hid/midi.h ****          *  @details By default this uses a shared buffer in DMA_BUFFER_MEM_SECTION,
  44:../lib/libDaisy/src/hid/midi.h ****          *           which can only be utilized for a single UART peripheral. To
  45:../lib/libDaisy/src/hid/midi.h ****          *           use MIDI with multiple UART peripherals, you must provide your own
  46:../lib/libDaisy/src/hid/midi.h ****          *           buffer, allocated to a DMA-capable memory section.
  47:../lib/libDaisy/src/hid/midi.h ****          */
  48:../lib/libDaisy/src/hid/midi.h ****         uint8_t* rx_buffer;
  49:../lib/libDaisy/src/hid/midi.h **** 
  50:../lib/libDaisy/src/hid/midi.h ****         /** Size in bytes of rx_buffer.
  51:../lib/libDaisy/src/hid/midi.h ****          *
  52:../lib/libDaisy/src/hid/midi.h ****          *  @details This size determines the maximum Rx bytes readable by the UART in the backgrou
  53:../lib/libDaisy/src/hid/midi.h ****          *           By default it's set to the size of the default shared rx_buffer (256 bytes).
  54:../lib/libDaisy/src/hid/midi.h ****          *           While much smaller sizes can be used, data can get missed if the buffer is too
  55:../lib/libDaisy/src/hid/midi.h ****          */
  56:../lib/libDaisy/src/hid/midi.h ****         size_t rx_buffer_size;
  57:../lib/libDaisy/src/hid/midi.h **** 
  58:../lib/libDaisy/src/hid/midi.h ****         Config();
  59:../lib/libDaisy/src/hid/midi.h ****     };
  60:../lib/libDaisy/src/hid/midi.h **** 
  61:../lib/libDaisy/src/hid/midi.h ****     /** @brief Initialization of UART using config struct */
  62:../lib/libDaisy/src/hid/midi.h ****     inline void Init(Config config)
  63:../lib/libDaisy/src/hid/midi.h ****     {
  64:../lib/libDaisy/src/hid/midi.h ****         UartHandler::Config uart_config;
  65:../lib/libDaisy/src/hid/midi.h **** 
  66:../lib/libDaisy/src/hid/midi.h ****         //defaults
  67:../lib/libDaisy/src/hid/midi.h ****         uart_config.baudrate   = 31250;
  68:../lib/libDaisy/src/hid/midi.h ****         uart_config.stopbits   = UartHandler::Config::StopBits::BITS_1;
  69:../lib/libDaisy/src/hid/midi.h ****         uart_config.parity     = UartHandler::Config::Parity::NONE;
  70:../lib/libDaisy/src/hid/midi.h ****         uart_config.mode       = UartHandler::Config::Mode::TX_RX;
  71:../lib/libDaisy/src/hid/midi.h ****         uart_config.wordlength = UartHandler::Config::WordLength::BITS_8;
  72:../lib/libDaisy/src/hid/midi.h **** 
  73:../lib/libDaisy/src/hid/midi.h ****         //user settings
  74:../lib/libDaisy/src/hid/midi.h ****         uart_config.periph        = config.periph;
  75:../lib/libDaisy/src/hid/midi.h ****         uart_config.pin_config.rx = config.rx;
  76:../lib/libDaisy/src/hid/midi.h ****         uart_config.pin_config.tx = config.tx;
  77:../lib/libDaisy/src/hid/midi.h **** 
  78:../lib/libDaisy/src/hid/midi.h ****         rx_buffer      = config.rx_buffer;
ARM GAS  /var/folders/hp/45mn71hd0ps5f5pnytxy5bt00000gn/T//ccKbf7aq.s 			page 5


  79:../lib/libDaisy/src/hid/midi.h ****         rx_buffer_size = config.rx_buffer_size;
  80:../lib/libDaisy/src/hid/midi.h **** 
  81:../lib/libDaisy/src/hid/midi.h ****         /** zero the buffer to ensure emptiness regardless of source memory */
  82:../lib/libDaisy/src/hid/midi.h ****         std::fill(rx_buffer, rx_buffer + rx_buffer_size, 0);
  83:../lib/libDaisy/src/hid/midi.h **** 
  84:../lib/libDaisy/src/hid/midi.h ****         uart_.Init(uart_config);
  85:../lib/libDaisy/src/hid/midi.h ****     }
  86:../lib/libDaisy/src/hid/midi.h **** 
  87:../lib/libDaisy/src/hid/midi.h ****     /** @brief Start the UART peripheral in listening mode.
  88:../lib/libDaisy/src/hid/midi.h ****      *  This will fill an internal data structure in the background */
  89:../lib/libDaisy/src/hid/midi.h ****     inline void StartRx(MidiRxParseCallback parse_callback, void* context)
  90:../lib/libDaisy/src/hid/midi.h ****     {
  91:../lib/libDaisy/src/hid/midi.h ****         parse_context_  = context;
  92:../lib/libDaisy/src/hid/midi.h ****         parse_callback_ = parse_callback;
  93:../lib/libDaisy/src/hid/midi.h ****         dsy_dma_clear_cache_for_buffer((uint8_t*)this,
  94:../lib/libDaisy/src/hid/midi.h ****                                        sizeof(MidiUartTransport));
  95:../lib/libDaisy/src/hid/midi.h ****         uart_.DmaListenStart(
  96:../lib/libDaisy/src/hid/midi.h ****             rx_buffer, rx_buffer_size, MidiUartTransport::rxCallback, this);
  97:../lib/libDaisy/src/hid/midi.h ****     }
  98:../lib/libDaisy/src/hid/midi.h **** 
  99:../lib/libDaisy/src/hid/midi.h ****     /** @brief returns whether the UART peripheral is actively listening in the background or not *
 100:../lib/libDaisy/src/hid/midi.h ****     inline bool RxActive() { return uart_.IsListening(); }
 101:../lib/libDaisy/src/hid/midi.h **** 
 102:../lib/libDaisy/src/hid/midi.h ****     /** @brief This is a no-op for UART transport - Rx is via DMA callback with circular buffer */
 103:../lib/libDaisy/src/hid/midi.h ****     inline void FlushRx() {}
 104:../lib/libDaisy/src/hid/midi.h **** 
 105:../lib/libDaisy/src/hid/midi.h ****     /** @brief sends the buffer of bytes out of the UART peripheral */
 106:../lib/libDaisy/src/hid/midi.h ****     inline void Tx(uint8_t* buff, size_t size) { uart_.PollTx(buff, size); }
 107:../lib/libDaisy/src/hid/midi.h **** 
 108:../lib/libDaisy/src/hid/midi.h ****   private:
 109:../lib/libDaisy/src/hid/midi.h ****     UartHandler         uart_;
 110:../lib/libDaisy/src/hid/midi.h ****     uint8_t*            rx_buffer;
 111:../lib/libDaisy/src/hid/midi.h ****     size_t              rx_buffer_size;
 112:../lib/libDaisy/src/hid/midi.h ****     void*               parse_context_;
 113:../lib/libDaisy/src/hid/midi.h ****     MidiRxParseCallback parse_callback_;
 114:../lib/libDaisy/src/hid/midi.h **** 
 115:../lib/libDaisy/src/hid/midi.h ****     /** Static callback for Uart MIDI that occurs when
 116:../lib/libDaisy/src/hid/midi.h ****          *  new data is available from the peripheral.
 117:../lib/libDaisy/src/hid/midi.h ****          *  The new data is transferred from the peripheral to the
 118:../lib/libDaisy/src/hid/midi.h ****          *  MIDI instance's byte FIFO that feeds the MIDI parser.
 119:../lib/libDaisy/src/hid/midi.h ****          *
 120:../lib/libDaisy/src/hid/midi.h ****          *  TODO: Handle UartHandler errors better/at all.
 121:../lib/libDaisy/src/hid/midi.h ****          *  (If there is a UART error, there's not really any recovery
 122:../lib/libDaisy/src/hid/midi.h ****          *  option at the moment)
 123:../lib/libDaisy/src/hid/midi.h ****          */
 124:../lib/libDaisy/src/hid/midi.h ****     static void rxCallback(uint8_t*            data,
 125:../lib/libDaisy/src/hid/midi.h ****                            size_t              size,
 126:../lib/libDaisy/src/hid/midi.h ****                            void*               context,
 127:../lib/libDaisy/src/hid/midi.h ****                            UartHandler::Result res)
 128:../lib/libDaisy/src/hid/midi.h ****     {
 129:../lib/libDaisy/src/hid/midi.h ****         /** Read context as transport type */
 130:../lib/libDaisy/src/hid/midi.h ****         MidiUartTransport* transport
 131:../lib/libDaisy/src/hid/midi.h ****             = reinterpret_cast<MidiUartTransport*>(context);
 132:../lib/libDaisy/src/hid/midi.h ****         if(res == UartHandler::Result::OK)
 133:../lib/libDaisy/src/hid/midi.h ****         {
 134:../lib/libDaisy/src/hid/midi.h ****             if(transport->parse_callback_)
 135:../lib/libDaisy/src/hid/midi.h ****             {
ARM GAS  /var/folders/hp/45mn71hd0ps5f5pnytxy5bt00000gn/T//ccKbf7aq.s 			page 6


 136:../lib/libDaisy/src/hid/midi.h ****                 transport->parse_callback_(
 137:../lib/libDaisy/src/hid/midi.h ****                     data, size, transport->parse_context_);
 138:../lib/libDaisy/src/hid/midi.h ****             }
 139:../lib/libDaisy/src/hid/midi.h ****         }
 140:../lib/libDaisy/src/hid/midi.h ****     }
 141:../lib/libDaisy/src/hid/midi.h **** };
 142:../lib/libDaisy/src/hid/midi.h **** 
 143:../lib/libDaisy/src/hid/midi.h **** /**
 144:../lib/libDaisy/src/hid/midi.h ****     @brief Simple MIDI Handler \n
 145:../lib/libDaisy/src/hid/midi.h ****     Parses bytes from an input into valid MidiEvents. \n
 146:../lib/libDaisy/src/hid/midi.h ****     The MidiEvents fill a FIFO queue that the user can pop messages from.
 147:../lib/libDaisy/src/hid/midi.h ****     @author shensley
 148:../lib/libDaisy/src/hid/midi.h ****     @date March 2020
 149:../lib/libDaisy/src/hid/midi.h ****     @ingroup midi
 150:../lib/libDaisy/src/hid/midi.h **** */
 151:../lib/libDaisy/src/hid/midi.h **** template <typename Transport>
 152:../lib/libDaisy/src/hid/midi.h **** class MidiHandler
 153:../lib/libDaisy/src/hid/midi.h **** {
 154:../lib/libDaisy/src/hid/midi.h ****   public:
 155:../lib/libDaisy/src/hid/midi.h ****     MidiHandler() {}
 156:../lib/libDaisy/src/hid/midi.h ****     ~MidiHandler() {}
  68              		.loc 4 156 5 view .LVU5
  69              	.LBB621:
  70              	.LBI621:
  71              		.file 5 "../lib/libDaisy/src/util/FIFO.h"
   1:../lib/libDaisy/src/util/FIFO.h **** #pragma once
   2:../lib/libDaisy/src/util/FIFO.h **** 
   3:../lib/libDaisy/src/util/FIFO.h **** #include <stdint.h>
   4:../lib/libDaisy/src/util/FIFO.h **** #include <stddef.h>
   5:../lib/libDaisy/src/util/FIFO.h **** #include <initializer_list>
   6:../lib/libDaisy/src/util/FIFO.h **** 
   7:../lib/libDaisy/src/util/FIFO.h **** namespace daisy
   8:../lib/libDaisy/src/util/FIFO.h **** {
   9:../lib/libDaisy/src/util/FIFO.h **** /** Capacity-independent base class for FIFO. Use FIFO instead. */
  10:../lib/libDaisy/src/util/FIFO.h **** template <typename T>
  11:../lib/libDaisy/src/util/FIFO.h **** class FIFOBase
  12:../lib/libDaisy/src/util/FIFO.h **** {
  13:../lib/libDaisy/src/util/FIFO.h ****   protected:
  14:../lib/libDaisy/src/util/FIFO.h ****     FIFOBase(T* buffer, size_t bufferSize)
  15:../lib/libDaisy/src/util/FIFO.h ****     : buffer_(buffer), bufferSize_(bufferSize), bufferIn_(0), bufferOut_(0)
  16:../lib/libDaisy/src/util/FIFO.h ****     {
  17:../lib/libDaisy/src/util/FIFO.h ****     }
  18:../lib/libDaisy/src/util/FIFO.h **** 
  19:../lib/libDaisy/src/util/FIFO.h ****     FIFOBase(T* buffer, size_t bufferSize, std::initializer_list<T> valuesToAdd)
  20:../lib/libDaisy/src/util/FIFO.h ****     : buffer_(buffer), bufferSize_(bufferSize), bufferIn_(0), bufferOut_(0)
  21:../lib/libDaisy/src/util/FIFO.h ****     {
  22:../lib/libDaisy/src/util/FIFO.h ****         PushBack(valuesToAdd);
  23:../lib/libDaisy/src/util/FIFO.h ****     }
  24:../lib/libDaisy/src/util/FIFO.h **** 
  25:../lib/libDaisy/src/util/FIFO.h ****   public:
  26:../lib/libDaisy/src/util/FIFO.h ****     /** Copies all elements from another FIFO */
  27:../lib/libDaisy/src/util/FIFO.h ****     FIFOBase<T>& operator=(const FIFOBase<T>& other)
  28:../lib/libDaisy/src/util/FIFO.h ****     {
  29:../lib/libDaisy/src/util/FIFO.h ****         bufferIn_ = bufferOut_ = 0;
  30:../lib/libDaisy/src/util/FIFO.h ****         if(!other.IsEmpty())
  31:../lib/libDaisy/src/util/FIFO.h ****         {
  32:../lib/libDaisy/src/util/FIFO.h ****             int readPtr = other.bufferOut_;
ARM GAS  /var/folders/hp/45mn71hd0ps5f5pnytxy5bt00000gn/T//ccKbf7aq.s 			page 7


  33:../lib/libDaisy/src/util/FIFO.h ****             while((readPtr != other.bufferIn_) && (bufferIn_ < bufferSize_))
  34:../lib/libDaisy/src/util/FIFO.h ****             {
  35:../lib/libDaisy/src/util/FIFO.h ****                 buffer_[bufferIn_++] = other.buffer_[readPtr++];
  36:../lib/libDaisy/src/util/FIFO.h ****                 if(readPtr >= other.bufferSize_)
  37:../lib/libDaisy/src/util/FIFO.h ****                     readPtr -= other.bufferSize_;
  38:../lib/libDaisy/src/util/FIFO.h ****             }
  39:../lib/libDaisy/src/util/FIFO.h ****         }
  40:../lib/libDaisy/src/util/FIFO.h ****         return *this;
  41:../lib/libDaisy/src/util/FIFO.h ****     }
  42:../lib/libDaisy/src/util/FIFO.h ****     ~FIFOBase() {}
  43:../lib/libDaisy/src/util/FIFO.h **** 
  44:../lib/libDaisy/src/util/FIFO.h ****     /** Removes all elements from the FIFO */
  45:../lib/libDaisy/src/util/FIFO.h ****     void Clear() { bufferIn_ = bufferOut_ = 0; }
  46:../lib/libDaisy/src/util/FIFO.h **** 
  47:../lib/libDaisy/src/util/FIFO.h ****     /** Adds an element to the back of the buffer, returning true on
  48:../lib/libDaisy/src/util/FIFO.h ****         success */
  49:../lib/libDaisy/src/util/FIFO.h ****     bool PushBack(const T& elementToAdd)
  50:../lib/libDaisy/src/util/FIFO.h ****     {
  51:../lib/libDaisy/src/util/FIFO.h ****         if(!IsFull())
  52:../lib/libDaisy/src/util/FIFO.h ****         {
  53:../lib/libDaisy/src/util/FIFO.h ****             buffer_[bufferIn_++] = elementToAdd;
  54:../lib/libDaisy/src/util/FIFO.h ****             if(bufferIn_ >= bufferSize_)
  55:../lib/libDaisy/src/util/FIFO.h ****                 bufferIn_ -= bufferSize_;
  56:../lib/libDaisy/src/util/FIFO.h ****             return true;
  57:../lib/libDaisy/src/util/FIFO.h ****         }
  58:../lib/libDaisy/src/util/FIFO.h ****         return false;
  59:../lib/libDaisy/src/util/FIFO.h ****     }
  60:../lib/libDaisy/src/util/FIFO.h **** 
  61:../lib/libDaisy/src/util/FIFO.h ****     /** Adds multiple elements and returns the number of elements that were added */
  62:../lib/libDaisy/src/util/FIFO.h ****     int PushBack(std::initializer_list<T> valuesToAdd)
  63:../lib/libDaisy/src/util/FIFO.h ****     {
  64:../lib/libDaisy/src/util/FIFO.h ****         int numAdded = 0;
  65:../lib/libDaisy/src/util/FIFO.h ****         for(const auto& v : valuesToAdd)
  66:../lib/libDaisy/src/util/FIFO.h ****         {
  67:../lib/libDaisy/src/util/FIFO.h ****             if(IsFull())
  68:../lib/libDaisy/src/util/FIFO.h ****                 return numAdded;
  69:../lib/libDaisy/src/util/FIFO.h **** 
  70:../lib/libDaisy/src/util/FIFO.h ****             PushBack(v);
  71:../lib/libDaisy/src/util/FIFO.h ****             numAdded++;
  72:../lib/libDaisy/src/util/FIFO.h ****         }
  73:../lib/libDaisy/src/util/FIFO.h ****         return numAdded;
  74:../lib/libDaisy/src/util/FIFO.h ****     }
  75:../lib/libDaisy/src/util/FIFO.h **** 
  76:../lib/libDaisy/src/util/FIFO.h ****     /** returns a reference to the last element */
  77:../lib/libDaisy/src/util/FIFO.h ****     T& Back()
  78:../lib/libDaisy/src/util/FIFO.h ****     {
  79:../lib/libDaisy/src/util/FIFO.h ****         if(IsEmpty())
  80:../lib/libDaisy/src/util/FIFO.h ****             // invalid, but better not pass a temporary T() object as a reference...
  81:../lib/libDaisy/src/util/FIFO.h ****             return buffer_[0];
  82:../lib/libDaisy/src/util/FIFO.h ****         int idx = bufferIn_ - 1;
  83:../lib/libDaisy/src/util/FIFO.h ****         if(idx < 0)
  84:../lib/libDaisy/src/util/FIFO.h ****             idx += bufferSize_;
  85:../lib/libDaisy/src/util/FIFO.h ****         return buffer_[idx];
  86:../lib/libDaisy/src/util/FIFO.h ****     }
  87:../lib/libDaisy/src/util/FIFO.h **** 
  88:../lib/libDaisy/src/util/FIFO.h ****     /** returns a reference to the last element */
  89:../lib/libDaisy/src/util/FIFO.h ****     const T& Back() const
ARM GAS  /var/folders/hp/45mn71hd0ps5f5pnytxy5bt00000gn/T//ccKbf7aq.s 			page 8


  90:../lib/libDaisy/src/util/FIFO.h ****     {
  91:../lib/libDaisy/src/util/FIFO.h ****         if(IsEmpty())
  92:../lib/libDaisy/src/util/FIFO.h ****             // invalid, but better not pass a temporary T() object as a reference...
  93:../lib/libDaisy/src/util/FIFO.h ****             return buffer_[0];
  94:../lib/libDaisy/src/util/FIFO.h ****         int idx = bufferIn_ - 1;
  95:../lib/libDaisy/src/util/FIFO.h ****         if(idx < 0)
  96:../lib/libDaisy/src/util/FIFO.h ****             idx += bufferSize_;
  97:../lib/libDaisy/src/util/FIFO.h ****         return buffer_[idx];
  98:../lib/libDaisy/src/util/FIFO.h ****     }
  99:../lib/libDaisy/src/util/FIFO.h **** 
 100:../lib/libDaisy/src/util/FIFO.h ****     /** removes and returns an element from the front of the buffer */
 101:../lib/libDaisy/src/util/FIFO.h ****     T PopFront()
 102:../lib/libDaisy/src/util/FIFO.h ****     {
 103:../lib/libDaisy/src/util/FIFO.h ****         if(IsEmpty())
 104:../lib/libDaisy/src/util/FIFO.h ****             return T();
 105:../lib/libDaisy/src/util/FIFO.h ****         else
 106:../lib/libDaisy/src/util/FIFO.h ****         {
 107:../lib/libDaisy/src/util/FIFO.h ****             const auto result = buffer_[bufferOut_];
 108:../lib/libDaisy/src/util/FIFO.h ****             bufferOut_++;
 109:../lib/libDaisy/src/util/FIFO.h ****             if(bufferOut_ >= bufferSize_)
 110:../lib/libDaisy/src/util/FIFO.h ****                 bufferOut_ -= bufferSize_;
 111:../lib/libDaisy/src/util/FIFO.h ****             return result;
 112:../lib/libDaisy/src/util/FIFO.h ****         }
 113:../lib/libDaisy/src/util/FIFO.h ****     }
 114:../lib/libDaisy/src/util/FIFO.h **** 
 115:../lib/libDaisy/src/util/FIFO.h ****     /** returns a copy of the first element */
 116:../lib/libDaisy/src/util/FIFO.h ****     T& Front()
 117:../lib/libDaisy/src/util/FIFO.h ****     {
 118:../lib/libDaisy/src/util/FIFO.h ****         if(IsEmpty())
 119:../lib/libDaisy/src/util/FIFO.h ****             // invalid, but better not pass a temporary T() object as a reference...
 120:../lib/libDaisy/src/util/FIFO.h ****             return buffer_[0];
 121:../lib/libDaisy/src/util/FIFO.h ****         return buffer_[bufferOut_];
 122:../lib/libDaisy/src/util/FIFO.h ****     }
 123:../lib/libDaisy/src/util/FIFO.h **** 
 124:../lib/libDaisy/src/util/FIFO.h ****     /** returns a reference to the first element */
 125:../lib/libDaisy/src/util/FIFO.h ****     const T& Front() const
 126:../lib/libDaisy/src/util/FIFO.h ****     {
 127:../lib/libDaisy/src/util/FIFO.h ****         if(IsEmpty())
 128:../lib/libDaisy/src/util/FIFO.h ****             // invalid, but better not pass a temporary T() object as a reference...
 129:../lib/libDaisy/src/util/FIFO.h ****             return buffer_[0];
 130:../lib/libDaisy/src/util/FIFO.h ****         return buffer_[bufferOut_];
 131:../lib/libDaisy/src/util/FIFO.h ****     }
 132:../lib/libDaisy/src/util/FIFO.h **** 
 133:../lib/libDaisy/src/util/FIFO.h ****     /** Returns true if the buffer contains an element equal to the provided value */
 134:../lib/libDaisy/src/util/FIFO.h ****     bool Contains(const T& element)
 135:../lib/libDaisy/src/util/FIFO.h ****     {
 136:../lib/libDaisy/src/util/FIFO.h ****         auto idx = bufferOut_;
 137:../lib/libDaisy/src/util/FIFO.h ****         while(idx != bufferIn_)
 138:../lib/libDaisy/src/util/FIFO.h ****         {
 139:../lib/libDaisy/src/util/FIFO.h ****             if(buffer_[idx] == element)
 140:../lib/libDaisy/src/util/FIFO.h ****                 return true;
 141:../lib/libDaisy/src/util/FIFO.h ****             idx++;
 142:../lib/libDaisy/src/util/FIFO.h ****             if(idx >= bufferSize_)
 143:../lib/libDaisy/src/util/FIFO.h ****                 idx -= bufferSize_;
 144:../lib/libDaisy/src/util/FIFO.h ****         }
 145:../lib/libDaisy/src/util/FIFO.h ****         return false;
 146:../lib/libDaisy/src/util/FIFO.h ****     }
ARM GAS  /var/folders/hp/45mn71hd0ps5f5pnytxy5bt00000gn/T//ccKbf7aq.s 			page 9


 147:../lib/libDaisy/src/util/FIFO.h **** 
 148:../lib/libDaisy/src/util/FIFO.h ****     /** Returns the number of elements in the buffer that are equal to the provided value */
 149:../lib/libDaisy/src/util/FIFO.h ****     size_t CountEqualTo(const T& element)
 150:../lib/libDaisy/src/util/FIFO.h ****     {
 151:../lib/libDaisy/src/util/FIFO.h ****         size_t result = 0;
 152:../lib/libDaisy/src/util/FIFO.h ****         size_t idx    = bufferOut_;
 153:../lib/libDaisy/src/util/FIFO.h ****         while(idx != bufferIn_)
 154:../lib/libDaisy/src/util/FIFO.h ****         {
 155:../lib/libDaisy/src/util/FIFO.h ****             if(buffer_[idx] == element)
 156:../lib/libDaisy/src/util/FIFO.h ****                 result++;
 157:../lib/libDaisy/src/util/FIFO.h ****             idx++;
 158:../lib/libDaisy/src/util/FIFO.h ****             if(idx >= bufferSize_)
 159:../lib/libDaisy/src/util/FIFO.h ****                 idx -= bufferSize_;
 160:../lib/libDaisy/src/util/FIFO.h ****         }
 161:../lib/libDaisy/src/util/FIFO.h ****         return result;
 162:../lib/libDaisy/src/util/FIFO.h ****     }
 163:../lib/libDaisy/src/util/FIFO.h **** 
 164:../lib/libDaisy/src/util/FIFO.h ****     /** returns true, if the buffer is empty */
 165:../lib/libDaisy/src/util/FIFO.h ****     bool IsEmpty() const { return bufferIn_ == bufferOut_; }
 166:../lib/libDaisy/src/util/FIFO.h **** 
 167:../lib/libDaisy/src/util/FIFO.h ****     /** returns true, if the buffer is Full */
 168:../lib/libDaisy/src/util/FIFO.h ****     bool IsFull() const { return GetNumElements() == bufferSize_ - 1; }
 169:../lib/libDaisy/src/util/FIFO.h **** 
 170:../lib/libDaisy/src/util/FIFO.h ****     /** returns the number of elements in the buffer */
 171:../lib/libDaisy/src/util/FIFO.h ****     size_t GetNumElements() const
 172:../lib/libDaisy/src/util/FIFO.h ****     {
 173:../lib/libDaisy/src/util/FIFO.h ****         int32_t numElements = bufferIn_ - bufferOut_;
 174:../lib/libDaisy/src/util/FIFO.h ****         if(numElements < 0)
 175:../lib/libDaisy/src/util/FIFO.h ****             numElements += bufferSize_;
 176:../lib/libDaisy/src/util/FIFO.h ****         return size_t(numElements);
 177:../lib/libDaisy/src/util/FIFO.h ****     }
 178:../lib/libDaisy/src/util/FIFO.h **** 
 179:../lib/libDaisy/src/util/FIFO.h ****     /** inserts an element "idx" positions behind the first element and returns true if successful 
 180:../lib/libDaisy/src/util/FIFO.h ****     bool Insert(size_t idx, const T& element)
 181:../lib/libDaisy/src/util/FIFO.h ****     {
 182:../lib/libDaisy/src/util/FIFO.h ****         if(idx > GetNumElements())
 183:../lib/libDaisy/src/util/FIFO.h ****             return false;
 184:../lib/libDaisy/src/util/FIFO.h ****         if(IsFull())
 185:../lib/libDaisy/src/util/FIFO.h ****             return false;
 186:../lib/libDaisy/src/util/FIFO.h ****         if(idx == GetNumElements())
 187:../lib/libDaisy/src/util/FIFO.h ****         {
 188:../lib/libDaisy/src/util/FIFO.h ****             PushBack(element);
 189:../lib/libDaisy/src/util/FIFO.h ****             return true;
 190:../lib/libDaisy/src/util/FIFO.h ****         }
 191:../lib/libDaisy/src/util/FIFO.h ****         // copy last element
 192:../lib/libDaisy/src/util/FIFO.h ****         PushBack(Back());
 193:../lib/libDaisy/src/util/FIFO.h ****         // move remaining elements: n => n+1
 194:../lib/libDaisy/src/util/FIFO.h ****         for(int i = GetNumElements() - 2; i > int(idx); i--)
 195:../lib/libDaisy/src/util/FIFO.h ****             (*this)[i] = (*this)[i - 1];
 196:../lib/libDaisy/src/util/FIFO.h ****         // insert element
 197:../lib/libDaisy/src/util/FIFO.h ****         (*this)[idx] = element;
 198:../lib/libDaisy/src/util/FIFO.h ****         return true;
 199:../lib/libDaisy/src/util/FIFO.h ****     }
 200:../lib/libDaisy/src/util/FIFO.h **** 
 201:../lib/libDaisy/src/util/FIFO.h ****     /** removes the element "idx" positions behind the first element 
 202:../lib/libDaisy/src/util/FIFO.h ****      *  and returns true if successful */
 203:../lib/libDaisy/src/util/FIFO.h ****     bool Remove(size_t idx)
ARM GAS  /var/folders/hp/45mn71hd0ps5f5pnytxy5bt00000gn/T//ccKbf7aq.s 			page 10


 204:../lib/libDaisy/src/util/FIFO.h ****     {
 205:../lib/libDaisy/src/util/FIFO.h ****         if(idx >= GetNumElements())
 206:../lib/libDaisy/src/util/FIFO.h ****             return false;
 207:../lib/libDaisy/src/util/FIFO.h **** 
 208:../lib/libDaisy/src/util/FIFO.h ****         size_t index = bufferOut_ + idx;
 209:../lib/libDaisy/src/util/FIFO.h ****         if(index >= bufferSize_)
 210:../lib/libDaisy/src/util/FIFO.h ****             index -= bufferSize_;
 211:../lib/libDaisy/src/util/FIFO.h ****         size_t nextIndex = index + 1;
 212:../lib/libDaisy/src/util/FIFO.h ****         if(nextIndex >= bufferSize_)
 213:../lib/libDaisy/src/util/FIFO.h ****             nextIndex -= bufferSize_;
 214:../lib/libDaisy/src/util/FIFO.h **** 
 215:../lib/libDaisy/src/util/FIFO.h ****         while(nextIndex != bufferIn_)
 216:../lib/libDaisy/src/util/FIFO.h ****         {
 217:../lib/libDaisy/src/util/FIFO.h ****             buffer_[index] = buffer_[nextIndex];
 218:../lib/libDaisy/src/util/FIFO.h ****             index++;
 219:../lib/libDaisy/src/util/FIFO.h ****             nextIndex++;
 220:../lib/libDaisy/src/util/FIFO.h ****             if(index >= bufferSize_)
 221:../lib/libDaisy/src/util/FIFO.h ****                 index -= bufferSize_;
 222:../lib/libDaisy/src/util/FIFO.h ****             if(nextIndex >= bufferSize_)
 223:../lib/libDaisy/src/util/FIFO.h ****                 nextIndex -= bufferSize_;
 224:../lib/libDaisy/src/util/FIFO.h ****         }
 225:../lib/libDaisy/src/util/FIFO.h **** 
 226:../lib/libDaisy/src/util/FIFO.h ****         int32_t nextBufferIn = int32_t(bufferIn_) - 1;
 227:../lib/libDaisy/src/util/FIFO.h ****         if(nextBufferIn < 0)
 228:../lib/libDaisy/src/util/FIFO.h ****             nextBufferIn += bufferSize_;
 229:../lib/libDaisy/src/util/FIFO.h ****         bufferIn_ = size_t(nextBufferIn);
 230:../lib/libDaisy/src/util/FIFO.h **** 
 231:../lib/libDaisy/src/util/FIFO.h ****         return true;
 232:../lib/libDaisy/src/util/FIFO.h ****     }
 233:../lib/libDaisy/src/util/FIFO.h **** 
 234:../lib/libDaisy/src/util/FIFO.h ****     /** removes all elements from the buffer for which
 235:../lib/libDaisy/src/util/FIFO.h ****         (buffer(index) == element) returns true and returns the number of
 236:../lib/libDaisy/src/util/FIFO.h ****         elements that were removed. */
 237:../lib/libDaisy/src/util/FIFO.h ****     size_t RemoveAllEqualTo(const T& element)
 238:../lib/libDaisy/src/util/FIFO.h ****     {
 239:../lib/libDaisy/src/util/FIFO.h ****         size_t numRemoved = 0;
 240:../lib/libDaisy/src/util/FIFO.h ****         int    idx        = GetNumElements() - 1;
 241:../lib/libDaisy/src/util/FIFO.h ****         while(idx >= 0)
 242:../lib/libDaisy/src/util/FIFO.h ****         {
 243:../lib/libDaisy/src/util/FIFO.h ****             if((*this)[idx] == element)
 244:../lib/libDaisy/src/util/FIFO.h ****             {
 245:../lib/libDaisy/src/util/FIFO.h ****                 numRemoved++;
 246:../lib/libDaisy/src/util/FIFO.h ****                 Remove(idx);
 247:../lib/libDaisy/src/util/FIFO.h ****                 // was that the last element?
 248:../lib/libDaisy/src/util/FIFO.h ****                 if(idx == int(GetNumElements()) - 1)
 249:../lib/libDaisy/src/util/FIFO.h ****                     idx--;
 250:../lib/libDaisy/src/util/FIFO.h ****             }
 251:../lib/libDaisy/src/util/FIFO.h ****             else
 252:../lib/libDaisy/src/util/FIFO.h ****                 idx--;
 253:../lib/libDaisy/src/util/FIFO.h ****         }
 254:../lib/libDaisy/src/util/FIFO.h ****         return numRemoved;
 255:../lib/libDaisy/src/util/FIFO.h ****     }
 256:../lib/libDaisy/src/util/FIFO.h **** 
 257:../lib/libDaisy/src/util/FIFO.h ****     /** returns the element "idx" positions behind the first element */
 258:../lib/libDaisy/src/util/FIFO.h ****     T& operator[](size_t idx)
 259:../lib/libDaisy/src/util/FIFO.h ****     {
 260:../lib/libDaisy/src/util/FIFO.h ****         if(idx >= GetNumElements())
ARM GAS  /var/folders/hp/45mn71hd0ps5f5pnytxy5bt00000gn/T//ccKbf7aq.s 			page 11


 261:../lib/libDaisy/src/util/FIFO.h ****             // invalid, but better not pass a temporary T() object as a reference...
 262:../lib/libDaisy/src/util/FIFO.h ****             return buffer_[0];
 263:../lib/libDaisy/src/util/FIFO.h **** 
 264:../lib/libDaisy/src/util/FIFO.h ****         size_t index = bufferOut_ + idx;
 265:../lib/libDaisy/src/util/FIFO.h ****         if(index >= bufferSize_)
 266:../lib/libDaisy/src/util/FIFO.h ****             index -= bufferSize_;
 267:../lib/libDaisy/src/util/FIFO.h ****         return buffer_[index];
 268:../lib/libDaisy/src/util/FIFO.h ****     }
 269:../lib/libDaisy/src/util/FIFO.h **** 
 270:../lib/libDaisy/src/util/FIFO.h ****     /** returns the element "idx" positions behind the first element */
 271:../lib/libDaisy/src/util/FIFO.h ****     const T& operator[](size_t idx) const
 272:../lib/libDaisy/src/util/FIFO.h ****     {
 273:../lib/libDaisy/src/util/FIFO.h ****         if(idx >= GetNumElements())
 274:../lib/libDaisy/src/util/FIFO.h ****             // invalid, but better not pass a temporary T() object as a reference...
 275:../lib/libDaisy/src/util/FIFO.h ****             return buffer_[0];
 276:../lib/libDaisy/src/util/FIFO.h **** 
 277:../lib/libDaisy/src/util/FIFO.h ****         size_t index = bufferOut_ + idx;
 278:../lib/libDaisy/src/util/FIFO.h ****         if(index >= bufferSize_)
 279:../lib/libDaisy/src/util/FIFO.h ****             index -= bufferSize_;
 280:../lib/libDaisy/src/util/FIFO.h ****         return buffer_[index];
 281:../lib/libDaisy/src/util/FIFO.h ****     }
 282:../lib/libDaisy/src/util/FIFO.h **** 
 283:../lib/libDaisy/src/util/FIFO.h ****     /** returns the total capacity */
 284:../lib/libDaisy/src/util/FIFO.h ****     size_t GetCapacity() const { return bufferSize_ - 1; }
 285:../lib/libDaisy/src/util/FIFO.h **** 
 286:../lib/libDaisy/src/util/FIFO.h ****   private:
 287:../lib/libDaisy/src/util/FIFO.h ****     FIFOBase(const FIFOBase<T>&) {} // non copyable
 288:../lib/libDaisy/src/util/FIFO.h **** 
 289:../lib/libDaisy/src/util/FIFO.h ****   private:
 290:../lib/libDaisy/src/util/FIFO.h ****     T*           buffer_;
 291:../lib/libDaisy/src/util/FIFO.h ****     const size_t bufferSize_;
 292:../lib/libDaisy/src/util/FIFO.h ****     size_t       bufferIn_;
 293:../lib/libDaisy/src/util/FIFO.h ****     size_t       bufferOut_;
 294:../lib/libDaisy/src/util/FIFO.h **** };
 295:../lib/libDaisy/src/util/FIFO.h **** 
 296:../lib/libDaisy/src/util/FIFO.h **** /** A simple FIFO ring buffer with a fixed size. */
 297:../lib/libDaisy/src/util/FIFO.h **** template <typename T, size_t capacity>
 298:../lib/libDaisy/src/util/FIFO.h **** class FIFO : public FIFOBase<T>
  72              		.loc 5 298 7 view .LVU6
  73              	.LBB622:
  74              	.LBI622:
  42:../lib/libDaisy/src/util/FIFO.h **** 
  75              		.loc 5 42 5 view .LVU7
  42:../lib/libDaisy/src/util/FIFO.h **** 
  76              		.loc 5 42 5 is_stmt 0 view .LVU8
  77              	.LBE622:
  78              	.LBE621:
  79              	.LBB623:
  80              	.LBI623:
  81              		.file 6 "../lib/libDaisy/src/hid/midi_parser.h"
   1:../lib/libDaisy/src/hid/midi_parser.h **** #pragma once
   2:../lib/libDaisy/src/hid/midi_parser.h **** #ifndef DSY_MIDI_PARSER_H
   3:../lib/libDaisy/src/hid/midi_parser.h **** #define DSY_MIDI_PARSER_H
   4:../lib/libDaisy/src/hid/midi_parser.h **** 
   5:../lib/libDaisy/src/hid/midi_parser.h **** #include <stdint.h>
   6:../lib/libDaisy/src/hid/midi_parser.h **** #include <stdlib.h>
   7:../lib/libDaisy/src/hid/midi_parser.h **** #include "hid/MidiEvent.h"
ARM GAS  /var/folders/hp/45mn71hd0ps5f5pnytxy5bt00000gn/T//ccKbf7aq.s 			page 12


   8:../lib/libDaisy/src/hid/midi_parser.h **** 
   9:../lib/libDaisy/src/hid/midi_parser.h **** namespace daisy
  10:../lib/libDaisy/src/hid/midi_parser.h **** {
  11:../lib/libDaisy/src/hid/midi_parser.h **** /** @brief   Utility class for parsing raw byte streams into MIDI messages
  12:../lib/libDaisy/src/hid/midi_parser.h ****  *  @details Implemented as a state machine designed to parse one byte at a time
  13:../lib/libDaisy/src/hid/midi_parser.h ****  *  @ingroup midi
  14:../lib/libDaisy/src/hid/midi_parser.h ****  */
  15:../lib/libDaisy/src/hid/midi_parser.h **** class MidiParser
  16:../lib/libDaisy/src/hid/midi_parser.h **** {
  17:../lib/libDaisy/src/hid/midi_parser.h ****   public:
  18:../lib/libDaisy/src/hid/midi_parser.h ****     MidiParser(){};
  19:../lib/libDaisy/src/hid/midi_parser.h ****     ~MidiParser() {}
  82              		.loc 6 19 5 is_stmt 1 view .LVU9
  83              		.loc 6 19 5 is_stmt 0 view .LVU10
  84              	.LBE623:
  85              	.LBB624:
  86              	.LBI624:
  32:../lib/libDaisy/src/hid/midi.h **** 
  87              		.loc 4 32 5 is_stmt 1 view .LVU11
  32:../lib/libDaisy/src/hid/midi.h **** 
  88              		.loc 4 32 5 is_stmt 0 view .LVU12
  89              	.LBE624:
  90              	.LBE620:
  91              	.LBB625:
  92              	.LBI625:
  93              		.file 7 "../lib/libDaisy/src/hid/rgb_led.h"
   1:../lib/libDaisy/src/hid/rgb_led.h **** #pragma once
   2:../lib/libDaisy/src/hid/rgb_led.h **** #ifndef DSY_RGB_LED_H
   3:../lib/libDaisy/src/hid/rgb_led.h **** #define DSY_RGB_LED_H
   4:../lib/libDaisy/src/hid/rgb_led.h **** #include "hid/led.h"
   5:../lib/libDaisy/src/hid/rgb_led.h **** #include "util/color.h"
   6:../lib/libDaisy/src/hid/rgb_led.h **** 
   7:../lib/libDaisy/src/hid/rgb_led.h **** namespace daisy
   8:../lib/libDaisy/src/hid/rgb_led.h **** {
   9:../lib/libDaisy/src/hid/rgb_led.h **** /** @addtogroup feedback
  10:../lib/libDaisy/src/hid/rgb_led.h ****     @{
  11:../lib/libDaisy/src/hid/rgb_led.h **** */
  12:../lib/libDaisy/src/hid/rgb_led.h **** 
  13:../lib/libDaisy/src/hid/rgb_led.h **** /** 3x LEDs configured as an RGB for ease of use. */
  14:../lib/libDaisy/src/hid/rgb_led.h **** class RgbLed
  15:../lib/libDaisy/src/hid/rgb_led.h **** {
  16:../lib/libDaisy/src/hid/rgb_led.h ****   public:
  17:../lib/libDaisy/src/hid/rgb_led.h ****     RgbLed() {}
  18:../lib/libDaisy/src/hid/rgb_led.h ****     ~RgbLed() {}
  94              		.loc 7 18 5 is_stmt 1 view .LVU13
  95              	.LBB626:
  96              	.LBI626:
  97              		.file 8 "../lib/libDaisy/src/hid/led.h"
   1:../lib/libDaisy/src/hid/led.h **** 
   2:../lib/libDaisy/src/hid/led.h **** #pragma once
   3:../lib/libDaisy/src/hid/led.h **** #ifndef DSY_LED_H
   4:../lib/libDaisy/src/hid/led.h **** #define DSY_LED_H
   5:../lib/libDaisy/src/hid/led.h **** #include "daisy_core.h"
   6:../lib/libDaisy/src/hid/led.h **** #include "per/gpio.h"
   7:../lib/libDaisy/src/hid/led.h **** 
   8:../lib/libDaisy/src/hid/led.h **** /* TODO - Get this set up to work with the dev_leddriver stuff as well
   9:../lib/libDaisy/src/hid/led.h **** - Setup Hardware PWM for pins that have it
ARM GAS  /var/folders/hp/45mn71hd0ps5f5pnytxy5bt00000gn/T//ccKbf7aq.s 			page 13


  10:../lib/libDaisy/src/hid/led.h **** */
  11:../lib/libDaisy/src/hid/led.h **** 
  12:../lib/libDaisy/src/hid/led.h **** namespace daisy
  13:../lib/libDaisy/src/hid/led.h **** {
  14:../lib/libDaisy/src/hid/led.h **** /**
  15:../lib/libDaisy/src/hid/led.h ****     @brief LED Class providing simple Software PWM ability, etc \n 
  16:../lib/libDaisy/src/hid/led.h ****     Eventually this will work with hardware PWM, and external LED Driver devices as well.
  17:../lib/libDaisy/src/hid/led.h ****     @author shensley
  18:../lib/libDaisy/src/hid/led.h ****     @date March 2020
  19:../lib/libDaisy/src/hid/led.h ****     @ingroup feedback
  20:../lib/libDaisy/src/hid/led.h **** */
  21:../lib/libDaisy/src/hid/led.h **** class Led
  22:../lib/libDaisy/src/hid/led.h **** {
  23:../lib/libDaisy/src/hid/led.h ****   public:
  24:../lib/libDaisy/src/hid/led.h ****     Led() {}
  25:../lib/libDaisy/src/hid/led.h ****     ~Led() {}
  98              		.loc 8 25 5 view .LVU14
  99              		.loc 8 25 5 is_stmt 0 view .LVU15
 100              	.LBE626:
 101              	.LBB627:
 102              	.LBI627:
 103              		.loc 8 25 5 is_stmt 1 view .LVU16
 104              		.loc 8 25 5 is_stmt 0 view .LVU17
 105              	.LBE627:
 106              	.LBB628:
 107              	.LBI628:
 108              		.loc 8 25 5 is_stmt 1 view .LVU18
 109              		.loc 8 25 5 is_stmt 0 view .LVU19
 110              	.LBE628:
 111              	.LBE625:
 112              	.LBB629:
 113              	.LBI629:
 114              		.loc 7 18 5 is_stmt 1 view .LVU20
 115              	.LBB630:
 116              	.LBI630:
 117              		.loc 8 25 5 view .LVU21
 118              		.loc 8 25 5 is_stmt 0 view .LVU22
 119              	.LBE630:
 120              	.LBB631:
 121              	.LBI631:
 122              		.loc 8 25 5 is_stmt 1 view .LVU23
 123              		.loc 8 25 5 is_stmt 0 view .LVU24
 124              	.LBE631:
 125              	.LBB632:
 126              	.LBI632:
 127              		.loc 8 25 5 is_stmt 1 view .LVU25
 128              		.loc 8 25 5 is_stmt 0 view .LVU26
 129              	.LBE632:
 130              	.LBE629:
 131              	.LBB633:
 132              	.LBI633:
 133              		.file 9 "../lib/libDaisy/src/hid/switch.h"
   1:../lib/libDaisy/src/hid/switch.h **** #pragma once
   2:../lib/libDaisy/src/hid/switch.h **** #ifndef DSY_SWITCH_H
   3:../lib/libDaisy/src/hid/switch.h **** #define DSY_SWITCH_H
   4:../lib/libDaisy/src/hid/switch.h **** #include "daisy_core.h"
   5:../lib/libDaisy/src/hid/switch.h **** #include "per/gpio.h"
ARM GAS  /var/folders/hp/45mn71hd0ps5f5pnytxy5bt00000gn/T//ccKbf7aq.s 			page 14


   6:../lib/libDaisy/src/hid/switch.h **** #include "sys/system.h"
   7:../lib/libDaisy/src/hid/switch.h **** 
   8:../lib/libDaisy/src/hid/switch.h **** namespace daisy
   9:../lib/libDaisy/src/hid/switch.h **** {
  10:../lib/libDaisy/src/hid/switch.h **** /** 
  11:../lib/libDaisy/src/hid/switch.h ****     Generic Class for handling momentary/latching switches \n 
  12:../lib/libDaisy/src/hid/switch.h ****     Inspired/influenced by Mutable Instruments (pichenettes) Switch classes
  13:../lib/libDaisy/src/hid/switch.h ****     @author Stephen Hensley
  14:../lib/libDaisy/src/hid/switch.h ****     @date December 2019
  15:../lib/libDaisy/src/hid/switch.h ****     @ingroup controls
  16:../lib/libDaisy/src/hid/switch.h **** */
  17:../lib/libDaisy/src/hid/switch.h **** class Switch
  18:../lib/libDaisy/src/hid/switch.h **** {
  19:../lib/libDaisy/src/hid/switch.h ****   public:
  20:../lib/libDaisy/src/hid/switch.h ****     /** Specifies the expected behavior of the switch */
  21:../lib/libDaisy/src/hid/switch.h ****     enum Type
  22:../lib/libDaisy/src/hid/switch.h ****     {
  23:../lib/libDaisy/src/hid/switch.h ****         TYPE_TOGGLE,    /**< & */
  24:../lib/libDaisy/src/hid/switch.h ****         TYPE_MOMENTARY, /**< & */
  25:../lib/libDaisy/src/hid/switch.h ****     };
  26:../lib/libDaisy/src/hid/switch.h ****     /** Specifies whether the pressed is HIGH or LOW. */
  27:../lib/libDaisy/src/hid/switch.h ****     enum Polarity
  28:../lib/libDaisy/src/hid/switch.h ****     {
  29:../lib/libDaisy/src/hid/switch.h ****         POLARITY_NORMAL,   /**< & */
  30:../lib/libDaisy/src/hid/switch.h ****         POLARITY_INVERTED, /**< & */
  31:../lib/libDaisy/src/hid/switch.h ****     };
  32:../lib/libDaisy/src/hid/switch.h **** 
  33:../lib/libDaisy/src/hid/switch.h ****     Switch() {}
  34:../lib/libDaisy/src/hid/switch.h ****     ~Switch() {}
 134              		.loc 9 34 5 is_stmt 1 view .LVU27
 135              		.loc 9 34 5 is_stmt 0 view .LVU28
 136              	.LBE633:
 137              	.LBB634:
 138              	.LBI634:
 139              		.loc 9 34 5 is_stmt 1 view .LVU29
 140              		.loc 9 34 5 is_stmt 0 view .LVU30
 141              	.LBE634:
 142              	.LBB635:
 143              	.LBI635:
 144              		.loc 2 23 5 is_stmt 1 view .LVU31
 145              		.loc 2 23 5 is_stmt 0 view .LVU32
 146              	.LBE635:
 147              	.LBB636:
 148              	.LBI636:
 149              		.loc 2 23 5 is_stmt 1 view .LVU33
 150              		.loc 2 23 5 is_stmt 0 view .LVU34
 151              	.LBE636:
 152              	.LBB637:
 153              	.LBI637:
 154              		.file 10 "../lib/libDaisy/src/hid/encoder.h"
   1:../lib/libDaisy/src/hid/encoder.h **** #pragma once
   2:../lib/libDaisy/src/hid/encoder.h **** #ifndef DSY_ENCODER_H
   3:../lib/libDaisy/src/hid/encoder.h **** #define DSY_ENCODER_H
   4:../lib/libDaisy/src/hid/encoder.h **** #include "daisy_core.h"
   5:../lib/libDaisy/src/hid/encoder.h **** #include "per/gpio.h"
   6:../lib/libDaisy/src/hid/encoder.h **** #include "hid/switch.h"
   7:../lib/libDaisy/src/hid/encoder.h **** 
ARM GAS  /var/folders/hp/45mn71hd0ps5f5pnytxy5bt00000gn/T//ccKbf7aq.s 			page 15


   8:../lib/libDaisy/src/hid/encoder.h **** namespace daisy
   9:../lib/libDaisy/src/hid/encoder.h **** {
  10:../lib/libDaisy/src/hid/encoder.h **** /** 
  11:../lib/libDaisy/src/hid/encoder.h ****     @brief Generic Class for handling Quadrature Encoders \n 
  12:../lib/libDaisy/src/hid/encoder.h ****     Inspired/influenced by Mutable Instruments (pichenettes) Encoder classes
  13:../lib/libDaisy/src/hid/encoder.h ****     @author Stephen Hensley
  14:../lib/libDaisy/src/hid/encoder.h ****     @date December 2019
  15:../lib/libDaisy/src/hid/encoder.h ****     @ingroup controls
  16:../lib/libDaisy/src/hid/encoder.h **** */
  17:../lib/libDaisy/src/hid/encoder.h **** class Encoder
  18:../lib/libDaisy/src/hid/encoder.h **** {
  19:../lib/libDaisy/src/hid/encoder.h ****   public:
  20:../lib/libDaisy/src/hid/encoder.h ****     Encoder() {}
  21:../lib/libDaisy/src/hid/encoder.h ****     ~Encoder() {}
 155              		.loc 10 21 5 is_stmt 1 view .LVU35
 156              	.LBB638:
 157              	.LBI638:
 158              		.loc 9 34 5 view .LVU36
 159              		.loc 9 34 5 is_stmt 0 view .LVU37
 160              	.LBE638:
 161              	.LBE637:
 162              	.LBB639:
 163              	.LBI639:
 164              		.file 11 "../lib/libDaisy/src/daisy_seed.h"
   1:../lib/libDaisy/src/daisy_seed.h **** #pragma once
   2:../lib/libDaisy/src/daisy_seed.h **** #ifndef DSY_SEED_H
   3:../lib/libDaisy/src/daisy_seed.h **** #define DSY_SEED_H
   4:../lib/libDaisy/src/daisy_seed.h **** 
   5:../lib/libDaisy/src/daisy_seed.h **** #include "daisy.h"
   6:../lib/libDaisy/src/daisy_seed.h **** 
   7:../lib/libDaisy/src/daisy_seed.h **** //Uncomment this out if you're still using the rev2 hardware
   8:../lib/libDaisy/src/daisy_seed.h **** //#define SEED_REV2
   9:../lib/libDaisy/src/daisy_seed.h **** 
  10:../lib/libDaisy/src/daisy_seed.h **** namespace daisy
  11:../lib/libDaisy/src/daisy_seed.h **** {
  12:../lib/libDaisy/src/daisy_seed.h **** /**
  13:../lib/libDaisy/src/daisy_seed.h ****    @brief This is the higher-level interface for the Daisy board. \n 
  14:../lib/libDaisy/src/daisy_seed.h ****     All basic peripheral configuration/initialization is setup here. \n
  15:../lib/libDaisy/src/daisy_seed.h **** 
  16:../lib/libDaisy/src/daisy_seed.h ****    @ingroup boards
  17:../lib/libDaisy/src/daisy_seed.h **** */
  18:../lib/libDaisy/src/daisy_seed.h **** class DaisySeed
  19:../lib/libDaisy/src/daisy_seed.h **** {
  20:../lib/libDaisy/src/daisy_seed.h ****   public:
  21:../lib/libDaisy/src/daisy_seed.h ****     DaisySeed() {}
  22:../lib/libDaisy/src/daisy_seed.h ****     ~DaisySeed() {}
 165              		.loc 11 22 5 is_stmt 1 view .LVU38
 166              	.LBB640:
 167              	.LBI640:
 168              		.file 12 "../lib/libDaisy/src/dev/codec_ak4556.h"
   1:../lib/libDaisy/src/dev/codec_ak4556.h **** #pragma once
   2:../lib/libDaisy/src/dev/codec_ak4556.h **** #ifndef DSY_CODEC_AK4556_H
   3:../lib/libDaisy/src/dev/codec_ak4556.h **** #define DSY_CODEC_AK4556_H
   4:../lib/libDaisy/src/dev/codec_ak4556.h **** 
   5:../lib/libDaisy/src/dev/codec_ak4556.h **** #include "daisy_core.h"
   6:../lib/libDaisy/src/dev/codec_ak4556.h **** #include "per/gpio.h"
   7:../lib/libDaisy/src/dev/codec_ak4556.h **** 
ARM GAS  /var/folders/hp/45mn71hd0ps5f5pnytxy5bt00000gn/T//ccKbf7aq.s 			page 16


   8:../lib/libDaisy/src/dev/codec_ak4556.h **** namespace daisy
   9:../lib/libDaisy/src/dev/codec_ak4556.h **** {
  10:../lib/libDaisy/src/dev/codec_ak4556.h **** /** @brief Ak4556 Codec support 
  11:../lib/libDaisy/src/dev/codec_ak4556.h ****  ** @author shensley
  12:../lib/libDaisy/src/dev/codec_ak4556.h ****  ** @addtogroup codec
  13:../lib/libDaisy/src/dev/codec_ak4556.h ****  ** 
  14:../lib/libDaisy/src/dev/codec_ak4556.h ****  ** I don't see any real reason to have this be more than a function, but in case we want
  15:../lib/libDaisy/src/dev/codec_ak4556.h ****  ** to add other functions down the road I wrapped the function in a class.
  16:../lib/libDaisy/src/dev/codec_ak4556.h ****  ***/
  17:../lib/libDaisy/src/dev/codec_ak4556.h **** class Ak4556
  18:../lib/libDaisy/src/dev/codec_ak4556.h **** {
  19:../lib/libDaisy/src/dev/codec_ak4556.h ****   public:
  20:../lib/libDaisy/src/dev/codec_ak4556.h ****     Ak4556() {}
  21:../lib/libDaisy/src/dev/codec_ak4556.h ****     ~Ak4556() {}
 169              		.loc 12 21 5 view .LVU39
 170              		.loc 12 21 5 is_stmt 0 view .LVU40
 171              	.LBE640:
 172              	.LBB641:
 173              	.LBI641:
 174              		.file 13 "../lib/libDaisy/src/sys/system.h"
   1:../lib/libDaisy/src/sys/system.h **** #ifndef DSY_SYSTEM_H
   2:../lib/libDaisy/src/sys/system.h **** #define DSY_SYSTEM_H
   3:../lib/libDaisy/src/sys/system.h **** 
   4:../lib/libDaisy/src/sys/system.h **** #ifndef UNIT_TEST // for unit tests, a dummy implementation is provided below
   5:../lib/libDaisy/src/sys/system.h **** 
   6:../lib/libDaisy/src/sys/system.h **** #include <cstdint>
   7:../lib/libDaisy/src/sys/system.h **** #include "per/tim.h"
   8:../lib/libDaisy/src/sys/system.h **** 
   9:../lib/libDaisy/src/sys/system.h **** namespace daisy
  10:../lib/libDaisy/src/sys/system.h **** {
  11:../lib/libDaisy/src/sys/system.h **** /** A handle for interacting with the Core System.
  12:../lib/libDaisy/src/sys/system.h ****  ** This includes the Clock tree, MPU, global DMA initialization,
  13:../lib/libDaisy/src/sys/system.h ****  ** cache handling, and any other necessary global initiailzation
  14:../lib/libDaisy/src/sys/system.h ****  **
  15:../lib/libDaisy/src/sys/system.h ****  ** @author shensley
  16:../lib/libDaisy/src/sys/system.h ****  ** @ingroup system
  17:../lib/libDaisy/src/sys/system.h ****  */
  18:../lib/libDaisy/src/sys/system.h **** class System
  19:../lib/libDaisy/src/sys/system.h **** {
  20:../lib/libDaisy/src/sys/system.h ****   public:
  21:../lib/libDaisy/src/sys/system.h ****     /** Contains settings for initializing the System */
  22:../lib/libDaisy/src/sys/system.h ****     struct Config
  23:../lib/libDaisy/src/sys/system.h ****     {
  24:../lib/libDaisy/src/sys/system.h ****         /** Specifies the system clock frequency that feeds APB/AHB clocks, etc. */
  25:../lib/libDaisy/src/sys/system.h ****         enum class SysClkFreq
  26:../lib/libDaisy/src/sys/system.h ****         {
  27:../lib/libDaisy/src/sys/system.h ****             FREQ_400MHZ,
  28:../lib/libDaisy/src/sys/system.h ****             FREQ_480MHZ,
  29:../lib/libDaisy/src/sys/system.h ****         };
  30:../lib/libDaisy/src/sys/system.h **** 
  31:../lib/libDaisy/src/sys/system.h ****         /** Method to call on the struct to set to defaults
  32:../lib/libDaisy/src/sys/system.h ****          ** CPU Freq set to 400MHz
  33:../lib/libDaisy/src/sys/system.h ****          ** Cache Enabled
  34:../lib/libDaisy/src/sys/system.h ****          ** */
  35:../lib/libDaisy/src/sys/system.h ****         void Defaults()
  36:../lib/libDaisy/src/sys/system.h ****         {
  37:../lib/libDaisy/src/sys/system.h ****             cpu_freq    = SysClkFreq::FREQ_400MHZ;
ARM GAS  /var/folders/hp/45mn71hd0ps5f5pnytxy5bt00000gn/T//ccKbf7aq.s 			page 17


  38:../lib/libDaisy/src/sys/system.h ****             use_dcache  = true;
  39:../lib/libDaisy/src/sys/system.h ****             use_icache  = true;
  40:../lib/libDaisy/src/sys/system.h ****             skip_clocks = false;
  41:../lib/libDaisy/src/sys/system.h ****         }
  42:../lib/libDaisy/src/sys/system.h **** 
  43:../lib/libDaisy/src/sys/system.h ****         /** Method to call on the struct to set to boost mode:
  44:../lib/libDaisy/src/sys/system.h ****          ** CPU Freq set to 480MHz
  45:../lib/libDaisy/src/sys/system.h ****          ** Cache Enabled
  46:../lib/libDaisy/src/sys/system.h ****          ** */
  47:../lib/libDaisy/src/sys/system.h ****         void Boost()
  48:../lib/libDaisy/src/sys/system.h ****         {
  49:../lib/libDaisy/src/sys/system.h ****             cpu_freq    = SysClkFreq::FREQ_480MHZ;
  50:../lib/libDaisy/src/sys/system.h ****             use_dcache  = true;
  51:../lib/libDaisy/src/sys/system.h ****             use_icache  = true;
  52:../lib/libDaisy/src/sys/system.h ****             skip_clocks = false;
  53:../lib/libDaisy/src/sys/system.h ****         }
  54:../lib/libDaisy/src/sys/system.h **** 
  55:../lib/libDaisy/src/sys/system.h ****         SysClkFreq cpu_freq;
  56:../lib/libDaisy/src/sys/system.h ****         bool       use_dcache;
  57:../lib/libDaisy/src/sys/system.h ****         bool       use_icache;
  58:../lib/libDaisy/src/sys/system.h ****         bool       skip_clocks;
  59:../lib/libDaisy/src/sys/system.h ****     };
  60:../lib/libDaisy/src/sys/system.h **** 
  61:../lib/libDaisy/src/sys/system.h ****     /** Describes the different regions of memory available to the Daisy */
  62:../lib/libDaisy/src/sys/system.h ****     enum MemoryRegion
  63:../lib/libDaisy/src/sys/system.h ****     {
  64:../lib/libDaisy/src/sys/system.h ****         INTERNAL_FLASH = 0,
  65:../lib/libDaisy/src/sys/system.h ****         ITCMRAM,
  66:../lib/libDaisy/src/sys/system.h ****         DTCMRAM,
  67:../lib/libDaisy/src/sys/system.h ****         SRAM_D1,
  68:../lib/libDaisy/src/sys/system.h ****         SRAM_D2,
  69:../lib/libDaisy/src/sys/system.h ****         SRAM_D3,
  70:../lib/libDaisy/src/sys/system.h ****         SDRAM,
  71:../lib/libDaisy/src/sys/system.h ****         QSPI,
  72:../lib/libDaisy/src/sys/system.h ****         INVALID_ADDRESS,
  73:../lib/libDaisy/src/sys/system.h ****     };
  74:../lib/libDaisy/src/sys/system.h **** 
  75:../lib/libDaisy/src/sys/system.h ****     /** Bootloader struct for controlling bootloading parameters */
  76:../lib/libDaisy/src/sys/system.h ****     struct BootInfo
  77:../lib/libDaisy/src/sys/system.h ****     {
  78:../lib/libDaisy/src/sys/system.h ****         enum class Type : uint32_t
  79:../lib/libDaisy/src/sys/system.h ****         {
  80:../lib/libDaisy/src/sys/system.h ****             INVALID      = 0x00000000,
  81:../lib/libDaisy/src/sys/system.h ****             JUMP         = 0xDEADBEEF,
  82:../lib/libDaisy/src/sys/system.h ****             SKIP_TIMEOUT = 0x5AFEB007,
  83:../lib/libDaisy/src/sys/system.h ****             INF_TIMEOUT  = 0xB0074EFA,
  84:../lib/libDaisy/src/sys/system.h ****         } status;
  85:../lib/libDaisy/src/sys/system.h ****         uint32_t data;
  86:../lib/libDaisy/src/sys/system.h ****         enum class Version : uint32_t
  87:../lib/libDaisy/src/sys/system.h ****         {
  88:../lib/libDaisy/src/sys/system.h ****             LT_v6_0 = 0, // Less than v6.0
  89:../lib/libDaisy/src/sys/system.h ****             NONE,        // No bootloader present
  90:../lib/libDaisy/src/sys/system.h ****             v6_0,        // v6.0
  91:../lib/libDaisy/src/sys/system.h ****             v6_1,        // v6.1 or greater
  92:../lib/libDaisy/src/sys/system.h ****             LAST
  93:../lib/libDaisy/src/sys/system.h ****         } version;
  94:../lib/libDaisy/src/sys/system.h ****     };
ARM GAS  /var/folders/hp/45mn71hd0ps5f5pnytxy5bt00000gn/T//ccKbf7aq.s 			page 18


  95:../lib/libDaisy/src/sys/system.h **** 
  96:../lib/libDaisy/src/sys/system.h ****     System() {}
  97:../lib/libDaisy/src/sys/system.h ****     ~System() {}
 175              		.loc 13 97 5 is_stmt 1 view .LVU41
 176              		.loc 13 97 5 is_stmt 0 view .LVU42
 177              	.LBE641:
 178              	.LBB642:
 179              	.LBI642:
 180              		.file 14 "../lib/libDaisy/src/hid/usb.h"
   1:../lib/libDaisy/src/hid/usb.h **** #pragma once
   2:../lib/libDaisy/src/hid/usb.h **** #ifndef DSY_HID_USB_H
   3:../lib/libDaisy/src/hid/usb.h **** #define DSY_HID_USB_H
   4:../lib/libDaisy/src/hid/usb.h **** #include <stdint.h>
   5:../lib/libDaisy/src/hid/usb.h **** #include <stdlib.h>
   6:../lib/libDaisy/src/hid/usb.h **** 
   7:../lib/libDaisy/src/hid/usb.h **** namespace daisy
   8:../lib/libDaisy/src/hid/usb.h **** /** @addtogroup human_interface
   9:../lib/libDaisy/src/hid/usb.h ****     @{
  10:../lib/libDaisy/src/hid/usb.h **** */
  11:../lib/libDaisy/src/hid/usb.h **** 
  12:../lib/libDaisy/src/hid/usb.h **** {
  13:../lib/libDaisy/src/hid/usb.h **** /** 
  14:../lib/libDaisy/src/hid/usb.h ****     @brief Interface for initializing and using the USB Peripherals on the daisy
  15:../lib/libDaisy/src/hid/usb.h ****     @author Stephen Hensley
  16:../lib/libDaisy/src/hid/usb.h ****     @date December 2019
  17:../lib/libDaisy/src/hid/usb.h **** */
  18:../lib/libDaisy/src/hid/usb.h **** class UsbHandle
  19:../lib/libDaisy/src/hid/usb.h **** {
  20:../lib/libDaisy/src/hid/usb.h ****   public:
  21:../lib/libDaisy/src/hid/usb.h ****     /** Return values for USBHandle Functions */
  22:../lib/libDaisy/src/hid/usb.h ****     enum class Result
  23:../lib/libDaisy/src/hid/usb.h ****     {
  24:../lib/libDaisy/src/hid/usb.h ****         OK,
  25:../lib/libDaisy/src/hid/usb.h ****         ERR,
  26:../lib/libDaisy/src/hid/usb.h ****     };
  27:../lib/libDaisy/src/hid/usb.h **** 
  28:../lib/libDaisy/src/hid/usb.h ****     /** Specified which of the two USB Peripherals to initialize. */
  29:../lib/libDaisy/src/hid/usb.h ****     enum UsbPeriph
  30:../lib/libDaisy/src/hid/usb.h ****     {
  31:../lib/libDaisy/src/hid/usb.h ****         FS_INTERNAL, /**< Internal pin */
  32:../lib/libDaisy/src/hid/usb.h ****         FS_EXTERNAL, /**< FS External D+ pin is Pin 38 (GPIO32). FS External D- pin is Pin 37 (GPIO
  33:../lib/libDaisy/src/hid/usb.h ****         FS_BOTH,     /**< Both */
  34:../lib/libDaisy/src/hid/usb.h ****     };
  35:../lib/libDaisy/src/hid/usb.h **** 
  36:../lib/libDaisy/src/hid/usb.h **** 
  37:../lib/libDaisy/src/hid/usb.h ****     /** Function called upon reception of a buffer */
  38:../lib/libDaisy/src/hid/usb.h ****     typedef void (*ReceiveCallback)(uint8_t* buff, uint32_t* len);
  39:../lib/libDaisy/src/hid/usb.h **** 
  40:../lib/libDaisy/src/hid/usb.h ****     UsbHandle() {}
  41:../lib/libDaisy/src/hid/usb.h **** 
  42:../lib/libDaisy/src/hid/usb.h ****     ~UsbHandle() {}
 181              		.loc 14 42 5 is_stmt 1 view .LVU43
 182              		.loc 14 42 5 is_stmt 0 view .LVU44
 183              	.LBE642:
 184              	.LBB643:
 185              	.LBI643:
 186              		.file 15 "../lib/libDaisy/src/per/adc.h"
ARM GAS  /var/folders/hp/45mn71hd0ps5f5pnytxy5bt00000gn/T//ccKbf7aq.s 			page 19


   1:../lib/libDaisy/src/per/adc.h **** #pragma once
   2:../lib/libDaisy/src/per/adc.h **** #ifndef DSY_ADC_H
   3:../lib/libDaisy/src/per/adc.h **** #define DSY_ADC_H /**< Macro */
   4:../lib/libDaisy/src/per/adc.h **** #include <stdint.h>
   5:../lib/libDaisy/src/per/adc.h **** #include <stdlib.h>
   6:../lib/libDaisy/src/per/adc.h **** #include "daisy_core.h"
   7:../lib/libDaisy/src/per/adc.h **** #include "per/gpio.h"
   8:../lib/libDaisy/src/per/adc.h **** 
   9:../lib/libDaisy/src/per/adc.h **** #define DSY_ADC_MAX_CHANNELS 16 /**< Maximum number of ADC channels */
  10:../lib/libDaisy/src/per/adc.h **** 
  11:../lib/libDaisy/src/per/adc.h **** namespace daisy
  12:../lib/libDaisy/src/per/adc.h **** {
  13:../lib/libDaisy/src/per/adc.h **** /** @addtogroup per_analog
  14:../lib/libDaisy/src/per/adc.h ****     @{
  15:../lib/libDaisy/src/per/adc.h **** */
  16:../lib/libDaisy/src/per/adc.h **** 
  17:../lib/libDaisy/src/per/adc.h **** /* While there may not be many configuration options here,
  18:../lib/libDaisy/src/per/adc.h **** using a struct like this allows us to add more configuration
  19:../lib/libDaisy/src/per/adc.h **** later without breaking existing functionality.
  20:../lib/libDaisy/src/per/adc.h **** */
  21:../lib/libDaisy/src/per/adc.h **** 
  22:../lib/libDaisy/src/per/adc.h **** /** @brief   Configuration Structure for an ADC Channel 
  23:../lib/libDaisy/src/per/adc.h ****  *  @details This can be used to configure a a single input, 
  24:../lib/libDaisy/src/per/adc.h ****  *           or a multiplexed input, allowing up to 8 inputs on 
  25:../lib/libDaisy/src/per/adc.h ****  *           one channel.
  26:../lib/libDaisy/src/per/adc.h ****  *  @note    Sharing data lines to multiple muxes _is_ possible, but
  27:../lib/libDaisy/src/per/adc.h ****  *           each channel sharing data lines must be set to the maximum
  28:../lib/libDaisy/src/per/adc.h ****  *           number of channels, even if some multiplexers have fewer
  29:../lib/libDaisy/src/per/adc.h ****  *           inputs connected.
  30:../lib/libDaisy/src/per/adc.h **** */
  31:../lib/libDaisy/src/per/adc.h **** struct AdcChannelConfig
  32:../lib/libDaisy/src/per/adc.h **** {
  33:../lib/libDaisy/src/per/adc.h ****     /** Which pin to use for multiplexing */
  34:../lib/libDaisy/src/per/adc.h ****     enum MuxPin
  35:../lib/libDaisy/src/per/adc.h ****     {
  36:../lib/libDaisy/src/per/adc.h ****         MUX_SEL_0,    /**< & */
  37:../lib/libDaisy/src/per/adc.h ****         MUX_SEL_1,    /**< & */
  38:../lib/libDaisy/src/per/adc.h ****         MUX_SEL_2,    /**< & */
  39:../lib/libDaisy/src/per/adc.h ****         MUX_SEL_LAST, /**< & */
  40:../lib/libDaisy/src/per/adc.h ****     };
  41:../lib/libDaisy/src/per/adc.h **** 
  42:../lib/libDaisy/src/per/adc.h ****     /** \brief per channel conversion speed added to fixed time based on bitdepth, etc. */
  43:../lib/libDaisy/src/per/adc.h ****     enum ConversionSpeed
  44:../lib/libDaisy/src/per/adc.h ****     {
  45:../lib/libDaisy/src/per/adc.h ****         SPEED_1CYCLES_5,
  46:../lib/libDaisy/src/per/adc.h ****         SPEED_2CYCLES_5,
  47:../lib/libDaisy/src/per/adc.h ****         SPEED_8CYCLES_5,
  48:../lib/libDaisy/src/per/adc.h ****         SPEED_16CYCLES_5,
  49:../lib/libDaisy/src/per/adc.h ****         SPEED_32CYCLES_5,
  50:../lib/libDaisy/src/per/adc.h ****         SPEED_64CYCLES_5,
  51:../lib/libDaisy/src/per/adc.h ****         SPEED_387CYCLES_5,
  52:../lib/libDaisy/src/per/adc.h ****         SPEED_810CYCLES_5,
  53:../lib/libDaisy/src/per/adc.h ****     };
  54:../lib/libDaisy/src/per/adc.h **** 
  55:../lib/libDaisy/src/per/adc.h ****     /** Initializes a single ADC pin as an ADC. 
  56:../lib/libDaisy/src/per/adc.h ****     \param pin Pin to init.
  57:../lib/libDaisy/src/per/adc.h ****     \param speed conversion speed for this pin defaults to 8.5 cycles
ARM GAS  /var/folders/hp/45mn71hd0ps5f5pnytxy5bt00000gn/T//ccKbf7aq.s 			page 20


  58:../lib/libDaisy/src/per/adc.h ****      */
  59:../lib/libDaisy/src/per/adc.h ****     void InitSingle(Pin pin, ConversionSpeed speed = SPEED_8CYCLES_5);
  60:../lib/libDaisy/src/per/adc.h **** 
  61:../lib/libDaisy/src/per/adc.h ****     /** 
  62:../lib/libDaisy/src/per/adc.h ****     Initializes a single ADC pin as a Multiplexed ADC.
  63:../lib/libDaisy/src/per/adc.h ****     Requires a CD405X Multiplexer connected to the pin.
  64:../lib/libDaisy/src/per/adc.h ****     You only need to supply the mux pins that are required,
  65:../lib/libDaisy/src/per/adc.h ****     e.g. a 4052 mux would only require mux_0 and mux_1.
  66:../lib/libDaisy/src/per/adc.h ****     Internal Callbacks handle the pin addressing.
  67:../lib/libDaisy/src/per/adc.h ****     \param adc_pin &
  68:../lib/libDaisy/src/per/adc.h ****     \param mux_channels must be 1-8
  69:../lib/libDaisy/src/per/adc.h ****     \param mux_0 First mux pin
  70:../lib/libDaisy/src/per/adc.h ****     \param mux_1 Second mux pin
  71:../lib/libDaisy/src/per/adc.h ****     \param mux_2 Third mux pin
  72:../lib/libDaisy/src/per/adc.h ****     \param speed conversion speed for this pin defaults to 8.5 cycles
  73:../lib/libDaisy/src/per/adc.h ****     */
  74:../lib/libDaisy/src/per/adc.h ****     void InitMux(Pin             adc_pin,
  75:../lib/libDaisy/src/per/adc.h ****                  size_t          mux_channels,
  76:../lib/libDaisy/src/per/adc.h ****                  Pin             mux_0,
  77:../lib/libDaisy/src/per/adc.h ****                  Pin             mux_1 = Pin(PORTX, 0),
  78:../lib/libDaisy/src/per/adc.h ****                  Pin             mux_2 = Pin(PORTX, 0),
  79:../lib/libDaisy/src/per/adc.h ****                  ConversionSpeed speed = SPEED_8CYCLES_5);
  80:../lib/libDaisy/src/per/adc.h **** 
  81:../lib/libDaisy/src/per/adc.h ****     GPIO            pin_;                   /**< & */
  82:../lib/libDaisy/src/per/adc.h ****     GPIO            mux_pin_[MUX_SEL_LAST]; /**< & */
  83:../lib/libDaisy/src/per/adc.h ****     uint8_t         mux_channels_;          /**< & */
  84:../lib/libDaisy/src/per/adc.h ****     ConversionSpeed speed_;
  85:../lib/libDaisy/src/per/adc.h **** };
  86:../lib/libDaisy/src/per/adc.h **** 
  87:../lib/libDaisy/src/per/adc.h **** /**
  88:../lib/libDaisy/src/per/adc.h ****    @brief Handler for analog to digital conversion
  89:../lib/libDaisy/src/per/adc.h **** */
  90:../lib/libDaisy/src/per/adc.h **** class AdcHandle
  91:../lib/libDaisy/src/per/adc.h **** {
  92:../lib/libDaisy/src/per/adc.h ****   public:
  93:../lib/libDaisy/src/per/adc.h ****     /** Supported oversampling amounts */
  94:../lib/libDaisy/src/per/adc.h ****     enum OverSampling
  95:../lib/libDaisy/src/per/adc.h ****     {
  96:../lib/libDaisy/src/per/adc.h ****         OVS_NONE, /**< & */
  97:../lib/libDaisy/src/per/adc.h ****         OVS_4,    /**< & */
  98:../lib/libDaisy/src/per/adc.h ****         OVS_8,    /**< & */
  99:../lib/libDaisy/src/per/adc.h ****         OVS_16,   /**< & */
 100:../lib/libDaisy/src/per/adc.h ****         OVS_32,   /**< & */
 101:../lib/libDaisy/src/per/adc.h ****         OVS_64,   /**< & */
 102:../lib/libDaisy/src/per/adc.h ****         OVS_128,  /**< & */
 103:../lib/libDaisy/src/per/adc.h ****         OVS_256,  /**< & */
 104:../lib/libDaisy/src/per/adc.h ****         OVS_512,  /**< & */
 105:../lib/libDaisy/src/per/adc.h ****         OVS_1024, /**< & */
 106:../lib/libDaisy/src/per/adc.h ****         OVS_LAST, /**< & */
 107:../lib/libDaisy/src/per/adc.h ****     };
 108:../lib/libDaisy/src/per/adc.h **** 
 109:../lib/libDaisy/src/per/adc.h ****     AdcHandle() {}
 110:../lib/libDaisy/src/per/adc.h ****     ~AdcHandle() {}
 187              		.loc 15 110 5 is_stmt 1 view .LVU45
 188              		.loc 15 110 5 is_stmt 0 view .LVU46
 189              	.LBE643:
 190              	.LBB644:
ARM GAS  /var/folders/hp/45mn71hd0ps5f5pnytxy5bt00000gn/T//ccKbf7aq.s 			page 21


 191              	.LBI644:
 192              		.file 16 "../lib/libDaisy/src/hid/audio.h"
   1:../lib/libDaisy/src/hid/audio.h **** #ifndef DSY_AUDIO_H
   2:../lib/libDaisy/src/hid/audio.h **** #define DSY_AUDIO_H /**< & */
   3:../lib/libDaisy/src/hid/audio.h **** 
   4:../lib/libDaisy/src/hid/audio.h **** #include "per/sai.h"
   5:../lib/libDaisy/src/hid/audio.h **** 
   6:../lib/libDaisy/src/hid/audio.h **** namespace daisy
   7:../lib/libDaisy/src/hid/audio.h **** {
   8:../lib/libDaisy/src/hid/audio.h **** /** @brief Audio Engine Handle
   9:../lib/libDaisy/src/hid/audio.h ****  *  @ingroup audio 
  10:../lib/libDaisy/src/hid/audio.h ****  *  @details This class allows for higher level access to an audio engine.
  11:../lib/libDaisy/src/hid/audio.h ****  *           If you're using a SOM like the DaisySeed or DaisyPatchSM (or any 
  12:../lib/libDaisy/src/hid/audio.h ****  *            board that includes one of those objects) then the intialization
  13:../lib/libDaisy/src/hid/audio.h ****  *            is already taken  care of.
  14:../lib/libDaisy/src/hid/audio.h ****  *           If you're setting up your own custom hardware, or need to make changes
  15:../lib/libDaisy/src/hid/audio.h ****  *           you will have to take the following steps:
  16:../lib/libDaisy/src/hid/audio.h ****  *             1. Create and Initialize an SaiHandle or two depending on your requirements
  17:../lib/libDaisy/src/hid/audio.h ****  *             2. Initialize the Audio Handle with the desired settings and the Initialized SaiHand
  18:../lib/libDaisy/src/hid/audio.h ****  *             3. If the connected codec requires special configuration or initialization, do so
  19:../lib/libDaisy/src/hid/audio.h ****  *             4. Write a callback method using either the AudioCallback or the InterleavingAudioCa
  20:../lib/libDaisy/src/hid/audio.h ****  *             5. Start the Audio using one of the StartAudio function
  21:../lib/libDaisy/src/hid/audio.h ****  */
  22:../lib/libDaisy/src/hid/audio.h **** class AudioHandle
  23:../lib/libDaisy/src/hid/audio.h **** {
  24:../lib/libDaisy/src/hid/audio.h ****   public:
  25:../lib/libDaisy/src/hid/audio.h ****     /** Manually configurable details about the Audio Engine */
  26:../lib/libDaisy/src/hid/audio.h ****     /** TODO: Figure out how to get samplerate in here. */
  27:../lib/libDaisy/src/hid/audio.h ****     struct Config
  28:../lib/libDaisy/src/hid/audio.h ****     {
  29:../lib/libDaisy/src/hid/audio.h ****         /** number of samples to process per callback */
  30:../lib/libDaisy/src/hid/audio.h ****         size_t blocksize = 48;
  31:../lib/libDaisy/src/hid/audio.h **** 
  32:../lib/libDaisy/src/hid/audio.h ****         /**< Sample rate of audio */
  33:../lib/libDaisy/src/hid/audio.h ****         SaiHandle::Config::SampleRate samplerate
  34:../lib/libDaisy/src/hid/audio.h ****             = SaiHandle::Config::SampleRate::SAI_48KHZ;
  35:../lib/libDaisy/src/hid/audio.h **** 
  36:../lib/libDaisy/src/hid/audio.h ****         /** factor for adjustment before and after callback for hardware that may have extra headro
  37:../lib/libDaisy/src/hid/audio.h ****         float postgain = 1.f;
  38:../lib/libDaisy/src/hid/audio.h **** 
  39:../lib/libDaisy/src/hid/audio.h ****         /** factor for additional one-sided compensation to audio path for hardware that may
  40:../lib/libDaisy/src/hid/audio.h ****          *  have unequal input/output ranges
  41:../lib/libDaisy/src/hid/audio.h ****          */
  42:../lib/libDaisy/src/hid/audio.h ****         float output_compensation = 1.f;
  43:../lib/libDaisy/src/hid/audio.h ****     };
  44:../lib/libDaisy/src/hid/audio.h **** 
  45:../lib/libDaisy/src/hid/audio.h ****     enum class Result
  46:../lib/libDaisy/src/hid/audio.h ****     {
  47:../lib/libDaisy/src/hid/audio.h ****         OK,
  48:../lib/libDaisy/src/hid/audio.h ****         ERR,
  49:../lib/libDaisy/src/hid/audio.h ****     };
  50:../lib/libDaisy/src/hid/audio.h **** 
  51:../lib/libDaisy/src/hid/audio.h ****     /** Non-Interleaving input buffer
  52:../lib/libDaisy/src/hid/audio.h ****      * Buffer arranged by float[chn][sample] 
  53:../lib/libDaisy/src/hid/audio.h ****      * const so that the user can't modify the input
  54:../lib/libDaisy/src/hid/audio.h ****      */
  55:../lib/libDaisy/src/hid/audio.h ****     typedef const float* const* InputBuffer;
ARM GAS  /var/folders/hp/45mn71hd0ps5f5pnytxy5bt00000gn/T//ccKbf7aq.s 			page 22


  56:../lib/libDaisy/src/hid/audio.h **** 
  57:../lib/libDaisy/src/hid/audio.h ****     /** Non-Interleaving output buffer
  58:../lib/libDaisy/src/hid/audio.h ****      * Arranged by float[chn][sample] 
  59:../lib/libDaisy/src/hid/audio.h ****      */
  60:../lib/libDaisy/src/hid/audio.h ****     typedef float** OutputBuffer;
  61:../lib/libDaisy/src/hid/audio.h **** 
  62:../lib/libDaisy/src/hid/audio.h ****     /** Type for a Non-Interleaving audio callback 
  63:../lib/libDaisy/src/hid/audio.h ****      * Non-Interleaving audio callbacks in daisy will be of this type
  64:../lib/libDaisy/src/hid/audio.h ****      */
  65:../lib/libDaisy/src/hid/audio.h ****     typedef void (*AudioCallback)(InputBuffer  in,
  66:../lib/libDaisy/src/hid/audio.h ****                                   OutputBuffer out,
  67:../lib/libDaisy/src/hid/audio.h ****                                   size_t       size);
  68:../lib/libDaisy/src/hid/audio.h **** 
  69:../lib/libDaisy/src/hid/audio.h ****     /** Interleaving Input buffer
  70:../lib/libDaisy/src/hid/audio.h ****      ** audio is prepared as { L0, R0, L1, R1, . . . LN, RN }]
  71:../lib/libDaisy/src/hid/audio.h ****      ** this is const, as the user shouldn't modify it
  72:../lib/libDaisy/src/hid/audio.h ****     */
  73:../lib/libDaisy/src/hid/audio.h ****     typedef const float* InterleavingInputBuffer;
  74:../lib/libDaisy/src/hid/audio.h **** 
  75:../lib/libDaisy/src/hid/audio.h ****     /** Interleaving Output buffer 
  76:../lib/libDaisy/src/hid/audio.h ****      ** audio is prepared as { L0, R0, L1, R1, . . . LN, RN }
  77:../lib/libDaisy/src/hid/audio.h ****     */
  78:../lib/libDaisy/src/hid/audio.h ****     typedef float* InterleavingOutputBuffer;
  79:../lib/libDaisy/src/hid/audio.h **** 
  80:../lib/libDaisy/src/hid/audio.h ****     /** Interleaving Audio Callback 
  81:../lib/libDaisy/src/hid/audio.h ****      * Interleaving audio callbacks in daisy must be of this type
  82:../lib/libDaisy/src/hid/audio.h ****      */
  83:../lib/libDaisy/src/hid/audio.h ****     typedef void (*InterleavingAudioCallback)(InterleavingInputBuffer  in,
  84:../lib/libDaisy/src/hid/audio.h ****                                               InterleavingOutputBuffer out,
  85:../lib/libDaisy/src/hid/audio.h ****                                               size_t                   size);
  86:../lib/libDaisy/src/hid/audio.h **** 
  87:../lib/libDaisy/src/hid/audio.h ****     AudioHandle() : pimpl_(nullptr) {}
  88:../lib/libDaisy/src/hid/audio.h ****     ~AudioHandle() {}
 193              		.loc 16 88 5 is_stmt 1 view .LVU47
 194              		.loc 16 88 5 is_stmt 0 view .LVU48
 195              	.LBE644:
 196              	.LBE639:
 197              		.loc 3 36 18 view .LVU49
 198 0000 7047     		bx	lr
 199              		.cfi_endproc
 200              	.LFE2655:
 202              		.weak	_ZN5daisy8DaisyPodD1Ev
 203              		.thumb_set _ZN5daisy8DaisyPodD1Ev,_ZN5daisy8DaisyPodD2Ev
 204 0002 00BF     		.section	.text._ZN7daisysp5AdEnvD2Ev,"axG",%progbits,_ZN7daisysp5AdEnvD5Ev,comdat
 205              		.align	1
 206              		.p2align 2,,3
 207              		.weak	_ZN7daisysp5AdEnvD2Ev
 208              		.syntax unified
 209              		.thumb
 210              		.thumb_func
 212              	_ZN7daisysp5AdEnvD2Ev:
 213              	.LVL2:
 214              	.LFB2662:
 215              		.file 17 "../lib/DaisySP/Source/Control/adenv.h"
   1:../lib/DaisySP/Source/Control/adenv.h **** /*
   2:../lib/DaisySP/Source/Control/adenv.h **** Copyright (c) 2020 Electrosmith, Corp
   3:../lib/DaisySP/Source/Control/adenv.h **** 
ARM GAS  /var/folders/hp/45mn71hd0ps5f5pnytxy5bt00000gn/T//ccKbf7aq.s 			page 23


   4:../lib/DaisySP/Source/Control/adenv.h **** Use of this source code is governed by an MIT-style
   5:../lib/DaisySP/Source/Control/adenv.h **** license that can be found in the LICENSE file or at
   6:../lib/DaisySP/Source/Control/adenv.h **** https://opensource.org/licenses/MIT.
   7:../lib/DaisySP/Source/Control/adenv.h **** */
   8:../lib/DaisySP/Source/Control/adenv.h **** 
   9:../lib/DaisySP/Source/Control/adenv.h **** #pragma once
  10:../lib/DaisySP/Source/Control/adenv.h **** #ifndef ADENV_H
  11:../lib/DaisySP/Source/Control/adenv.h **** #define ADENV_H
  12:../lib/DaisySP/Source/Control/adenv.h **** #include <stdint.h>
  13:../lib/DaisySP/Source/Control/adenv.h **** #ifdef __cplusplus
  14:../lib/DaisySP/Source/Control/adenv.h **** 
  15:../lib/DaisySP/Source/Control/adenv.h **** namespace daisysp
  16:../lib/DaisySP/Source/Control/adenv.h **** {
  17:../lib/DaisySP/Source/Control/adenv.h **** /** Distinct stages that the phase of the envelope can be located in.
  18:../lib/DaisySP/Source/Control/adenv.h ****     @see AdEnv
  19:../lib/DaisySP/Source/Control/adenv.h **** */
  20:../lib/DaisySP/Source/Control/adenv.h **** enum AdEnvSegment
  21:../lib/DaisySP/Source/Control/adenv.h **** {
  22:../lib/DaisySP/Source/Control/adenv.h ****     /** located at phase location 0, and not currently running */
  23:../lib/DaisySP/Source/Control/adenv.h ****     ADENV_SEG_IDLE,
  24:../lib/DaisySP/Source/Control/adenv.h ****     /** First segment of envelope where phase moves from MIN value to MAX value */
  25:../lib/DaisySP/Source/Control/adenv.h ****     ADENV_SEG_ATTACK,
  26:../lib/DaisySP/Source/Control/adenv.h ****     /** Second segment of envelope where phase moves from MAX to MIN value */
  27:../lib/DaisySP/Source/Control/adenv.h ****     ADENV_SEG_DECAY,
  28:../lib/DaisySP/Source/Control/adenv.h ****     /** The final segment of the envelope (currently decay) */
  29:../lib/DaisySP/Source/Control/adenv.h ****     ADENV_SEG_LAST,
  30:../lib/DaisySP/Source/Control/adenv.h **** };
  31:../lib/DaisySP/Source/Control/adenv.h **** 
  32:../lib/DaisySP/Source/Control/adenv.h **** /** Trigger-able envelope with adjustable min/max, and independent per-segment time control.
  33:../lib/DaisySP/Source/Control/adenv.h **** 
  34:../lib/DaisySP/Source/Control/adenv.h ****     \author shensley
  35:../lib/DaisySP/Source/Control/adenv.h ****     \todo - Add Cycling
  36:../lib/DaisySP/Source/Control/adenv.h ****     \todo - Implement Curve (its only linear for now).
  37:../lib/DaisySP/Source/Control/adenv.h ****     \todo - Maybe make this an ADsr_ that has AD/AR/Asr_ modes.
  38:../lib/DaisySP/Source/Control/adenv.h ****  */
  39:../lib/DaisySP/Source/Control/adenv.h **** class AdEnv
  40:../lib/DaisySP/Source/Control/adenv.h **** {
  41:../lib/DaisySP/Source/Control/adenv.h ****   public:
  42:../lib/DaisySP/Source/Control/adenv.h ****     AdEnv() {}
  43:../lib/DaisySP/Source/Control/adenv.h ****     ~AdEnv() {}
 216              		.loc 17 43 5 is_stmt 1 view -0
 217              		.cfi_startproc
 218              		@ args = 0, pretend = 0, frame = 0
 219              		@ frame_needed = 0, uses_anonymous_args = 0
 220              		@ link register save eliminated.
 221              		.loc 17 43 15 is_stmt 0 view .LVU51
 222 0000 7047     		bx	lr
 223              		.cfi_endproc
 224              	.LFE2662:
 226              		.weak	_ZN7daisysp5AdEnvD1Ev
 227              		.thumb_set _ZN7daisysp5AdEnvD1Ev,_ZN7daisysp5AdEnvD2Ev
 228 0002 00BF     		.section	.text._ZN7daisysp10OscillatorD2Ev,"axG",%progbits,_ZN7daisysp10OscillatorD5Ev,comdat
 229              		.align	1
 230              		.p2align 2,,3
 231              		.weak	_ZN7daisysp10OscillatorD2Ev
 232              		.syntax unified
 233              		.thumb
ARM GAS  /var/folders/hp/45mn71hd0ps5f5pnytxy5bt00000gn/T//ccKbf7aq.s 			page 24


 234              		.thumb_func
 236              	_ZN7daisysp10OscillatorD2Ev:
 237              	.LVL3:
 238              	.LFB4338:
 239              		.file 18 "../lib/DaisySP/Source/Synthesis/oscillator.h"
   1:../lib/DaisySP/Source/Synthesis/oscillator.h **** /*
   2:../lib/DaisySP/Source/Synthesis/oscillator.h **** Copyright (c) 2020 Electrosmith, Corp
   3:../lib/DaisySP/Source/Synthesis/oscillator.h **** 
   4:../lib/DaisySP/Source/Synthesis/oscillator.h **** Use of this source code is governed by an MIT-style
   5:../lib/DaisySP/Source/Synthesis/oscillator.h **** license that can be found in the LICENSE file or at
   6:../lib/DaisySP/Source/Synthesis/oscillator.h **** https://opensource.org/licenses/MIT.
   7:../lib/DaisySP/Source/Synthesis/oscillator.h **** */
   8:../lib/DaisySP/Source/Synthesis/oscillator.h **** 
   9:../lib/DaisySP/Source/Synthesis/oscillator.h **** #pragma once
  10:../lib/DaisySP/Source/Synthesis/oscillator.h **** #ifndef DSY_OSCILLATOR_H
  11:../lib/DaisySP/Source/Synthesis/oscillator.h **** #define DSY_OSCILLATOR_H
  12:../lib/DaisySP/Source/Synthesis/oscillator.h **** #include <stdint.h>
  13:../lib/DaisySP/Source/Synthesis/oscillator.h **** #include "Utility/dsp.h"
  14:../lib/DaisySP/Source/Synthesis/oscillator.h **** #ifdef __cplusplus
  15:../lib/DaisySP/Source/Synthesis/oscillator.h **** 
  16:../lib/DaisySP/Source/Synthesis/oscillator.h **** namespace daisysp
  17:../lib/DaisySP/Source/Synthesis/oscillator.h **** {
  18:../lib/DaisySP/Source/Synthesis/oscillator.h **** /** Synthesis of several waveforms, including polyBLEP bandlimited waveforms.
  19:../lib/DaisySP/Source/Synthesis/oscillator.h **** */
  20:../lib/DaisySP/Source/Synthesis/oscillator.h **** class Oscillator
  21:../lib/DaisySP/Source/Synthesis/oscillator.h **** {
  22:../lib/DaisySP/Source/Synthesis/oscillator.h ****   public:
  23:../lib/DaisySP/Source/Synthesis/oscillator.h ****     Oscillator() {}
  24:../lib/DaisySP/Source/Synthesis/oscillator.h ****     ~Oscillator() {}
 240              		.loc 18 24 5 is_stmt 1 view -0
 241              		.cfi_startproc
 242              		@ args = 0, pretend = 0, frame = 0
 243              		@ frame_needed = 0, uses_anonymous_args = 0
 244              		@ link register save eliminated.
 245              		.loc 18 24 20 is_stmt 0 view .LVU53
 246 0000 7047     		bx	lr
 247              		.cfi_endproc
 248              	.LFE4338:
 250              		.weak	_ZN7daisysp10OscillatorD1Ev
 251              		.thumb_set _ZN7daisysp10OscillatorD1Ev,_ZN7daisysp10OscillatorD2Ev
 252 0002 00BF     		.section	.text._ZN5daisy11MidiHandlerINS_16MidiUsbTransportEED2Ev,"axG",%progbits,_ZN5daisy11MidiH
 253              		.align	1
 254              		.p2align 2,,3
 255              		.weak	_ZN5daisy11MidiHandlerINS_16MidiUsbTransportEED2Ev
 256              		.syntax unified
 257              		.thumb
 258              		.thumb_func
 260              	_ZN5daisy11MidiHandlerINS_16MidiUsbTransportEED2Ev:
 261              	.LVL4:
 262              	.LFB5623:
 263              		.loc 4 156 5 is_stmt 1 view -0
 264              		.cfi_startproc
 265              		@ args = 0, pretend = 0, frame = 0
 266              		@ frame_needed = 0, uses_anonymous_args = 0
 267              		@ link register save eliminated.
 268              	.LBB645:
 269              	.LBI645:
ARM GAS  /var/folders/hp/45mn71hd0ps5f5pnytxy5bt00000gn/T//ccKbf7aq.s 			page 25


 270              		.loc 5 298 7 view .LVU55
 271              	.LBB646:
 272              	.LBI646:
  42:../lib/libDaisy/src/util/FIFO.h **** 
 273              		.loc 5 42 5 view .LVU56
  42:../lib/libDaisy/src/util/FIFO.h **** 
 274              		.loc 5 42 5 is_stmt 0 view .LVU57
 275              	.LBE646:
 276              	.LBE645:
 277              	.LBB647:
 278              	.LBI647:
 279              		.loc 6 19 5 is_stmt 1 view .LVU58
 280              		.loc 6 19 5 is_stmt 0 view .LVU59
 281              	.LBE647:
 282              	.LBB648:
 283              	.LBI648:
 284              		.file 19 "../lib/libDaisy/src/hid/usb_midi.h"
   1:../lib/libDaisy/src/hid/usb_midi.h **** #pragma once
   2:../lib/libDaisy/src/hid/usb_midi.h **** #ifndef __DSY_MIDIUSBTRANSPORT_H__
   3:../lib/libDaisy/src/hid/usb_midi.h **** #define __DSY_MIDIUSBTRANSPORT_H__
   4:../lib/libDaisy/src/hid/usb_midi.h **** 
   5:../lib/libDaisy/src/hid/usb_midi.h **** #include "hid/usb.h"
   6:../lib/libDaisy/src/hid/usb_midi.h **** #include "sys/system.h"
   7:../lib/libDaisy/src/hid/usb_midi.h **** #include "util/ringbuffer.h"
   8:../lib/libDaisy/src/hid/usb_midi.h **** 
   9:../lib/libDaisy/src/hid/usb_midi.h **** namespace daisy
  10:../lib/libDaisy/src/hid/usb_midi.h **** {
  11:../lib/libDaisy/src/hid/usb_midi.h **** /** @brief USB Transport for MIDI
  12:../lib/libDaisy/src/hid/usb_midi.h ****  *  @ingroup midi
  13:../lib/libDaisy/src/hid/usb_midi.h ****  */
  14:../lib/libDaisy/src/hid/usb_midi.h **** class MidiUsbTransport
  15:../lib/libDaisy/src/hid/usb_midi.h **** {
  16:../lib/libDaisy/src/hid/usb_midi.h ****   public:
  17:../lib/libDaisy/src/hid/usb_midi.h ****     typedef void (*MidiRxParseCallback)(uint8_t* data,
  18:../lib/libDaisy/src/hid/usb_midi.h ****                                         size_t   size,
  19:../lib/libDaisy/src/hid/usb_midi.h ****                                         void*    context);
  20:../lib/libDaisy/src/hid/usb_midi.h **** 
  21:../lib/libDaisy/src/hid/usb_midi.h ****     struct Config
  22:../lib/libDaisy/src/hid/usb_midi.h ****     {
  23:../lib/libDaisy/src/hid/usb_midi.h ****         enum Periph
  24:../lib/libDaisy/src/hid/usb_midi.h ****         {
  25:../lib/libDaisy/src/hid/usb_midi.h ****             INTERNAL = 0,
  26:../lib/libDaisy/src/hid/usb_midi.h ****             EXTERNAL,
  27:../lib/libDaisy/src/hid/usb_midi.h ****             HOST
  28:../lib/libDaisy/src/hid/usb_midi.h ****         };
  29:../lib/libDaisy/src/hid/usb_midi.h **** 
  30:../lib/libDaisy/src/hid/usb_midi.h ****         Periph periph;
  31:../lib/libDaisy/src/hid/usb_midi.h **** 
  32:../lib/libDaisy/src/hid/usb_midi.h ****         /**
  33:../lib/libDaisy/src/hid/usb_midi.h ****          * When sending MIDI messages immediately back-to-back in user code,
  34:../lib/libDaisy/src/hid/usb_midi.h ****          * sometimes the USB CDC driver is still "busy".
  35:../lib/libDaisy/src/hid/usb_midi.h ****          *
  36:../lib/libDaisy/src/hid/usb_midi.h ****          * This option configures the number of times to retry a Tx after
  37:../lib/libDaisy/src/hid/usb_midi.h ****          * delaying for 100 microseconds (default = 3 retries).
  38:../lib/libDaisy/src/hid/usb_midi.h ****          *
  39:../lib/libDaisy/src/hid/usb_midi.h ****          * If you set this to zero, Tx will not retry so the attempt will block
  40:../lib/libDaisy/src/hid/usb_midi.h ****          * for slightly less time, but transmit can fail if the Tx state is busy.
ARM GAS  /var/folders/hp/45mn71hd0ps5f5pnytxy5bt00000gn/T//ccKbf7aq.s 			page 26


  41:../lib/libDaisy/src/hid/usb_midi.h ****          */
  42:../lib/libDaisy/src/hid/usb_midi.h ****         uint8_t tx_retry_count;
  43:../lib/libDaisy/src/hid/usb_midi.h **** 
  44:../lib/libDaisy/src/hid/usb_midi.h ****         Config() : periph(INTERNAL), tx_retry_count(3) {}
  45:../lib/libDaisy/src/hid/usb_midi.h ****     };
  46:../lib/libDaisy/src/hid/usb_midi.h **** 
  47:../lib/libDaisy/src/hid/usb_midi.h ****     void Init(Config config);
  48:../lib/libDaisy/src/hid/usb_midi.h **** 
  49:../lib/libDaisy/src/hid/usb_midi.h ****     void StartRx(MidiRxParseCallback callback, void* context);
  50:../lib/libDaisy/src/hid/usb_midi.h ****     bool RxActive();
  51:../lib/libDaisy/src/hid/usb_midi.h ****     void FlushRx();
  52:../lib/libDaisy/src/hid/usb_midi.h ****     void Tx(uint8_t* buffer, size_t size);
  53:../lib/libDaisy/src/hid/usb_midi.h **** 
  54:../lib/libDaisy/src/hid/usb_midi.h ****     class Impl;
  55:../lib/libDaisy/src/hid/usb_midi.h **** 
  56:../lib/libDaisy/src/hid/usb_midi.h ****     MidiUsbTransport() : pimpl_(nullptr) {}
  57:../lib/libDaisy/src/hid/usb_midi.h ****     ~MidiUsbTransport() {}
 285              		.loc 19 57 5 is_stmt 1 view .LVU60
 286              		.loc 19 57 5 is_stmt 0 view .LVU61
 287              	.LBE648:
 288              		.loc 4 156 21 view .LVU62
 289 0000 7047     		bx	lr
 290              		.cfi_endproc
 291              	.LFE5623:
 293              		.weak	_ZN5daisy11MidiHandlerINS_16MidiUsbTransportEED1Ev
 294              		.thumb_set _ZN5daisy11MidiHandlerINS_16MidiUsbTransportEED1Ev,_ZN5daisy11MidiHandlerINS_16MidiUsbT
 295 0002 00BF     		.section	.text._ZL13AudioCallbackPKfPfj,"ax",%progbits
 296              		.align	1
 297              		.p2align 2,,3
 298              		.syntax unified
 299              		.thumb
 300              		.thumb_func
 302              	_ZL13AudioCallbackPKfPfj:
 303              	.LVL5:
 304              	.LFB5027:
 305              		.file 20 "SynthV8.cpp"
   1:SynthV8.cpp   **** #include "daisy_pod.h"
   2:SynthV8.cpp   **** #include "daisysp.h"
   3:SynthV8.cpp   **** #include "dev/oled_ssd130x.h"
   4:SynthV8.cpp   **** 
   5:SynthV8.cpp   **** using namespace daisy;
   6:SynthV8.cpp   **** using namespace daisysp;
   7:SynthV8.cpp   **** 
   8:SynthV8.cpp   **** static DaisyPod hw;
   9:SynthV8.cpp   **** static Oscillator osc;
  10:SynthV8.cpp   **** static AdEnv ad;
  11:SynthV8.cpp   **** static Parameter p_release;
  12:SynthV8.cpp   **** static MidiUsbHandler midi;
  13:SynthV8.cpp   **** static Parameter tuning;
  14:SynthV8.cpp   **** static CpuLoadMeter cpu_meter;
  15:SynthV8.cpp   **** 
  16:SynthV8.cpp   **** static float volChange;
  17:SynthV8.cpp   **** static float inc;
  18:SynthV8.cpp   **** float adRelease;
  19:SynthV8.cpp   **** float midiFreq;
  20:SynthV8.cpp   **** float totalFreq;
  21:SynthV8.cpp   **** bool adCycle;
ARM GAS  /var/folders/hp/45mn71hd0ps5f5pnytxy5bt00000gn/T//ccKbf7aq.s 			page 27


  22:SynthV8.cpp   **** bool isVolumeOn;
  23:SynthV8.cpp   **** 
  24:SynthV8.cpp   **** static void AudioCallback(AudioHandle::InterleavingInputBuffer  in,
  25:SynthV8.cpp   ****                           AudioHandle::InterleavingOutputBuffer out,
  26:SynthV8.cpp   ****                           size_t                                size)
  27:SynthV8.cpp   **** {
 306              		.loc 20 27 1 is_stmt 1 view -0
 307              		.cfi_startproc
 308              		@ args = 0, pretend = 0, frame = 0
 309              		@ frame_needed = 0, uses_anonymous_args = 0
  28:SynthV8.cpp   ****     cpu_meter.OnBlockStart();
 310              		.loc 20 28 5 view .LVU64
 311              	.LBB672:
 312              	.LBI672:
 313              		.file 21 "../lib/libDaisy/src/util/CpuLoadMeter.h"
   1:../lib/libDaisy/src/util/CpuLoadMeter.h **** #pragma once
   2:../lib/libDaisy/src/util/CpuLoadMeter.h **** 
   3:../lib/libDaisy/src/util/CpuLoadMeter.h **** #include "sys/system.h"
   4:../lib/libDaisy/src/util/CpuLoadMeter.h **** #include <cmath>
   5:../lib/libDaisy/src/util/CpuLoadMeter.h **** 
   6:../lib/libDaisy/src/util/CpuLoadMeter.h **** namespace daisy
   7:../lib/libDaisy/src/util/CpuLoadMeter.h **** {
   8:../lib/libDaisy/src/util/CpuLoadMeter.h **** /** @brief CPU load metering
   9:../lib/libDaisy/src/util/CpuLoadMeter.h ****  *  @author jelliesen
  10:../lib/libDaisy/src/util/CpuLoadMeter.h ****  *  @addtogroup utility
  11:../lib/libDaisy/src/util/CpuLoadMeter.h ****  * 
  12:../lib/libDaisy/src/util/CpuLoadMeter.h ****  *  To measure the CPU load of your audio processing, create a CpuLoadMeter
  13:../lib/libDaisy/src/util/CpuLoadMeter.h ****  *  and initialize it with your block size and sample rate.
  14:../lib/libDaisy/src/util/CpuLoadMeter.h ****  *  Then at the beginning of the audio callback, call `OnBlockStart()`, 
  15:../lib/libDaisy/src/util/CpuLoadMeter.h ****  *  and at the end of the audio callback, call `OnBlockEnd()`.
  16:../lib/libDaisy/src/util/CpuLoadMeter.h ****  *  You can then read out the minimum, maximum and average CPU load.
  17:../lib/libDaisy/src/util/CpuLoadMeter.h ****  */
  18:../lib/libDaisy/src/util/CpuLoadMeter.h **** class CpuLoadMeter
  19:../lib/libDaisy/src/util/CpuLoadMeter.h **** {
  20:../lib/libDaisy/src/util/CpuLoadMeter.h ****   public:
  21:../lib/libDaisy/src/util/CpuLoadMeter.h ****     CpuLoadMeter(){};
  22:../lib/libDaisy/src/util/CpuLoadMeter.h **** 
  23:../lib/libDaisy/src/util/CpuLoadMeter.h ****     /** Initializes the CpuLoadMeter for a particular sample rate and block size.
  24:../lib/libDaisy/src/util/CpuLoadMeter.h ****      *  @param sampleRateInHz           The sample rate in Hz
  25:../lib/libDaisy/src/util/CpuLoadMeter.h ****      *  @param blockSizeInSamples       The block size in samples
  26:../lib/libDaisy/src/util/CpuLoadMeter.h ****      *  @param smoothingFilterCutoffHz  The cutoff frequency of the smoothing filter that's used to
  27:../lib/libDaisy/src/util/CpuLoadMeter.h ****      *                                  create the average CPU load reading.
  28:../lib/libDaisy/src/util/CpuLoadMeter.h ****      */
  29:../lib/libDaisy/src/util/CpuLoadMeter.h ****     void Init(float sampleRateInHz,
  30:../lib/libDaisy/src/util/CpuLoadMeter.h ****               int   blockSizeInSamples,
  31:../lib/libDaisy/src/util/CpuLoadMeter.h ****               float smoothingFilterCutoffHz = 1.0f)
  32:../lib/libDaisy/src/util/CpuLoadMeter.h ****     {
  33:../lib/libDaisy/src/util/CpuLoadMeter.h ****         const auto secPerBlock = float(blockSizeInSamples) / sampleRateInHz;
  34:../lib/libDaisy/src/util/CpuLoadMeter.h ****         const auto ticksPerS   = float(System::GetTickFreq());
  35:../lib/libDaisy/src/util/CpuLoadMeter.h ****         ticksPerBlockInv_      = 1.0f / (ticksPerS * secPerBlock);
  36:../lib/libDaisy/src/util/CpuLoadMeter.h **** 
  37:../lib/libDaisy/src/util/CpuLoadMeter.h ****         // update filter coefficient for smoothing filter (1pole lowpass)
  38:../lib/libDaisy/src/util/CpuLoadMeter.h ****         const auto blockRateInHz = sampleRateInHz / float(blockSizeInSamples);
  39:../lib/libDaisy/src/util/CpuLoadMeter.h ****         const auto cutoffNormalized
  40:../lib/libDaisy/src/util/CpuLoadMeter.h ****             = smoothingFilterCutoffHz * 2.0f * 3.141592653f / blockRateInHz;
  41:../lib/libDaisy/src/util/CpuLoadMeter.h ****         // according to
  42:../lib/libDaisy/src/util/CpuLoadMeter.h ****         // https://en.wikipedia.org/wiki/Low-pass_filter#Simple_infinite_impulse_response_filter
ARM GAS  /var/folders/hp/45mn71hd0ps5f5pnytxy5bt00000gn/T//ccKbf7aq.s 			page 28


  43:../lib/libDaisy/src/util/CpuLoadMeter.h ****         smoothingConstant_ = cutoffNormalized / (cutoffNormalized + 1.0f);
  44:../lib/libDaisy/src/util/CpuLoadMeter.h **** 
  45:../lib/libDaisy/src/util/CpuLoadMeter.h ****         Reset();
  46:../lib/libDaisy/src/util/CpuLoadMeter.h ****     }
  47:../lib/libDaisy/src/util/CpuLoadMeter.h **** 
  48:../lib/libDaisy/src/util/CpuLoadMeter.h ****     /** Call this at the beginning of your audio callback */
  49:../lib/libDaisy/src/util/CpuLoadMeter.h ****     void OnBlockStart() { currentBlockStartTicks_ = System::GetTick(); }
 314              		.loc 21 49 10 view .LVU65
 315              	.LBB673:
 316              		.loc 21 49 27 view .LVU66
 317              	.LBE673:
 318              	.LBE672:
  27:SynthV8.cpp   ****     cpu_meter.OnBlockStart();
 319              		.loc 20 27 1 is_stmt 0 view .LVU67
 320 0000 2DE9F84F 		push	{r3, r4, r5, r6, r7, r8, r9, r10, fp, lr}
 321              		.cfi_def_cfa_offset 40
 322              		.cfi_offset 3, -40
 323              		.cfi_offset 4, -36
 324              		.cfi_offset 5, -32
 325              		.cfi_offset 6, -28
 326              		.cfi_offset 7, -24
 327              		.cfi_offset 8, -20
 328              		.cfi_offset 9, -16
 329              		.cfi_offset 10, -12
 330              		.cfi_offset 11, -8
 331              		.cfi_offset 14, -4
  29:SynthV8.cpp   **** 
  30:SynthV8.cpp   ****     hw.ProcessAnalogControls();
 332              		.loc 20 30 29 view .LVU68
 333 0004 8C4C     		ldr	r4, .L61+8
  27:SynthV8.cpp   ****     cpu_meter.OnBlockStart();
 334              		.loc 20 27 1 view .LVU69
 335 0006 8B46     		mov	fp, r1
 336              	.LBB676:
 337              	.LBB674:
 338              		.loc 21 49 51 view .LVU70
 339 0008 8C4F     		ldr	r7, .L61+12
 340              	.LBE674:
 341              	.LBE676:
  27:SynthV8.cpp   ****     cpu_meter.OnBlockStart();
 342              		.loc 20 27 1 view .LVU71
 343 000a 1546     		mov	r5, r2
 344 000c 2DED028B 		vpush.64	{d8}
 345              		.cfi_def_cfa_offset 48
 346              		.cfi_offset 80, -48
 347              		.cfi_offset 81, -44
 348              	.LBB677:
 349              	.LBB675:
 350              		.loc 21 49 68 view .LVU72
 351 0010 FFF7FEFF 		bl	_ZN5daisy6System7GetTickEv
 352              	.LVL6:
 353              		.loc 21 49 51 view .LVU73
 354 0014 B860     		str	r0, [r7, #8]
 355              	.LVL7:
 356              		.loc 21 49 51 view .LVU74
 357              	.LBE675:
 358              	.LBE677:
ARM GAS  /var/folders/hp/45mn71hd0ps5f5pnytxy5bt00000gn/T//ccKbf7aq.s 			page 29


 359              		.loc 20 30 5 is_stmt 1 view .LVU75
 360              		.loc 20 30 29 is_stmt 0 view .LVU76
 361 0016 2046     		mov	r0, r4
 362 0018 FFF7FEFF 		bl	_ZN5daisy8DaisyPod21ProcessAnalogControlsEv
 363              	.LVL8:
  31:SynthV8.cpp   ****     hw.ProcessDigitalControls();
 364              		.loc 20 31 5 is_stmt 1 view .LVU77
 365              		.loc 20 31 30 is_stmt 0 view .LVU78
 366 001c 2046     		mov	r0, r4
 367 001e FFF7FEFF 		bl	_ZN5daisy8DaisyPod22ProcessDigitalControlsEv
 368              	.LVL9:
  32:SynthV8.cpp   **** 
  33:SynthV8.cpp   ****     if(hw.button1.RisingEdge() || (adCycle && !ad.IsRunning()))
 369              		.loc 20 33 5 is_stmt 1 view .LVU79
 370              	.LBB678:
 371              	.LBI678:
  35:../lib/libDaisy/src/hid/switch.h **** 
  36:../lib/libDaisy/src/hid/switch.h ****     /** 
  37:../lib/libDaisy/src/hid/switch.h ****     Initializes the switch object with a given port/pin combo.
  38:../lib/libDaisy/src/hid/switch.h ****     \param pin port/pin object to tell the switch which hardware pin to use.
  39:../lib/libDaisy/src/hid/switch.h ****     \param update_rate Does nothing. Backwards compatibility until next breaking update.
  40:../lib/libDaisy/src/hid/switch.h ****     \param t switch type -- Default: TYPE_MOMENTARY
  41:../lib/libDaisy/src/hid/switch.h ****     \param pol switch polarity -- Default: POLARITY_INVERTED
  42:../lib/libDaisy/src/hid/switch.h ****     \param pu switch pull up/down -- Default: PULL_UP
  43:../lib/libDaisy/src/hid/switch.h ****     */
  44:../lib/libDaisy/src/hid/switch.h ****     void Init(Pin        pin,
  45:../lib/libDaisy/src/hid/switch.h ****               float      update_rate,
  46:../lib/libDaisy/src/hid/switch.h ****               Type       t,
  47:../lib/libDaisy/src/hid/switch.h ****               Polarity   pol,
  48:../lib/libDaisy/src/hid/switch.h ****               GPIO::Pull pu = GPIO::Pull::PULLUP);
  49:../lib/libDaisy/src/hid/switch.h **** 
  50:../lib/libDaisy/src/hid/switch.h ****     /**
  51:../lib/libDaisy/src/hid/switch.h ****        Simplified Init.
  52:../lib/libDaisy/src/hid/switch.h ****        \param pin port/pin object to tell the switch which hardware pin to use.
  53:../lib/libDaisy/src/hid/switch.h ****        \param update_rate Left for backwards compatibility until next breaking change.
  54:../lib/libDaisy/src/hid/switch.h ****     */
  55:../lib/libDaisy/src/hid/switch.h ****     void Init(Pin pin, float update_rate = 0.f);
  56:../lib/libDaisy/src/hid/switch.h **** 
  57:../lib/libDaisy/src/hid/switch.h ****     /** 
  58:../lib/libDaisy/src/hid/switch.h ****     Called at update_rate to debounce and handle timing for the switch.
  59:../lib/libDaisy/src/hid/switch.h ****     In order for events not to be missed, its important that the Edge/Pressed checks
  60:../lib/libDaisy/src/hid/switch.h ****     be made at the same rate as the debounce function is being called.
  61:../lib/libDaisy/src/hid/switch.h ****     */
  62:../lib/libDaisy/src/hid/switch.h ****     void Debounce();
  63:../lib/libDaisy/src/hid/switch.h **** 
  64:../lib/libDaisy/src/hid/switch.h ****     /** \return true if a button was just pressed. */
  65:../lib/libDaisy/src/hid/switch.h ****     inline bool RisingEdge() const { return updated_ ? state_ == 0x7f : false; }
 372              		.loc 9 65 17 view .LVU80
 373              	.LBB679:
 374              		.loc 9 65 38 view .LVU81
 375              		.loc 9 65 54 is_stmt 0 view .LVU82
 376 0022 94F81C31 		ldrb	r3, [r4, #284]	@ zero_extendqisi2
 377 0026 002B     		cmp	r3, #0
 378 0028 00F08A80 		beq	.L8
 379              	.LVL10:
 380              		.loc 9 65 54 view .LVU83
 381              	.LBE679:
ARM GAS  /var/folders/hp/45mn71hd0ps5f5pnytxy5bt00000gn/T//ccKbf7aq.s 			page 30


 382              	.LBE678:
 383              		.loc 20 33 32 view .LVU84
 384 002c 94F83431 		ldrb	r3, [r4, #308]	@ zero_extendqisi2
 385 0030 7F2B     		cmp	r3, #127
 386 0032 40F08580 		bne	.L8
 387 0036 824E     		ldr	r6, .L61+16
 388              	.L9:
  34:SynthV8.cpp   ****         ad.Trigger();
 389              		.loc 20 34 9 is_stmt 1 discriminator 5 view .LVU85
 390              	.LVL11:
 391              	.LBB680:
 392              	.LBI680:
  44:../lib/DaisySP/Source/Control/adenv.h ****     /** Initializes the ad envelope.
  45:../lib/DaisySP/Source/Control/adenv.h **** 
  46:../lib/DaisySP/Source/Control/adenv.h ****         Defaults:
  47:../lib/DaisySP/Source/Control/adenv.h ****             - current segment = idle
  48:../lib/DaisySP/Source/Control/adenv.h ****             - curve = linear
  49:../lib/DaisySP/Source/Control/adenv.h ****             - phase = 0
  50:../lib/DaisySP/Source/Control/adenv.h ****             - min = 0
  51:../lib/DaisySP/Source/Control/adenv.h ****             - max = 1
  52:../lib/DaisySP/Source/Control/adenv.h **** 
  53:../lib/DaisySP/Source/Control/adenv.h ****         \param sample_rate      sample rate of the audio engine being run
  54:../lib/DaisySP/Source/Control/adenv.h ****     */
  55:../lib/DaisySP/Source/Control/adenv.h ****     void Init(float sample_rate);
  56:../lib/DaisySP/Source/Control/adenv.h **** 
  57:../lib/DaisySP/Source/Control/adenv.h ****     /** Processes the current sample of the envelope. This should be called once
  58:../lib/DaisySP/Source/Control/adenv.h ****         per sample period.
  59:../lib/DaisySP/Source/Control/adenv.h ****         \return the current envelope value.
  60:../lib/DaisySP/Source/Control/adenv.h ****     */
  61:../lib/DaisySP/Source/Control/adenv.h ****     float Process();
  62:../lib/DaisySP/Source/Control/adenv.h **** 
  63:../lib/DaisySP/Source/Control/adenv.h ****     /** Starts or retriggers the envelope.*/
  64:../lib/DaisySP/Source/Control/adenv.h ****     inline void Trigger() { trigger_ = 1; }
 393              		.loc 17 64 17 discriminator 5 view .LVU86
 394              	.LBB681:
 395              		.loc 17 64 29 discriminator 5 view .LVU87
 396              		.loc 17 64 38 is_stmt 0 discriminator 5 view .LVU88
 397 0038 0123     		movs	r3, #1
 398 003a 86F83430 		strb	r3, [r6, #52]
 399              	.LVL12:
 400              	.L10:
 401              		.loc 17 64 38 discriminator 5 view .LVU89
 402              	.LBE681:
 403              	.LBE680:
  35:SynthV8.cpp   **** 
  36:SynthV8.cpp   ****     if(hw.button2.RisingEdge())
 404              		.loc 20 36 5 is_stmt 1 view .LVU90
 405              	.LBB682:
 406              	.LBI682:
 407              		.loc 9 65 17 view .LVU91
 408              	.LBB683:
 409              		.loc 9 65 38 view .LVU92
 410              		.loc 9 65 54 is_stmt 0 view .LVU93
 411 003e 94F84031 		ldrb	r3, [r4, #320]	@ zero_extendqisi2
 412 0042 23B1     		cbz	r3, .L11
 413              	.LVL13:
 414              		.loc 9 65 54 view .LVU94
ARM GAS  /var/folders/hp/45mn71hd0ps5f5pnytxy5bt00000gn/T//ccKbf7aq.s 			page 31


 415              	.LBE683:
 416              	.LBE682:
 417              		.loc 20 36 5 view .LVU95
 418 0044 94F85831 		ldrb	r3, [r4, #344]	@ zero_extendqisi2
 419 0048 7F2B     		cmp	r3, #127
 420 004a 00F0D980 		beq	.L57
 421              	.L11:
  37:SynthV8.cpp   ****         adCycle = !adCycle;
  38:SynthV8.cpp   **** 
  39:SynthV8.cpp   ****     adRelease = p_release.Process();
 422              		.loc 20 39 5 is_stmt 1 view .LVU96
 423              		.loc 20 39 34 is_stmt 0 view .LVU97
 424 004e 7D48     		ldr	r0, .L61+20
 425 0050 FFF7FEFF 		bl	_ZN5daisy9Parameter7ProcessEv
 426              	.LVL14:
 427              		.loc 20 39 15 view .LVU98
 428 0054 7C4B     		ldr	r3, .L61+24
 429 0056 83ED000A 		vstr.32	s0, [r3]
  40:SynthV8.cpp   ****     
  41:SynthV8.cpp   ****     inc = hw.encoder.Increment();
 430              		.loc 20 41 5 is_stmt 1 view .LVU99
 431              	.LVL15:
 432              	.LBB684:
 433              	.LBI684:
  22:../lib/libDaisy/src/hid/encoder.h **** 
  23:../lib/libDaisy/src/hid/encoder.h ****     /** Initializes the encoder with the specified hardware pins.
  24:../lib/libDaisy/src/hid/encoder.h ****      * Update rate is to be deprecated in a future release
  25:../lib/libDaisy/src/hid/encoder.h ****      */
  26:../lib/libDaisy/src/hid/encoder.h ****     void Init(Pin a, Pin b, Pin click, float update_rate = 0.f);
  27:../lib/libDaisy/src/hid/encoder.h ****     /** Called at update_rate to debounce and handle timing for the switch.
  28:../lib/libDaisy/src/hid/encoder.h ****      * In order for events not to be missed, its important that the Edge/Pressed checks be made at 
  29:../lib/libDaisy/src/hid/encoder.h ****      */
  30:../lib/libDaisy/src/hid/encoder.h ****     void Debounce();
  31:../lib/libDaisy/src/hid/encoder.h **** 
  32:../lib/libDaisy/src/hid/encoder.h ****     /** Returns +1 if the encoder was turned clockwise, -1 if it was turned counter-clockwise, or 0
  33:../lib/libDaisy/src/hid/encoder.h ****     inline int32_t Increment() const { return updated_ ? inc_ : 0; }
 434              		.loc 10 33 20 view .LVU100
 435              	.LBB685:
 436              		.loc 10 33 40 view .LVU101
 437              		.loc 10 33 56 is_stmt 0 view .LVU102
 438 005a 94F87830 		ldrb	r3, [r4, #120]	@ zero_extendqisi2
 439 005e 002B     		cmp	r3, #0
 440 0060 79D1     		bne	.L12
 441              	.LVL16:
 442              	.L16:
 443              		.loc 10 33 56 view .LVU103
 444              	.LBE685:
 445              	.LBE684:
  42:SynthV8.cpp   ****     if(inc > 0)
  43:SynthV8.cpp   ****         volChange += 0.02;
  44:SynthV8.cpp   ****     else if(inc < 0)
  45:SynthV8.cpp   ****         volChange -= 0.02;
  46:SynthV8.cpp   **** 
  47:SynthV8.cpp   ****     if (volChange > 1)
 446              		.loc 20 47 19 view .LVU104
 447 0062 DFF8F891 		ldr	r9, .L61+44
 448 0066 99ED007A 		vldr.32	s14, [r9]
ARM GAS  /var/folders/hp/45mn71hd0ps5f5pnytxy5bt00000gn/T//ccKbf7aq.s 			page 32


 449              	.L13:
 450              		.loc 20 47 5 is_stmt 1 view .LVU105
 451 006a F7EE007A 		vmov.f32	s15, #1.0e+0
 452 006e B4EEE77A 		vcmpe.f32	s14, s15
 453 0072 F1EE10FA 		vmrs	APSR_nzcv, FPSCR
 454 0076 40F38D80 		ble	.L55
 455              	.L60:
  48:SynthV8.cpp   ****         volChange = 1;
 456              		.loc 20 48 9 view .LVU106
 457              		.loc 20 48 19 is_stmt 0 view .LVU107
 458 007a C9ED007A 		vstr.32	s15, [r9]
 459              	.L20:
  49:SynthV8.cpp   ****     else if(volChange < 0)
  50:SynthV8.cpp   ****         volChange = 0;
  51:SynthV8.cpp   **** 
  52:SynthV8.cpp   ****     if(hw.encoder.RisingEdge())
 460              		.loc 20 52 5 is_stmt 1 view .LVU108
 461              	.LVL17:
 462              	.LBB686:
 463              	.LBI686:
  34:../lib/libDaisy/src/hid/encoder.h **** 
  35:../lib/libDaisy/src/hid/encoder.h ****     /** Returns true if the encoder was just pressed. */
  36:../lib/libDaisy/src/hid/encoder.h ****     inline bool RisingEdge() const { return sw_.RisingEdge(); }
 464              		.loc 10 36 17 view .LVU109
 465              	.LBE686:
 466              		.loc 10 36 38 view .LVU110
 467              	.LBB689:
 468              	.LBB687:
 469              	.LBI687:
 470              		.loc 9 65 17 view .LVU111
 471              	.LBB688:
 472              		.loc 9 65 38 view .LVU112
 473              		.loc 9 65 54 is_stmt 0 view .LVU113
 474 007e 94F88030 		ldrb	r3, [r4, #128]	@ zero_extendqisi2
 475 0082 23B1     		cbz	r3, .L22
 476              	.LVL18:
 477              		.loc 9 65 54 view .LVU114
 478              	.LBE688:
 479              	.LBE687:
 480              	.LBE689:
 481              		.loc 20 52 5 view .LVU115
 482 0084 94F89830 		ldrb	r3, [r4, #152]	@ zero_extendqisi2
 483 0088 7F2B     		cmp	r3, #127
 484 008a 00F0B080 		beq	.L58
 485              	.L22:
 486              	.LVL19:
 487              	.LBB690:
  53:SynthV8.cpp   ****         isVolumeOn = !isVolumeOn;
  54:SynthV8.cpp   ****     
  55:SynthV8.cpp   ****     for(size_t i = 0; i < size; i += 2)
 488              		.loc 20 55 25 is_stmt 1 discriminator 3 view .LVU116
 489 008e 002D     		cmp	r5, #0
 490 0090 3BD0     		beq	.L23
 491 0092 013D     		subs	r5, r5, #1
 492              	.LVL20:
 493              		.loc 20 55 25 is_stmt 0 view .LVU117
 494 0094 4FF0000A 		mov	r10, #0
ARM GAS  /var/folders/hp/45mn71hd0ps5f5pnytxy5bt00000gn/T//ccKbf7aq.s 			page 33


 495 0098 694E     		ldr	r6, .L61+16
 496 009a 6D08     		lsrs	r5, r5, #1
 497              	.LVL21:
 498              		.loc 20 55 25 view .LVU118
 499 009c DFF8C081 		ldr	r8, .L61+48
 500 00a0 6A4C     		ldr	r4, .L61+28
 501 00a2 02E0     		b	.L24
 502              	.LVL22:
 503              	.L59:
 504              	.LBB691:
  56:SynthV8.cpp   ****     {
  57:SynthV8.cpp   ****         float sig;
  58:SynthV8.cpp   ****         float adOut;
  59:SynthV8.cpp   **** 
  60:SynthV8.cpp   ****         ad.SetTime(ADENV_SEG_DECAY, adRelease);
 505              		.loc 20 60 19 view .LVU119
 506 00a4 684B     		ldr	r3, .L61+24
 507 00a6 93ED000A 		vldr.32	s0, [r3]
 508              	.LVL23:
 509              	.L24:
  57:SynthV8.cpp   ****         float adOut;
 510              		.loc 20 57 9 is_stmt 1 discriminator 2 view .LVU120
  58:SynthV8.cpp   **** 
 511              		.loc 20 58 9 discriminator 2 view .LVU121
 512              		.loc 20 60 9 discriminator 2 view .LVU122
 513              	.LBB692:
 514              	.LBI692:
  65:../lib/DaisySP/Source/Control/adenv.h ****     /** Sets the length of time (in seconds) for a specific segment. */
  66:../lib/DaisySP/Source/Control/adenv.h ****     inline void SetTime(uint8_t seg, float time) { segment_time_[seg] = time; }
 515              		.loc 17 66 17 discriminator 2 view .LVU123
 516              	.LBB693:
 517              		.loc 17 66 52 discriminator 2 view .LVU124
 518              	.LBE693:
 519              	.LBE692:
  61:SynthV8.cpp   ****         adOut = ad.Process();
 520              		.loc 20 61 27 is_stmt 0 discriminator 2 view .LVU125
 521 00aa 6548     		ldr	r0, .L61+16
 522              	.LBE691:
  55:SynthV8.cpp   ****     {
 523              		.loc 20 55 25 discriminator 2 view .LVU126
 524 00ac 0BF1080B 		add	fp, fp, #8
 525              	.LBB702:
 526              	.LBB695:
 527              	.LBB694:
 528              		.loc 17 66 71 discriminator 2 view .LVU127
 529 00b0 86ED030A 		vstr.32	s0, [r6, #12]
 530              	.LVL24:
 531              		.loc 17 66 71 discriminator 2 view .LVU128
 532              	.LBE694:
 533              	.LBE695:
 534              		.loc 20 61 9 is_stmt 1 discriminator 2 view .LVU129
 535              		.loc 20 61 27 is_stmt 0 discriminator 2 view .LVU130
 536 00b4 FFF7FEFF 		bl	_ZN7daisysp5AdEnv7ProcessEv
 537              	.LVL25:
  62:SynthV8.cpp   ****         totalFreq = 400.0f;
 538              		.loc 20 62 19 discriminator 2 view .LVU131
 539 00b8 DFED657A 		vldr.32	s15, .L61+32
ARM GAS  /var/folders/hp/45mn71hd0ps5f5pnytxy5bt00000gn/T//ccKbf7aq.s 			page 34


  61:SynthV8.cpp   ****         adOut = ad.Process();
 540              		.loc 20 61 27 discriminator 2 view .LVU132
 541 00bc B0EE408A 		vmov.f32	s16, s0
 542              	.LVL26:
 543              		.loc 20 62 9 is_stmt 1 discriminator 2 view .LVU133
 544              		.loc 20 62 19 is_stmt 0 discriminator 2 view .LVU134
 545 00c0 644B     		ldr	r3, .L61+36
 546              	.LBB696:
 547              	.LBB697:
  25:../lib/DaisySP/Source/Synthesis/oscillator.h ****     /** Choices for output waveforms, POLYBLEP are appropriately labeled. Others are naive forms.
  26:../lib/DaisySP/Source/Synthesis/oscillator.h ****     */
  27:../lib/DaisySP/Source/Synthesis/oscillator.h ****     enum
  28:../lib/DaisySP/Source/Synthesis/oscillator.h ****     {
  29:../lib/DaisySP/Source/Synthesis/oscillator.h ****         WAVE_SIN,
  30:../lib/DaisySP/Source/Synthesis/oscillator.h ****         WAVE_TRI,
  31:../lib/DaisySP/Source/Synthesis/oscillator.h ****         WAVE_SAW,
  32:../lib/DaisySP/Source/Synthesis/oscillator.h ****         WAVE_RAMP,
  33:../lib/DaisySP/Source/Synthesis/oscillator.h ****         WAVE_SQUARE,
  34:../lib/DaisySP/Source/Synthesis/oscillator.h ****         WAVE_POLYBLEP_TRI,
  35:../lib/DaisySP/Source/Synthesis/oscillator.h ****         WAVE_POLYBLEP_SAW,
  36:../lib/DaisySP/Source/Synthesis/oscillator.h ****         WAVE_POLYBLEP_SQUARE,
  37:../lib/DaisySP/Source/Synthesis/oscillator.h ****         WAVE_LAST,
  38:../lib/DaisySP/Source/Synthesis/oscillator.h ****     };
  39:../lib/DaisySP/Source/Synthesis/oscillator.h **** 
  40:../lib/DaisySP/Source/Synthesis/oscillator.h **** 
  41:../lib/DaisySP/Source/Synthesis/oscillator.h ****     /** Initializes the Oscillator
  42:../lib/DaisySP/Source/Synthesis/oscillator.h **** 
  43:../lib/DaisySP/Source/Synthesis/oscillator.h ****         \param sample_rate - sample rate of the audio engine being run, and the frequency that the 
  44:../lib/DaisySP/Source/Synthesis/oscillator.h **** 
  45:../lib/DaisySP/Source/Synthesis/oscillator.h ****         Defaults:
  46:../lib/DaisySP/Source/Synthesis/oscillator.h ****         - freq_ = 100 Hz
  47:../lib/DaisySP/Source/Synthesis/oscillator.h ****         - amp_ = 0.5
  48:../lib/DaisySP/Source/Synthesis/oscillator.h ****         - waveform_ = sine wave.
  49:../lib/DaisySP/Source/Synthesis/oscillator.h ****     */
  50:../lib/DaisySP/Source/Synthesis/oscillator.h ****     void Init(float sample_rate)
  51:../lib/DaisySP/Source/Synthesis/oscillator.h ****     {
  52:../lib/DaisySP/Source/Synthesis/oscillator.h ****         sr_        = sample_rate;
  53:../lib/DaisySP/Source/Synthesis/oscillator.h ****         sr_recip_  = 1.0f / sample_rate;
  54:../lib/DaisySP/Source/Synthesis/oscillator.h ****         freq_      = 100.0f;
  55:../lib/DaisySP/Source/Synthesis/oscillator.h ****         amp_       = 0.5f;
  56:../lib/DaisySP/Source/Synthesis/oscillator.h ****         pw_        = 0.5f;
  57:../lib/DaisySP/Source/Synthesis/oscillator.h ****         phase_     = 0.0f;
  58:../lib/DaisySP/Source/Synthesis/oscillator.h ****         phase_inc_ = CalcPhaseInc(freq_);
  59:../lib/DaisySP/Source/Synthesis/oscillator.h ****         waveform_  = WAVE_SIN;
  60:../lib/DaisySP/Source/Synthesis/oscillator.h ****         eoc_       = true;
  61:../lib/DaisySP/Source/Synthesis/oscillator.h ****         eor_       = true;
  62:../lib/DaisySP/Source/Synthesis/oscillator.h ****     }
  63:../lib/DaisySP/Source/Synthesis/oscillator.h **** 
  64:../lib/DaisySP/Source/Synthesis/oscillator.h **** 
  65:../lib/DaisySP/Source/Synthesis/oscillator.h ****     /** Changes the frequency of the Oscillator, and recalculates phase increment.
  66:../lib/DaisySP/Source/Synthesis/oscillator.h ****     */
  67:../lib/DaisySP/Source/Synthesis/oscillator.h ****     inline void SetFreq(const float f)
  68:../lib/DaisySP/Source/Synthesis/oscillator.h ****     {
  69:../lib/DaisySP/Source/Synthesis/oscillator.h ****         freq_      = f;
  70:../lib/DaisySP/Source/Synthesis/oscillator.h ****         phase_inc_ = CalcPhaseInc(f);
 548              		.loc 18 70 34 discriminator 2 view .LVU135
 549 00c2 B0EE670A 		vmov.f32	s0, s15
ARM GAS  /var/folders/hp/45mn71hd0ps5f5pnytxy5bt00000gn/T//ccKbf7aq.s 			page 35


 550              	.LVL27:
 551              		.loc 18 70 34 discriminator 2 view .LVU136
 552 00c6 6148     		ldr	r0, .L61+28
 553              	.LBE697:
 554              	.LBE696:
 555              		.loc 20 62 19 discriminator 2 view .LVU137
 556 00c8 C3ED007A 		vstr.32	s15, [r3]
  63:SynthV8.cpp   ****         osc.SetFreq(totalFreq);
 557              		.loc 20 63 9 is_stmt 1 discriminator 2 view .LVU138
 558              	.LVL28:
 559              	.LBB700:
 560              	.LBI696:
  67:../lib/DaisySP/Source/Synthesis/oscillator.h ****     {
 561              		.loc 18 67 17 discriminator 2 view .LVU139
 562              	.LBB698:
  69:../lib/DaisySP/Source/Synthesis/oscillator.h ****         phase_inc_ = CalcPhaseInc(f);
 563              		.loc 18 69 9 discriminator 2 view .LVU140
  69:../lib/DaisySP/Source/Synthesis/oscillator.h ****         phase_inc_ = CalcPhaseInc(f);
 564              		.loc 18 69 20 is_stmt 0 discriminator 2 view .LVU141
 565 00cc C4ED027A 		vstr.32	s15, [r4, #8]
 566              		.loc 18 70 9 is_stmt 1 discriminator 2 view .LVU142
 567              		.loc 18 70 34 is_stmt 0 discriminator 2 view .LVU143
 568 00d0 FFF7FEFF 		bl	_ZN7daisysp10Oscillator12CalcPhaseIncEf
 569              	.LVL29:
 570              	.LBE698:
 571              	.LBE700:
  64:SynthV8.cpp   ****         sig = osc.Process();
 572              		.loc 20 64 26 discriminator 2 view .LVU144
 573 00d4 5D48     		ldr	r0, .L61+28
 574              	.LBB701:
 575              	.LBB699:
 576              		.loc 18 70 20 discriminator 2 view .LVU145
 577 00d6 84ED070A 		vstr.32	s0, [r4, #28]
 578              	.LVL30:
 579              		.loc 18 70 20 discriminator 2 view .LVU146
 580              	.LBE699:
 581              	.LBE701:
 582              		.loc 20 64 9 is_stmt 1 discriminator 2 view .LVU147
 583              		.loc 20 64 26 is_stmt 0 discriminator 2 view .LVU148
 584 00da FFF7FEFF 		bl	_ZN7daisysp10Oscillator7ProcessEv
 585              	.LVL31:
  65:SynthV8.cpp   ****         sig *= adOut;
 586              		.loc 20 65 9 is_stmt 1 discriminator 2 view .LVU149
  66:SynthV8.cpp   ****         sig *= volChange;
  67:SynthV8.cpp   ****         sig *= isVolumeOn;
 587              		.loc 20 67 13 is_stmt 0 discriminator 2 view .LVU150
 588 00de 98F80030 		ldrb	r3, [r8]	@ zero_extendqisi2
  65:SynthV8.cpp   ****         sig *= adOut;
 589              		.loc 20 65 13 discriminator 2 view .LVU151
 590 00e2 28EE000A 		vmul.f32	s0, s16, s0
 591              	.LVL32:
  66:SynthV8.cpp   ****         sig *= volChange;
 592              		.loc 20 66 9 is_stmt 1 discriminator 2 view .LVU152
  66:SynthV8.cpp   ****         sig *= volChange;
 593              		.loc 20 66 13 is_stmt 0 discriminator 2 view .LVU153
 594 00e6 D9ED007A 		vldr.32	s15, [r9]
 595              	.LBE702:
ARM GAS  /var/folders/hp/45mn71hd0ps5f5pnytxy5bt00000gn/T//ccKbf7aq.s 			page 36


  55:SynthV8.cpp   ****     {
 596              		.loc 20 55 25 discriminator 2 view .LVU154
 597 00ea AA45     		cmp	r10, r5
 598              	.LBB703:
 599              		.loc 20 67 13 discriminator 2 view .LVU155
 600 00ec 07EE103A 		vmov	s14, r3	@ int
 601 00f0 0AF1010A 		add	r10, r10, #1
 602              	.LVL33:
  66:SynthV8.cpp   ****         sig *= volChange;
 603              		.loc 20 66 13 discriminator 2 view .LVU156
 604 00f4 20EE270A 		vmul.f32	s0, s0, s15
 605              	.LVL34:
 606              		.loc 20 67 9 is_stmt 1 discriminator 2 view .LVU157
 607              		.loc 20 67 13 is_stmt 0 discriminator 2 view .LVU158
 608 00f8 B8EEC78A 		vcvt.f32.s32	s16, s14
 609              	.LVL35:
 610              		.loc 20 67 13 discriminator 2 view .LVU159
 611 00fc 28EE000A 		vmul.f32	s0, s16, s0
 612              	.LVL36:
  68:SynthV8.cpp   ****         out[i] = sig;
 613              		.loc 20 68 9 is_stmt 1 discriminator 2 view .LVU160
 614              		.loc 20 68 16 is_stmt 0 discriminator 2 view .LVU161
 615 0100 0BED020A 		vstr.32	s0, [fp, #-8]
  69:SynthV8.cpp   ****         out[i + 1] = sig;
 616              		.loc 20 69 9 is_stmt 1 discriminator 2 view .LVU162
 617              		.loc 20 69 20 is_stmt 0 discriminator 2 view .LVU163
 618 0104 0BED010A 		vstr.32	s0, [fp, #-4]
 619              	.LBE703:
  55:SynthV8.cpp   ****     {
 620              		.loc 20 55 5 is_stmt 1 discriminator 2 view .LVU164
 621              	.LVL37:
  55:SynthV8.cpp   ****     {
 622              		.loc 20 55 25 discriminator 2 view .LVU165
 623 0108 CCD1     		bne	.L59
 624              	.LVL38:
 625              	.L23:
  55:SynthV8.cpp   ****     {
 626              		.loc 20 55 25 is_stmt 0 discriminator 2 view .LVU166
 627              	.LBE690:
  70:SynthV8.cpp   ****     }
  71:SynthV8.cpp   ****     cpu_meter.OnBlockEnd();
 628              		.loc 20 71 5 is_stmt 1 view .LVU167
 629              	.LBB704:
 630              	.LBI704:
  50:../lib/libDaisy/src/util/CpuLoadMeter.h **** 
  51:../lib/libDaisy/src/util/CpuLoadMeter.h ****     /** Call this at the end of your audio callback */
  52:../lib/libDaisy/src/util/CpuLoadMeter.h ****     void OnBlockEnd()
 631              		.loc 21 52 10 view .LVU168
 632              	.LBB705:
  53:../lib/libDaisy/src/util/CpuLoadMeter.h ****     {
  54:../lib/libDaisy/src/util/CpuLoadMeter.h ****         const auto end         = System::GetTick();
 633              		.loc 21 54 9 view .LVU169
 634              		.loc 21 54 49 is_stmt 0 view .LVU170
 635 010a FFF7FEFF 		bl	_ZN5daisy6System7GetTickEv
 636              	.LVL39:
  55:../lib/libDaisy/src/util/CpuLoadMeter.h ****         const auto ticksPassed = end - currentBlockStartTicks_;
 637              		.loc 21 55 9 is_stmt 1 view .LVU171
ARM GAS  /var/folders/hp/45mn71hd0ps5f5pnytxy5bt00000gn/T//ccKbf7aq.s 			page 37


  56:../lib/libDaisy/src/util/CpuLoadMeter.h ****         const auto currentBlockLoad
 638              		.loc 21 56 9 view .LVU172
  55:../lib/libDaisy/src/util/CpuLoadMeter.h ****         const auto ticksPassed = end - currentBlockStartTicks_;
 639              		.loc 21 55 20 is_stmt 0 view .LVU173
 640 010e BA68     		ldr	r2, [r7, #8]
 641              		.loc 21 56 20 view .LVU174
 642 0110 97ED017A 		vldr.32	s14, [r7, #4]
  55:../lib/libDaisy/src/util/CpuLoadMeter.h ****         const auto ticksPassed = end - currentBlockStartTicks_;
 643              		.loc 21 55 20 view .LVU175
 644 0114 821A     		subs	r2, r0, r2
 645              	.LVL40:
  57:../lib/libDaisy/src/util/CpuLoadMeter.h ****             = float(ticksPassed) * ticksPerBlockInv_; // usPassed / usPerBlock
  58:../lib/libDaisy/src/util/CpuLoadMeter.h **** 
  59:../lib/libDaisy/src/util/CpuLoadMeter.h ****         if(firstCycle_)
 646              		.loc 21 59 9 view .LVU176
 647 0116 3B78     		ldrb	r3, [r7]	@ zero_extendqisi2
  55:../lib/libDaisy/src/util/CpuLoadMeter.h ****         const auto currentBlockLoad
 648              		.loc 21 55 20 view .LVU177
 649 0118 07EE902A 		vmov	s15, r2	@ int
  57:../lib/libDaisy/src/util/CpuLoadMeter.h ****             = float(ticksPassed) * ticksPerBlockInv_; // usPassed / usPerBlock
 650              		.loc 21 57 15 view .LVU178
 651 011c F8EE677A 		vcvt.f32.u32	s15, s15
  56:../lib/libDaisy/src/util/CpuLoadMeter.h ****         const auto currentBlockLoad
 652              		.loc 21 56 20 view .LVU179
 653 0120 67EE877A 		vmul.f32	s15, s15, s14
 654              	.LVL41:
 655              		.loc 21 59 9 is_stmt 1 view .LVU180
 656 0124 002B     		cmp	r3, #0
 657 0126 3ED0     		beq	.L25
  60:../lib/libDaisy/src/util/CpuLoadMeter.h ****         {
  61:../lib/libDaisy/src/util/CpuLoadMeter.h ****             max_ = min_ = avg_ = currentBlockLoad;
 658              		.loc 21 61 13 view .LVU181
  62:../lib/libDaisy/src/util/CpuLoadMeter.h ****             firstCycle_        = false;
 659              		.loc 21 62 32 is_stmt 0 view .LVU182
 660 0128 0023     		movs	r3, #0
  61:../lib/libDaisy/src/util/CpuLoadMeter.h ****             firstCycle_        = false;
 661              		.loc 21 61 32 view .LVU183
 662 012a C7ED057A 		vstr.32	s15, [r7, #20]
  61:../lib/libDaisy/src/util/CpuLoadMeter.h ****             firstCycle_        = false;
 663              		.loc 21 61 25 view .LVU184
 664 012e C7ED037A 		vstr.32	s15, [r7, #12]
  61:../lib/libDaisy/src/util/CpuLoadMeter.h ****             firstCycle_        = false;
 665              		.loc 21 61 18 view .LVU185
 666 0132 C7ED047A 		vstr.32	s15, [r7, #16]
 667              		.loc 21 62 13 is_stmt 1 view .LVU186
 668              		.loc 21 62 32 is_stmt 0 view .LVU187
 669 0136 3B70     		strb	r3, [r7]
 670              	.LBE705:
 671              	.LBE704:
  72:SynthV8.cpp   **** }
 672              		.loc 20 72 1 view .LVU188
 673 0138 BDEC028B 		vldm	sp!, {d8}
 674              		.cfi_remember_state
 675              		.cfi_restore 80
 676              		.cfi_restore 81
 677              		.cfi_def_cfa_offset 40
 678 013c BDE8F88F 		pop	{r3, r4, r5, r6, r7, r8, r9, r10, fp, pc}
ARM GAS  /var/folders/hp/45mn71hd0ps5f5pnytxy5bt00000gn/T//ccKbf7aq.s 			page 38


 679              	.LVL42:
 680              	.L8:
 681              		.cfi_restore_state
  33:SynthV8.cpp   ****         ad.Trigger();
 682              		.loc 20 33 32 discriminator 2 view .LVU189
 683 0140 454B     		ldr	r3, .L61+40
 684 0142 1B78     		ldrb	r3, [r3]	@ zero_extendqisi2
 685 0144 002B     		cmp	r3, #0
 686 0146 3FF47AAF 		beq	.L10
 687              	.LVL43:
 688              	.LBB708:
 689              	.LBI708:
  67:../lib/DaisySP/Source/Control/adenv.h ****     /** Sets the amount of curve applied. A positve value will create a log
  68:../lib/DaisySP/Source/Control/adenv.h ****         curve. Input range: -100 to 100.  (or more)
  69:../lib/DaisySP/Source/Control/adenv.h ****     */
  70:../lib/DaisySP/Source/Control/adenv.h ****     inline void SetCurve(float scalar) { curve_scalar_ = scalar; }
  71:../lib/DaisySP/Source/Control/adenv.h ****     /** Sets the minimum value of the envelope output.
  72:../lib/DaisySP/Source/Control/adenv.h ****         Input range: -FLTmax_, to FLTmax_
  73:../lib/DaisySP/Source/Control/adenv.h ****     */
  74:../lib/DaisySP/Source/Control/adenv.h ****     inline void SetMin(float min) { min_ = min; }
  75:../lib/DaisySP/Source/Control/adenv.h ****     /** Sets the maximum value of the envelope output.
  76:../lib/DaisySP/Source/Control/adenv.h ****         Input range: -FLTmax_, to FLTmax_
  77:../lib/DaisySP/Source/Control/adenv.h ****     */
  78:../lib/DaisySP/Source/Control/adenv.h ****     inline void SetMax(float max) { max_ = max; }
  79:../lib/DaisySP/Source/Control/adenv.h ****     /** Returns the current output value without processing the next sample */
  80:../lib/DaisySP/Source/Control/adenv.h ****     inline float GetValue() const { return (output_ * (max_ - min_)) + min_; }
  81:../lib/DaisySP/Source/Control/adenv.h ****     /** Returns the segment of the envelope that the phase is currently located
  82:../lib/DaisySP/Source/Control/adenv.h ****         in.
  83:../lib/DaisySP/Source/Control/adenv.h ****     */
  84:../lib/DaisySP/Source/Control/adenv.h ****     inline uint8_t GetCurrentSegment() { return current_segment_; }
  85:../lib/DaisySP/Source/Control/adenv.h ****     /** Returns true if the envelope is currently in any stage apart from idle.
  86:../lib/DaisySP/Source/Control/adenv.h ****     */
  87:../lib/DaisySP/Source/Control/adenv.h ****     inline bool IsRunning() const { return current_segment_ != ADENV_SEG_IDLE; }
 690              		.loc 17 87 17 is_stmt 1 view .LVU190
 691              	.LBB709:
 692              		.loc 17 87 37 view .LVU191
 693              		.loc 17 87 44 is_stmt 0 view .LVU192
 694 014a 3D4E     		ldr	r6, .L61+16
 695              	.LBE709:
 696              	.LBE708:
  33:SynthV8.cpp   ****         ad.Trigger();
 697              		.loc 20 33 44 view .LVU193
 698 014c 3378     		ldrb	r3, [r6]	@ zero_extendqisi2
 699 014e 002B     		cmp	r3, #0
 700 0150 7FF475AF 		bne	.L10
 701 0154 70E7     		b	.L9
 702              	.LVL44:
 703              	.L12:
  41:SynthV8.cpp   ****     if(inc > 0)
 704              		.loc 20 41 9 view .LVU194
 705 0156 D4ED337A 		vldr.32	s15, [r4, #204]	@ int
 706 015a F8EEE77A 		vcvt.f32.s32	s15, s15
  42:SynthV8.cpp   ****         volChange += 0.02;
 707              		.loc 20 42 5 is_stmt 1 view .LVU195
 708 015e F5EEC07A 		vcmpe.f32	s15, #0
 709 0162 F1EE10FA 		vmrs	APSR_nzcv, FPSCR
 710 0166 51DD     		ble	.L54
ARM GAS  /var/folders/hp/45mn71hd0ps5f5pnytxy5bt00000gn/T//ccKbf7aq.s 			page 39


  43:SynthV8.cpp   ****     else if(inc < 0)
 711              		.loc 20 43 9 view .LVU196
  43:SynthV8.cpp   ****     else if(inc < 0)
 712              		.loc 20 43 19 is_stmt 0 view .LVU197
 713 0168 DFF8F090 		ldr	r9, .L61+44
 714 016c 99ED007A 		vldr.32	s14, [r9]
 715 0170 9FED2F6B 		vldr.64	d6, .L61
 716 0174 B7EEC77A 		vcvt.f64.f32	d7, s14
 717 0178 37EE067B 		vadd.f64	d7, d7, d6
 718 017c B7EEC77B 		vcvt.f32.f64	s14, d7
  47:SynthV8.cpp   ****         volChange = 1;
 719              		.loc 20 47 5 view .LVU198
 720 0180 F7EE007A 		vmov.f32	s15, #1.0e+0
  43:SynthV8.cpp   ****     else if(inc < 0)
 721              		.loc 20 43 19 view .LVU199
 722 0184 89ED007A 		vstr.32	s14, [r9]
  47:SynthV8.cpp   ****         volChange = 1;
 723              		.loc 20 47 5 is_stmt 1 view .LVU200
 724 0188 B4EEE77A 		vcmpe.f32	s14, s15
 725 018c F1EE10FA 		vmrs	APSR_nzcv, FPSCR
 726 0190 3FF773AF 		bgt	.L60
 727              	.L55:
  49:SynthV8.cpp   ****         volChange = 0;
 728              		.loc 20 49 10 view .LVU201
 729 0194 B5EEC07A 		vcmpe.f32	s14, #0
 730 0198 0023     		movs	r3, #0
 731 019a F1EE10FA 		vmrs	APSR_nzcv, FPSCR
  50:SynthV8.cpp   **** 
 732              		.loc 20 50 9 view .LVU202
  50:SynthV8.cpp   **** 
 733              		.loc 20 50 19 is_stmt 0 view .LVU203
 734 019e 48BF     		it	mi
 735 01a0 C9F80030 		strmi	r3, [r9]	@ float
 736 01a4 6BE7     		b	.L20
 737              	.LVL45:
 738              	.L25:
 739              	.LBB710:
 740              	.LBB706:
  63:../lib/libDaisy/src/util/CpuLoadMeter.h ****         }
  64:../lib/libDaisy/src/util/CpuLoadMeter.h ****         else
  65:../lib/libDaisy/src/util/CpuLoadMeter.h ****         {
  66:../lib/libDaisy/src/util/CpuLoadMeter.h ****             if(currentBlockLoad > max_)
 741              		.loc 21 66 13 is_stmt 1 view .LVU204
 742 01a6 97ED047A 		vldr.32	s14, [r7, #16]
  67:../lib/libDaisy/src/util/CpuLoadMeter.h ****                 max_ = currentBlockLoad;
  68:../lib/libDaisy/src/util/CpuLoadMeter.h ****             if(currentBlockLoad < min_)
  69:../lib/libDaisy/src/util/CpuLoadMeter.h ****                 min_ = currentBlockLoad;
  70:../lib/libDaisy/src/util/CpuLoadMeter.h **** 
  71:../lib/libDaisy/src/util/CpuLoadMeter.h ****             avg_ = smoothingConstant_ * currentBlockLoad
 743              		.loc 21 71 20 is_stmt 0 view .LVU205
 744 01aa D7ED066A 		vldr.32	s13, [r7, #24]
  66:../lib/libDaisy/src/util/CpuLoadMeter.h ****                 max_ = currentBlockLoad;
 745              		.loc 21 66 13 view .LVU206
 746 01ae F4EEC77A 		vcmpe.f32	s15, s14
  68:../lib/libDaisy/src/util/CpuLoadMeter.h ****                 min_ = currentBlockLoad;
 747              		.loc 21 68 13 view .LVU207
 748 01b2 97ED037A 		vldr.32	s14, [r7, #12]
ARM GAS  /var/folders/hp/45mn71hd0ps5f5pnytxy5bt00000gn/T//ccKbf7aq.s 			page 40


  72:../lib/libDaisy/src/util/CpuLoadMeter.h ****                    + (1.0f - smoothingConstant_) * avg_;
 749              		.loc 21 72 50 view .LVU208
 750 01b6 97ED056A 		vldr.32	s12, [r7, #20]
  66:../lib/libDaisy/src/util/CpuLoadMeter.h ****                 max_ = currentBlockLoad;
 751              		.loc 21 66 13 view .LVU209
 752 01ba F1EE10FA 		vmrs	APSR_nzcv, FPSCR
  67:../lib/libDaisy/src/util/CpuLoadMeter.h ****             if(currentBlockLoad < min_)
 753              		.loc 21 67 17 is_stmt 1 view .LVU210
  68:../lib/libDaisy/src/util/CpuLoadMeter.h ****                 min_ = currentBlockLoad;
 754              		.loc 21 68 13 is_stmt 0 view .LVU211
 755 01be F4EEC77A 		vcmpe.f32	s15, s14
 756              		.loc 21 72 28 view .LVU212
 757 01c2 B7EE007A 		vmov.f32	s14, #1.0e+0
  67:../lib/libDaisy/src/util/CpuLoadMeter.h ****             if(currentBlockLoad < min_)
 758              		.loc 21 67 22 view .LVU213
 759 01c6 C8BF     		it	gt
 760 01c8 C7ED047A 		vstrgt.32	s15, [r7, #16]
  68:../lib/libDaisy/src/util/CpuLoadMeter.h ****                 min_ = currentBlockLoad;
 761              		.loc 21 68 13 is_stmt 1 view .LVU214
 762 01cc F1EE10FA 		vmrs	APSR_nzcv, FPSCR
  69:../lib/libDaisy/src/util/CpuLoadMeter.h **** 
 763              		.loc 21 69 17 view .LVU215
 764              		.loc 21 72 28 is_stmt 0 view .LVU216
 765 01d0 37EE667A 		vsub.f32	s14, s14, s13
 766              	.LBE706:
 767              	.LBE710:
 768              		.loc 20 72 1 view .LVU217
 769 01d4 BDEC028B 		vldm	sp!, {d8}
 770              		.cfi_remember_state
 771              		.cfi_restore 80
 772              		.cfi_restore 81
 773              		.cfi_def_cfa_offset 40
 774              	.LBB711:
 775              	.LBB707:
 776              		.loc 21 72 50 view .LVU218
 777 01d8 27EE067A 		vmul.f32	s14, s14, s12
  69:../lib/libDaisy/src/util/CpuLoadMeter.h **** 
 778              		.loc 21 69 22 view .LVU219
 779 01dc 48BF     		it	mi
 780 01de C7ED037A 		vstrmi.32	s15, [r7, #12]
  71:../lib/libDaisy/src/util/CpuLoadMeter.h ****                    + (1.0f - smoothingConstant_) * avg_;
 781              		.loc 21 71 13 is_stmt 1 view .LVU220
 782              		.loc 21 72 20 is_stmt 0 view .LVU221
 783 01e2 A7EEA67A 		vfma.f32	s14, s15, s13
  71:../lib/libDaisy/src/util/CpuLoadMeter.h ****                    + (1.0f - smoothingConstant_) * avg_;
 784              		.loc 21 71 18 view .LVU222
 785 01e6 87ED057A 		vstr.32	s14, [r7, #20]
 786              	.LVL46:
  71:../lib/libDaisy/src/util/CpuLoadMeter.h ****                    + (1.0f - smoothingConstant_) * avg_;
 787              		.loc 21 71 18 view .LVU223
 788              	.LBE707:
 789              	.LBE711:
 790              		.loc 20 72 1 view .LVU224
 791 01ea BDE8F88F 		pop	{r3, r4, r5, r6, r7, r8, r9, r10, fp, pc}
 792              	.LVL47:
 793              	.L58:
 794              		.cfi_restore_state
ARM GAS  /var/folders/hp/45mn71hd0ps5f5pnytxy5bt00000gn/T//ccKbf7aq.s 			page 41


  53:SynthV8.cpp   ****     
 795              		.loc 20 53 9 is_stmt 1 view .LVU225
  53:SynthV8.cpp   ****     
 796              		.loc 20 53 20 is_stmt 0 view .LVU226
 797 01ee DFF87080 		ldr	r8, .L61+48
  53:SynthV8.cpp   ****     
 798              		.loc 20 53 22 view .LVU227
 799 01f2 98F80030 		ldrb	r3, [r8]	@ zero_extendqisi2
 800 01f6 83F00103 		eor	r3, r3, #1
  53:SynthV8.cpp   ****     
 801              		.loc 20 53 20 view .LVU228
 802 01fa 88F80030 		strb	r3, [r8]
 803 01fe 46E7     		b	.L22
 804              	.L57:
  37:SynthV8.cpp   **** 
 805              		.loc 20 37 9 is_stmt 1 view .LVU229
  37:SynthV8.cpp   **** 
 806              		.loc 20 37 17 is_stmt 0 view .LVU230
 807 0200 154A     		ldr	r2, .L61+40
  37:SynthV8.cpp   **** 
 808              		.loc 20 37 19 view .LVU231
 809 0202 1378     		ldrb	r3, [r2]	@ zero_extendqisi2
 810 0204 83F00103 		eor	r3, r3, #1
  37:SynthV8.cpp   **** 
 811              		.loc 20 37 17 view .LVU232
 812 0208 1370     		strb	r3, [r2]
 813 020a 20E7     		b	.L11
 814              	.L54:
  44:SynthV8.cpp   ****         volChange -= 0.02;
 815              		.loc 20 44 10 is_stmt 1 view .LVU233
 816 020c 7FF529AF 		bpl	.L16
  45:SynthV8.cpp   **** 
 817              		.loc 20 45 9 view .LVU234
  45:SynthV8.cpp   **** 
 818              		.loc 20 45 19 is_stmt 0 view .LVU235
 819 0210 DFF84890 		ldr	r9, .L61+44
 820 0214 99ED007A 		vldr.32	s14, [r9]
 821 0218 9FED056B 		vldr.64	d6, .L61
 822 021c B7EEC77A 		vcvt.f64.f32	d7, s14
 823 0220 37EE467B 		vsub.f64	d7, d7, d6
 824 0224 B7EEC77B 		vcvt.f32.f64	s14, d7
 825 0228 89ED007A 		vstr.32	s14, [r9]
 826 022c 1DE7     		b	.L13
 827              	.L62:
 828 022e 00BF     		.align	3
 829              	.L61:
 830 0230 7B14AE47 		.word	1202590843
 831 0234 E17A943F 		.word	1066695393
 832 0238 00000000 		.word	_ZL2hw
 833 023c 00000000 		.word	.LANCHOR0
 834 0240 00000000 		.word	.LANCHOR2
 835 0244 00000000 		.word	.LANCHOR3
 836 0248 00000000 		.word	.LANCHOR4
 837 024c 00000000 		.word	.LANCHOR8
 838 0250 0000C843 		.word	1137180672
 839 0254 00000000 		.word	.LANCHOR7
 840 0258 00000000 		.word	.LANCHOR1
ARM GAS  /var/folders/hp/45mn71hd0ps5f5pnytxy5bt00000gn/T//ccKbf7aq.s 			page 42


 841 025c 00000000 		.word	.LANCHOR5
 842 0260 00000000 		.word	.LANCHOR6
 843              		.cfi_endproc
 844              	.LFE5027:
 846              		.section	.rodata.main.str1.4,"aMS",%progbits,1
 847              		.align	2
 848              	.LC0:
 849 0000 50726F63 		.ascii	"Processing Load %:\000"
 849      65737369 
 849      6E67204C 
 849      6F616420 
 849      253A00
 850 0013 00       		.align	2
 851              	.LC1:
 852 0014 4D61783A 		.ascii	"Max: %c%d.%03d\000"
 852      20256325 
 852      642E2530 
 852      336400
 853 0023 00       		.align	2
 854              	.LC2:
 855 0024 4176673A 		.ascii	"Avg: %c%d.%03d\000"
 855      20256325 
 855      642E2530 
 855      336400
 856 0033 00       		.align	2
 857              	.LC3:
 858 0034 4D696E3A 		.ascii	"Min: %c%d.%03d\000"
 858      20256325 
 858      642E2530 
 858      336400
 859              		.section	.text.startup.main,"ax",%progbits
 860              		.align	1
 861              		.p2align 2,,3
 862              		.global	main
 863              		.syntax unified
 864              		.thumb
 865              		.thumb_func
 867              	main:
 868              	.LFB5028:
  73:SynthV8.cpp   **** int main(void)
  74:SynthV8.cpp   **** {
 869              		.loc 20 74 1 is_stmt 1 view -0
 870              		.cfi_startproc
 871              		@ args = 0, pretend = 0, frame = 32
 872              		@ frame_needed = 0, uses_anonymous_args = 0
  75:SynthV8.cpp   ****     float samplerate;
 873              		.loc 20 75 5 view .LVU237
  76:SynthV8.cpp   **** 
  77:SynthV8.cpp   ****     hw.Init();
 874              		.loc 20 77 5 view .LVU238
  74:SynthV8.cpp   ****     float samplerate;
 875              		.loc 20 74 1 is_stmt 0 view .LVU239
 876 0000 F0B5     		push	{r4, r5, r6, r7, lr}
 877              		.cfi_def_cfa_offset 20
 878              		.cfi_offset 4, -20
 879              		.cfi_offset 5, -16
 880              		.cfi_offset 6, -12
ARM GAS  /var/folders/hp/45mn71hd0ps5f5pnytxy5bt00000gn/T//ccKbf7aq.s 			page 43


 881              		.cfi_offset 7, -8
 882              		.cfi_offset 14, -4
 883              		.loc 20 77 12 view .LVU240
 884 0002 0021     		movs	r1, #0
 885 0004 8C48     		ldr	r0, .L72+8
 886              	.LBB759:
 887              	.LBB760:
  52:../lib/DaisySP/Source/Synthesis/oscillator.h ****         sr_recip_  = 1.0f / sample_rate;
 888              		.loc 18 52 20 view .LVU241
 889 0006 8D4D     		ldr	r5, .L72+12
 890              	.LBE760:
 891              	.LBE759:
 892              	.LBB769:
 893              	.LBB770:
 894              	.LBB771:
 895              	.LBB772:
  73:../lib/libDaisy/src/util/CpuLoadMeter.h ****         }
  74:../lib/libDaisy/src/util/CpuLoadMeter.h ****     }
  75:../lib/libDaisy/src/util/CpuLoadMeter.h **** 
  76:../lib/libDaisy/src/util/CpuLoadMeter.h ****     /** Returns the smoothed average CPU load in the range 0..1 */
  77:../lib/libDaisy/src/util/CpuLoadMeter.h ****     float GetAvgCpuLoad() const { return avg_; }
  78:../lib/libDaisy/src/util/CpuLoadMeter.h ****     /** Returns the minimun CPU load observed since the last call to Reset(). */
  79:../lib/libDaisy/src/util/CpuLoadMeter.h ****     float GetMinCpuLoad() const { return min_; }
  80:../lib/libDaisy/src/util/CpuLoadMeter.h ****     /** Returns the maximum CPU load observed since the last call to Reset(). */
  81:../lib/libDaisy/src/util/CpuLoadMeter.h ****     float GetMaxCpuLoad() const { return max_; }
  82:../lib/libDaisy/src/util/CpuLoadMeter.h **** 
  83:../lib/libDaisy/src/util/CpuLoadMeter.h ****     /** Resets the minimun, maximum and average load readings. */
  84:../lib/libDaisy/src/util/CpuLoadMeter.h ****     void Reset()
  85:../lib/libDaisy/src/util/CpuLoadMeter.h ****     {
  86:../lib/libDaisy/src/util/CpuLoadMeter.h ****         firstCycle_ = true;
 896              		.loc 21 86 21 view .LVU242
 897 0008 0126     		movs	r6, #1
 898              	.LBE772:
 899              	.LBE771:
  35:../lib/libDaisy/src/util/CpuLoadMeter.h **** 
 900              		.loc 21 35 32 view .LVU243
 901 000a 8D4C     		ldr	r4, .L72+16
 902              	.LBE770:
 903              	.LBE769:
  78:SynthV8.cpp   ****     hw.SetAudioBlockSize(4);
  79:SynthV8.cpp   ****     samplerate = hw.AudioSampleRate();
  80:SynthV8.cpp   **** 
  81:SynthV8.cpp   ****     hw.seed.StartLog();
  82:SynthV8.cpp   ****     cpu_meter.Init(hw.AudioSampleRate(), hw.AudioBlockSize());
  83:SynthV8.cpp   **** 
  84:SynthV8.cpp   ****     volChange = 0.5;
  85:SynthV8.cpp   ****     isVolumeOn = true;
  86:SynthV8.cpp   ****     inc = 0;
  87:SynthV8.cpp   **** 
  88:SynthV8.cpp   ****     osc.Init(samplerate);
  89:SynthV8.cpp   ****     osc.SetWaveform(osc.WAVE_TRI);
  90:SynthV8.cpp   ****     osc.SetAmp(0.1f);
  91:SynthV8.cpp   **** 
  92:SynthV8.cpp   ****     ad.Init(samplerate);
 904              		.loc 20 92 12 view .LVU244
 905 000c 8D4F     		ldr	r7, .L72+20
  74:SynthV8.cpp   ****     float samplerate;
ARM GAS  /var/folders/hp/45mn71hd0ps5f5pnytxy5bt00000gn/T//ccKbf7aq.s 			page 44


 906              		.loc 20 74 1 view .LVU245
 907 000e 2DED088B 		vpush.64	{d8, d9, d10, d11}
 908              		.cfi_def_cfa_offset 52
 909              		.cfi_offset 80, -52
 910              		.cfi_offset 81, -48
 911              		.cfi_offset 82, -44
 912              		.cfi_offset 83, -40
 913              		.cfi_offset 84, -36
 914              		.cfi_offset 85, -32
 915              		.cfi_offset 86, -28
 916              		.cfi_offset 87, -24
 917 0012 89B0     		sub	sp, sp, #36
 918              		.cfi_def_cfa_offset 88
 919              	.LBB792:
 920              	.LBB783:
  35:../lib/libDaisy/src/util/CpuLoadMeter.h **** 
 921              		.loc 21 35 39 view .LVU246
 922 0014 B7EE008A 		vmov.f32	s16, #1.0e+0
 923              	.LBE783:
 924              	.LBE792:
  77:SynthV8.cpp   ****     hw.SetAudioBlockSize(4);
 925              		.loc 20 77 12 view .LVU247
 926 0018 FFF7FEFF 		bl	_ZN5daisy8DaisyPod4InitEb
 927              	.LVL48:
  78:SynthV8.cpp   ****     hw.SetAudioBlockSize(4);
 928              		.loc 20 78 5 is_stmt 1 view .LVU248
  78:SynthV8.cpp   ****     hw.SetAudioBlockSize(4);
 929              		.loc 20 78 25 is_stmt 0 view .LVU249
 930 001c 0421     		movs	r1, #4
 931 001e 8648     		ldr	r0, .L72+8
  84:SynthV8.cpp   ****     isVolumeOn = true;
 932              		.loc 20 84 15 view .LVU250
 933 0020 B6EE009A 		vmov.f32	s18, #5.0e-1
  78:SynthV8.cpp   ****     samplerate = hw.AudioSampleRate();
 934              		.loc 20 78 25 view .LVU251
 935 0024 FFF7FEFF 		bl	_ZN5daisy8DaisyPod17SetAudioBlockSizeEj
 936              	.LVL49:
  79:SynthV8.cpp   **** 
 937              		.loc 20 79 5 is_stmt 1 view .LVU252
  79:SynthV8.cpp   **** 
 938              		.loc 20 79 36 is_stmt 0 view .LVU253
 939 0028 8348     		ldr	r0, .L72+8
 940 002a FFF7FEFF 		bl	_ZN5daisy8DaisyPod15AudioSampleRateEv
 941              	.LVL50:
 942              	.LBB793:
 943              	.LBB794:
  23:../lib/libDaisy/src/daisy_seed.h **** 
  24:../lib/libDaisy/src/daisy_seed.h ****     /** This function used to provide a pre-initialization configuraiton 
  25:../lib/libDaisy/src/daisy_seed.h ****      *  it has since been deprecated, and does nothing.
  26:../lib/libDaisy/src/daisy_seed.h ****      */
  27:../lib/libDaisy/src/daisy_seed.h ****     void Configure();
  28:../lib/libDaisy/src/daisy_seed.h **** 
  29:../lib/libDaisy/src/daisy_seed.h ****     /** 
  30:../lib/libDaisy/src/daisy_seed.h ****     Initializes the Daisy Seed and the following peripherals:
  31:../lib/libDaisy/src/daisy_seed.h ****     SDRAM, QSPI, 24-bit 48kHz Audio via AK4556, Internal USB,
  32:../lib/libDaisy/src/daisy_seed.h ****     as well as the built-in LED and Testpoint.
  33:../lib/libDaisy/src/daisy_seed.h **** 
ARM GAS  /var/folders/hp/45mn71hd0ps5f5pnytxy5bt00000gn/T//ccKbf7aq.s 			page 45


  34:../lib/libDaisy/src/daisy_seed.h ****     ADCs, DACs, and other special peripherals (such as I2C, SPI, etc.)
  35:../lib/libDaisy/src/daisy_seed.h ****     can be initialized using their specific initializers within libdaisy
  36:../lib/libDaisy/src/daisy_seed.h ****     for a specific application.
  37:../lib/libDaisy/src/daisy_seed.h ****     */
  38:../lib/libDaisy/src/daisy_seed.h ****     void Init(bool boost = false);
  39:../lib/libDaisy/src/daisy_seed.h **** 
  40:../lib/libDaisy/src/daisy_seed.h ****     /** 
  41:../lib/libDaisy/src/daisy_seed.h ****     Deinitializes all peripherals automatically handled by `Init`.
  42:../lib/libDaisy/src/daisy_seed.h ****     */
  43:../lib/libDaisy/src/daisy_seed.h ****     void DeInit();
  44:../lib/libDaisy/src/daisy_seed.h **** 
  45:../lib/libDaisy/src/daisy_seed.h ****     /** 
  46:../lib/libDaisy/src/daisy_seed.h ****     Wait some ms before going on.
  47:../lib/libDaisy/src/daisy_seed.h ****     \param del Delay time in ms.
  48:../lib/libDaisy/src/daisy_seed.h ****     */
  49:../lib/libDaisy/src/daisy_seed.h ****     void DelayMs(size_t del);
  50:../lib/libDaisy/src/daisy_seed.h **** 
  51:../lib/libDaisy/src/daisy_seed.h ****     /** 
  52:../lib/libDaisy/src/daisy_seed.h ****     Returns the gpio_pin corresponding to the index 0-31.
  53:../lib/libDaisy/src/daisy_seed.h ****     For the given GPIO on the Daisy Seed (labeled 1-32 in docs).
  54:../lib/libDaisy/src/daisy_seed.h ****     */
  55:../lib/libDaisy/src/daisy_seed.h ****     static Pin GetPin(uint8_t pin_idx);
  56:../lib/libDaisy/src/daisy_seed.h **** 
  57:../lib/libDaisy/src/daisy_seed.h ****     /** Begins the audio for the seeds builtin audio.
  58:../lib/libDaisy/src/daisy_seed.h ****     the specified callback will get called whenever
  59:../lib/libDaisy/src/daisy_seed.h ****     new data is ready to be prepared.
  60:../lib/libDaisy/src/daisy_seed.h ****     */
  61:../lib/libDaisy/src/daisy_seed.h ****     void StartAudio(AudioHandle::InterleavingAudioCallback cb);
  62:../lib/libDaisy/src/daisy_seed.h **** 
  63:../lib/libDaisy/src/daisy_seed.h ****     /** Begins the audio for the seeds builtin audio.
  64:../lib/libDaisy/src/daisy_seed.h ****     the specified callback will get called whenever
  65:../lib/libDaisy/src/daisy_seed.h ****     new data is ready to be prepared.
  66:../lib/libDaisy/src/daisy_seed.h ****     This will use the newer non-interleaved callback.
  67:../lib/libDaisy/src/daisy_seed.h ****     */
  68:../lib/libDaisy/src/daisy_seed.h ****     void StartAudio(AudioHandle::AudioCallback cb);
  69:../lib/libDaisy/src/daisy_seed.h **** 
  70:../lib/libDaisy/src/daisy_seed.h ****     /** Changes to a new interleaved callback
  71:../lib/libDaisy/src/daisy_seed.h ****      */
  72:../lib/libDaisy/src/daisy_seed.h ****     void ChangeAudioCallback(AudioHandle::InterleavingAudioCallback cb);
  73:../lib/libDaisy/src/daisy_seed.h **** 
  74:../lib/libDaisy/src/daisy_seed.h ****     /** Changes to a new multichannel callback
  75:../lib/libDaisy/src/daisy_seed.h ****      */
  76:../lib/libDaisy/src/daisy_seed.h ****     void ChangeAudioCallback(AudioHandle::AudioCallback cb);
  77:../lib/libDaisy/src/daisy_seed.h **** 
  78:../lib/libDaisy/src/daisy_seed.h ****     /** Stops the audio if it is running. */
  79:../lib/libDaisy/src/daisy_seed.h ****     void StopAudio();
  80:../lib/libDaisy/src/daisy_seed.h **** 
  81:../lib/libDaisy/src/daisy_seed.h ****     /** Updates the Audio Sample Rate, and reinitializes.
  82:../lib/libDaisy/src/daisy_seed.h ****      ** Audio must be stopped for this to work.
  83:../lib/libDaisy/src/daisy_seed.h ****      */
  84:../lib/libDaisy/src/daisy_seed.h ****     void SetAudioSampleRate(SaiHandle::Config::SampleRate samplerate);
  85:../lib/libDaisy/src/daisy_seed.h **** 
  86:../lib/libDaisy/src/daisy_seed.h ****     /** Returns the audio sample rate in Hz as a floating point number.
  87:../lib/libDaisy/src/daisy_seed.h ****      */
  88:../lib/libDaisy/src/daisy_seed.h ****     float AudioSampleRate();
  89:../lib/libDaisy/src/daisy_seed.h **** 
  90:../lib/libDaisy/src/daisy_seed.h ****     /** Sets the number of samples processed per channel by the audio callback.
ARM GAS  /var/folders/hp/45mn71hd0ps5f5pnytxy5bt00000gn/T//ccKbf7aq.s 			page 46


  91:../lib/libDaisy/src/daisy_seed.h ****      */
  92:../lib/libDaisy/src/daisy_seed.h ****     void SetAudioBlockSize(size_t blocksize);
  93:../lib/libDaisy/src/daisy_seed.h **** 
  94:../lib/libDaisy/src/daisy_seed.h ****     /** Returns the number of samples per channel in a block of audio. */
  95:../lib/libDaisy/src/daisy_seed.h ****     size_t AudioBlockSize();
  96:../lib/libDaisy/src/daisy_seed.h **** 
  97:../lib/libDaisy/src/daisy_seed.h ****     /** Returns the rate in Hz that the Audio callback is called */
  98:../lib/libDaisy/src/daisy_seed.h ****     float AudioCallbackRate() const;
  99:../lib/libDaisy/src/daisy_seed.h **** 
 100:../lib/libDaisy/src/daisy_seed.h ****     /** Returns the SAI Handle for the Daisy Seed 
 101:../lib/libDaisy/src/daisy_seed.h ****      *  This can be useful when adding a secondary codec,
 102:../lib/libDaisy/src/daisy_seed.h ****      *  the result of this function can be passed to the audio reinit 
 103:../lib/libDaisy/src/daisy_seed.h ****      *  with an SAI2 configuration
 104:../lib/libDaisy/src/daisy_seed.h ****      */
 105:../lib/libDaisy/src/daisy_seed.h ****     const SaiHandle& AudioSaiHandle() const;
 106:../lib/libDaisy/src/daisy_seed.h **** 
 107:../lib/libDaisy/src/daisy_seed.h ****     /** Sets the state of the built in LED
 108:../lib/libDaisy/src/daisy_seed.h ****      */
 109:../lib/libDaisy/src/daisy_seed.h ****     void SetLed(bool state);
 110:../lib/libDaisy/src/daisy_seed.h **** 
 111:../lib/libDaisy/src/daisy_seed.h ****     /** Sets the state of the test point near pin 10
 112:../lib/libDaisy/src/daisy_seed.h ****      */
 113:../lib/libDaisy/src/daisy_seed.h ****     void SetTestPoint(bool state);
 114:../lib/libDaisy/src/daisy_seed.h **** 
 115:../lib/libDaisy/src/daisy_seed.h ****     /** Print formatted debug log message
 116:../lib/libDaisy/src/daisy_seed.h ****      */
 117:../lib/libDaisy/src/daisy_seed.h ****     template <typename... VA>
 118:../lib/libDaisy/src/daisy_seed.h ****     static void Print(const char* format, VA... va)
 119:../lib/libDaisy/src/daisy_seed.h ****     {
 120:../lib/libDaisy/src/daisy_seed.h ****         Log::Print(format, va...);
 121:../lib/libDaisy/src/daisy_seed.h ****     }
 122:../lib/libDaisy/src/daisy_seed.h **** 
 123:../lib/libDaisy/src/daisy_seed.h ****     /** Print formatted debug log message with automatic line termination
 124:../lib/libDaisy/src/daisy_seed.h ****     */
 125:../lib/libDaisy/src/daisy_seed.h ****     template <typename... VA>
 126:../lib/libDaisy/src/daisy_seed.h ****     static void PrintLine(const char* format, VA... va)
 127:../lib/libDaisy/src/daisy_seed.h ****     {
 128:../lib/libDaisy/src/daisy_seed.h ****         Log::PrintLine(format, va...);
 129:../lib/libDaisy/src/daisy_seed.h ****     }
 130:../lib/libDaisy/src/daisy_seed.h **** 
 131:../lib/libDaisy/src/daisy_seed.h ****     /** Start the logging session. Optionally wait for terminal connection before proceeding.
 132:../lib/libDaisy/src/daisy_seed.h ****     */
 133:../lib/libDaisy/src/daisy_seed.h ****     static void StartLog(bool wait_for_pc = false)
 134:../lib/libDaisy/src/daisy_seed.h ****     {
 135:../lib/libDaisy/src/daisy_seed.h ****         Log::StartLog(wait_for_pc);
 944              		.loc 11 135 22 view .LVU254
 945 002e 0020     		movs	r0, #0
 946              	.LBE794:
 947              	.LBE793:
  79:SynthV8.cpp   **** 
 948              		.loc 20 79 36 view .LVU255
 949 0030 F0EE408A 		vmov.f32	s17, s0
 950              	.LVL51:
  81:SynthV8.cpp   ****     cpu_meter.Init(hw.AudioSampleRate(), hw.AudioBlockSize());
 951              		.loc 20 81 5 is_stmt 1 view .LVU256
 952              	.LBB796:
 953              	.LBI793:
ARM GAS  /var/folders/hp/45mn71hd0ps5f5pnytxy5bt00000gn/T//ccKbf7aq.s 			page 47


 133:../lib/libDaisy/src/daisy_seed.h ****     {
 954              		.loc 11 133 17 view .LVU257
 955              	.LBB795:
 956              		.loc 11 135 9 view .LVU258
 957              		.loc 11 135 22 is_stmt 0 view .LVU259
 958 0034 FFF7FEFF 		bl	_ZN5daisy6LoggerILNS_17LoggerDestinationE1EE8StartLogEb
 959              	.LVL52:
 960              		.loc 11 135 22 view .LVU260
 961              	.LBE795:
 962              	.LBE796:
  82:SynthV8.cpp   **** 
 963              		.loc 20 82 5 is_stmt 1 view .LVU261
  82:SynthV8.cpp   **** 
 964              		.loc 20 82 19 is_stmt 0 view .LVU262
 965 0038 7F48     		ldr	r0, .L72+8
 966 003a FFF7FEFF 		bl	_ZN5daisy8DaisyPod15AudioSampleRateEv
 967              	.LVL53:
  82:SynthV8.cpp   **** 
 968              		.loc 20 82 59 view .LVU263
 969 003e 7E48     		ldr	r0, .L72+8
  82:SynthV8.cpp   **** 
 970              		.loc 20 82 19 view .LVU264
 971 0040 F0EE409A 		vmov.f32	s19, s0
  82:SynthV8.cpp   **** 
 972              		.loc 20 82 59 view .LVU265
 973 0044 FFF7FEFF 		bl	_ZN5daisy8DaisyPod14AudioBlockSizeEv
 974              	.LVL54:
 975              	.LBB797:
 976              	.LBI769:
  29:../lib/libDaisy/src/util/CpuLoadMeter.h ****               int   blockSizeInSamples,
 977              		.loc 21 29 10 is_stmt 1 view .LVU266
 978              	.LBB784:
  33:../lib/libDaisy/src/util/CpuLoadMeter.h ****         const auto ticksPerS   = float(System::GetTickFreq());
 979              		.loc 21 33 9 view .LVU267
  33:../lib/libDaisy/src/util/CpuLoadMeter.h ****         const auto ticksPerS   = float(System::GetTickFreq());
 980              		.loc 21 33 34 is_stmt 0 view .LVU268
 981 0048 07EE900A 		vmov	s15, r0	@ int
 982              	.LBE784:
 983              	.LBE797:
 984              	.LBB798:
 985              	.LBB799:
  71:../lib/DaisySP/Source/Synthesis/oscillator.h ****     }
  72:../lib/DaisySP/Source/Synthesis/oscillator.h **** 
  73:../lib/DaisySP/Source/Synthesis/oscillator.h **** 
  74:../lib/DaisySP/Source/Synthesis/oscillator.h ****     /** Sets the amplitude of the waveform.
  75:../lib/DaisySP/Source/Synthesis/oscillator.h ****     */
  76:../lib/DaisySP/Source/Synthesis/oscillator.h ****     inline void SetAmp(const float a) { amp_ = a; }
 986              		.loc 18 76 46 view .LVU269
 987 004c 9FED7EBA 		vldr.32	s22, .L72+24
 988              	.LBE799:
 989              	.LBE798:
 990              	.LBB802:
 991              	.LBB803:
  66:../lib/DaisySP/Source/Control/adenv.h ****     /** Sets the amount of curve applied. A positve value will create a log
 992              		.loc 17 66 71 view .LVU270
 993 0050 DFED7EAA 		vldr.32	s21, .L72+28
 994              	.LBE803:
ARM GAS  /var/folders/hp/45mn71hd0ps5f5pnytxy5bt00000gn/T//ccKbf7aq.s 			page 48


 995              	.LBE802:
 996              	.LBB806:
 997              	.LBB785:
  33:../lib/libDaisy/src/util/CpuLoadMeter.h ****         const auto ticksPerS   = float(System::GetTickFreq());
 998              		.loc 21 33 34 view .LVU271
 999 0054 B8EEE7AA 		vcvt.f32.s32	s20, s15
  34:../lib/libDaisy/src/util/CpuLoadMeter.h ****         ticksPerBlockInv_      = 1.0f / (ticksPerS * secPerBlock);
 1000              		.loc 21 34 59 view .LVU272
 1001 0058 FFF7FEFF 		bl	_ZN5daisy6System11GetTickFreqEv
 1002              	.LVL55:
  34:../lib/libDaisy/src/util/CpuLoadMeter.h ****         ticksPerBlockInv_      = 1.0f / (ticksPerS * secPerBlock);
 1003              		.loc 21 34 59 view .LVU273
 1004              	.LBE785:
 1005              	.LBE806:
 1006              	.LBB807:
 1007              	.LBB761:
  53:../lib/DaisySP/Source/Synthesis/oscillator.h ****         freq_      = 100.0f;
 1008              		.loc 18 53 27 view .LVU274
 1009 005c 88EE287A 		vdiv.f32	s14, s16, s17
 1010              	.LBE761:
 1011              	.LBE807:
 1012              	.LBB808:
 1013              	.LBB786:
  39:../lib/libDaisy/src/util/CpuLoadMeter.h ****             = smoothingFilterCutoffHz * 2.0f * 3.141592653f / blockRateInHz;
 1014              		.loc 21 39 20 view .LVU275
 1015 0060 DFED7B5A 		vldr.32	s11, .L72+32
  34:../lib/libDaisy/src/util/CpuLoadMeter.h ****         ticksPerBlockInv_      = 1.0f / (ticksPerS * secPerBlock);
 1016              		.loc 21 34 61 view .LVU276
 1017 0064 07EE900A 		vmov	s15, r0	@ int
 1018              	.LBB778:
 1019              	.LBB773:
  87:../lib/libDaisy/src/util/CpuLoadMeter.h ****         avg_ = max_ = min_ = NAN;
 1020              		.loc 21 87 28 view .LVU277
 1021 0068 7A4B     		ldr	r3, .L72+36
 1022              	.LBE773:
 1023              	.LBE778:
 1024              	.LBE786:
 1025              	.LBE808:
 1026              	.LBB809:
 1027              	.LBB762:
  54:../lib/DaisySP/Source/Synthesis/oscillator.h ****         amp_       = 0.5f;
 1028              		.loc 18 54 20 view .LVU278
 1029 006a 9FED7B0A 		vldr.32	s0, .L72+40
  58:../lib/DaisySP/Source/Synthesis/oscillator.h ****         waveform_  = WAVE_SIN;
 1030              		.loc 18 58 34 view .LVU279
 1031 006e 2846     		mov	r0, r5
 1032              	.LBE762:
 1033              	.LBE809:
 1034              	.LBB810:
 1035              	.LBB787:
 1036              	.LBB779:
 1037              	.LBB774:
 1038              		.loc 21 87 28 view .LVU280
 1039 0070 E360     		str	r3, [r4, #12]	@ float
 1040              		.loc 21 87 21 view .LVU281
 1041 0072 2361     		str	r3, [r4, #16]	@ float
 1042              	.LBE774:
ARM GAS  /var/folders/hp/45mn71hd0ps5f5pnytxy5bt00000gn/T//ccKbf7aq.s 			page 49


 1043              	.LBE779:
  38:../lib/libDaisy/src/util/CpuLoadMeter.h ****         const auto cutoffNormalized
 1044              		.loc 21 38 20 view .LVU282
 1045 0074 89EE8A6A 		vdiv.f32	s12, s19, s20
 1046              	.LBB780:
 1047              	.LBB775:
 1048              		.loc 21 87 14 view .LVU283
 1049 0078 6361     		str	r3, [r4, #20]	@ float
 1050              	.LBE775:
 1051              	.LBE780:
 1052              	.LBE787:
 1053              	.LBE810:
  84:SynthV8.cpp   ****     isVolumeOn = true;
 1054              		.loc 20 84 15 view .LVU284
 1055 007a 784B     		ldr	r3, .L72+44
 1056              	.LBB811:
 1057              	.LBB788:
 1058              	.LBB781:
 1059              	.LBB776:
  86:../lib/libDaisy/src/util/CpuLoadMeter.h ****         avg_ = max_ = min_ = NAN;
 1060              		.loc 21 86 21 view .LVU285
 1061 007c 2670     		strb	r6, [r4]
 1062              	.LBE776:
 1063              	.LBE781:
 1064              	.LBE788:
 1065              	.LBE811:
  84:SynthV8.cpp   ****     isVolumeOn = true;
 1066              		.loc 20 84 15 view .LVU286
 1067 007e 83ED009A 		vstr.32	s18, [r3]
  85:SynthV8.cpp   ****     inc = 0;
 1068              		.loc 20 85 16 view .LVU287
 1069 0082 774B     		ldr	r3, .L72+48
 1070              	.LBB812:
 1071              	.LBB789:
  33:../lib/libDaisy/src/util/CpuLoadMeter.h ****         const auto ticksPerS   = float(System::GetTickFreq());
 1072              		.loc 21 33 20 view .LVU288
 1073 0084 CAEE296A 		vdiv.f32	s13, s20, s19
 1074              	.LVL56:
  34:../lib/libDaisy/src/util/CpuLoadMeter.h ****         ticksPerBlockInv_      = 1.0f / (ticksPerS * secPerBlock);
 1075              		.loc 21 34 9 is_stmt 1 view .LVU289
  35:../lib/libDaisy/src/util/CpuLoadMeter.h **** 
 1076              		.loc 21 35 9 view .LVU290
 1077              	.LBE789:
 1078              	.LBE812:
 1079              	.LBB813:
 1080              	.LBB763:
  57:../lib/DaisySP/Source/Synthesis/oscillator.h ****         phase_inc_ = CalcPhaseInc(freq_);
 1081              		.loc 18 57 20 is_stmt 0 view .LVU291
 1082 0088 DFED769A 		vldr.32	s19, .L72+52
 1083              	.LVL57:
  57:../lib/DaisySP/Source/Synthesis/oscillator.h ****         phase_inc_ = CalcPhaseInc(freq_);
 1084              		.loc 18 57 20 view .LVU292
 1085              	.LBE763:
 1086              	.LBE813:
  85:SynthV8.cpp   ****     inc = 0;
 1087              		.loc 20 85 16 view .LVU293
 1088 008c 1E70     		strb	r6, [r3]
ARM GAS  /var/folders/hp/45mn71hd0ps5f5pnytxy5bt00000gn/T//ccKbf7aq.s 			page 50


 1089              	.LBB814:
 1090              	.LBB764:
  52:../lib/DaisySP/Source/Synthesis/oscillator.h ****         sr_recip_  = 1.0f / sample_rate;
 1091              		.loc 18 52 20 view .LVU294
 1092 008e C5ED048A 		vstr.32	s17, [r5, #16]
  54:../lib/DaisySP/Source/Synthesis/oscillator.h ****         amp_       = 0.5f;
 1093              		.loc 18 54 20 view .LVU295
 1094 0092 85ED020A 		vstr.32	s0, [r5, #8]
  55:../lib/DaisySP/Source/Synthesis/oscillator.h ****         pw_        = 0.5f;
 1095              		.loc 18 55 20 view .LVU296
 1096 0096 85ED019A 		vstr.32	s18, [r5, #4]
 1097              	.LBE764:
 1098              	.LBE814:
 1099              	.LBB815:
 1100              	.LBB790:
  34:../lib/libDaisy/src/util/CpuLoadMeter.h ****         ticksPerBlockInv_      = 1.0f / (ticksPerS * secPerBlock);
 1101              		.loc 21 34 61 view .LVU297
 1102 009a F8EE677A 		vcvt.f32.u32	s15, s15
 1103              	.LBE790:
 1104              	.LBE815:
 1105              	.LBB816:
 1106              	.LBB765:
  56:../lib/DaisySP/Source/Synthesis/oscillator.h ****         phase_     = 0.0f;
 1107              		.loc 18 56 20 view .LVU298
 1108 009e 85ED039A 		vstr.32	s18, [r5, #12]
  53:../lib/DaisySP/Source/Synthesis/oscillator.h ****         freq_      = 100.0f;
 1109              		.loc 18 53 20 view .LVU299
 1110 00a2 85ED057A 		vstr.32	s14, [r5, #20]
  57:../lib/DaisySP/Source/Synthesis/oscillator.h ****         phase_inc_ = CalcPhaseInc(freq_);
 1111              		.loc 18 57 20 view .LVU300
 1112 00a6 C5ED069A 		vstr.32	s19, [r5, #24]
 1113              	.LBE765:
 1114              	.LBE816:
 1115              	.LBB817:
 1116              	.LBB791:
  39:../lib/libDaisy/src/util/CpuLoadMeter.h ****             = smoothingFilterCutoffHz * 2.0f * 3.141592653f / blockRateInHz;
 1117              		.loc 21 39 20 view .LVU301
 1118 00aa 85EE867A 		vdiv.f32	s14, s11, s12
  35:../lib/libDaisy/src/util/CpuLoadMeter.h **** 
 1119              		.loc 21 35 52 view .LVU302
 1120 00ae 67EEA67A 		vmul.f32	s15, s15, s13
  35:../lib/libDaisy/src/util/CpuLoadMeter.h **** 
 1121              		.loc 21 35 39 view .LVU303
 1122 00b2 C8EE276A 		vdiv.f32	s13, s16, s15
 1123              	.LVL58:
  43:../lib/libDaisy/src/util/CpuLoadMeter.h **** 
 1124              		.loc 21 43 67 view .LVU304
 1125 00b6 37EE086A 		vadd.f32	s12, s14, s16
  43:../lib/libDaisy/src/util/CpuLoadMeter.h **** 
 1126              		.loc 21 43 47 view .LVU305
 1127 00ba C7EE067A 		vdiv.f32	s15, s14, s12
  35:../lib/libDaisy/src/util/CpuLoadMeter.h **** 
 1128              		.loc 21 35 32 view .LVU306
 1129 00be C4ED016A 		vstr.32	s13, [r4, #4]
  38:../lib/libDaisy/src/util/CpuLoadMeter.h ****         const auto cutoffNormalized
 1130              		.loc 21 38 9 is_stmt 1 view .LVU307
 1131              	.LVL59:
ARM GAS  /var/folders/hp/45mn71hd0ps5f5pnytxy5bt00000gn/T//ccKbf7aq.s 			page 51


  39:../lib/libDaisy/src/util/CpuLoadMeter.h ****             = smoothingFilterCutoffHz * 2.0f * 3.141592653f / blockRateInHz;
 1132              		.loc 21 39 9 view .LVU308
  43:../lib/libDaisy/src/util/CpuLoadMeter.h **** 
 1133              		.loc 21 43 9 view .LVU309
  43:../lib/libDaisy/src/util/CpuLoadMeter.h **** 
 1134              		.loc 21 43 28 is_stmt 0 view .LVU310
 1135 00c2 C4ED067A 		vstr.32	s15, [r4, #24]
  45:../lib/libDaisy/src/util/CpuLoadMeter.h ****     }
 1136              		.loc 21 45 9 is_stmt 1 view .LVU311
 1137              	.LVL60:
 1138              	.LBB782:
 1139              	.LBI771:
  84:../lib/libDaisy/src/util/CpuLoadMeter.h ****     {
 1140              		.loc 21 84 10 view .LVU312
 1141              	.LBB777:
  86:../lib/libDaisy/src/util/CpuLoadMeter.h ****         avg_ = max_ = min_ = NAN;
 1142              		.loc 21 86 9 view .LVU313
 1143              		.loc 21 87 9 view .LVU314
 1144              		.loc 21 87 9 is_stmt 0 view .LVU315
 1145              	.LBE777:
 1146              	.LBE782:
 1147              	.LBE791:
 1148              	.LBE817:
  84:SynthV8.cpp   ****     isVolumeOn = true;
 1149              		.loc 20 84 5 is_stmt 1 view .LVU316
  85:SynthV8.cpp   ****     inc = 0;
 1150              		.loc 20 85 5 view .LVU317
  86:SynthV8.cpp   **** 
 1151              		.loc 20 86 5 view .LVU318
  88:SynthV8.cpp   ****     osc.SetWaveform(osc.WAVE_TRI);
 1152              		.loc 20 88 5 view .LVU319
 1153              	.LBB818:
 1154              	.LBI759:
  50:../lib/DaisySP/Source/Synthesis/oscillator.h ****     {
 1155              		.loc 18 50 10 view .LVU320
 1156              	.LBB766:
  52:../lib/DaisySP/Source/Synthesis/oscillator.h ****         sr_recip_  = 1.0f / sample_rate;
 1157              		.loc 18 52 9 view .LVU321
  53:../lib/DaisySP/Source/Synthesis/oscillator.h ****         freq_      = 100.0f;
 1158              		.loc 18 53 9 view .LVU322
  54:../lib/DaisySP/Source/Synthesis/oscillator.h ****         amp_       = 0.5f;
 1159              		.loc 18 54 9 view .LVU323
  55:../lib/DaisySP/Source/Synthesis/oscillator.h ****         pw_        = 0.5f;
 1160              		.loc 18 55 9 view .LVU324
  56:../lib/DaisySP/Source/Synthesis/oscillator.h ****         phase_     = 0.0f;
 1161              		.loc 18 56 9 view .LVU325
  57:../lib/DaisySP/Source/Synthesis/oscillator.h ****         phase_inc_ = CalcPhaseInc(freq_);
 1162              		.loc 18 57 9 view .LVU326
  58:../lib/DaisySP/Source/Synthesis/oscillator.h ****         waveform_  = WAVE_SIN;
 1163              		.loc 18 58 9 view .LVU327
  58:../lib/DaisySP/Source/Synthesis/oscillator.h ****         waveform_  = WAVE_SIN;
 1164              		.loc 18 58 34 is_stmt 0 view .LVU328
 1165 00c6 FFF7FEFF 		bl	_ZN7daisysp10Oscillator12CalcPhaseIncEf
 1166              	.LVL61:
  61:../lib/DaisySP/Source/Synthesis/oscillator.h ****     }
 1167              		.loc 18 61 20 view .LVU329
 1168 00ca 40F20113 		movw	r3, #257
ARM GAS  /var/folders/hp/45mn71hd0ps5f5pnytxy5bt00000gn/T//ccKbf7aq.s 			page 52


 1169              	.LBE766:
 1170              	.LBE818:
 1171              	.LBB819:
 1172              	.LBB820:
  77:../lib/DaisySP/Source/Synthesis/oscillator.h ****     /** Sets the waveform to be synthesized by the Process() function.
  78:../lib/DaisySP/Source/Synthesis/oscillator.h ****     */
  79:../lib/DaisySP/Source/Synthesis/oscillator.h ****     inline void SetWaveform(const uint8_t wf)
  80:../lib/DaisySP/Source/Synthesis/oscillator.h ****     {
  81:../lib/DaisySP/Source/Synthesis/oscillator.h ****         waveform_ = wf < WAVE_LAST ? wf : WAVE_SIN;
 1173              		.loc 18 81 19 view .LVU330
 1174 00ce 2E70     		strb	r6, [r5]
 1175              	.LBE820:
 1176              	.LBE819:
  93:SynthV8.cpp   ****     ad.SetTime(ADENV_SEG_ATTACK, 0.01f);
  94:SynthV8.cpp   ****     ad.SetTime(ADENV_SEG_DECAY, 1.0f);
  95:SynthV8.cpp   ****     ad.SetMax(1);
  96:SynthV8.cpp   ****     ad.SetMin(0);
  97:SynthV8.cpp   ****     ad.SetCurve(0.5);
  98:SynthV8.cpp   **** 
  99:SynthV8.cpp   ****     tuning.Init(hw.knob1, -0.1, 0.1, tuning.LINEAR);
 1177              		.loc 20 99 20 view .LVU331
 1178 00d0 654E     		ldr	r6, .L72+56
  92:SynthV8.cpp   ****     ad.SetTime(ADENV_SEG_ATTACK, 0.01f);
 1179              		.loc 20 92 12 view .LVU332
 1180 00d2 3846     		mov	r0, r7
 1181              	.LBB822:
 1182              	.LBB767:
  58:../lib/DaisySP/Source/Synthesis/oscillator.h ****         waveform_  = WAVE_SIN;
 1183              		.loc 18 58 20 view .LVU333
 1184 00d4 85ED070A 		vstr.32	s0, [r5, #28]
  59:../lib/DaisySP/Source/Synthesis/oscillator.h ****         eoc_       = true;
 1185              		.loc 18 59 9 is_stmt 1 view .LVU334
  60:../lib/DaisySP/Source/Synthesis/oscillator.h ****         eor_       = true;
 1186              		.loc 18 60 9 view .LVU335
  61:../lib/DaisySP/Source/Synthesis/oscillator.h ****     }
 1187              		.loc 18 61 9 view .LVU336
 1188              	.LBE767:
 1189              	.LBE822:
  92:SynthV8.cpp   ****     ad.SetTime(ADENV_SEG_ATTACK, 0.01f);
 1190              		.loc 20 92 12 is_stmt 0 view .LVU337
 1191 00d8 B0EE680A 		vmov.f32	s0, s17
 1192              	.LBB823:
 1193              	.LBB768:
  61:../lib/DaisySP/Source/Synthesis/oscillator.h ****     }
 1194              		.loc 18 61 20 view .LVU338
 1195 00dc 2B85     		strh	r3, [r5, #40]	@ movhi
 1196              	.LVL62:
  61:../lib/DaisySP/Source/Synthesis/oscillator.h ****     }
 1197              		.loc 18 61 20 view .LVU339
 1198              	.LBE768:
 1199              	.LBE823:
  89:SynthV8.cpp   ****     osc.SetAmp(0.1f);
 1200              		.loc 20 89 5 is_stmt 1 view .LVU340
 1201              	.LBB824:
 1202              	.LBI819:
  79:../lib/DaisySP/Source/Synthesis/oscillator.h ****     {
 1203              		.loc 18 79 17 view .LVU341
ARM GAS  /var/folders/hp/45mn71hd0ps5f5pnytxy5bt00000gn/T//ccKbf7aq.s 			page 53


 1204              	.LBB821:
 1205              		.loc 18 81 9 view .LVU342
 1206              		.loc 18 81 9 is_stmt 0 view .LVU343
 1207              	.LBE821:
 1208              	.LBE824:
  90:SynthV8.cpp   **** 
 1209              		.loc 20 90 5 is_stmt 1 view .LVU344
 1210              	.LBB825:
 1211              	.LBI798:
  76:../lib/DaisySP/Source/Synthesis/oscillator.h ****     /** Sets the waveform to be synthesized by the Process() function.
 1212              		.loc 18 76 17 view .LVU345
 1213              	.LBB800:
  76:../lib/DaisySP/Source/Synthesis/oscillator.h ****     /** Sets the waveform to be synthesized by the Process() function.
 1214              		.loc 18 76 41 view .LVU346
  76:../lib/DaisySP/Source/Synthesis/oscillator.h ****     /** Sets the waveform to be synthesized by the Process() function.
 1215              		.loc 18 76 41 is_stmt 0 view .LVU347
 1216              	.LBE800:
 1217              	.LBE825:
  92:SynthV8.cpp   ****     ad.SetTime(ADENV_SEG_ATTACK, 0.01f);
 1218              		.loc 20 92 5 is_stmt 1 view .LVU348
 1219              	.LBB826:
 1220              	.LBB801:
  76:../lib/DaisySP/Source/Synthesis/oscillator.h ****     /** Sets the waveform to be synthesized by the Process() function.
 1221              		.loc 18 76 46 is_stmt 0 view .LVU349
 1222 00de 85ED01BA 		vstr.32	s22, [r5, #4]
 1223              	.LBE801:
 1224              	.LBE826:
  92:SynthV8.cpp   ****     ad.SetTime(ADENV_SEG_ATTACK, 0.01f);
 1225              		.loc 20 92 12 view .LVU350
 1226 00e2 FFF7FEFF 		bl	_ZN7daisysp5AdEnv4InitEf
 1227              	.LVL63:
  93:SynthV8.cpp   ****     ad.SetTime(ADENV_SEG_DECAY, 1.0f);
 1228              		.loc 20 93 5 is_stmt 1 view .LVU351
 1229              	.LBB827:
 1230              	.LBI802:
  66:../lib/DaisySP/Source/Control/adenv.h ****     /** Sets the amount of curve applied. A positve value will create a log
 1231              		.loc 17 66 17 view .LVU352
 1232              	.LBB804:
  66:../lib/DaisySP/Source/Control/adenv.h ****     /** Sets the amount of curve applied. A positve value will create a log
 1233              		.loc 17 66 52 view .LVU353
 1234              	.LBE804:
 1235              	.LBE827:
 1236              		.loc 20 99 20 is_stmt 0 view .LVU354
 1237 00e6 6D46     		mov	r5, sp
 1238              		.loc 20 99 16 view .LVU355
 1239 00e8 F0EE4B0A 		vmov.f32	s1, s22
 1240 00ec 9FED5F0A 		vldr.32	s0, .L72+60
 1241              	.LBB828:
 1242              	.LBB805:
  66:../lib/DaisySP/Source/Control/adenv.h ****     /** Sets the amount of curve applied. A positve value will create a log
 1243              		.loc 17 66 71 view .LVU356
 1244 00f0 C7ED02AA 		vstr.32	s21, [r7, #8]
 1245              	.LVL64:
  66:../lib/DaisySP/Source/Control/adenv.h ****     /** Sets the amount of curve applied. A positve value will create a log
 1246              		.loc 17 66 71 view .LVU357
 1247              	.LBE805:
 1248              	.LBE828:
ARM GAS  /var/folders/hp/45mn71hd0ps5f5pnytxy5bt00000gn/T//ccKbf7aq.s 			page 54


  94:SynthV8.cpp   ****     ad.SetMax(1);
 1249              		.loc 20 94 5 is_stmt 1 view .LVU358
 1250              	.LBB829:
 1251              	.LBI829:
  66:../lib/DaisySP/Source/Control/adenv.h ****     /** Sets the amount of curve applied. A positve value will create a log
 1252              		.loc 17 66 17 view .LVU359
 1253              	.LBB830:
  66:../lib/DaisySP/Source/Control/adenv.h ****     /** Sets the amount of curve applied. A positve value will create a log
 1254              		.loc 17 66 52 view .LVU360
  66:../lib/DaisySP/Source/Control/adenv.h ****     /** Sets the amount of curve applied. A positve value will create a log
 1255              		.loc 17 66 71 is_stmt 0 view .LVU361
 1256 00f4 87ED038A 		vstr.32	s16, [r7, #12]
 1257              	.LVL65:
  66:../lib/DaisySP/Source/Control/adenv.h ****     /** Sets the amount of curve applied. A positve value will create a log
 1258              		.loc 17 66 71 view .LVU362
 1259              	.LBE830:
 1260              	.LBE829:
  95:SynthV8.cpp   ****     ad.SetMin(0);
 1261              		.loc 20 95 5 is_stmt 1 view .LVU363
 1262              	.LBB831:
 1263              	.LBI831:
  78:../lib/DaisySP/Source/Control/adenv.h ****     /** Returns the current output value without processing the next sample */
 1264              		.loc 17 78 17 view .LVU364
 1265              	.LBB832:
  78:../lib/DaisySP/Source/Control/adenv.h ****     /** Returns the current output value without processing the next sample */
 1266              		.loc 17 78 37 view .LVU365
  78:../lib/DaisySP/Source/Control/adenv.h ****     /** Returns the current output value without processing the next sample */
 1267              		.loc 17 78 42 is_stmt 0 view .LVU366
 1268 00f8 87ED068A 		vstr.32	s16, [r7, #24]
 1269              	.LVL66:
  78:../lib/DaisySP/Source/Control/adenv.h ****     /** Returns the current output value without processing the next sample */
 1270              		.loc 17 78 42 view .LVU367
 1271              	.LBE832:
 1272              	.LBE831:
  96:SynthV8.cpp   ****     ad.SetCurve(0.5);
 1273              		.loc 20 96 5 is_stmt 1 view .LVU368
 1274              	.LBB833:
 1275              	.LBI833:
  74:../lib/DaisySP/Source/Control/adenv.h ****     /** Sets the maximum value of the envelope output.
 1276              		.loc 17 74 17 view .LVU369
 1277              	.LBB834:
  74:../lib/DaisySP/Source/Control/adenv.h ****     /** Sets the maximum value of the envelope output.
 1278              		.loc 17 74 37 view .LVU370
  74:../lib/DaisySP/Source/Control/adenv.h ****     /** Sets the maximum value of the envelope output.
 1279              		.loc 17 74 42 is_stmt 0 view .LVU371
 1280 00fc C7ED059A 		vstr.32	s19, [r7, #20]
 1281              	.LVL67:
  74:../lib/DaisySP/Source/Control/adenv.h ****     /** Sets the maximum value of the envelope output.
 1282              		.loc 17 74 42 view .LVU372
 1283              	.LBE834:
 1284              	.LBE833:
  97:SynthV8.cpp   **** 
 1285              		.loc 20 97 5 is_stmt 1 view .LVU373
 1286              	.LBB835:
 1287              	.LBI835:
  70:../lib/DaisySP/Source/Control/adenv.h ****     /** Sets the minimum value of the envelope output.
 1288              		.loc 17 70 17 view .LVU374
ARM GAS  /var/folders/hp/45mn71hd0ps5f5pnytxy5bt00000gn/T//ccKbf7aq.s 			page 55


 1289              	.LBB836:
  70:../lib/DaisySP/Source/Control/adenv.h ****     /** Sets the minimum value of the envelope output.
 1290              		.loc 17 70 42 view .LVU375
  70:../lib/DaisySP/Source/Control/adenv.h ****     /** Sets the minimum value of the envelope output.
 1291              		.loc 17 70 56 is_stmt 0 view .LVU376
 1292 0100 87ED089A 		vstr.32	s18, [r7, #32]
 1293              	.LVL68:
  70:../lib/DaisySP/Source/Control/adenv.h ****     /** Sets the minimum value of the envelope output.
 1294              		.loc 17 70 56 view .LVU377
 1295              	.LBE836:
 1296              	.LBE835:
 1297              		.loc 20 99 5 is_stmt 1 view .LVU378
 1298              		.loc 20 99 20 is_stmt 0 view .LVU379
 1299 0104 0FCE     		ldmia	r6!, {r0, r1, r2, r3}
 1300 0106 0FC5     		stmia	r5!, {r0, r1, r2, r3}
 1301 0108 96E80F00 		ldm	r6, {r0, r1, r2, r3}
 1302 010c 85E80F00 		stm	r5, {r0, r1, r2, r3}
 1303              		.loc 20 99 16 view .LVU380
 1304 0110 0022     		movs	r2, #0
 1305 0112 6946     		mov	r1, sp
 1306 0114 5648     		ldr	r0, .L72+64
 1307 0116 FFF7FEFF 		bl	_ZN5daisy9Parameter4InitENS_13AnalogControlEffNS0_5CurveE
 1308              	.LVL69:
 1309              	.LBB837:
 1310              	.LBI837:
 1311              		.loc 2 23 5 is_stmt 1 view .LVU381
 1312              		.loc 2 23 5 is_stmt 0 view .LVU382
 1313              	.LBE837:
 100:SynthV8.cpp   **** 
 101:SynthV8.cpp   ****     p_release.Init(hw.knob2, 0.01f, 0.7f, Parameter::LINEAR);
 1314              		.loc 20 101 5 is_stmt 1 view .LVU383
 1315              		.loc 20 101 23 is_stmt 0 view .LVU384
 1316 011a 06F1100C 		add	ip, r6, #16
 1317 011e EE46     		mov	lr, sp
 1318              		.loc 20 101 19 view .LVU385
 1319 0120 B0EE6A0A 		vmov.f32	s0, s21
 1320 0124 DFED530A 		vldr.32	s1, .L72+68
 1321              		.loc 20 101 23 view .LVU386
 1322 0128 BCE80F00 		ldmia	ip!, {r0, r1, r2, r3}
 1323 012c AEE80F00 		stmia	lr!, {r0, r1, r2, r3}
 1324 0130 9CE80F00 		ldm	ip, {r0, r1, r2, r3}
 1325 0134 85E80F00 		stm	r5, {r0, r1, r2, r3}
 1326              		.loc 20 101 19 view .LVU387
 1327 0138 6946     		mov	r1, sp
 1328 013a 0022     		movs	r2, #0
 1329 013c 4E48     		ldr	r0, .L72+72
 1330 013e FFF7FEFF 		bl	_ZN5daisy9Parameter4InitENS_13AnalogControlEffNS0_5CurveE
 1331              	.LVL70:
 1332              	.LBB838:
 1333              	.LBI838:
 1334              		.loc 2 23 5 is_stmt 1 view .LVU388
 1335              		.loc 2 23 5 is_stmt 0 view .LVU389
 1336              	.LBE838:
 102:SynthV8.cpp   **** 
 103:SynthV8.cpp   ****     hw.StartAdc();
 1337              		.loc 20 103 5 is_stmt 1 view .LVU390
 1338              		.loc 20 103 16 is_stmt 0 view .LVU391
ARM GAS  /var/folders/hp/45mn71hd0ps5f5pnytxy5bt00000gn/T//ccKbf7aq.s 			page 56


 1339 0142 A6F1E000 		sub	r0, r6, #224
 1340 0146 FFF7FEFF 		bl	_ZN5daisy8DaisyPod8StartAdcEv
 1341              	.LVL71:
 104:SynthV8.cpp   ****     hw.StartAudio(AudioCallback);
 1342              		.loc 20 104 5 is_stmt 1 view .LVU392
 1343              		.loc 20 104 18 is_stmt 0 view .LVU393
 1344 014a 4C49     		ldr	r1, .L72+76
 1345 014c A6F1E000 		sub	r0, r6, #224
 1346 0150 FFF7FEFF 		bl	_ZN5daisy8DaisyPod10StartAudioEPFvPKfPfjE
 1347              	.LVL72:
 1348              	.L67:
 105:SynthV8.cpp   **** 
 106:SynthV8.cpp   ****     while (1) 
 1349              		.loc 20 106 5 is_stmt 1 view .LVU394
 1350              	.LBB839:
 107:SynthV8.cpp   ****     {
 108:SynthV8.cpp   ****         //   CPU    
 109:SynthV8.cpp   ****         const float avgLoad = cpu_meter.GetAvgCpuLoad();
 1351              		.loc 20 109 9 view .LVU395
 1352              	.LBB840:
 1353              	.LBI840:
  77:../lib/libDaisy/src/util/CpuLoadMeter.h ****     /** Returns the minimun CPU load observed since the last call to Reset(). */
 1354              		.loc 21 77 11 view .LVU396
 1355              	.LBB841:
  77:../lib/libDaisy/src/util/CpuLoadMeter.h ****     /** Returns the minimun CPU load observed since the last call to Reset(). */
 1356              		.loc 21 77 35 view .LVU397
 1357              	.LBE841:
 1358              	.LBE840:
 110:SynthV8.cpp   ****         const float maxLoad = cpu_meter.GetMaxCpuLoad();
 111:SynthV8.cpp   ****         const float minLoad = cpu_meter.GetMinCpuLoad();
 112:SynthV8.cpp   **** 
 113:SynthV8.cpp   ****         hw.seed.PrintLine("Processing Load %:");
 114:SynthV8.cpp   ****         hw.seed.PrintLine("Max: " FLT_FMT3, FLT_VAR3(maxLoad * 100.0f));
 1359              		.loc 20 114 45 is_stmt 0 view .LVU398
 1360 0154 DFED409A 		vldr.32	s19, .L72+40
 1361              	.LBB843:
 1362              	.LBB844:
  81:../lib/libDaisy/src/util/CpuLoadMeter.h **** 
 1363              		.loc 21 81 42 view .LVU399
 1364 0158 94ED048A 		vldr.32	s16, [r4, #16]
 1365              	.LBE844:
 1366              	.LBE843:
 1367              	.LBB846:
 1368              	.LBB847:
 128:../lib/libDaisy/src/daisy_seed.h ****     }
 1369              		.loc 11 128 23 view .LVU400
 1370 015c 4848     		ldr	r0, .L72+80
 1371              	.LBE847:
 1372              	.LBE846:
 1373              	.LBB849:
 1374              	.LBB842:
  77:../lib/libDaisy/src/util/CpuLoadMeter.h ****     /** Returns the minimun CPU load observed since the last call to Reset(). */
 1375              		.loc 21 77 42 view .LVU401
 1376 015e 94ED05AA 		vldr.32	s20, [r4, #20]
 1377              	.LVL73:
  77:../lib/libDaisy/src/util/CpuLoadMeter.h ****     /** Returns the minimun CPU load observed since the last call to Reset(). */
 1378              		.loc 21 77 42 view .LVU402
ARM GAS  /var/folders/hp/45mn71hd0ps5f5pnytxy5bt00000gn/T//ccKbf7aq.s 			page 57


 1379              	.LBE842:
 1380              	.LBE849:
 110:SynthV8.cpp   ****         const float minLoad = cpu_meter.GetMinCpuLoad();
 1381              		.loc 20 110 9 is_stmt 1 view .LVU403
 1382              	.LBB850:
 1383              	.LBI843:
  81:../lib/libDaisy/src/util/CpuLoadMeter.h **** 
 1384              		.loc 21 81 11 view .LVU404
 1385              	.LBB845:
  81:../lib/libDaisy/src/util/CpuLoadMeter.h **** 
 1386              		.loc 21 81 35 view .LVU405
  81:../lib/libDaisy/src/util/CpuLoadMeter.h **** 
 1387              		.loc 21 81 35 is_stmt 0 view .LVU406
 1388              	.LBE845:
 1389              	.LBE850:
 111:SynthV8.cpp   **** 
 1390              		.loc 20 111 9 is_stmt 1 view .LVU407
 1391              	.LBB851:
 1392              	.LBI851:
  79:../lib/libDaisy/src/util/CpuLoadMeter.h ****     /** Returns the maximum CPU load observed since the last call to Reset(). */
 1393              		.loc 21 79 11 view .LVU408
 1394              	.LBB852:
  79:../lib/libDaisy/src/util/CpuLoadMeter.h ****     /** Returns the maximum CPU load observed since the last call to Reset(). */
 1395              		.loc 21 79 35 view .LVU409
  79:../lib/libDaisy/src/util/CpuLoadMeter.h ****     /** Returns the maximum CPU load observed since the last call to Reset(). */
 1396              		.loc 21 79 42 is_stmt 0 view .LVU410
 1397 0162 94ED039A 		vldr.32	s18, [r4, #12]
 1398              	.LVL74:
  79:../lib/libDaisy/src/util/CpuLoadMeter.h ****     /** Returns the maximum CPU load observed since the last call to Reset(). */
 1399              		.loc 21 79 42 view .LVU411
 1400              	.LBE852:
 1401              	.LBE851:
 113:SynthV8.cpp   ****         hw.seed.PrintLine("Max: " FLT_FMT3, FLT_VAR3(maxLoad * 100.0f));
 1402              		.loc 20 113 9 is_stmt 1 view .LVU412
 1403              	.LBB853:
 1404              	.LBI846:
 126:../lib/libDaisy/src/daisy_seed.h ****     {
 1405              		.loc 11 126 17 view .LVU413
 1406              	.LBB848:
 128:../lib/libDaisy/src/daisy_seed.h ****     }
 1407              		.loc 11 128 23 is_stmt 0 view .LVU414
 1408 0166 FFF7FEFF 		bl	_ZN5daisy6LoggerILNS_17LoggerDestinationE1EE9PrintLineEPKcz
 1409              	.LVL75:
 128:../lib/libDaisy/src/daisy_seed.h ****     }
 1410              		.loc 11 128 23 view .LVU415
 1411              	.LBE848:
 1412              	.LBE853:
 1413              		.loc 20 114 9 is_stmt 1 view .LVU416
 1414              	.LBB854:
 1415              	.LBI854:
 1416              		.file 22 "/Library/DaisyToolchain/0.2.0/arm/arm-none-eabi/include/c++/10.3.1/bits/std_abs.h"
   1:/Library/DaisyToolchain/0.2.0/arm/arm-none-eabi/include/c++/10.3.1/bits/std_abs.h **** // -*- C++ -*- C library enhancements header.
   2:/Library/DaisyToolchain/0.2.0/arm/arm-none-eabi/include/c++/10.3.1/bits/std_abs.h **** 
   3:/Library/DaisyToolchain/0.2.0/arm/arm-none-eabi/include/c++/10.3.1/bits/std_abs.h **** // Copyright (C) 2016-2020 Free Software Foundation, Inc.
   4:/Library/DaisyToolchain/0.2.0/arm/arm-none-eabi/include/c++/10.3.1/bits/std_abs.h **** //
   5:/Library/DaisyToolchain/0.2.0/arm/arm-none-eabi/include/c++/10.3.1/bits/std_abs.h **** // This file is part of the GNU ISO C++ Library.  This library is free
   6:/Library/DaisyToolchain/0.2.0/arm/arm-none-eabi/include/c++/10.3.1/bits/std_abs.h **** // software; you can redistribute it and/or modify it under the
ARM GAS  /var/folders/hp/45mn71hd0ps5f5pnytxy5bt00000gn/T//ccKbf7aq.s 			page 58


   7:/Library/DaisyToolchain/0.2.0/arm/arm-none-eabi/include/c++/10.3.1/bits/std_abs.h **** // terms of the GNU General Public License as published by the
   8:/Library/DaisyToolchain/0.2.0/arm/arm-none-eabi/include/c++/10.3.1/bits/std_abs.h **** // Free Software Foundation; either version 3, or (at your option)
   9:/Library/DaisyToolchain/0.2.0/arm/arm-none-eabi/include/c++/10.3.1/bits/std_abs.h **** // any later version.
  10:/Library/DaisyToolchain/0.2.0/arm/arm-none-eabi/include/c++/10.3.1/bits/std_abs.h **** 
  11:/Library/DaisyToolchain/0.2.0/arm/arm-none-eabi/include/c++/10.3.1/bits/std_abs.h **** // This library is distributed in the hope that it will be useful,
  12:/Library/DaisyToolchain/0.2.0/arm/arm-none-eabi/include/c++/10.3.1/bits/std_abs.h **** // but WITHOUT ANY WARRANTY; without even the implied warranty of
  13:/Library/DaisyToolchain/0.2.0/arm/arm-none-eabi/include/c++/10.3.1/bits/std_abs.h **** // MERCHANTABILITY or FITNESS FOR A PARTICULAR PURPOSE.  See the
  14:/Library/DaisyToolchain/0.2.0/arm/arm-none-eabi/include/c++/10.3.1/bits/std_abs.h **** // GNU General Public License for more details.
  15:/Library/DaisyToolchain/0.2.0/arm/arm-none-eabi/include/c++/10.3.1/bits/std_abs.h **** 
  16:/Library/DaisyToolchain/0.2.0/arm/arm-none-eabi/include/c++/10.3.1/bits/std_abs.h **** // Under Section 7 of GPL version 3, you are granted additional
  17:/Library/DaisyToolchain/0.2.0/arm/arm-none-eabi/include/c++/10.3.1/bits/std_abs.h **** // permissions described in the GCC Runtime Library Exception, version
  18:/Library/DaisyToolchain/0.2.0/arm/arm-none-eabi/include/c++/10.3.1/bits/std_abs.h **** // 3.1, as published by the Free Software Foundation.
  19:/Library/DaisyToolchain/0.2.0/arm/arm-none-eabi/include/c++/10.3.1/bits/std_abs.h **** 
  20:/Library/DaisyToolchain/0.2.0/arm/arm-none-eabi/include/c++/10.3.1/bits/std_abs.h **** // You should have received a copy of the GNU General Public License and
  21:/Library/DaisyToolchain/0.2.0/arm/arm-none-eabi/include/c++/10.3.1/bits/std_abs.h **** // a copy of the GCC Runtime Library Exception along with this program;
  22:/Library/DaisyToolchain/0.2.0/arm/arm-none-eabi/include/c++/10.3.1/bits/std_abs.h **** // see the files COPYING3 and COPYING.RUNTIME respectively.  If not, see
  23:/Library/DaisyToolchain/0.2.0/arm/arm-none-eabi/include/c++/10.3.1/bits/std_abs.h **** // <http://www.gnu.org/licenses/>.
  24:/Library/DaisyToolchain/0.2.0/arm/arm-none-eabi/include/c++/10.3.1/bits/std_abs.h **** 
  25:/Library/DaisyToolchain/0.2.0/arm/arm-none-eabi/include/c++/10.3.1/bits/std_abs.h **** /** @file include/bits/std_abs.h
  26:/Library/DaisyToolchain/0.2.0/arm/arm-none-eabi/include/c++/10.3.1/bits/std_abs.h ****  *  This is an internal header file, included by other library headers.
  27:/Library/DaisyToolchain/0.2.0/arm/arm-none-eabi/include/c++/10.3.1/bits/std_abs.h ****  *  Do not attempt to use it directly. @headername{cmath, cstdlib}
  28:/Library/DaisyToolchain/0.2.0/arm/arm-none-eabi/include/c++/10.3.1/bits/std_abs.h ****  */
  29:/Library/DaisyToolchain/0.2.0/arm/arm-none-eabi/include/c++/10.3.1/bits/std_abs.h **** 
  30:/Library/DaisyToolchain/0.2.0/arm/arm-none-eabi/include/c++/10.3.1/bits/std_abs.h **** #ifndef _GLIBCXX_BITS_STD_ABS_H
  31:/Library/DaisyToolchain/0.2.0/arm/arm-none-eabi/include/c++/10.3.1/bits/std_abs.h **** #define _GLIBCXX_BITS_STD_ABS_H
  32:/Library/DaisyToolchain/0.2.0/arm/arm-none-eabi/include/c++/10.3.1/bits/std_abs.h **** 
  33:/Library/DaisyToolchain/0.2.0/arm/arm-none-eabi/include/c++/10.3.1/bits/std_abs.h **** #pragma GCC system_header
  34:/Library/DaisyToolchain/0.2.0/arm/arm-none-eabi/include/c++/10.3.1/bits/std_abs.h **** 
  35:/Library/DaisyToolchain/0.2.0/arm/arm-none-eabi/include/c++/10.3.1/bits/std_abs.h **** #include <bits/c++config.h>
  36:/Library/DaisyToolchain/0.2.0/arm/arm-none-eabi/include/c++/10.3.1/bits/std_abs.h **** 
  37:/Library/DaisyToolchain/0.2.0/arm/arm-none-eabi/include/c++/10.3.1/bits/std_abs.h **** #define _GLIBCXX_INCLUDE_NEXT_C_HEADERS
  38:/Library/DaisyToolchain/0.2.0/arm/arm-none-eabi/include/c++/10.3.1/bits/std_abs.h **** #include_next <stdlib.h>
  39:/Library/DaisyToolchain/0.2.0/arm/arm-none-eabi/include/c++/10.3.1/bits/std_abs.h **** #ifdef __CORRECT_ISO_CPP_MATH_H_PROTO
  40:/Library/DaisyToolchain/0.2.0/arm/arm-none-eabi/include/c++/10.3.1/bits/std_abs.h **** # include_next <math.h>
  41:/Library/DaisyToolchain/0.2.0/arm/arm-none-eabi/include/c++/10.3.1/bits/std_abs.h **** #endif
  42:/Library/DaisyToolchain/0.2.0/arm/arm-none-eabi/include/c++/10.3.1/bits/std_abs.h **** #undef _GLIBCXX_INCLUDE_NEXT_C_HEADERS
  43:/Library/DaisyToolchain/0.2.0/arm/arm-none-eabi/include/c++/10.3.1/bits/std_abs.h **** 
  44:/Library/DaisyToolchain/0.2.0/arm/arm-none-eabi/include/c++/10.3.1/bits/std_abs.h **** #undef abs
  45:/Library/DaisyToolchain/0.2.0/arm/arm-none-eabi/include/c++/10.3.1/bits/std_abs.h **** 
  46:/Library/DaisyToolchain/0.2.0/arm/arm-none-eabi/include/c++/10.3.1/bits/std_abs.h **** extern "C++"
  47:/Library/DaisyToolchain/0.2.0/arm/arm-none-eabi/include/c++/10.3.1/bits/std_abs.h **** {
  48:/Library/DaisyToolchain/0.2.0/arm/arm-none-eabi/include/c++/10.3.1/bits/std_abs.h **** namespace std _GLIBCXX_VISIBILITY(default)
  49:/Library/DaisyToolchain/0.2.0/arm/arm-none-eabi/include/c++/10.3.1/bits/std_abs.h **** {
  50:/Library/DaisyToolchain/0.2.0/arm/arm-none-eabi/include/c++/10.3.1/bits/std_abs.h **** _GLIBCXX_BEGIN_NAMESPACE_VERSION
  51:/Library/DaisyToolchain/0.2.0/arm/arm-none-eabi/include/c++/10.3.1/bits/std_abs.h **** 
  52:/Library/DaisyToolchain/0.2.0/arm/arm-none-eabi/include/c++/10.3.1/bits/std_abs.h ****   using ::abs;
  53:/Library/DaisyToolchain/0.2.0/arm/arm-none-eabi/include/c++/10.3.1/bits/std_abs.h **** 
  54:/Library/DaisyToolchain/0.2.0/arm/arm-none-eabi/include/c++/10.3.1/bits/std_abs.h **** #ifndef __CORRECT_ISO_CPP_STDLIB_H_PROTO
  55:/Library/DaisyToolchain/0.2.0/arm/arm-none-eabi/include/c++/10.3.1/bits/std_abs.h ****   inline long
  56:/Library/DaisyToolchain/0.2.0/arm/arm-none-eabi/include/c++/10.3.1/bits/std_abs.h ****   abs(long __i) { return __builtin_labs(__i); }
  57:/Library/DaisyToolchain/0.2.0/arm/arm-none-eabi/include/c++/10.3.1/bits/std_abs.h **** #endif
  58:/Library/DaisyToolchain/0.2.0/arm/arm-none-eabi/include/c++/10.3.1/bits/std_abs.h **** 
  59:/Library/DaisyToolchain/0.2.0/arm/arm-none-eabi/include/c++/10.3.1/bits/std_abs.h **** #ifdef _GLIBCXX_USE_LONG_LONG
  60:/Library/DaisyToolchain/0.2.0/arm/arm-none-eabi/include/c++/10.3.1/bits/std_abs.h ****   inline long long
  61:/Library/DaisyToolchain/0.2.0/arm/arm-none-eabi/include/c++/10.3.1/bits/std_abs.h ****   abs(long long __x) { return __builtin_llabs (__x); }
  62:/Library/DaisyToolchain/0.2.0/arm/arm-none-eabi/include/c++/10.3.1/bits/std_abs.h **** #endif
  63:/Library/DaisyToolchain/0.2.0/arm/arm-none-eabi/include/c++/10.3.1/bits/std_abs.h **** 
ARM GAS  /var/folders/hp/45mn71hd0ps5f5pnytxy5bt00000gn/T//ccKbf7aq.s 			page 59


  64:/Library/DaisyToolchain/0.2.0/arm/arm-none-eabi/include/c++/10.3.1/bits/std_abs.h **** // _GLIBCXX_RESOLVE_LIB_DEFECTS
  65:/Library/DaisyToolchain/0.2.0/arm/arm-none-eabi/include/c++/10.3.1/bits/std_abs.h **** // 2192. Validity and return type of std::abs(0u) is unclear
  66:/Library/DaisyToolchain/0.2.0/arm/arm-none-eabi/include/c++/10.3.1/bits/std_abs.h **** // 2294. <cstdlib> should declare abs(double)
  67:/Library/DaisyToolchain/0.2.0/arm/arm-none-eabi/include/c++/10.3.1/bits/std_abs.h **** // 2735. std::abs(short), std::abs(signed char) and others should return int
  68:/Library/DaisyToolchain/0.2.0/arm/arm-none-eabi/include/c++/10.3.1/bits/std_abs.h **** 
  69:/Library/DaisyToolchain/0.2.0/arm/arm-none-eabi/include/c++/10.3.1/bits/std_abs.h **** #ifndef __CORRECT_ISO_CPP_MATH_H_PROTO
  70:/Library/DaisyToolchain/0.2.0/arm/arm-none-eabi/include/c++/10.3.1/bits/std_abs.h ****   inline _GLIBCXX_CONSTEXPR double
  71:/Library/DaisyToolchain/0.2.0/arm/arm-none-eabi/include/c++/10.3.1/bits/std_abs.h ****   abs(double __x)
  72:/Library/DaisyToolchain/0.2.0/arm/arm-none-eabi/include/c++/10.3.1/bits/std_abs.h ****   { return __builtin_fabs(__x); }
  73:/Library/DaisyToolchain/0.2.0/arm/arm-none-eabi/include/c++/10.3.1/bits/std_abs.h **** 
  74:/Library/DaisyToolchain/0.2.0/arm/arm-none-eabi/include/c++/10.3.1/bits/std_abs.h ****   inline _GLIBCXX_CONSTEXPR float
  75:/Library/DaisyToolchain/0.2.0/arm/arm-none-eabi/include/c++/10.3.1/bits/std_abs.h ****   abs(float __x)
 1417              		.loc 22 75 3 view .LVU417
 1418              	.LBB855:
  76:/Library/DaisyToolchain/0.2.0/arm/arm-none-eabi/include/c++/10.3.1/bits/std_abs.h ****   { return __builtin_fabsf(__x); }
 1419              		.loc 22 76 5 view .LVU418
 1420              	.LBE855:
 1421              	.LBE854:
 1422              		.loc 20 114 45 is_stmt 0 view .LVU419
 1423 016a 68EE297A 		vmul.f32	s15, s16, s19
 1424              	.LVL76:
 1425              	.LBB857:
 1426              	.LBB858:
 128:../lib/libDaisy/src/daisy_seed.h ****     }
 1427              		.loc 11 128 23 view .LVU420
 1428 016e 4548     		ldr	r0, .L72+84
 1429              	.LBE858:
 1430              	.LBE857:
 1431              		.loc 20 114 45 view .LVU421
 1432 0170 9FED2F8B 		vldr.64	d8, .L72
 1433              	.LVL77:
 1434              	.LBB861:
 1435              	.LBB856:
 1436              		.loc 22 76 31 view .LVU422
 1437 0174 B0EEE76A 		vabs.f32	s12, s15
 1438              	.LVL78:
 1439              		.loc 22 76 31 view .LVU423
 1440              	.LBE856:
 1441              	.LBE861:
 1442              		.loc 20 114 26 view .LVU424
 1443 0178 F5EEC07A 		vcmpe.f32	s15, #0
 1444 017c FDEEC67A 		vcvt.s32.f32	s15, s12
 1445              	.LVL79:
 1446              		.loc 20 114 26 view .LVU425
 1447              	.LBE839:
 1448              		.loc 22 76 5 is_stmt 1 view .LVU426
 1449              		.loc 22 76 5 view .LVU427
 1450              	.LBB887:
 1451              	.LBB862:
 1452              	.LBI857:
 126:../lib/libDaisy/src/daisy_seed.h ****     {
 1453              		.loc 11 126 17 view .LVU428
 1454              	.LBE862:
 1455              		.loc 20 114 26 is_stmt 0 view .LVU429
 1456 0180 F1EE10FA 		vmrs	APSR_nzcv, FPSCR
 1457              		.loc 20 114 45 view .LVU430
 1458 0184 B8EEE77A 		vcvt.f32.s32	s14, s15
ARM GAS  /var/folders/hp/45mn71hd0ps5f5pnytxy5bt00000gn/T//ccKbf7aq.s 			page 60


 1459              	.LVL80:
 1460              	.LBB863:
 1461              	.LBB859:
 128:../lib/libDaisy/src/daisy_seed.h ****     }
 1462              		.loc 11 128 23 view .LVU431
 1463 0188 17EE902A 		vmov	r2, s15	@ int
 1464 018c 4CBF     		ite	mi
 1465 018e 2D21     		movmi	r1, #45
 1466 0190 2021     		movpl	r1, #32
 1467              	.LBE859:
 1468              	.LBE863:
 1469              		.loc 20 114 45 view .LVU432
 1470 0192 36EE476A 		vsub.f32	s12, s12, s14
 1471              	.LVL81:
 1472              		.loc 20 114 45 view .LVU433
 1473 0196 B7EEC66A 		vcvt.f64.f32	d6, s12
 1474 019a 26EE086B 		vmul.f64	d6, d6, d8
 1475              	.LBB864:
 1476              	.LBB860:
 128:../lib/libDaisy/src/daisy_seed.h ****     }
 1477              		.loc 11 128 23 view .LVU434
 1478 019e FDEEC67B 		vcvt.s32.f64	s15, d6
 1479              	.LVL82:
 128:../lib/libDaisy/src/daisy_seed.h ****     }
 1480              		.loc 11 128 23 view .LVU435
 1481 01a2 17EE903A 		vmov	r3, s15	@ int
 1482 01a6 FFF7FEFF 		bl	_ZN5daisy6LoggerILNS_17LoggerDestinationE1EE9PrintLineEPKcz
 1483              	.LVL83:
 128:../lib/libDaisy/src/daisy_seed.h ****     }
 1484              		.loc 11 128 23 view .LVU436
 1485              	.LBE860:
 1486              	.LBE864:
 115:SynthV8.cpp   ****         hw.seed.PrintLine("Avg: " FLT_FMT3, FLT_VAR3(avgLoad * 100.0f));
 1487              		.loc 20 115 9 is_stmt 1 view .LVU437
 1488              	.LBB865:
 1489              	.LBI865:
  75:/Library/DaisyToolchain/0.2.0/arm/arm-none-eabi/include/c++/10.3.1/bits/std_abs.h ****   { return __builtin_fabsf(__x); }
 1490              		.loc 22 75 3 view .LVU438
 1491              	.LBB866:
 1492              		.loc 22 76 5 view .LVU439
 1493              	.LBE866:
 1494              	.LBE865:
 1495              		.loc 20 115 45 is_stmt 0 view .LVU440
 1496 01aa 6AEE297A 		vmul.f32	s15, s20, s19
 1497              	.LVL84:
 1498              	.LBB868:
 1499              	.LBB869:
 128:../lib/libDaisy/src/daisy_seed.h ****     }
 1500              		.loc 11 128 23 view .LVU441
 1501 01ae 3648     		ldr	r0, .L72+88
 1502              	.LBE869:
 1503              	.LBE868:
 1504              	.LBB872:
 1505              	.LBB867:
 1506              		.loc 22 76 31 view .LVU442
 1507 01b0 B0EEE76A 		vabs.f32	s12, s15
 1508              	.LVL85:
ARM GAS  /var/folders/hp/45mn71hd0ps5f5pnytxy5bt00000gn/T//ccKbf7aq.s 			page 61


 1509              		.loc 22 76 31 view .LVU443
 1510              	.LBE867:
 1511              	.LBE872:
 1512              		.loc 20 115 26 view .LVU444
 1513 01b4 F5EEC07A 		vcmpe.f32	s15, #0
 1514 01b8 FDEEC67A 		vcvt.s32.f32	s15, s12
 1515              	.LVL86:
 1516              		.loc 20 115 26 view .LVU445
 1517              	.LBE887:
 1518              		.loc 22 76 5 is_stmt 1 view .LVU446
 1519              		.loc 22 76 5 view .LVU447
 1520              	.LBB888:
 1521              	.LBB873:
 1522              	.LBI868:
 126:../lib/libDaisy/src/daisy_seed.h ****     {
 1523              		.loc 11 126 17 view .LVU448
 1524              	.LBE873:
 1525              		.loc 20 115 26 is_stmt 0 view .LVU449
 1526 01bc F1EE10FA 		vmrs	APSR_nzcv, FPSCR
 1527              		.loc 20 115 45 view .LVU450
 1528 01c0 B8EEE77A 		vcvt.f32.s32	s14, s15
 1529              	.LVL87:
 1530              	.LBB874:
 1531              	.LBB870:
 128:../lib/libDaisy/src/daisy_seed.h ****     }
 1532              		.loc 11 128 23 view .LVU451
 1533 01c4 17EE902A 		vmov	r2, s15	@ int
 1534 01c8 4CBF     		ite	mi
 1535 01ca 2D21     		movmi	r1, #45
 1536 01cc 2021     		movpl	r1, #32
 1537              	.LBE870:
 1538              	.LBE874:
 1539              		.loc 20 115 45 view .LVU452
 1540 01ce 36EE476A 		vsub.f32	s12, s12, s14
 1541              	.LVL88:
 1542              		.loc 20 115 45 view .LVU453
 1543 01d2 B7EEC66A 		vcvt.f64.f32	d6, s12
 1544 01d6 26EE086B 		vmul.f64	d6, d6, d8
 1545              	.LBB875:
 1546              	.LBB871:
 128:../lib/libDaisy/src/daisy_seed.h ****     }
 1547              		.loc 11 128 23 view .LVU454
 1548 01da FDEEC67B 		vcvt.s32.f64	s15, d6
 1549              	.LVL89:
 128:../lib/libDaisy/src/daisy_seed.h ****     }
 1550              		.loc 11 128 23 view .LVU455
 1551 01de 17EE903A 		vmov	r3, s15	@ int
 1552 01e2 FFF7FEFF 		bl	_ZN5daisy6LoggerILNS_17LoggerDestinationE1EE9PrintLineEPKcz
 1553              	.LVL90:
 128:../lib/libDaisy/src/daisy_seed.h ****     }
 1554              		.loc 11 128 23 view .LVU456
 1555              	.LBE871:
 1556              	.LBE875:
 116:SynthV8.cpp   ****         hw.seed.PrintLine("Min: " FLT_FMT3, FLT_VAR3(minLoad * 100.0f));
 1557              		.loc 20 116 9 is_stmt 1 view .LVU457
 1558              	.LBB876:
 1559              	.LBI876:
ARM GAS  /var/folders/hp/45mn71hd0ps5f5pnytxy5bt00000gn/T//ccKbf7aq.s 			page 62


  75:/Library/DaisyToolchain/0.2.0/arm/arm-none-eabi/include/c++/10.3.1/bits/std_abs.h ****   { return __builtin_fabsf(__x); }
 1560              		.loc 22 75 3 view .LVU458
 1561              	.LBB877:
 1562              		.loc 22 76 5 view .LVU459
 1563              	.LBE877:
 1564              	.LBE876:
 1565              		.loc 20 116 45 is_stmt 0 view .LVU460
 1566 01e6 69EE297A 		vmul.f32	s15, s18, s19
 1567              	.LVL91:
 1568              	.LBB879:
 1569              	.LBB880:
 128:../lib/libDaisy/src/daisy_seed.h ****     }
 1570              		.loc 11 128 23 view .LVU461
 1571 01ea 2848     		ldr	r0, .L72+92
 1572              	.LBE880:
 1573              	.LBE879:
 1574              	.LBB883:
 1575              	.LBB878:
 1576              		.loc 22 76 31 view .LVU462
 1577 01ec B0EEE77A 		vabs.f32	s14, s15
 1578              	.LVL92:
 1579              		.loc 22 76 31 view .LVU463
 1580              	.LBE878:
 1581              	.LBE883:
 1582              		.loc 20 116 26 view .LVU464
 1583 01f0 F5EEC07A 		vcmpe.f32	s15, #0
 1584 01f4 FDEEC77A 		vcvt.s32.f32	s15, s14
 1585              	.LVL93:
 1586              		.loc 20 116 26 view .LVU465
 1587              	.LBE888:
 1588              		.loc 22 76 5 is_stmt 1 view .LVU466
 1589              		.loc 22 76 5 view .LVU467
 1590              	.LBB889:
 1591              	.LBB884:
 1592              	.LBI879:
 126:../lib/libDaisy/src/daisy_seed.h ****     {
 1593              		.loc 11 126 17 view .LVU468
 1594              	.LBE884:
 1595              		.loc 20 116 26 is_stmt 0 view .LVU469
 1596 01f8 F1EE10FA 		vmrs	APSR_nzcv, FPSCR
 1597              		.loc 20 116 45 view .LVU470
 1598 01fc F8EEE76A 		vcvt.f32.s32	s13, s15
 1599              	.LVL94:
 1600              	.LBB885:
 1601              	.LBB881:
 128:../lib/libDaisy/src/daisy_seed.h ****     }
 1602              		.loc 11 128 23 view .LVU471
 1603 0200 17EE902A 		vmov	r2, s15	@ int
 1604 0204 4CBF     		ite	mi
 1605 0206 2D21     		movmi	r1, #45
 1606 0208 2021     		movpl	r1, #32
 1607              	.LBE881:
 1608              	.LBE885:
 1609              		.loc 20 116 45 view .LVU472
 1610 020a 37EE667A 		vsub.f32	s14, s14, s13
 1611              	.LVL95:
 1612              		.loc 20 116 45 view .LVU473
ARM GAS  /var/folders/hp/45mn71hd0ps5f5pnytxy5bt00000gn/T//ccKbf7aq.s 			page 63


 1613 020e B7EEC77A 		vcvt.f64.f32	d7, s14
 1614 0212 27EE087B 		vmul.f64	d7, d7, d8
 1615              	.LBB886:
 1616              	.LBB882:
 128:../lib/libDaisy/src/daisy_seed.h ****     }
 1617              		.loc 11 128 23 view .LVU474
 1618 0216 FDEEC77B 		vcvt.s32.f64	s15, d7
 1619              	.LVL96:
 128:../lib/libDaisy/src/daisy_seed.h ****     }
 1620              		.loc 11 128 23 view .LVU475
 1621 021a 17EE903A 		vmov	r3, s15	@ int
 1622 021e FFF7FEFF 		bl	_ZN5daisy6LoggerILNS_17LoggerDestinationE1EE9PrintLineEPKcz
 1623              	.LVL97:
 128:../lib/libDaisy/src/daisy_seed.h ****     }
 1624              		.loc 11 128 23 view .LVU476
 1625              	.LBE882:
 1626              	.LBE886:
 117:SynthV8.cpp   ****         // don't spam the serial connection too much
 118:SynthV8.cpp   ****         System::Delay(1000);
 1627              		.loc 20 118 9 is_stmt 1 view .LVU477
 1628              		.loc 20 118 22 is_stmt 0 view .LVU478
 1629 0222 4FF47A70 		mov	r0, #1000
 1630 0226 FFF7FEFF 		bl	_ZN5daisy6System5DelayEm
 1631              	.LVL98:
 1632              	.LBE889:
 106:SynthV8.cpp   ****     {
 1633              		.loc 20 106 5 is_stmt 1 view .LVU479
 119:SynthV8.cpp   ****         
 120:SynthV8.cpp   ****     }
 1634              		.loc 20 120 5 is_stmt 0 view .LVU480
 1635 022a 93E7     		b	.L67
 1636              	.L73:
 1637 022c AFF30080 		.align	3
 1638              	.L72:
 1639 0230 00000000 		.word	0
 1640 0234 00408F40 		.word	1083129856
 1641 0238 00000000 		.word	_ZL2hw
 1642 023c 00000000 		.word	.LANCHOR8
 1643 0240 00000000 		.word	.LANCHOR0
 1644 0244 00000000 		.word	.LANCHOR2
 1645 0248 CDCCCC3D 		.word	1036831949
 1646 024c 0AD7233C 		.word	1008981770
 1647 0250 DB0FC940 		.word	1086918619
 1648 0254 0000C07F 		.word	2143289344
 1649 0258 0000C842 		.word	1120403456
 1650 025c 00000000 		.word	.LANCHOR5
 1651 0260 00000000 		.word	.LANCHOR6
 1652 0264 00000000 		.word	0
 1653 0268 D0000000 		.word	_ZL2hw+208
 1654 026c CDCCCCBD 		.word	-1110651699
 1655 0270 00000000 		.word	.LANCHOR9
 1656 0274 3333333F 		.word	1060320051
 1657 0278 00000000 		.word	.LANCHOR3
 1658 027c 00000000 		.word	_ZL13AudioCallbackPKfPfj
 1659 0280 00000000 		.word	.LC0
 1660 0284 14000000 		.word	.LC1
 1661 0288 24000000 		.word	.LC2
ARM GAS  /var/folders/hp/45mn71hd0ps5f5pnytxy5bt00000gn/T//ccKbf7aq.s 			page 64


 1662 028c 34000000 		.word	.LC3
 1663              		.cfi_endproc
 1664              	.LFE5028:
 1666              		.section	.text._Z22ProcessDigitalControlsv,"ax",%progbits
 1667              		.align	1
 1668              		.p2align 2,,3
 1669              		.global	_Z22ProcessDigitalControlsv
 1670              		.syntax unified
 1671              		.thumb
 1672              		.thumb_func
 1674              	_Z22ProcessDigitalControlsv:
 1675              	.LFB5030:
 121:SynthV8.cpp   **** }
 122:SynthV8.cpp   **** void ProcessDigitalControls()
 123:SynthV8.cpp   **** {
 1676              		.loc 20 123 1 is_stmt 1 view -0
 1677              		.cfi_startproc
 1678              		@ args = 0, pretend = 0, frame = 0
 1679              		@ frame_needed = 0, uses_anonymous_args = 0
 124:SynthV8.cpp   ****     hw.encoder.Debounce();
 1680              		.loc 20 124 5 view .LVU482
 123:SynthV8.cpp   ****     hw.encoder.Debounce();
 1681              		.loc 20 123 1 is_stmt 0 view .LVU483
 1682 0000 10B5     		push	{r4, lr}
 1683              		.cfi_def_cfa_offset 8
 1684              		.cfi_offset 4, -8
 1685              		.cfi_offset 14, -4
 1686              		.loc 20 124 24 view .LVU484
 1687 0002 074C     		ldr	r4, .L76
 1688 0004 2046     		mov	r0, r4
 1689 0006 FFF7FEFF 		bl	_ZN5daisy7Encoder8DebounceEv
 1690              	.LVL99:
 125:SynthV8.cpp   ****     hw.button1.Debounce();
 1691              		.loc 20 125 5 is_stmt 1 view .LVU485
 1692              		.loc 20 125 24 is_stmt 0 view .LVU486
 1693 000a 04F1A400 		add	r0, r4, #164
 1694 000e FFF7FEFF 		bl	_ZN5daisy6Switch8DebounceEv
 1695              	.LVL100:
 126:SynthV8.cpp   ****     hw.button2.Debounce();
 1696              		.loc 20 126 5 is_stmt 1 view .LVU487
 1697              		.loc 20 126 24 is_stmt 0 view .LVU488
 1698 0012 04F1C800 		add	r0, r4, #200
 127:SynthV8.cpp   **** }
 1699              		.loc 20 127 1 view .LVU489
 1700 0016 BDE81040 		pop	{r4, lr}
 1701              		.cfi_restore 14
 1702              		.cfi_restore 4
 1703              		.cfi_def_cfa_offset 0
 126:SynthV8.cpp   ****     hw.button2.Debounce();
 1704              		.loc 20 126 24 view .LVU490
 1705 001a FFF7FEBF 		b	_ZN5daisy6Switch8DebounceEv
 1706              	.LVL101:
 1707              	.L77:
 1708 001e 00BF     		.align	2
 1709              	.L76:
 1710 0020 74000000 		.word	_ZL2hw+116
 1711              		.cfi_endproc
ARM GAS  /var/folders/hp/45mn71hd0ps5f5pnytxy5bt00000gn/T//ccKbf7aq.s 			page 65


 1712              	.LFE5030:
 1714              		.section	.text.startup._GLOBAL__sub_I_adRelease,"ax",%progbits
 1715              		.align	1
 1716              		.p2align 2,,3
 1717              		.syntax unified
 1718              		.thumb
 1719              		.thumb_func
 1721              	_GLOBAL__sub_I_adRelease:
 1722              	.LFB5625:
 1723              		.loc 20 127 1 is_stmt 1 view -0
 1724              		.cfi_startproc
 1725              		@ args = 0, pretend = 0, frame = 0
 1726              		@ frame_needed = 0, uses_anonymous_args = 0
 1727              	.LBB1124:
 1728              	.LBI1124:
 1729              		.loc 20 127 1 view .LVU492
 1730              	.LVL102:
 1731              	.LBB1125:
 1732              	.LBB1126:
 1733              	.LBI1126:
  35:../lib/libDaisy/src/daisy_pod.h ****     ~DaisyPod() {}
 1734              		.loc 3 35 5 view .LVU493
 1735              	.LBB1127:
 1736              	.LBB1128:
 1737              	.LBI1128:
  21:../lib/libDaisy/src/daisy_seed.h ****     ~DaisySeed() {}
 1738              		.loc 11 21 5 view .LVU494
 1739              	.LBB1129:
 1740              	.LBB1130:
 1741              	.LBI1130:
 1742              		.file 23 "../lib/libDaisy/src/per/qspi.h"
   1:../lib/libDaisy/src/per/qspi.h **** #ifndef DSY_QSPI
   2:../lib/libDaisy/src/per/qspi.h **** #define DSY_QSPI /**< Macro */
   3:../lib/libDaisy/src/per/qspi.h **** 
   4:../lib/libDaisy/src/per/qspi.h **** #ifndef UNIT_TEST // for unit tests, a dummy implementation
   5:../lib/libDaisy/src/per/qspi.h **** 
   6:../lib/libDaisy/src/per/qspi.h **** #include <cstdint>
   7:../lib/libDaisy/src/per/qspi.h **** #include "daisy_core.h"
   8:../lib/libDaisy/src/per/qspi.h **** #include "util/hal_map.h"
   9:../lib/libDaisy/src/per/qspi.h **** 
  10:../lib/libDaisy/src/per/qspi.h **** #define DSY_QSPI_TEXT       \
  11:../lib/libDaisy/src/per/qspi.h ****     __attribute__((section( \
  12:../lib/libDaisy/src/per/qspi.h ****         ".qspiflash_text"))) /**< used for reading memory in memory_mapped mode. */
  13:../lib/libDaisy/src/per/qspi.h **** #define DSY_QSPI_DATA       \
  14:../lib/libDaisy/src/per/qspi.h ****     __attribute__((section( \
  15:../lib/libDaisy/src/per/qspi.h ****         ".qspiflash_data"))) /**< used for reading memory in memory_mapped mode. */
  16:../lib/libDaisy/src/per/qspi.h **** #define DSY_QSPI_BSS        \
  17:../lib/libDaisy/src/per/qspi.h ****     __attribute__((section( \
  18:../lib/libDaisy/src/per/qspi.h ****         ".qspiflash_bss"))) /**< used for reading memory in memory_mapped mode. */
  19:../lib/libDaisy/src/per/qspi.h **** 
  20:../lib/libDaisy/src/per/qspi.h **** namespace daisy
  21:../lib/libDaisy/src/per/qspi.h **** {
  22:../lib/libDaisy/src/per/qspi.h **** /** @addtogroup serial
  23:../lib/libDaisy/src/per/qspi.h **** @{
  24:../lib/libDaisy/src/per/qspi.h **** */
  25:../lib/libDaisy/src/per/qspi.h **** 
  26:../lib/libDaisy/src/per/qspi.h **** /** 
ARM GAS  /var/folders/hp/45mn71hd0ps5f5pnytxy5bt00000gn/T//ccKbf7aq.s 			page 66


  27:../lib/libDaisy/src/per/qspi.h ****  Driver for QSPI peripheral to interface with external flash memory. \n 
  28:../lib/libDaisy/src/per/qspi.h ****     Currently supported QSPI Devices: \n 
  29:../lib/libDaisy/src/per/qspi.h ****     * IS25LP080D
  30:../lib/libDaisy/src/per/qspi.h **** */
  31:../lib/libDaisy/src/per/qspi.h **** class QSPIHandle
  32:../lib/libDaisy/src/per/qspi.h **** {
  33:../lib/libDaisy/src/per/qspi.h ****   public:
  34:../lib/libDaisy/src/per/qspi.h ****     enum Result
  35:../lib/libDaisy/src/per/qspi.h ****     {
  36:../lib/libDaisy/src/per/qspi.h ****         OK = 0,
  37:../lib/libDaisy/src/per/qspi.h ****         ERR
  38:../lib/libDaisy/src/per/qspi.h ****     };
  39:../lib/libDaisy/src/per/qspi.h **** 
  40:../lib/libDaisy/src/per/qspi.h ****     /** Indicates the current status of the module. 
  41:../lib/libDaisy/src/per/qspi.h ****          *  Warnings are indicated by a leading W.
  42:../lib/libDaisy/src/per/qspi.h ****          *  Errors are indicated by a leading E and cause an immediate exit.
  43:../lib/libDaisy/src/per/qspi.h ****          * 
  44:../lib/libDaisy/src/per/qspi.h ****          *  \param GOOD - No errors have been reported.
  45:../lib/libDaisy/src/per/qspi.h ****          *  \param E_HAL_ERROR - HAL code did not return HAL_OK.
  46:../lib/libDaisy/src/per/qspi.h ****          *  \param E_SWITCHING_MODES - An error was encountered while switching QSPI peripheral mod
  47:../lib/libDaisy/src/per/qspi.h ****          *  \param E_INVALID_MODE - QSPI should not be written to while the program is executing fr
  48:../lib/libDaisy/src/per/qspi.h ****          */
  49:../lib/libDaisy/src/per/qspi.h ****     enum Status
  50:../lib/libDaisy/src/per/qspi.h ****     {
  51:../lib/libDaisy/src/per/qspi.h ****         GOOD = 0,
  52:../lib/libDaisy/src/per/qspi.h ****         E_HAL_ERROR,
  53:../lib/libDaisy/src/per/qspi.h ****         E_SWITCHING_MODES,
  54:../lib/libDaisy/src/per/qspi.h ****         E_INVALID_MODE,
  55:../lib/libDaisy/src/per/qspi.h ****     };
  56:../lib/libDaisy/src/per/qspi.h **** 
  57:../lib/libDaisy/src/per/qspi.h ****     /** Configuration structure for interfacing with QSPI Driver */
  58:../lib/libDaisy/src/per/qspi.h ****     struct Config
  59:../lib/libDaisy/src/per/qspi.h ****     {
  60:../lib/libDaisy/src/per/qspi.h ****         /** Flash Devices supported. (Both of these are more-or-less the same, just different sizes
  61:../lib/libDaisy/src/per/qspi.h ****         enum Device
  62:../lib/libDaisy/src/per/qspi.h ****         {
  63:../lib/libDaisy/src/per/qspi.h ****             IS25LP080D,  /**< & */
  64:../lib/libDaisy/src/per/qspi.h ****             IS25LP064A,  /**< & */
  65:../lib/libDaisy/src/per/qspi.h ****             DEVICE_LAST, /**< & */
  66:../lib/libDaisy/src/per/qspi.h ****         };
  67:../lib/libDaisy/src/per/qspi.h **** 
  68:../lib/libDaisy/src/per/qspi.h ****         /** 
  69:../lib/libDaisy/src/per/qspi.h ****         Modes of operation.
  70:../lib/libDaisy/src/per/qspi.h ****         Memory Mapped mode: QSPI configured so that the QSPI can be
  71:../lib/libDaisy/src/per/qspi.h ****         read from starting address 0x90000000. Writing is not
  72:../lib/libDaisy/src/per/qspi.h ****         possible in this mode. \n 
  73:../lib/libDaisy/src/per/qspi.h ****         Indirect Polling mode: Device driver enabled. 
  74:../lib/libDaisy/src/per/qspi.h ****         */
  75:../lib/libDaisy/src/per/qspi.h ****         enum Mode
  76:../lib/libDaisy/src/per/qspi.h ****         {
  77:../lib/libDaisy/src/per/qspi.h ****             MEMORY_MAPPED,    /**< & */
  78:../lib/libDaisy/src/per/qspi.h ****             INDIRECT_POLLING, /**< & */
  79:../lib/libDaisy/src/per/qspi.h ****             MODE_LAST,
  80:../lib/libDaisy/src/per/qspi.h ****         };
  81:../lib/libDaisy/src/per/qspi.h **** 
  82:../lib/libDaisy/src/per/qspi.h ****         //SCK,  CE# (active low)
  83:../lib/libDaisy/src/per/qspi.h ****         struct
ARM GAS  /var/folders/hp/45mn71hd0ps5f5pnytxy5bt00000gn/T//ccKbf7aq.s 			page 67


  84:../lib/libDaisy/src/per/qspi.h ****         {
  85:../lib/libDaisy/src/per/qspi.h ****             Pin io0; /**< & */
  86:../lib/libDaisy/src/per/qspi.h ****             Pin io1; /**< & */
  87:../lib/libDaisy/src/per/qspi.h ****             Pin io2; /**< & */
  88:../lib/libDaisy/src/per/qspi.h ****             Pin io3; /**< & */
  89:../lib/libDaisy/src/per/qspi.h ****             Pin clk; /**< & */
  90:../lib/libDaisy/src/per/qspi.h ****             Pin ncs; /**< & */
  91:../lib/libDaisy/src/per/qspi.h ****         } pin_config;
  92:../lib/libDaisy/src/per/qspi.h **** 
  93:../lib/libDaisy/src/per/qspi.h ****         Device device;
  94:../lib/libDaisy/src/per/qspi.h ****         Mode   mode;
  95:../lib/libDaisy/src/per/qspi.h ****     };
  96:../lib/libDaisy/src/per/qspi.h **** 
  97:../lib/libDaisy/src/per/qspi.h ****     /** 
  98:../lib/libDaisy/src/per/qspi.h ****         Initializes QSPI peripheral, and Resets, and prepares memory for access.
  99:../lib/libDaisy/src/per/qspi.h ****         \param config should be populated with the mode, device and pin_config before calling this 
 100:../lib/libDaisy/src/per/qspi.h ****         \return Result::OK or Result::ERR
 101:../lib/libDaisy/src/per/qspi.h ****         */
 102:../lib/libDaisy/src/per/qspi.h ****     Result Init(const Config& config);
 103:../lib/libDaisy/src/per/qspi.h **** 
 104:../lib/libDaisy/src/per/qspi.h ****     /** Returns the current config. */
 105:../lib/libDaisy/src/per/qspi.h ****     const Config& GetConfig() const;
 106:../lib/libDaisy/src/per/qspi.h **** 
 107:../lib/libDaisy/src/per/qspi.h ****     // Couldn't this just be called before anything else in init? That
 108:../lib/libDaisy/src/per/qspi.h ****     // would make manually calling it unnecessary.
 109:../lib/libDaisy/src/per/qspi.h ****     /** 
 110:../lib/libDaisy/src/per/qspi.h ****         Deinitializes the peripheral
 111:../lib/libDaisy/src/per/qspi.h ****         This should be called before reinitializing QSPI in a different mode.
 112:../lib/libDaisy/src/per/qspi.h ****         \return Result::OK or Result::ERR
 113:../lib/libDaisy/src/per/qspi.h ****         */
 114:../lib/libDaisy/src/per/qspi.h ****     Result DeInit();
 115:../lib/libDaisy/src/per/qspi.h **** 
 116:../lib/libDaisy/src/per/qspi.h ****     /** 
 117:../lib/libDaisy/src/per/qspi.h ****         Writes a single page to to the specified address on the QSPI chip.
 118:../lib/libDaisy/src/per/qspi.h ****         For IS25LP*, page size is 256 bytes.
 119:../lib/libDaisy/src/per/qspi.h ****         \param address Address to write to
 120:../lib/libDaisy/src/per/qspi.h ****         \param size Buffer size
 121:../lib/libDaisy/src/per/qspi.h ****         \param buffer Buffer to write
 122:../lib/libDaisy/src/per/qspi.h ****         \return Result::OK or Result::ERR
 123:../lib/libDaisy/src/per/qspi.h ****         */
 124:../lib/libDaisy/src/per/qspi.h ****     Result WritePage(uint32_t address, uint32_t size, uint8_t* buffer);
 125:../lib/libDaisy/src/per/qspi.h **** 
 126:../lib/libDaisy/src/per/qspi.h ****     /** 
 127:../lib/libDaisy/src/per/qspi.h ****         Writes data in buffer to to the QSPI. Starting at address to address+size 
 128:../lib/libDaisy/src/per/qspi.h ****         \param address Address to write to
 129:../lib/libDaisy/src/per/qspi.h ****         \param size Buffer size
 130:../lib/libDaisy/src/per/qspi.h ****         \param buffer Buffer to write
 131:../lib/libDaisy/src/per/qspi.h ****         \return Result::OK or Result::ERR
 132:../lib/libDaisy/src/per/qspi.h ****         */
 133:../lib/libDaisy/src/per/qspi.h ****     Result Write(uint32_t address, uint32_t size, uint8_t* buffer);
 134:../lib/libDaisy/src/per/qspi.h **** 
 135:../lib/libDaisy/src/per/qspi.h ****     /** 
 136:../lib/libDaisy/src/per/qspi.h ****         Erases the area specified on the chip.
 137:../lib/libDaisy/src/per/qspi.h ****         Erasures will happen by 4K, 32K or 64K increments.
 138:../lib/libDaisy/src/per/qspi.h ****         Smallest erase possible is 4kB at a time. (on IS25LP*)
 139:../lib/libDaisy/src/per/qspi.h ****         \param start_addr Address to begin erasing from
 140:../lib/libDaisy/src/per/qspi.h ****         \param end_addr  Address to stop erasing at
ARM GAS  /var/folders/hp/45mn71hd0ps5f5pnytxy5bt00000gn/T//ccKbf7aq.s 			page 68


 141:../lib/libDaisy/src/per/qspi.h ****         \return Result::OK or Result::ERR
 142:../lib/libDaisy/src/per/qspi.h ****         */
 143:../lib/libDaisy/src/per/qspi.h ****     Result Erase(uint32_t start_addr, uint32_t end_addr);
 144:../lib/libDaisy/src/per/qspi.h **** 
 145:../lib/libDaisy/src/per/qspi.h ****     /**  
 146:../lib/libDaisy/src/per/qspi.h ****          Erases a single sector of the chip.  
 147:../lib/libDaisy/src/per/qspi.h ****         TODO: Document the size of this function. 
 148:../lib/libDaisy/src/per/qspi.h ****         \param address Address of sector to erase
 149:../lib/libDaisy/src/per/qspi.h ****         \return Result::OK or Result::ERR
 150:../lib/libDaisy/src/per/qspi.h ****         */
 151:../lib/libDaisy/src/per/qspi.h ****     Result EraseSector(uint32_t address);
 152:../lib/libDaisy/src/per/qspi.h **** 
 153:../lib/libDaisy/src/per/qspi.h ****     /** Returns the current class status. Useful for debugging.
 154:../lib/libDaisy/src/per/qspi.h ****      *  \returns Status
 155:../lib/libDaisy/src/per/qspi.h ****      */
 156:../lib/libDaisy/src/per/qspi.h ****     Status GetStatus();
 157:../lib/libDaisy/src/per/qspi.h **** 
 158:../lib/libDaisy/src/per/qspi.h ****     /** Returns a pointer to the actual memory used 
 159:../lib/libDaisy/src/per/qspi.h ****      *  The memory at this address is read-only
 160:../lib/libDaisy/src/per/qspi.h ****      *  to write to it use the Write function.
 161:../lib/libDaisy/src/per/qspi.h ****      * 
 162:../lib/libDaisy/src/per/qspi.h ****      *  \param offset returns the pointer starting this 
 163:../lib/libDaisy/src/per/qspi.h ****      *                many bytes into the memory
 164:../lib/libDaisy/src/per/qspi.h ****     */
 165:../lib/libDaisy/src/per/qspi.h ****     void* GetData(uint32_t offset = 0);
 166:../lib/libDaisy/src/per/qspi.h **** 
 167:../lib/libDaisy/src/per/qspi.h ****     QSPIHandle() : pimpl_(nullptr) {}
 1743              		.loc 23 167 5 view .LVU495
 1744              		.loc 23 167 5 is_stmt 0 view .LVU496
 1745              	.LBE1130:
 1746              	.LBB1133:
 1747              	.LBI1133:
  58:../lib/libDaisy/src/per/qspi.h ****     {
 1748              		.loc 23 58 12 is_stmt 1 view .LVU497
 1749              	.LBB1134:
 1750              	.LBI1134:
  84:../lib/libDaisy/src/per/qspi.h ****             Pin io0; /**< & */
 1751              		.loc 23 84 9 view .LVU498
 1752              	.LBB1135:
 1753              	.LBI1135:
 1754              		.file 24 "../lib/libDaisy/src/daisy_core.h"
   1:../lib/libDaisy/src/daisy_core.h **** #pragma once
   2:../lib/libDaisy/src/daisy_core.h **** #ifndef DSY_CORE_HW_H
   3:../lib/libDaisy/src/daisy_core.h **** #define DSY_CORE_HW_H /**< & */
   4:../lib/libDaisy/src/daisy_core.h **** #include <stdint.h>
   5:../lib/libDaisy/src/daisy_core.h **** #include <stdlib.h>
   6:../lib/libDaisy/src/daisy_core.h **** 
   7:../lib/libDaisy/src/daisy_core.h **** #if defined(_MSC_VER)
   8:../lib/libDaisy/src/daisy_core.h **** #define FORCE_INLINE __forceinline /**< & */
   9:../lib/libDaisy/src/daisy_core.h **** #elif defined(__clang__)
  10:../lib/libDaisy/src/daisy_core.h **** #define FORCE_INLINE inline __attribute__((always_inline)) /**< & */
  11:../lib/libDaisy/src/daisy_core.h **** #pragma clang diagnostic ignored "-Wduplicate-decl-specifier"
  12:../lib/libDaisy/src/daisy_core.h **** #elif defined(__GNUC__)
  13:../lib/libDaisy/src/daisy_core.h **** #define FORCE_INLINE inline __attribute__((always_inline)) /**< & */
  14:../lib/libDaisy/src/daisy_core.h **** #else
  15:../lib/libDaisy/src/daisy_core.h **** #error unknown compiler
  16:../lib/libDaisy/src/daisy_core.h **** #endif
ARM GAS  /var/folders/hp/45mn71hd0ps5f5pnytxy5bt00000gn/T//ccKbf7aq.s 			page 69


  17:../lib/libDaisy/src/daisy_core.h **** 
  18:../lib/libDaisy/src/daisy_core.h **** /** @addtogroup utility
  19:../lib/libDaisy/src/daisy_core.h ****     @{
  20:../lib/libDaisy/src/daisy_core.h **** */
  21:../lib/libDaisy/src/daisy_core.h **** 
  22:../lib/libDaisy/src/daisy_core.h **** /** Macro for area of memory that is configured as cacheless
  23:../lib/libDaisy/src/daisy_core.h **** This should be used primarily for DMA buffers, and the like.
  24:../lib/libDaisy/src/daisy_core.h **** */
  25:../lib/libDaisy/src/daisy_core.h **** #define DMA_BUFFER_MEM_SECTION __attribute__((section(".sram1_bss")))
  26:../lib/libDaisy/src/daisy_core.h **** /** 
  27:../lib/libDaisy/src/daisy_core.h **** THE DTCM RAM section is also non-cached. However, is not suitable 
  28:../lib/libDaisy/src/daisy_core.h **** for DMA transfers. Performance is on par with internal SRAM w/ 
  29:../lib/libDaisy/src/daisy_core.h **** cache enabled.
  30:../lib/libDaisy/src/daisy_core.h **** */
  31:../lib/libDaisy/src/daisy_core.h **** #define DTCM_MEM_SECTION __attribute__((section(".dtcmram_bss")))
  32:../lib/libDaisy/src/daisy_core.h **** 
  33:../lib/libDaisy/src/daisy_core.h **** #define FBIPMAX 0.999985f             /**< close to 1.0f-LSB at 16 bit */
  34:../lib/libDaisy/src/daisy_core.h **** #define FBIPMIN (-FBIPMAX)            /**< - (1 - LSB) */
  35:../lib/libDaisy/src/daisy_core.h **** #define U82F_SCALE 0.0078740f         /**< 1 / 127 */
  36:../lib/libDaisy/src/daisy_core.h **** #define F2U8_SCALE 127.0f             /**< 128 - 1 */
  37:../lib/libDaisy/src/daisy_core.h **** #define S82F_SCALE 0.0078125f         /**< 1 / (2**7) */
  38:../lib/libDaisy/src/daisy_core.h **** #define F2S8_SCALE 127.0f             /**< (2 ** 7) - 1 */
  39:../lib/libDaisy/src/daisy_core.h **** #define S162F_SCALE 3.0517578125e-05f /**< 1 / (2** 15) */
  40:../lib/libDaisy/src/daisy_core.h **** #define F2S16_SCALE 32767.0f          /**< (2 ** 15) - 1 */
  41:../lib/libDaisy/src/daisy_core.h **** #define F2S24_SCALE 8388608.0f        /**< 2 ** 23 */
  42:../lib/libDaisy/src/daisy_core.h **** #define S242F_SCALE 1.192092896e-07f  /**< 1 / (2 ** 23) */
  43:../lib/libDaisy/src/daisy_core.h **** #define S24SIGN 0x800000              /**< 2 ** 23 */
  44:../lib/libDaisy/src/daisy_core.h **** #define S322F_SCALE 4.6566129e-10f    /**< 1 / (2** 31) */
  45:../lib/libDaisy/src/daisy_core.h **** #define F2S32_SCALE 2147483647.f      /**< (2 ** 31) - 1 */
  46:../lib/libDaisy/src/daisy_core.h **** 
  47:../lib/libDaisy/src/daisy_core.h **** 
  48:../lib/libDaisy/src/daisy_core.h **** /** shorthand macro for simplifying the reading of the left 
  49:../lib/libDaisy/src/daisy_core.h ****  *  channel of a non-interleaved output buffer named out */
  50:../lib/libDaisy/src/daisy_core.h **** #define OUT_L out[0]
  51:../lib/libDaisy/src/daisy_core.h **** 
  52:../lib/libDaisy/src/daisy_core.h **** /** shorthand macro for simplifying the reading of the right 
  53:../lib/libDaisy/src/daisy_core.h ****  *  channel of a non-interleaved output buffer named out */
  54:../lib/libDaisy/src/daisy_core.h **** #define OUT_R out[1]
  55:../lib/libDaisy/src/daisy_core.h **** 
  56:../lib/libDaisy/src/daisy_core.h **** /** shorthand macro for simplifying the reading of the left 
  57:../lib/libDaisy/src/daisy_core.h ****  *  channel of a non-interleaved input buffer named in */
  58:../lib/libDaisy/src/daisy_core.h **** #define IN_L in[0]
  59:../lib/libDaisy/src/daisy_core.h **** 
  60:../lib/libDaisy/src/daisy_core.h **** /** shorthand macro for simplifying the reading of the right 
  61:../lib/libDaisy/src/daisy_core.h ****  *  channel of a non-interleaved input buffer named in */
  62:../lib/libDaisy/src/daisy_core.h **** #define IN_R in[1]
  63:../lib/libDaisy/src/daisy_core.h **** 
  64:../lib/libDaisy/src/daisy_core.h **** /** 
  65:../lib/libDaisy/src/daisy_core.h ****     Computes cube.
  66:../lib/libDaisy/src/daisy_core.h ****     \param x Number to be cubed
  67:../lib/libDaisy/src/daisy_core.h ****     \return x ^ 3
  68:../lib/libDaisy/src/daisy_core.h **** */
  69:../lib/libDaisy/src/daisy_core.h **** FORCE_INLINE float cube(float x)
  70:../lib/libDaisy/src/daisy_core.h **** {
  71:../lib/libDaisy/src/daisy_core.h ****     return (x * x) * x;
  72:../lib/libDaisy/src/daisy_core.h **** }
  73:../lib/libDaisy/src/daisy_core.h **** 
ARM GAS  /var/folders/hp/45mn71hd0ps5f5pnytxy5bt00000gn/T//ccKbf7aq.s 			page 70


  74:../lib/libDaisy/src/daisy_core.h **** /** 
  75:../lib/libDaisy/src/daisy_core.h ****     Converts unsigned 8-bit to float
  76:../lib/libDaisy/src/daisy_core.h ****     \param x Number to be scaled.
  77:../lib/libDaisy/src/daisy_core.h ****     \return Scaled number.
  78:../lib/libDaisy/src/daisy_core.h **** */
  79:../lib/libDaisy/src/daisy_core.h **** FORCE_INLINE float u82f(uint8_t x)
  80:../lib/libDaisy/src/daisy_core.h **** {
  81:../lib/libDaisy/src/daisy_core.h ****     return ((float)x - 127.f) * U82F_SCALE;
  82:../lib/libDaisy/src/daisy_core.h **** }
  83:../lib/libDaisy/src/daisy_core.h **** 
  84:../lib/libDaisy/src/daisy_core.h **** /**
  85:../lib/libDaisy/src/daisy_core.h ****     Converts float to unsigned 8-bit
  86:../lib/libDaisy/src/daisy_core.h **** */
  87:../lib/libDaisy/src/daisy_core.h **** FORCE_INLINE uint8_t f2u8(float x)
  88:../lib/libDaisy/src/daisy_core.h **** {
  89:../lib/libDaisy/src/daisy_core.h ****     x = x <= FBIPMIN ? FBIPMIN : x;
  90:../lib/libDaisy/src/daisy_core.h ****     x = x >= FBIPMAX ? FBIPMAX : x;
  91:../lib/libDaisy/src/daisy_core.h ****     return (uint8_t)((x * F2U8_SCALE) + F2U8_SCALE);
  92:../lib/libDaisy/src/daisy_core.h **** }
  93:../lib/libDaisy/src/daisy_core.h **** 
  94:../lib/libDaisy/src/daisy_core.h **** 
  95:../lib/libDaisy/src/daisy_core.h **** /** 
  96:../lib/libDaisy/src/daisy_core.h ****     Converts Signed 8-bit to float
  97:../lib/libDaisy/src/daisy_core.h ****     \param x Number to be scaled.
  98:../lib/libDaisy/src/daisy_core.h ****     \return Scaled number.
  99:../lib/libDaisy/src/daisy_core.h **** */
 100:../lib/libDaisy/src/daisy_core.h **** FORCE_INLINE float s82f(int8_t x)
 101:../lib/libDaisy/src/daisy_core.h **** {
 102:../lib/libDaisy/src/daisy_core.h ****     return (float)x * S82F_SCALE;
 103:../lib/libDaisy/src/daisy_core.h **** }
 104:../lib/libDaisy/src/daisy_core.h **** 
 105:../lib/libDaisy/src/daisy_core.h **** /**
 106:../lib/libDaisy/src/daisy_core.h ****     Converts float to Signed 8-bit
 107:../lib/libDaisy/src/daisy_core.h **** */
 108:../lib/libDaisy/src/daisy_core.h **** FORCE_INLINE int8_t f2s8(float x)
 109:../lib/libDaisy/src/daisy_core.h **** {
 110:../lib/libDaisy/src/daisy_core.h ****     x = x <= FBIPMIN ? FBIPMIN : x;
 111:../lib/libDaisy/src/daisy_core.h ****     x = x >= FBIPMAX ? FBIPMAX : x;
 112:../lib/libDaisy/src/daisy_core.h ****     return (int32_t)(x * F2S8_SCALE);
 113:../lib/libDaisy/src/daisy_core.h **** }
 114:../lib/libDaisy/src/daisy_core.h **** 
 115:../lib/libDaisy/src/daisy_core.h **** /** 
 116:../lib/libDaisy/src/daisy_core.h ****     Converts Signed 16-bit to float
 117:../lib/libDaisy/src/daisy_core.h ****     \param x Number to be scaled.
 118:../lib/libDaisy/src/daisy_core.h ****     \return Scaled number.
 119:../lib/libDaisy/src/daisy_core.h **** */
 120:../lib/libDaisy/src/daisy_core.h **** FORCE_INLINE float s162f(int16_t x)
 121:../lib/libDaisy/src/daisy_core.h **** {
 122:../lib/libDaisy/src/daisy_core.h ****     return (float)x * S162F_SCALE;
 123:../lib/libDaisy/src/daisy_core.h **** }
 124:../lib/libDaisy/src/daisy_core.h **** 
 125:../lib/libDaisy/src/daisy_core.h **** /**
 126:../lib/libDaisy/src/daisy_core.h ****     Converts float to Signed 16-bit
 127:../lib/libDaisy/src/daisy_core.h **** */
 128:../lib/libDaisy/src/daisy_core.h **** FORCE_INLINE int16_t f2s16(float x)
 129:../lib/libDaisy/src/daisy_core.h **** {
 130:../lib/libDaisy/src/daisy_core.h ****     x = x <= FBIPMIN ? FBIPMIN : x;
ARM GAS  /var/folders/hp/45mn71hd0ps5f5pnytxy5bt00000gn/T//ccKbf7aq.s 			page 71


 131:../lib/libDaisy/src/daisy_core.h ****     x = x >= FBIPMAX ? FBIPMAX : x;
 132:../lib/libDaisy/src/daisy_core.h ****     return (int32_t)(x * F2S16_SCALE);
 133:../lib/libDaisy/src/daisy_core.h **** }
 134:../lib/libDaisy/src/daisy_core.h **** 
 135:../lib/libDaisy/src/daisy_core.h **** /**
 136:../lib/libDaisy/src/daisy_core.h ****     Converts Signed 24-bit to float
 137:../lib/libDaisy/src/daisy_core.h ****  */
 138:../lib/libDaisy/src/daisy_core.h **** FORCE_INLINE float s242f(int32_t x)
 139:../lib/libDaisy/src/daisy_core.h **** {
 140:../lib/libDaisy/src/daisy_core.h ****     x = (x ^ S24SIGN) - S24SIGN; //sign extend aka ((x<<8)>>8)
 141:../lib/libDaisy/src/daisy_core.h ****     return (float)x * S242F_SCALE;
 142:../lib/libDaisy/src/daisy_core.h **** }
 143:../lib/libDaisy/src/daisy_core.h **** /**
 144:../lib/libDaisy/src/daisy_core.h ****     Converts float to Signed 24-bit
 145:../lib/libDaisy/src/daisy_core.h ****  */
 146:../lib/libDaisy/src/daisy_core.h **** FORCE_INLINE int32_t f2s24(float x)
 147:../lib/libDaisy/src/daisy_core.h **** {
 148:../lib/libDaisy/src/daisy_core.h ****     x = x <= FBIPMIN ? FBIPMIN : x;
 149:../lib/libDaisy/src/daisy_core.h ****     x = x >= FBIPMAX ? FBIPMAX : x;
 150:../lib/libDaisy/src/daisy_core.h ****     return (int32_t)(x * F2S24_SCALE);
 151:../lib/libDaisy/src/daisy_core.h **** }
 152:../lib/libDaisy/src/daisy_core.h **** 
 153:../lib/libDaisy/src/daisy_core.h **** /**
 154:../lib/libDaisy/src/daisy_core.h ****     Converts Signed 32-bit to float
 155:../lib/libDaisy/src/daisy_core.h ****  */
 156:../lib/libDaisy/src/daisy_core.h **** FORCE_INLINE float s322f(int32_t x)
 157:../lib/libDaisy/src/daisy_core.h **** {
 158:../lib/libDaisy/src/daisy_core.h ****     return (float)x * S322F_SCALE;
 159:../lib/libDaisy/src/daisy_core.h **** }
 160:../lib/libDaisy/src/daisy_core.h **** /**
 161:../lib/libDaisy/src/daisy_core.h ****     Converts float to Signed 24-bit
 162:../lib/libDaisy/src/daisy_core.h ****  */
 163:../lib/libDaisy/src/daisy_core.h **** FORCE_INLINE int32_t f2s32(float x)
 164:../lib/libDaisy/src/daisy_core.h **** {
 165:../lib/libDaisy/src/daisy_core.h ****     x = x <= FBIPMIN ? FBIPMIN : x;
 166:../lib/libDaisy/src/daisy_core.h ****     x = x >= FBIPMAX ? FBIPMAX : x;
 167:../lib/libDaisy/src/daisy_core.h ****     return (int32_t)(x * F2S32_SCALE);
 168:../lib/libDaisy/src/daisy_core.h **** }
 169:../lib/libDaisy/src/daisy_core.h **** 
 170:../lib/libDaisy/src/daisy_core.h **** #ifdef __cplusplus
 171:../lib/libDaisy/src/daisy_core.h **** 
 172:../lib/libDaisy/src/daisy_core.h **** namespace daisy
 173:../lib/libDaisy/src/daisy_core.h **** {
 174:../lib/libDaisy/src/daisy_core.h **** /** @brief GPIO Port names */
 175:../lib/libDaisy/src/daisy_core.h **** enum GPIOPort
 176:../lib/libDaisy/src/daisy_core.h **** {
 177:../lib/libDaisy/src/daisy_core.h ****     PORTA, /**< Port A */
 178:../lib/libDaisy/src/daisy_core.h ****     PORTB, /**< Port B */
 179:../lib/libDaisy/src/daisy_core.h ****     PORTC, /**< Port C */
 180:../lib/libDaisy/src/daisy_core.h ****     PORTD, /**< Port D */
 181:../lib/libDaisy/src/daisy_core.h ****     PORTE, /**< Port E */
 182:../lib/libDaisy/src/daisy_core.h ****     PORTF, /**< Port F */
 183:../lib/libDaisy/src/daisy_core.h ****     PORTG, /**< Port G */
 184:../lib/libDaisy/src/daisy_core.h ****     PORTH, /**< Port H */
 185:../lib/libDaisy/src/daisy_core.h ****     PORTI, /**< Port I */
 186:../lib/libDaisy/src/daisy_core.h ****     PORTJ, /**< Port J */
 187:../lib/libDaisy/src/daisy_core.h ****     PORTK, /**< Port K */
ARM GAS  /var/folders/hp/45mn71hd0ps5f5pnytxy5bt00000gn/T//ccKbf7aq.s 			page 72


 188:../lib/libDaisy/src/daisy_core.h ****     PORTX, /**< Used as a dummy port to signal an invalid pin. */
 189:../lib/libDaisy/src/daisy_core.h **** };
 190:../lib/libDaisy/src/daisy_core.h **** 
 191:../lib/libDaisy/src/daisy_core.h **** /** @brief representation of hardware port/pin combination */
 192:../lib/libDaisy/src/daisy_core.h **** struct Pin
 193:../lib/libDaisy/src/daisy_core.h **** {
 194:../lib/libDaisy/src/daisy_core.h ****     GPIOPort port;
 195:../lib/libDaisy/src/daisy_core.h ****     uint8_t  pin;
 196:../lib/libDaisy/src/daisy_core.h **** 
 197:../lib/libDaisy/src/daisy_core.h ****     /** @brief Constructor creates a valid pin. 
 198:../lib/libDaisy/src/daisy_core.h ****      *  @param pt GPIOPort between PA, and PK corresponding to STM32 Port.
 199:../lib/libDaisy/src/daisy_core.h ****      *  @param pn pin number in range of 0-15
 200:../lib/libDaisy/src/daisy_core.h ****     */
 201:../lib/libDaisy/src/daisy_core.h ****     constexpr Pin(const GPIOPort pt, const uint8_t pn) : port(pt), pin(pn) {}
 202:../lib/libDaisy/src/daisy_core.h **** 
 203:../lib/libDaisy/src/daisy_core.h ****     /** @brief Basic Constructor creates an invalid Pin object */
 204:../lib/libDaisy/src/daisy_core.h ****     constexpr Pin() : port(PORTX), pin(255) {}
 1755              		.loc 24 204 15 view .LVU499
 1756              		.loc 24 204 15 is_stmt 0 view .LVU500
 1757              	.LBE1135:
 1758              	.LBB1136:
 1759              	.LBI1136:
 1760              		.loc 24 204 15 is_stmt 1 view .LVU501
 1761              		.loc 24 204 15 is_stmt 0 view .LVU502
 1762              	.LBE1136:
 1763              	.LBB1137:
 1764              	.LBI1137:
 1765              		.loc 24 204 15 is_stmt 1 view .LVU503
 1766              		.loc 24 204 15 is_stmt 0 view .LVU504
 1767              	.LBE1137:
 1768              	.LBB1138:
 1769              	.LBI1138:
 1770              		.loc 24 204 15 is_stmt 1 view .LVU505
 1771              		.loc 24 204 15 is_stmt 0 view .LVU506
 1772              	.LBE1138:
 1773              	.LBB1139:
 1774              	.LBI1139:
 1775              		.loc 24 204 15 is_stmt 1 view .LVU507
 1776              		.loc 24 204 15 is_stmt 0 view .LVU508
 1777              	.LBE1139:
 1778              	.LBB1140:
 1779              	.LBI1140:
 1780              		.loc 24 204 15 is_stmt 1 view .LVU509
 1781              		.loc 24 204 15 is_stmt 0 view .LVU510
 1782              	.LBE1140:
 1783              	.LBE1134:
 1784              	.LBE1133:
 1785              	.LBB1141:
 1786              	.LBI1141:
  87:../lib/libDaisy/src/hid/audio.h ****     ~AudioHandle() {}
 1787              		.loc 16 87 5 is_stmt 1 view .LVU511
  87:../lib/libDaisy/src/hid/audio.h ****     ~AudioHandle() {}
 1788              		.loc 16 87 5 is_stmt 0 view .LVU512
 1789              	.LBE1141:
 1790              	.LBB1144:
 1791              	.LBI1144:
 109:../lib/libDaisy/src/per/adc.h ****     ~AdcHandle() {}
ARM GAS  /var/folders/hp/45mn71hd0ps5f5pnytxy5bt00000gn/T//ccKbf7aq.s 			page 73


 1792              		.loc 15 109 5 is_stmt 1 view .LVU513
 109:../lib/libDaisy/src/per/adc.h ****     ~AdcHandle() {}
 1793              		.loc 15 109 5 is_stmt 0 view .LVU514
 1794              	.LBE1144:
 1795              	.LBB1145:
 1796              	.LBI1145:
 1797              		.file 25 "../lib/libDaisy/src/per/dac.h"
   1:../lib/libDaisy/src/per/dac.h **** #pragma once
   2:../lib/libDaisy/src/per/dac.h **** #ifndef DSY_DAC_H
   3:../lib/libDaisy/src/per/dac.h **** #define DSY_DAC_H
   4:../lib/libDaisy/src/per/dac.h **** #include "stm32h7xx_hal.h"
   5:../lib/libDaisy/src/per/dac.h **** #include "daisy_core.h"
   6:../lib/libDaisy/src/per/dac.h **** 
   7:../lib/libDaisy/src/per/dac.h **** namespace daisy
   8:../lib/libDaisy/src/per/dac.h **** {
   9:../lib/libDaisy/src/per/dac.h **** /** @brief DAC handle for Built-in DAC Peripheral 
  10:../lib/libDaisy/src/per/dac.h ****  *  @ingroup per_analog
  11:../lib/libDaisy/src/per/dac.h ****  ** 
  12:../lib/libDaisy/src/per/dac.h ****  ** For now only Normal Mode is supported,
  13:../lib/libDaisy/src/per/dac.h ****  ** Sample and hold mode provides reduced power consumption, but requires a bit more setup.
  14:../lib/libDaisy/src/per/dac.h ****  **
  15:../lib/libDaisy/src/per/dac.h ****  ** For now connecting the DAC through other internal peripherals is also not supported.
  16:../lib/libDaisy/src/per/dac.h ****  **
  17:../lib/libDaisy/src/per/dac.h ****  ** Since the DAC channels have dedicated pins we don't need to pass in a pin config like with
  18:../lib/libDaisy/src/per/dac.h ****  ** other modules. However, it is still important to not try to use the DAC pins for anything else.
  19:../lib/libDaisy/src/per/dac.h ****  ** DAC Channel 1 is on PA4, and DAC Channel 2 is on PA5
  20:../lib/libDaisy/src/per/dac.h ****  ***/
  21:../lib/libDaisy/src/per/dac.h **** class DacHandle
  22:../lib/libDaisy/src/per/dac.h **** {
  23:../lib/libDaisy/src/per/dac.h ****   public:
  24:../lib/libDaisy/src/per/dac.h ****     /** Return Values for the DacHandle class */
  25:../lib/libDaisy/src/per/dac.h ****     enum class Result
  26:../lib/libDaisy/src/per/dac.h ****     {
  27:../lib/libDaisy/src/per/dac.h ****         OK,
  28:../lib/libDaisy/src/per/dac.h ****         ERR,
  29:../lib/libDaisy/src/per/dac.h ****     };
  30:../lib/libDaisy/src/per/dac.h **** 
  31:../lib/libDaisy/src/per/dac.h ****     /** Selects which channel(s) will be configured for use. */
  32:../lib/libDaisy/src/per/dac.h ****     enum class Channel
  33:../lib/libDaisy/src/per/dac.h ****     {
  34:../lib/libDaisy/src/per/dac.h ****         ONE,
  35:../lib/libDaisy/src/per/dac.h ****         TWO,
  36:../lib/libDaisy/src/per/dac.h ****         BOTH,
  37:../lib/libDaisy/src/per/dac.h ****     };
  38:../lib/libDaisy/src/per/dac.h **** 
  39:../lib/libDaisy/src/per/dac.h ****     /** Sets the Mode for the DAC channels.
  40:../lib/libDaisy/src/per/dac.h ****      **
  41:../lib/libDaisy/src/per/dac.h ****      ** Polling mode uses the blocking mode to transmit a single value at a time.
  42:../lib/libDaisy/src/per/dac.h ****      **
  43:../lib/libDaisy/src/per/dac.h ****      ** DMA mode uses a buffer, and periodically transmits it triggering a 
  44:../lib/libDaisy/src/per/dac.h ****      ** callback to fill the buffer when it is ready for more samples.
  45:../lib/libDaisy/src/per/dac.h ****      ***/
  46:../lib/libDaisy/src/per/dac.h ****     enum class Mode
  47:../lib/libDaisy/src/per/dac.h ****     {
  48:../lib/libDaisy/src/per/dac.h ****         POLLING,
  49:../lib/libDaisy/src/per/dac.h ****         DMA,
  50:../lib/libDaisy/src/per/dac.h ****     };
ARM GAS  /var/folders/hp/45mn71hd0ps5f5pnytxy5bt00000gn/T//ccKbf7aq.s 			page 74


  51:../lib/libDaisy/src/per/dac.h **** 
  52:../lib/libDaisy/src/per/dac.h ****     /** Sets the number of bits per sample transmitted out of the DAC.
  53:../lib/libDaisy/src/per/dac.h ****      ** The output range will be: 0V - VDDA
  54:../lib/libDaisy/src/per/dac.h ****      ** The resolution will be roughly: bitdepth / (VDDA - 0V) 
  55:../lib/libDaisy/src/per/dac.h ****      ***/
  56:../lib/libDaisy/src/per/dac.h ****     enum class BitDepth
  57:../lib/libDaisy/src/per/dac.h ****     {
  58:../lib/libDaisy/src/per/dac.h ****         BITS_8,
  59:../lib/libDaisy/src/per/dac.h ****         BITS_12
  60:../lib/libDaisy/src/per/dac.h ****     };
  61:../lib/libDaisy/src/per/dac.h **** 
  62:../lib/libDaisy/src/per/dac.h ****     /** Sets whether the DAC output is buffered for higher drive ability. */
  63:../lib/libDaisy/src/per/dac.h ****     enum class BufferState
  64:../lib/libDaisy/src/per/dac.h ****     {
