ARM GAS  /var/folders/hp/45mn71hd0ps5f5pnytxy5bt00000gn/T//ccdvmoSj.s 			page 1


   1              		.cpu cortex-m7
   2              		.arch armv7e-m
   3              		.fpu fpv5-d16
   4              		.eabi_attribute 28, 1
   5              		.eabi_attribute 20, 1
   6              		.eabi_attribute 21, 1
   7              		.eabi_attribute 23, 3
   8              		.eabi_attribute 24, 1
   9              		.eabi_attribute 25, 1
  10              		.eabi_attribute 26, 1
  11              		.eabi_attribute 30, 2
  12              		.eabi_attribute 34, 1
  13              		.eabi_attribute 18, 4
  14              		.file	"displayDaisy.cpp"
  15              		.text
  16              	.Ltext0:
  17              		.cfi_sections	.debug_frame
  18              		.section	.text._ZN5daisy9DaisySeedD2Ev,"axG",%progbits,_ZN5daisy9DaisySeedD5Ev,comdat
  19              		.align	1
  20              		.p2align 2,,3
  21              		.weak	_ZN5daisy9DaisySeedD2Ev
  22              		.syntax unified
  23              		.thumb
  24              		.thumb_func
  26              	_ZN5daisy9DaisySeedD2Ev:
  27              	.LVL0:
  28              	.LFB2556:
  29              		.file 1 "../../DaisyExamples/libDaisy//src/daisy_seed.h"
   1:../../DaisyExamples/libDaisy//src/daisy_seed.h **** #pragma once
   2:../../DaisyExamples/libDaisy//src/daisy_seed.h **** #ifndef DSY_SEED_H
   3:../../DaisyExamples/libDaisy//src/daisy_seed.h **** #define DSY_SEED_H
   4:../../DaisyExamples/libDaisy//src/daisy_seed.h **** 
   5:../../DaisyExamples/libDaisy//src/daisy_seed.h **** #include "daisy.h"
   6:../../DaisyExamples/libDaisy//src/daisy_seed.h **** 
   7:../../DaisyExamples/libDaisy//src/daisy_seed.h **** //Uncomment this out if you're still using the rev2 hardware
   8:../../DaisyExamples/libDaisy//src/daisy_seed.h **** //#define SEED_REV2
   9:../../DaisyExamples/libDaisy//src/daisy_seed.h **** 
  10:../../DaisyExamples/libDaisy//src/daisy_seed.h **** namespace daisy
  11:../../DaisyExamples/libDaisy//src/daisy_seed.h **** {
  12:../../DaisyExamples/libDaisy//src/daisy_seed.h **** /**
  13:../../DaisyExamples/libDaisy//src/daisy_seed.h ****    @brief This is the higher-level interface for the Daisy board. \n 
  14:../../DaisyExamples/libDaisy//src/daisy_seed.h ****     All basic peripheral configuration/initialization is setup here. \n
  15:../../DaisyExamples/libDaisy//src/daisy_seed.h **** 
  16:../../DaisyExamples/libDaisy//src/daisy_seed.h ****    @ingroup boards
  17:../../DaisyExamples/libDaisy//src/daisy_seed.h **** */
  18:../../DaisyExamples/libDaisy//src/daisy_seed.h **** class DaisySeed
  19:../../DaisyExamples/libDaisy//src/daisy_seed.h **** {
  20:../../DaisyExamples/libDaisy//src/daisy_seed.h ****   public:
  21:../../DaisyExamples/libDaisy//src/daisy_seed.h ****     DaisySeed() {}
  22:../../DaisyExamples/libDaisy//src/daisy_seed.h ****     ~DaisySeed() {}
  30              		.loc 1 22 5 view -0
  31              		.cfi_startproc
  32              		@ args = 0, pretend = 0, frame = 0
  33              		@ frame_needed = 0, uses_anonymous_args = 0
  34              		@ link register save eliminated.
  35              	.LBB335:
  36              	.LBI335:
ARM GAS  /var/folders/hp/45mn71hd0ps5f5pnytxy5bt00000gn/T//ccdvmoSj.s 			page 2


  37              		.file 2 "../../DaisyExamples/libDaisy//src/sys/system.h"
   1:../../DaisyExamples/libDaisy//src/sys/system.h **** #ifndef DSY_SYSTEM_H
   2:../../DaisyExamples/libDaisy//src/sys/system.h **** #define DSY_SYSTEM_H
   3:../../DaisyExamples/libDaisy//src/sys/system.h **** 
   4:../../DaisyExamples/libDaisy//src/sys/system.h **** #ifndef UNIT_TEST // for unit tests, a dummy implementation is provided below
   5:../../DaisyExamples/libDaisy//src/sys/system.h **** 
   6:../../DaisyExamples/libDaisy//src/sys/system.h **** #include <cstdint>
   7:../../DaisyExamples/libDaisy//src/sys/system.h **** #include "per/tim.h"
   8:../../DaisyExamples/libDaisy//src/sys/system.h **** 
   9:../../DaisyExamples/libDaisy//src/sys/system.h **** namespace daisy
  10:../../DaisyExamples/libDaisy//src/sys/system.h **** {
  11:../../DaisyExamples/libDaisy//src/sys/system.h **** /** A handle for interacting with the Core System.
  12:../../DaisyExamples/libDaisy//src/sys/system.h ****  ** This includes the Clock tree, MPU, global DMA initialization,
  13:../../DaisyExamples/libDaisy//src/sys/system.h ****  ** cache handling, and any other necessary global initiailzation
  14:../../DaisyExamples/libDaisy//src/sys/system.h ****  **
  15:../../DaisyExamples/libDaisy//src/sys/system.h ****  ** @author shensley
  16:../../DaisyExamples/libDaisy//src/sys/system.h ****  ** @ingroup system
  17:../../DaisyExamples/libDaisy//src/sys/system.h ****  */
  18:../../DaisyExamples/libDaisy//src/sys/system.h **** class System
  19:../../DaisyExamples/libDaisy//src/sys/system.h **** {
  20:../../DaisyExamples/libDaisy//src/sys/system.h ****   public:
  21:../../DaisyExamples/libDaisy//src/sys/system.h ****     /** Contains settings for initializing the System */
  22:../../DaisyExamples/libDaisy//src/sys/system.h ****     struct Config
  23:../../DaisyExamples/libDaisy//src/sys/system.h ****     {
  24:../../DaisyExamples/libDaisy//src/sys/system.h ****         /** Specifies the system clock frequency that feeds APB/AHB clocks, etc. */
  25:../../DaisyExamples/libDaisy//src/sys/system.h ****         enum class SysClkFreq
  26:../../DaisyExamples/libDaisy//src/sys/system.h ****         {
  27:../../DaisyExamples/libDaisy//src/sys/system.h ****             FREQ_400MHZ,
  28:../../DaisyExamples/libDaisy//src/sys/system.h ****             FREQ_480MHZ,
  29:../../DaisyExamples/libDaisy//src/sys/system.h ****         };
  30:../../DaisyExamples/libDaisy//src/sys/system.h **** 
  31:../../DaisyExamples/libDaisy//src/sys/system.h ****         /** Method to call on the struct to set to defaults
  32:../../DaisyExamples/libDaisy//src/sys/system.h ****          ** CPU Freq set to 400MHz
  33:../../DaisyExamples/libDaisy//src/sys/system.h ****          ** Cache Enabled
  34:../../DaisyExamples/libDaisy//src/sys/system.h ****          ** */
  35:../../DaisyExamples/libDaisy//src/sys/system.h ****         void Defaults()
  36:../../DaisyExamples/libDaisy//src/sys/system.h ****         {
  37:../../DaisyExamples/libDaisy//src/sys/system.h ****             cpu_freq    = SysClkFreq::FREQ_400MHZ;
  38:../../DaisyExamples/libDaisy//src/sys/system.h ****             use_dcache  = true;
  39:../../DaisyExamples/libDaisy//src/sys/system.h ****             use_icache  = true;
  40:../../DaisyExamples/libDaisy//src/sys/system.h ****             skip_clocks = false;
  41:../../DaisyExamples/libDaisy//src/sys/system.h ****         }
  42:../../DaisyExamples/libDaisy//src/sys/system.h **** 
  43:../../DaisyExamples/libDaisy//src/sys/system.h ****         /** Method to call on the struct to set to boost mode:
  44:../../DaisyExamples/libDaisy//src/sys/system.h ****          ** CPU Freq set to 480MHz
  45:../../DaisyExamples/libDaisy//src/sys/system.h ****          ** Cache Enabled
  46:../../DaisyExamples/libDaisy//src/sys/system.h ****          ** */
  47:../../DaisyExamples/libDaisy//src/sys/system.h ****         void Boost()
  48:../../DaisyExamples/libDaisy//src/sys/system.h ****         {
  49:../../DaisyExamples/libDaisy//src/sys/system.h ****             cpu_freq    = SysClkFreq::FREQ_480MHZ;
  50:../../DaisyExamples/libDaisy//src/sys/system.h ****             use_dcache  = true;
  51:../../DaisyExamples/libDaisy//src/sys/system.h ****             use_icache  = true;
  52:../../DaisyExamples/libDaisy//src/sys/system.h ****             skip_clocks = false;
  53:../../DaisyExamples/libDaisy//src/sys/system.h ****         }
  54:../../DaisyExamples/libDaisy//src/sys/system.h **** 
  55:../../DaisyExamples/libDaisy//src/sys/system.h ****         SysClkFreq cpu_freq;
  56:../../DaisyExamples/libDaisy//src/sys/system.h ****         bool       use_dcache;
ARM GAS  /var/folders/hp/45mn71hd0ps5f5pnytxy5bt00000gn/T//ccdvmoSj.s 			page 3


  57:../../DaisyExamples/libDaisy//src/sys/system.h ****         bool       use_icache;
  58:../../DaisyExamples/libDaisy//src/sys/system.h ****         bool       skip_clocks;
  59:../../DaisyExamples/libDaisy//src/sys/system.h ****     };
  60:../../DaisyExamples/libDaisy//src/sys/system.h **** 
  61:../../DaisyExamples/libDaisy//src/sys/system.h ****     /** Describes the different regions of memory available to the Daisy */
  62:../../DaisyExamples/libDaisy//src/sys/system.h ****     enum MemoryRegion
  63:../../DaisyExamples/libDaisy//src/sys/system.h ****     {
  64:../../DaisyExamples/libDaisy//src/sys/system.h ****         INTERNAL_FLASH = 0,
  65:../../DaisyExamples/libDaisy//src/sys/system.h ****         ITCMRAM,
  66:../../DaisyExamples/libDaisy//src/sys/system.h ****         DTCMRAM,
  67:../../DaisyExamples/libDaisy//src/sys/system.h ****         SRAM_D1,
  68:../../DaisyExamples/libDaisy//src/sys/system.h ****         SRAM_D2,
  69:../../DaisyExamples/libDaisy//src/sys/system.h ****         SRAM_D3,
  70:../../DaisyExamples/libDaisy//src/sys/system.h ****         SDRAM,
  71:../../DaisyExamples/libDaisy//src/sys/system.h ****         QSPI,
  72:../../DaisyExamples/libDaisy//src/sys/system.h ****         INVALID_ADDRESS,
  73:../../DaisyExamples/libDaisy//src/sys/system.h ****     };
  74:../../DaisyExamples/libDaisy//src/sys/system.h **** 
  75:../../DaisyExamples/libDaisy//src/sys/system.h ****     /** Bootloader struct for controlling bootloading parameters */
  76:../../DaisyExamples/libDaisy//src/sys/system.h ****     struct BootInfo
  77:../../DaisyExamples/libDaisy//src/sys/system.h ****     {
  78:../../DaisyExamples/libDaisy//src/sys/system.h ****         enum class Type : uint32_t
  79:../../DaisyExamples/libDaisy//src/sys/system.h ****         {
  80:../../DaisyExamples/libDaisy//src/sys/system.h ****             INVALID      = 0x00000000,
  81:../../DaisyExamples/libDaisy//src/sys/system.h ****             JUMP         = 0xDEADBEEF,
  82:../../DaisyExamples/libDaisy//src/sys/system.h ****             SKIP_TIMEOUT = 0x5AFEB007,
  83:../../DaisyExamples/libDaisy//src/sys/system.h ****             INF_TIMEOUT  = 0xB0074EFA,
  84:../../DaisyExamples/libDaisy//src/sys/system.h ****         } status;
  85:../../DaisyExamples/libDaisy//src/sys/system.h ****         uint32_t data;
  86:../../DaisyExamples/libDaisy//src/sys/system.h ****         enum class Version : uint32_t
  87:../../DaisyExamples/libDaisy//src/sys/system.h ****         {
  88:../../DaisyExamples/libDaisy//src/sys/system.h ****             LT_v6_0 = 0, // Less than v6.0
  89:../../DaisyExamples/libDaisy//src/sys/system.h ****             NONE,        // No bootloader present
  90:../../DaisyExamples/libDaisy//src/sys/system.h ****             v6_0,        // v6.0
  91:../../DaisyExamples/libDaisy//src/sys/system.h ****             v6_1,        // v6.1 or greater
  92:../../DaisyExamples/libDaisy//src/sys/system.h ****             LAST
  93:../../DaisyExamples/libDaisy//src/sys/system.h ****         } version;
  94:../../DaisyExamples/libDaisy//src/sys/system.h ****     };
  95:../../DaisyExamples/libDaisy//src/sys/system.h **** 
  96:../../DaisyExamples/libDaisy//src/sys/system.h ****     System() {}
  97:../../DaisyExamples/libDaisy//src/sys/system.h ****     ~System() {}
  38              		.loc 2 97 5 view .LVU1
  39              		.loc 2 97 5 is_stmt 0 view .LVU2
  40              	.LBE335:
  41              	.LBB336:
  42              	.LBI336:
  43              		.file 3 "../../DaisyExamples/libDaisy//src/hid/usb.h"
   1:../../DaisyExamples/libDaisy//src/hid/usb.h **** #pragma once
   2:../../DaisyExamples/libDaisy//src/hid/usb.h **** #ifndef DSY_HID_USB_H
   3:../../DaisyExamples/libDaisy//src/hid/usb.h **** #define DSY_HID_USB_H
   4:../../DaisyExamples/libDaisy//src/hid/usb.h **** #include <stdint.h>
   5:../../DaisyExamples/libDaisy//src/hid/usb.h **** #include <stdlib.h>
   6:../../DaisyExamples/libDaisy//src/hid/usb.h **** 
   7:../../DaisyExamples/libDaisy//src/hid/usb.h **** namespace daisy
   8:../../DaisyExamples/libDaisy//src/hid/usb.h **** /** @addtogroup human_interface
   9:../../DaisyExamples/libDaisy//src/hid/usb.h ****     @{
  10:../../DaisyExamples/libDaisy//src/hid/usb.h **** */
ARM GAS  /var/folders/hp/45mn71hd0ps5f5pnytxy5bt00000gn/T//ccdvmoSj.s 			page 4


  11:../../DaisyExamples/libDaisy//src/hid/usb.h **** 
  12:../../DaisyExamples/libDaisy//src/hid/usb.h **** {
  13:../../DaisyExamples/libDaisy//src/hid/usb.h **** /** 
  14:../../DaisyExamples/libDaisy//src/hid/usb.h ****     @brief Interface for initializing and using the USB Peripherals on the daisy
  15:../../DaisyExamples/libDaisy//src/hid/usb.h ****     @author Stephen Hensley
  16:../../DaisyExamples/libDaisy//src/hid/usb.h ****     @date December 2019
  17:../../DaisyExamples/libDaisy//src/hid/usb.h **** */
  18:../../DaisyExamples/libDaisy//src/hid/usb.h **** class UsbHandle
  19:../../DaisyExamples/libDaisy//src/hid/usb.h **** {
  20:../../DaisyExamples/libDaisy//src/hid/usb.h ****   public:
  21:../../DaisyExamples/libDaisy//src/hid/usb.h ****     /** Return values for USBHandle Functions */
  22:../../DaisyExamples/libDaisy//src/hid/usb.h ****     enum class Result
  23:../../DaisyExamples/libDaisy//src/hid/usb.h ****     {
  24:../../DaisyExamples/libDaisy//src/hid/usb.h ****         OK,
  25:../../DaisyExamples/libDaisy//src/hid/usb.h ****         ERR,
  26:../../DaisyExamples/libDaisy//src/hid/usb.h ****     };
  27:../../DaisyExamples/libDaisy//src/hid/usb.h **** 
  28:../../DaisyExamples/libDaisy//src/hid/usb.h ****     /** Specified which of the two USB Peripherals to initialize. */
  29:../../DaisyExamples/libDaisy//src/hid/usb.h ****     enum UsbPeriph
  30:../../DaisyExamples/libDaisy//src/hid/usb.h ****     {
  31:../../DaisyExamples/libDaisy//src/hid/usb.h ****         FS_INTERNAL, /**< Internal pin */
  32:../../DaisyExamples/libDaisy//src/hid/usb.h ****         FS_EXTERNAL, /**< FS External D+ pin is Pin 38 (GPIO32). FS External D- pin is Pin 37 (GPIO
  33:../../DaisyExamples/libDaisy//src/hid/usb.h ****         FS_BOTH,     /**< Both */
  34:../../DaisyExamples/libDaisy//src/hid/usb.h ****     };
  35:../../DaisyExamples/libDaisy//src/hid/usb.h **** 
  36:../../DaisyExamples/libDaisy//src/hid/usb.h **** 
  37:../../DaisyExamples/libDaisy//src/hid/usb.h ****     /** Function called upon reception of a buffer */
  38:../../DaisyExamples/libDaisy//src/hid/usb.h ****     typedef void (*ReceiveCallback)(uint8_t* buff, uint32_t* len);
  39:../../DaisyExamples/libDaisy//src/hid/usb.h **** 
  40:../../DaisyExamples/libDaisy//src/hid/usb.h ****     UsbHandle() {}
  41:../../DaisyExamples/libDaisy//src/hid/usb.h **** 
  42:../../DaisyExamples/libDaisy//src/hid/usb.h ****     ~UsbHandle() {}
  44              		.loc 3 42 5 is_stmt 1 view .LVU3
  45              		.loc 3 42 5 is_stmt 0 view .LVU4
  46              	.LBE336:
  47              	.LBB337:
  48              	.LBI337:
  49              		.file 4 "../../DaisyExamples/libDaisy//src/per/adc.h"
   1:../../DaisyExamples/libDaisy//src/per/adc.h **** #pragma once
   2:../../DaisyExamples/libDaisy//src/per/adc.h **** #ifndef DSY_ADC_H
   3:../../DaisyExamples/libDaisy//src/per/adc.h **** #define DSY_ADC_H /**< Macro */
   4:../../DaisyExamples/libDaisy//src/per/adc.h **** #include <stdint.h>
   5:../../DaisyExamples/libDaisy//src/per/adc.h **** #include <stdlib.h>
   6:../../DaisyExamples/libDaisy//src/per/adc.h **** #include "daisy_core.h"
   7:../../DaisyExamples/libDaisy//src/per/adc.h **** #include "per/gpio.h"
   8:../../DaisyExamples/libDaisy//src/per/adc.h **** 
   9:../../DaisyExamples/libDaisy//src/per/adc.h **** #define DSY_ADC_MAX_CHANNELS 16 /**< Maximum number of ADC channels */
  10:../../DaisyExamples/libDaisy//src/per/adc.h **** 
  11:../../DaisyExamples/libDaisy//src/per/adc.h **** namespace daisy
  12:../../DaisyExamples/libDaisy//src/per/adc.h **** {
  13:../../DaisyExamples/libDaisy//src/per/adc.h **** /** @addtogroup per_analog
  14:../../DaisyExamples/libDaisy//src/per/adc.h ****     @{
  15:../../DaisyExamples/libDaisy//src/per/adc.h **** */
  16:../../DaisyExamples/libDaisy//src/per/adc.h **** 
  17:../../DaisyExamples/libDaisy//src/per/adc.h **** /* While there may not be many configuration options here,
  18:../../DaisyExamples/libDaisy//src/per/adc.h **** using a struct like this allows us to add more configuration
  19:../../DaisyExamples/libDaisy//src/per/adc.h **** later without breaking existing functionality.
ARM GAS  /var/folders/hp/45mn71hd0ps5f5pnytxy5bt00000gn/T//ccdvmoSj.s 			page 5


  20:../../DaisyExamples/libDaisy//src/per/adc.h **** */
  21:../../DaisyExamples/libDaisy//src/per/adc.h **** 
  22:../../DaisyExamples/libDaisy//src/per/adc.h **** /** @brief   Configuration Structure for an ADC Channel 
  23:../../DaisyExamples/libDaisy//src/per/adc.h ****  *  @details This can be used to configure a a single input, 
  24:../../DaisyExamples/libDaisy//src/per/adc.h ****  *           or a multiplexed input, allowing up to 8 inputs on 
  25:../../DaisyExamples/libDaisy//src/per/adc.h ****  *           one channel.
  26:../../DaisyExamples/libDaisy//src/per/adc.h ****  *  @note    Sharing data lines to multiple muxes _is_ possible, but
  27:../../DaisyExamples/libDaisy//src/per/adc.h ****  *           each channel sharing data lines must be set to the maximum
  28:../../DaisyExamples/libDaisy//src/per/adc.h ****  *           number of channels, even if some multiplexers have fewer
  29:../../DaisyExamples/libDaisy//src/per/adc.h ****  *           inputs connected.
  30:../../DaisyExamples/libDaisy//src/per/adc.h **** */
  31:../../DaisyExamples/libDaisy//src/per/adc.h **** struct AdcChannelConfig
  32:../../DaisyExamples/libDaisy//src/per/adc.h **** {
  33:../../DaisyExamples/libDaisy//src/per/adc.h ****     /** Which pin to use for multiplexing */
  34:../../DaisyExamples/libDaisy//src/per/adc.h ****     enum MuxPin
  35:../../DaisyExamples/libDaisy//src/per/adc.h ****     {
  36:../../DaisyExamples/libDaisy//src/per/adc.h ****         MUX_SEL_0,    /**< & */
  37:../../DaisyExamples/libDaisy//src/per/adc.h ****         MUX_SEL_1,    /**< & */
  38:../../DaisyExamples/libDaisy//src/per/adc.h ****         MUX_SEL_2,    /**< & */
  39:../../DaisyExamples/libDaisy//src/per/adc.h ****         MUX_SEL_LAST, /**< & */
  40:../../DaisyExamples/libDaisy//src/per/adc.h ****     };
  41:../../DaisyExamples/libDaisy//src/per/adc.h **** 
  42:../../DaisyExamples/libDaisy//src/per/adc.h ****     /** \brief per channel conversion speed added to fixed time based on bitdepth, etc. */
  43:../../DaisyExamples/libDaisy//src/per/adc.h ****     enum ConversionSpeed
  44:../../DaisyExamples/libDaisy//src/per/adc.h ****     {
  45:../../DaisyExamples/libDaisy//src/per/adc.h ****         SPEED_1CYCLES_5,
  46:../../DaisyExamples/libDaisy//src/per/adc.h ****         SPEED_2CYCLES_5,
  47:../../DaisyExamples/libDaisy//src/per/adc.h ****         SPEED_8CYCLES_5,
  48:../../DaisyExamples/libDaisy//src/per/adc.h ****         SPEED_16CYCLES_5,
  49:../../DaisyExamples/libDaisy//src/per/adc.h ****         SPEED_32CYCLES_5,
  50:../../DaisyExamples/libDaisy//src/per/adc.h ****         SPEED_64CYCLES_5,
  51:../../DaisyExamples/libDaisy//src/per/adc.h ****         SPEED_387CYCLES_5,
  52:../../DaisyExamples/libDaisy//src/per/adc.h ****         SPEED_810CYCLES_5,
  53:../../DaisyExamples/libDaisy//src/per/adc.h ****     };
  54:../../DaisyExamples/libDaisy//src/per/adc.h **** 
  55:../../DaisyExamples/libDaisy//src/per/adc.h ****     /** Initializes a single ADC pin as an ADC. 
  56:../../DaisyExamples/libDaisy//src/per/adc.h ****     \param pin Pin to init.
  57:../../DaisyExamples/libDaisy//src/per/adc.h ****     \param speed conversion speed for this pin defaults to 8.5 cycles
  58:../../DaisyExamples/libDaisy//src/per/adc.h ****      */
  59:../../DaisyExamples/libDaisy//src/per/adc.h ****     void InitSingle(dsy_gpio_pin pin, ConversionSpeed speed = SPEED_8CYCLES_5);
  60:../../DaisyExamples/libDaisy//src/per/adc.h **** 
  61:../../DaisyExamples/libDaisy//src/per/adc.h ****     /** 
  62:../../DaisyExamples/libDaisy//src/per/adc.h ****     Initializes a single ADC pin as a Multiplexed ADC.
  63:../../DaisyExamples/libDaisy//src/per/adc.h ****     Requires a CD405X Multiplexer connected to the pin.
  64:../../DaisyExamples/libDaisy//src/per/adc.h ****     You only need to supply the mux pins that are required,
  65:../../DaisyExamples/libDaisy//src/per/adc.h ****     e.g. a 4052 mux would only require mux_0 and mux_1.
  66:../../DaisyExamples/libDaisy//src/per/adc.h ****     Internal Callbacks handle the pin addressing.
  67:../../DaisyExamples/libDaisy//src/per/adc.h ****     \param adc_pin &
  68:../../DaisyExamples/libDaisy//src/per/adc.h ****     \param mux_channels must be 1-8
  69:../../DaisyExamples/libDaisy//src/per/adc.h ****     \param mux_0 First mux pin
  70:../../DaisyExamples/libDaisy//src/per/adc.h ****     \param mux_1 Second mux pin
  71:../../DaisyExamples/libDaisy//src/per/adc.h ****     \param mux_2 Third mux pin
  72:../../DaisyExamples/libDaisy//src/per/adc.h ****     \param speed conversion speed for this pin defaults to 8.5 cycles
  73:../../DaisyExamples/libDaisy//src/per/adc.h ****     */
  74:../../DaisyExamples/libDaisy//src/per/adc.h ****     void InitMux(dsy_gpio_pin    adc_pin,
  75:../../DaisyExamples/libDaisy//src/per/adc.h ****                  size_t          mux_channels,
  76:../../DaisyExamples/libDaisy//src/per/adc.h ****                  dsy_gpio_pin    mux_0,
ARM GAS  /var/folders/hp/45mn71hd0ps5f5pnytxy5bt00000gn/T//ccdvmoSj.s 			page 6


  77:../../DaisyExamples/libDaisy//src/per/adc.h ****                  dsy_gpio_pin    mux_1 = {DSY_GPIOX, 0},
  78:../../DaisyExamples/libDaisy//src/per/adc.h ****                  dsy_gpio_pin    mux_2 = {DSY_GPIOX, 0},
  79:../../DaisyExamples/libDaisy//src/per/adc.h ****                  ConversionSpeed speed = SPEED_8CYCLES_5);
  80:../../DaisyExamples/libDaisy//src/per/adc.h **** 
  81:../../DaisyExamples/libDaisy//src/per/adc.h ****     dsy_gpio        pin_;                   /**< & */
  82:../../DaisyExamples/libDaisy//src/per/adc.h ****     dsy_gpio        mux_pin_[MUX_SEL_LAST]; /**< & */
  83:../../DaisyExamples/libDaisy//src/per/adc.h ****     uint8_t         mux_channels_;          /**< & */
  84:../../DaisyExamples/libDaisy//src/per/adc.h ****     ConversionSpeed speed_;
  85:../../DaisyExamples/libDaisy//src/per/adc.h **** };
  86:../../DaisyExamples/libDaisy//src/per/adc.h **** 
  87:../../DaisyExamples/libDaisy//src/per/adc.h **** /**
  88:../../DaisyExamples/libDaisy//src/per/adc.h ****    @brief Handler for analog to digital conversion
  89:../../DaisyExamples/libDaisy//src/per/adc.h **** */
  90:../../DaisyExamples/libDaisy//src/per/adc.h **** class AdcHandle
  91:../../DaisyExamples/libDaisy//src/per/adc.h **** {
  92:../../DaisyExamples/libDaisy//src/per/adc.h ****   public:
  93:../../DaisyExamples/libDaisy//src/per/adc.h ****     /** Supported oversampling amounts */
  94:../../DaisyExamples/libDaisy//src/per/adc.h ****     enum OverSampling
  95:../../DaisyExamples/libDaisy//src/per/adc.h ****     {
  96:../../DaisyExamples/libDaisy//src/per/adc.h ****         OVS_NONE, /**< & */
  97:../../DaisyExamples/libDaisy//src/per/adc.h ****         OVS_4,    /**< & */
  98:../../DaisyExamples/libDaisy//src/per/adc.h ****         OVS_8,    /**< & */
  99:../../DaisyExamples/libDaisy//src/per/adc.h ****         OVS_16,   /**< & */
 100:../../DaisyExamples/libDaisy//src/per/adc.h ****         OVS_32,   /**< & */
 101:../../DaisyExamples/libDaisy//src/per/adc.h ****         OVS_64,   /**< & */
 102:../../DaisyExamples/libDaisy//src/per/adc.h ****         OVS_128,  /**< & */
 103:../../DaisyExamples/libDaisy//src/per/adc.h ****         OVS_256,  /**< & */
 104:../../DaisyExamples/libDaisy//src/per/adc.h ****         OVS_512,  /**< & */
 105:../../DaisyExamples/libDaisy//src/per/adc.h ****         OVS_1024, /**< & */
 106:../../DaisyExamples/libDaisy//src/per/adc.h ****         OVS_LAST, /**< & */
 107:../../DaisyExamples/libDaisy//src/per/adc.h ****     };
 108:../../DaisyExamples/libDaisy//src/per/adc.h **** 
 109:../../DaisyExamples/libDaisy//src/per/adc.h ****     AdcHandle() {}
 110:../../DaisyExamples/libDaisy//src/per/adc.h ****     ~AdcHandle() {}
  50              		.loc 4 110 5 is_stmt 1 view .LVU5
  51              		.loc 4 110 5 is_stmt 0 view .LVU6
  52              	.LBE337:
  53              	.LBB338:
  54              	.LBI338:
  55              		.file 5 "../../DaisyExamples/libDaisy//src/hid/audio.h"
   1:../../DaisyExamples/libDaisy//src/hid/audio.h **** #ifndef DSY_AUDIO_H
   2:../../DaisyExamples/libDaisy//src/hid/audio.h **** #define DSY_AUDIO_H /**< & */
   3:../../DaisyExamples/libDaisy//src/hid/audio.h **** 
   4:../../DaisyExamples/libDaisy//src/hid/audio.h **** #include "per/sai.h"
   5:../../DaisyExamples/libDaisy//src/hid/audio.h **** 
   6:../../DaisyExamples/libDaisy//src/hid/audio.h **** namespace daisy
   7:../../DaisyExamples/libDaisy//src/hid/audio.h **** {
   8:../../DaisyExamples/libDaisy//src/hid/audio.h **** /** @brief Audio Engine Handle
   9:../../DaisyExamples/libDaisy//src/hid/audio.h ****  *  @ingroup audio 
  10:../../DaisyExamples/libDaisy//src/hid/audio.h ****  *  @details This class allows for higher level access to an audio engine.
  11:../../DaisyExamples/libDaisy//src/hid/audio.h ****  *           If you're using a SOM like the DaisySeed or DaisyPatchSM (or any 
  12:../../DaisyExamples/libDaisy//src/hid/audio.h ****  *            board that includes one of those objects) then the intialization
  13:../../DaisyExamples/libDaisy//src/hid/audio.h ****  *            is already taken  care of.
  14:../../DaisyExamples/libDaisy//src/hid/audio.h ****  *           If you're setting up your own custom hardware, or need to make changes
  15:../../DaisyExamples/libDaisy//src/hid/audio.h ****  *           you will have to take the following steps:
  16:../../DaisyExamples/libDaisy//src/hid/audio.h ****  *             1. Create and Initialize an SaiHandle or two depending on your requirements
  17:../../DaisyExamples/libDaisy//src/hid/audio.h ****  *             2. Initialize the Audio Handle with the desired settings and the Initialized SaiHand
ARM GAS  /var/folders/hp/45mn71hd0ps5f5pnytxy5bt00000gn/T//ccdvmoSj.s 			page 7


  18:../../DaisyExamples/libDaisy//src/hid/audio.h ****  *             3. If the connected codec requires special configuration or initialization, do so
  19:../../DaisyExamples/libDaisy//src/hid/audio.h ****  *             4. Write a callback method using either the AudioCallback or the InterleavingAudioCa
  20:../../DaisyExamples/libDaisy//src/hid/audio.h ****  *             5. Start the Audio using one of the StartAudio function
  21:../../DaisyExamples/libDaisy//src/hid/audio.h ****  */
  22:../../DaisyExamples/libDaisy//src/hid/audio.h **** class AudioHandle
  23:../../DaisyExamples/libDaisy//src/hid/audio.h **** {
  24:../../DaisyExamples/libDaisy//src/hid/audio.h ****   public:
  25:../../DaisyExamples/libDaisy//src/hid/audio.h ****     /** Manually configurable details about the Audio Engine */
  26:../../DaisyExamples/libDaisy//src/hid/audio.h ****     /** TODO: Figure out how to get samplerate in here. */
  27:../../DaisyExamples/libDaisy//src/hid/audio.h ****     struct Config
  28:../../DaisyExamples/libDaisy//src/hid/audio.h ****     {
  29:../../DaisyExamples/libDaisy//src/hid/audio.h ****         /** number of samples to process per callback */
  30:../../DaisyExamples/libDaisy//src/hid/audio.h ****         size_t blocksize;
  31:../../DaisyExamples/libDaisy//src/hid/audio.h **** 
  32:../../DaisyExamples/libDaisy//src/hid/audio.h ****         /**< Sample rate of audio */
  33:../../DaisyExamples/libDaisy//src/hid/audio.h ****         SaiHandle::Config::SampleRate samplerate;
  34:../../DaisyExamples/libDaisy//src/hid/audio.h **** 
  35:../../DaisyExamples/libDaisy//src/hid/audio.h ****         /** factor for adjustment before and after callback for hardware that may have extra headro
  36:../../DaisyExamples/libDaisy//src/hid/audio.h ****         float postgain;
  37:../../DaisyExamples/libDaisy//src/hid/audio.h **** 
  38:../../DaisyExamples/libDaisy//src/hid/audio.h ****         /** factor for additional one-sided compensation to audio path for hardware that may
  39:../../DaisyExamples/libDaisy//src/hid/audio.h ****          *  have unequal input/output ranges
  40:../../DaisyExamples/libDaisy//src/hid/audio.h ****          */
  41:../../DaisyExamples/libDaisy//src/hid/audio.h ****         float output_compensation;
  42:../../DaisyExamples/libDaisy//src/hid/audio.h **** 
  43:../../DaisyExamples/libDaisy//src/hid/audio.h ****         /** Sets default values for config struct */
  44:../../DaisyExamples/libDaisy//src/hid/audio.h ****         Config()
  45:../../DaisyExamples/libDaisy//src/hid/audio.h ****         : blocksize(48),
  46:../../DaisyExamples/libDaisy//src/hid/audio.h ****           samplerate(SaiHandle::Config::SampleRate::SAI_48KHZ),
  47:../../DaisyExamples/libDaisy//src/hid/audio.h ****           postgain(1.f),
  48:../../DaisyExamples/libDaisy//src/hid/audio.h ****           output_compensation(1.f)
  49:../../DaisyExamples/libDaisy//src/hid/audio.h ****         {
  50:../../DaisyExamples/libDaisy//src/hid/audio.h ****         }
  51:../../DaisyExamples/libDaisy//src/hid/audio.h ****     };
  52:../../DaisyExamples/libDaisy//src/hid/audio.h **** 
  53:../../DaisyExamples/libDaisy//src/hid/audio.h ****     enum class Result
  54:../../DaisyExamples/libDaisy//src/hid/audio.h ****     {
  55:../../DaisyExamples/libDaisy//src/hid/audio.h ****         OK,
  56:../../DaisyExamples/libDaisy//src/hid/audio.h ****         ERR,
  57:../../DaisyExamples/libDaisy//src/hid/audio.h ****     };
  58:../../DaisyExamples/libDaisy//src/hid/audio.h **** 
  59:../../DaisyExamples/libDaisy//src/hid/audio.h ****     /** Non-Interleaving input buffer
  60:../../DaisyExamples/libDaisy//src/hid/audio.h ****      * Buffer arranged by float[chn][sample] 
  61:../../DaisyExamples/libDaisy//src/hid/audio.h ****      * const so that the user can't modify the input
  62:../../DaisyExamples/libDaisy//src/hid/audio.h ****      */
  63:../../DaisyExamples/libDaisy//src/hid/audio.h ****     typedef const float* const* InputBuffer;
  64:../../DaisyExamples/libDaisy//src/hid/audio.h **** 
  65:../../DaisyExamples/libDaisy//src/hid/audio.h ****     /** Non-Interleaving output buffer
  66:../../DaisyExamples/libDaisy//src/hid/audio.h ****      * Arranged by float[chn][sample] 
  67:../../DaisyExamples/libDaisy//src/hid/audio.h ****      */
  68:../../DaisyExamples/libDaisy//src/hid/audio.h ****     typedef float** OutputBuffer;
  69:../../DaisyExamples/libDaisy//src/hid/audio.h **** 
  70:../../DaisyExamples/libDaisy//src/hid/audio.h ****     /** Type for a Non-Interleaving audio callback 
  71:../../DaisyExamples/libDaisy//src/hid/audio.h ****      * Non-Interleaving audio callbacks in daisy will be of this type
  72:../../DaisyExamples/libDaisy//src/hid/audio.h ****      */
  73:../../DaisyExamples/libDaisy//src/hid/audio.h ****     typedef void (*AudioCallback)(InputBuffer  in,
  74:../../DaisyExamples/libDaisy//src/hid/audio.h ****                                   OutputBuffer out,
ARM GAS  /var/folders/hp/45mn71hd0ps5f5pnytxy5bt00000gn/T//ccdvmoSj.s 			page 8


  75:../../DaisyExamples/libDaisy//src/hid/audio.h ****                                   size_t       size);
  76:../../DaisyExamples/libDaisy//src/hid/audio.h **** 
  77:../../DaisyExamples/libDaisy//src/hid/audio.h ****     /** Interleaving Input buffer
  78:../../DaisyExamples/libDaisy//src/hid/audio.h ****      ** audio is prepared as { L0, R0, L1, R1, . . . LN, RN }]
  79:../../DaisyExamples/libDaisy//src/hid/audio.h ****      ** this is const, as the user shouldn't modify it
  80:../../DaisyExamples/libDaisy//src/hid/audio.h ****     */
  81:../../DaisyExamples/libDaisy//src/hid/audio.h ****     typedef const float* InterleavingInputBuffer;
  82:../../DaisyExamples/libDaisy//src/hid/audio.h **** 
  83:../../DaisyExamples/libDaisy//src/hid/audio.h ****     /** Interleaving Output buffer 
  84:../../DaisyExamples/libDaisy//src/hid/audio.h ****      ** audio is prepared as { L0, R0, L1, R1, . . . LN, RN }
  85:../../DaisyExamples/libDaisy//src/hid/audio.h ****     */
  86:../../DaisyExamples/libDaisy//src/hid/audio.h ****     typedef float* InterleavingOutputBuffer;
  87:../../DaisyExamples/libDaisy//src/hid/audio.h **** 
  88:../../DaisyExamples/libDaisy//src/hid/audio.h ****     /** Interleaving Audio Callback 
  89:../../DaisyExamples/libDaisy//src/hid/audio.h ****      * Interleaving audio callbacks in daisy must be of this type
  90:../../DaisyExamples/libDaisy//src/hid/audio.h ****      */
  91:../../DaisyExamples/libDaisy//src/hid/audio.h ****     typedef void (*InterleavingAudioCallback)(InterleavingInputBuffer  in,
  92:../../DaisyExamples/libDaisy//src/hid/audio.h ****                                               InterleavingOutputBuffer out,
  93:../../DaisyExamples/libDaisy//src/hid/audio.h ****                                               size_t                   size);
  94:../../DaisyExamples/libDaisy//src/hid/audio.h **** 
  95:../../DaisyExamples/libDaisy//src/hid/audio.h ****     AudioHandle() : pimpl_(nullptr) {}
  96:../../DaisyExamples/libDaisy//src/hid/audio.h ****     ~AudioHandle() {}
  56              		.loc 5 96 5 is_stmt 1 view .LVU7
  57              		.loc 5 96 5 is_stmt 0 view .LVU8
  58              	.LBE338:
  59              		.loc 1 22 19 view .LVU9
  60 0000 7047     		bx	lr
  61              		.cfi_endproc
  62              	.LFE2556:
  64              		.weak	_ZN5daisy9DaisySeedD1Ev
  65              		.thumb_set _ZN5daisy9DaisySeedD1Ev,_ZN5daisy9DaisySeedD2Ev
  66 0002 00BF     		.section	.text._ZN5daisy11OledDisplayINS_13SSD130xDriverILj128ELj32ENS_19SSD130xI2CTransportEEEE4F
  67              		.align	1
  68              		.p2align 2,,3
  69              		.weak	_ZN5daisy11OledDisplayINS_13SSD130xDriverILj128ELj32ENS_19SSD130xI2CTransportEEEE4FillEb
  70              		.syntax unified
  71              		.thumb
  72              		.thumb_func
  74              	_ZN5daisy11OledDisplayINS_13SSD130xDriverILj128ELj32ENS_19SSD130xI2CTransportEEEE4FillEb:
  75              	.LVL1:
  76              	.LFB2635:
  77              		.file 6 "../../DaisyExamples/libDaisy//src/hid/disp/oled_display.h"
   1:../../DaisyExamples/libDaisy//src/hid/disp/oled_display.h **** #pragma once
   2:../../DaisyExamples/libDaisy//src/hid/disp/oled_display.h **** #ifndef DSY_OLED_DISPLAY_H
   3:../../DaisyExamples/libDaisy//src/hid/disp/oled_display.h **** #define DSY_OLED_DISPLAY_H /**< Macro */
   4:../../DaisyExamples/libDaisy//src/hid/disp/oled_display.h **** 
   5:../../DaisyExamples/libDaisy//src/hid/disp/oled_display.h **** #include "display.h"
   6:../../DaisyExamples/libDaisy//src/hid/disp/oled_display.h **** 
   7:../../DaisyExamples/libDaisy//src/hid/disp/oled_display.h **** namespace daisy
   8:../../DaisyExamples/libDaisy//src/hid/disp/oled_display.h **** {
   9:../../DaisyExamples/libDaisy//src/hid/disp/oled_display.h **** /** 
  10:../../DaisyExamples/libDaisy//src/hid/disp/oled_display.h ****  * This class is for drawing to a monochrome OLED display. 
  11:../../DaisyExamples/libDaisy//src/hid/disp/oled_display.h ****  * @ingroup device
  12:../../DaisyExamples/libDaisy//src/hid/disp/oled_display.h **** */
  13:../../DaisyExamples/libDaisy//src/hid/disp/oled_display.h **** template <typename DisplayDriver>
  14:../../DaisyExamples/libDaisy//src/hid/disp/oled_display.h **** class OledDisplay : public OneBitGraphicsDisplayImpl<OledDisplay<DisplayDriver>>
  15:../../DaisyExamples/libDaisy//src/hid/disp/oled_display.h **** {
ARM GAS  /var/folders/hp/45mn71hd0ps5f5pnytxy5bt00000gn/T//ccdvmoSj.s 			page 9


  16:../../DaisyExamples/libDaisy//src/hid/disp/oled_display.h ****   public:
  17:../../DaisyExamples/libDaisy//src/hid/disp/oled_display.h ****     OledDisplay() {}
  18:../../DaisyExamples/libDaisy//src/hid/disp/oled_display.h ****     virtual ~OledDisplay() {}
  19:../../DaisyExamples/libDaisy//src/hid/disp/oled_display.h **** 
  20:../../DaisyExamples/libDaisy//src/hid/disp/oled_display.h ****     struct Config
  21:../../DaisyExamples/libDaisy//src/hid/disp/oled_display.h ****     {
  22:../../DaisyExamples/libDaisy//src/hid/disp/oled_display.h ****         typename DisplayDriver::Config driver_config;
  23:../../DaisyExamples/libDaisy//src/hid/disp/oled_display.h ****     };
  24:../../DaisyExamples/libDaisy//src/hid/disp/oled_display.h **** 
  25:../../DaisyExamples/libDaisy//src/hid/disp/oled_display.h ****     void Init(Config config) { driver_.Init(config.driver_config); }
  26:../../DaisyExamples/libDaisy//src/hid/disp/oled_display.h **** 
  27:../../DaisyExamples/libDaisy//src/hid/disp/oled_display.h ****     uint16_t Height() const override { return driver_.Height(); }
  28:../../DaisyExamples/libDaisy//src/hid/disp/oled_display.h ****     uint16_t Width() const override { return driver_.Width(); }
  29:../../DaisyExamples/libDaisy//src/hid/disp/oled_display.h **** 
  30:../../DaisyExamples/libDaisy//src/hid/disp/oled_display.h ****     /** 
  31:../../DaisyExamples/libDaisy//src/hid/disp/oled_display.h ****     Fills the entire display with either on/off.
  32:../../DaisyExamples/libDaisy//src/hid/disp/oled_display.h ****     \param on Sets on or off.
  33:../../DaisyExamples/libDaisy//src/hid/disp/oled_display.h ****     */
  34:../../DaisyExamples/libDaisy//src/hid/disp/oled_display.h ****     void Fill(bool on) override { driver_.Fill(on); }
  78              		.loc 6 34 10 is_stmt 1 view -0
  79              		.cfi_startproc
  80              		@ args = 0, pretend = 0, frame = 0
  81              		@ frame_needed = 0, uses_anonymous_args = 0
  82              		@ link register save eliminated.
  83              	.LBB339:
  84              	.LBI339:
  85              		.file 7 "../../DaisyExamples/libDaisy//src/dev/oled_ssd130x.h"
   1:../../DaisyExamples/libDaisy//src/dev/oled_ssd130x.h **** #pragma once
   2:../../DaisyExamples/libDaisy//src/dev/oled_ssd130x.h **** #ifndef SA_OLED_SSD130X_H
   3:../../DaisyExamples/libDaisy//src/dev/oled_ssd130x.h **** #define SA_OLED_SSD130X_H /**< & */
   4:../../DaisyExamples/libDaisy//src/dev/oled_ssd130x.h **** 
   5:../../DaisyExamples/libDaisy//src/dev/oled_ssd130x.h **** #include "per/i2c.h"
   6:../../DaisyExamples/libDaisy//src/dev/oled_ssd130x.h **** #include "per/spi.h"
   7:../../DaisyExamples/libDaisy//src/dev/oled_ssd130x.h **** #include "per/gpio.h"
   8:../../DaisyExamples/libDaisy//src/dev/oled_ssd130x.h **** #include "sys/system.h"
   9:../../DaisyExamples/libDaisy//src/dev/oled_ssd130x.h **** 
  10:../../DaisyExamples/libDaisy//src/dev/oled_ssd130x.h **** namespace daisy
  11:../../DaisyExamples/libDaisy//src/dev/oled_ssd130x.h **** {
  12:../../DaisyExamples/libDaisy//src/dev/oled_ssd130x.h **** /**
  13:../../DaisyExamples/libDaisy//src/dev/oled_ssd130x.h ****  * I2C Transport for SSD1306 / SSD1309 OLED display devices
  14:../../DaisyExamples/libDaisy//src/dev/oled_ssd130x.h ****  */
  15:../../DaisyExamples/libDaisy//src/dev/oled_ssd130x.h **** class SSD130xI2CTransport
  16:../../DaisyExamples/libDaisy//src/dev/oled_ssd130x.h **** {
  17:../../DaisyExamples/libDaisy//src/dev/oled_ssd130x.h ****   public:
  18:../../DaisyExamples/libDaisy//src/dev/oled_ssd130x.h ****     struct Config
  19:../../DaisyExamples/libDaisy//src/dev/oled_ssd130x.h ****     {
  20:../../DaisyExamples/libDaisy//src/dev/oled_ssd130x.h ****         Config()
  21:../../DaisyExamples/libDaisy//src/dev/oled_ssd130x.h ****         {
  22:../../DaisyExamples/libDaisy//src/dev/oled_ssd130x.h ****             // Intialize using defaults
  23:../../DaisyExamples/libDaisy//src/dev/oled_ssd130x.h ****             Defaults();
  24:../../DaisyExamples/libDaisy//src/dev/oled_ssd130x.h ****         }
  25:../../DaisyExamples/libDaisy//src/dev/oled_ssd130x.h ****         I2CHandle::Config i2c_config;
  26:../../DaisyExamples/libDaisy//src/dev/oled_ssd130x.h ****         uint8_t           i2c_address;
  27:../../DaisyExamples/libDaisy//src/dev/oled_ssd130x.h ****         void              Defaults()
  28:../../DaisyExamples/libDaisy//src/dev/oled_ssd130x.h ****         {
  29:../../DaisyExamples/libDaisy//src/dev/oled_ssd130x.h ****             i2c_config.periph         = I2CHandle::Config::Peripheral::I2C_1;
  30:../../DaisyExamples/libDaisy//src/dev/oled_ssd130x.h ****             i2c_config.speed          = I2CHandle::Config::Speed::I2C_1MHZ;
ARM GAS  /var/folders/hp/45mn71hd0ps5f5pnytxy5bt00000gn/T//ccdvmoSj.s 			page 10


  31:../../DaisyExamples/libDaisy//src/dev/oled_ssd130x.h ****             i2c_config.mode           = I2CHandle::Config::Mode::I2C_MASTER;
  32:../../DaisyExamples/libDaisy//src/dev/oled_ssd130x.h ****             i2c_config.pin_config.scl = {DSY_GPIOB, 8};
  33:../../DaisyExamples/libDaisy//src/dev/oled_ssd130x.h ****             i2c_config.pin_config.sda = {DSY_GPIOB, 9};
  34:../../DaisyExamples/libDaisy//src/dev/oled_ssd130x.h ****             i2c_address               = 0x3C;
  35:../../DaisyExamples/libDaisy//src/dev/oled_ssd130x.h ****         }
  36:../../DaisyExamples/libDaisy//src/dev/oled_ssd130x.h ****     };
  37:../../DaisyExamples/libDaisy//src/dev/oled_ssd130x.h ****     void Init(const Config& config)
  38:../../DaisyExamples/libDaisy//src/dev/oled_ssd130x.h ****     {
  39:../../DaisyExamples/libDaisy//src/dev/oled_ssd130x.h ****         i2c_address_ = config.i2c_address;
  40:../../DaisyExamples/libDaisy//src/dev/oled_ssd130x.h ****         i2c_.Init(config.i2c_config);
  41:../../DaisyExamples/libDaisy//src/dev/oled_ssd130x.h ****     };
  42:../../DaisyExamples/libDaisy//src/dev/oled_ssd130x.h ****     void SendCommand(uint8_t cmd)
  43:../../DaisyExamples/libDaisy//src/dev/oled_ssd130x.h ****     {
  44:../../DaisyExamples/libDaisy//src/dev/oled_ssd130x.h ****         uint8_t buf[2] = {0X00, cmd};
  45:../../DaisyExamples/libDaisy//src/dev/oled_ssd130x.h ****         i2c_.TransmitBlocking(i2c_address_, buf, 2, 1000);
  46:../../DaisyExamples/libDaisy//src/dev/oled_ssd130x.h ****     };
  47:../../DaisyExamples/libDaisy//src/dev/oled_ssd130x.h **** 
  48:../../DaisyExamples/libDaisy//src/dev/oled_ssd130x.h ****     void SendData(uint8_t* buff, size_t size)
  49:../../DaisyExamples/libDaisy//src/dev/oled_ssd130x.h ****     {
  50:../../DaisyExamples/libDaisy//src/dev/oled_ssd130x.h ****         for(size_t i = 0; i < size; i++)
  51:../../DaisyExamples/libDaisy//src/dev/oled_ssd130x.h ****         {
  52:../../DaisyExamples/libDaisy//src/dev/oled_ssd130x.h ****             uint8_t buf[2] = {0X40, buff[i]};
  53:../../DaisyExamples/libDaisy//src/dev/oled_ssd130x.h ****             i2c_.TransmitBlocking(i2c_address_, buf, 2, 1000);
  54:../../DaisyExamples/libDaisy//src/dev/oled_ssd130x.h ****         }
  55:../../DaisyExamples/libDaisy//src/dev/oled_ssd130x.h ****     };
  56:../../DaisyExamples/libDaisy//src/dev/oled_ssd130x.h **** 
  57:../../DaisyExamples/libDaisy//src/dev/oled_ssd130x.h ****   private:
  58:../../DaisyExamples/libDaisy//src/dev/oled_ssd130x.h ****     daisy::I2CHandle i2c_;
  59:../../DaisyExamples/libDaisy//src/dev/oled_ssd130x.h ****     uint8_t          i2c_address_;
  60:../../DaisyExamples/libDaisy//src/dev/oled_ssd130x.h **** };
  61:../../DaisyExamples/libDaisy//src/dev/oled_ssd130x.h **** 
  62:../../DaisyExamples/libDaisy//src/dev/oled_ssd130x.h **** /**
  63:../../DaisyExamples/libDaisy//src/dev/oled_ssd130x.h ****  * 4 Wire SPI Transport for SSD1306 / SSD1309 OLED display devices
  64:../../DaisyExamples/libDaisy//src/dev/oled_ssd130x.h ****  */
  65:../../DaisyExamples/libDaisy//src/dev/oled_ssd130x.h **** class SSD130x4WireSpiTransport
  66:../../DaisyExamples/libDaisy//src/dev/oled_ssd130x.h **** {
  67:../../DaisyExamples/libDaisy//src/dev/oled_ssd130x.h ****   public:
  68:../../DaisyExamples/libDaisy//src/dev/oled_ssd130x.h ****     struct Config
  69:../../DaisyExamples/libDaisy//src/dev/oled_ssd130x.h ****     {
  70:../../DaisyExamples/libDaisy//src/dev/oled_ssd130x.h ****         Config()
  71:../../DaisyExamples/libDaisy//src/dev/oled_ssd130x.h ****         {
  72:../../DaisyExamples/libDaisy//src/dev/oled_ssd130x.h ****             // Initialize using defaults
  73:../../DaisyExamples/libDaisy//src/dev/oled_ssd130x.h ****             Defaults();
  74:../../DaisyExamples/libDaisy//src/dev/oled_ssd130x.h ****         }
  75:../../DaisyExamples/libDaisy//src/dev/oled_ssd130x.h ****         SpiHandle::Config spi_config;
  76:../../DaisyExamples/libDaisy//src/dev/oled_ssd130x.h ****         struct
  77:../../DaisyExamples/libDaisy//src/dev/oled_ssd130x.h ****         {
  78:../../DaisyExamples/libDaisy//src/dev/oled_ssd130x.h ****             dsy_gpio_pin dc;    /**< & */
  79:../../DaisyExamples/libDaisy//src/dev/oled_ssd130x.h ****             dsy_gpio_pin reset; /**< & */
  80:../../DaisyExamples/libDaisy//src/dev/oled_ssd130x.h ****         } pin_config;
  81:../../DaisyExamples/libDaisy//src/dev/oled_ssd130x.h ****         void Defaults()
  82:../../DaisyExamples/libDaisy//src/dev/oled_ssd130x.h ****         {
  83:../../DaisyExamples/libDaisy//src/dev/oled_ssd130x.h ****             // SPI peripheral config
  84:../../DaisyExamples/libDaisy//src/dev/oled_ssd130x.h ****             spi_config.periph = SpiHandle::Config::Peripheral::SPI_1;
  85:../../DaisyExamples/libDaisy//src/dev/oled_ssd130x.h ****             spi_config.mode   = SpiHandle::Config::Mode::MASTER;
  86:../../DaisyExamples/libDaisy//src/dev/oled_ssd130x.h ****             spi_config.direction
  87:../../DaisyExamples/libDaisy//src/dev/oled_ssd130x.h ****                 = SpiHandle::Config::Direction::TWO_LINES_TX_ONLY;
ARM GAS  /var/folders/hp/45mn71hd0ps5f5pnytxy5bt00000gn/T//ccdvmoSj.s 			page 11


  88:../../DaisyExamples/libDaisy//src/dev/oled_ssd130x.h ****             spi_config.datasize       = 8;
  89:../../DaisyExamples/libDaisy//src/dev/oled_ssd130x.h ****             spi_config.clock_polarity = SpiHandle::Config::ClockPolarity::LOW;
  90:../../DaisyExamples/libDaisy//src/dev/oled_ssd130x.h ****             spi_config.clock_phase    = SpiHandle::Config::ClockPhase::ONE_EDGE;
  91:../../DaisyExamples/libDaisy//src/dev/oled_ssd130x.h ****             spi_config.nss            = SpiHandle::Config::NSS::HARD_OUTPUT;
  92:../../DaisyExamples/libDaisy//src/dev/oled_ssd130x.h ****             spi_config.baud_prescaler = SpiHandle::Config::BaudPrescaler::PS_8;
  93:../../DaisyExamples/libDaisy//src/dev/oled_ssd130x.h ****             // SPI pin config
  94:../../DaisyExamples/libDaisy//src/dev/oled_ssd130x.h ****             spi_config.pin_config.sclk = {DSY_GPIOG, 11};
  95:../../DaisyExamples/libDaisy//src/dev/oled_ssd130x.h ****             spi_config.pin_config.miso = {DSY_GPIOX, 0};
  96:../../DaisyExamples/libDaisy//src/dev/oled_ssd130x.h ****             spi_config.pin_config.mosi = {DSY_GPIOB, 5};
  97:../../DaisyExamples/libDaisy//src/dev/oled_ssd130x.h ****             spi_config.pin_config.nss  = {DSY_GPIOG, 10};
  98:../../DaisyExamples/libDaisy//src/dev/oled_ssd130x.h ****             // SSD130x control pin config
  99:../../DaisyExamples/libDaisy//src/dev/oled_ssd130x.h ****             pin_config.dc    = {DSY_GPIOB, 4};
 100:../../DaisyExamples/libDaisy//src/dev/oled_ssd130x.h ****             pin_config.reset = {DSY_GPIOB, 15};
 101:../../DaisyExamples/libDaisy//src/dev/oled_ssd130x.h ****         }
 102:../../DaisyExamples/libDaisy//src/dev/oled_ssd130x.h ****     };
 103:../../DaisyExamples/libDaisy//src/dev/oled_ssd130x.h ****     void Init(const Config& config)
 104:../../DaisyExamples/libDaisy//src/dev/oled_ssd130x.h ****     {
 105:../../DaisyExamples/libDaisy//src/dev/oled_ssd130x.h ****         // Initialize both GPIO
 106:../../DaisyExamples/libDaisy//src/dev/oled_ssd130x.h ****         pin_dc_.mode = DSY_GPIO_MODE_OUTPUT_PP;
 107:../../DaisyExamples/libDaisy//src/dev/oled_ssd130x.h ****         pin_dc_.pin  = config.pin_config.dc;
 108:../../DaisyExamples/libDaisy//src/dev/oled_ssd130x.h ****         dsy_gpio_init(&pin_dc_);
 109:../../DaisyExamples/libDaisy//src/dev/oled_ssd130x.h ****         pin_reset_.mode = DSY_GPIO_MODE_OUTPUT_PP;
 110:../../DaisyExamples/libDaisy//src/dev/oled_ssd130x.h ****         pin_reset_.pin  = config.pin_config.reset;
 111:../../DaisyExamples/libDaisy//src/dev/oled_ssd130x.h ****         dsy_gpio_init(&pin_reset_);
 112:../../DaisyExamples/libDaisy//src/dev/oled_ssd130x.h **** 
 113:../../DaisyExamples/libDaisy//src/dev/oled_ssd130x.h ****         // Initialize SPI
 114:../../DaisyExamples/libDaisy//src/dev/oled_ssd130x.h ****         spi_.Init(config.spi_config);
 115:../../DaisyExamples/libDaisy//src/dev/oled_ssd130x.h **** 
 116:../../DaisyExamples/libDaisy//src/dev/oled_ssd130x.h ****         // Reset and Configure OLED.
 117:../../DaisyExamples/libDaisy//src/dev/oled_ssd130x.h ****         dsy_gpio_write(&pin_reset_, 0);
 118:../../DaisyExamples/libDaisy//src/dev/oled_ssd130x.h ****         System::Delay(10);
 119:../../DaisyExamples/libDaisy//src/dev/oled_ssd130x.h ****         dsy_gpio_write(&pin_reset_, 1);
 120:../../DaisyExamples/libDaisy//src/dev/oled_ssd130x.h ****         System::Delay(10);
 121:../../DaisyExamples/libDaisy//src/dev/oled_ssd130x.h ****     };
 122:../../DaisyExamples/libDaisy//src/dev/oled_ssd130x.h ****     void SendCommand(uint8_t cmd)
 123:../../DaisyExamples/libDaisy//src/dev/oled_ssd130x.h ****     {
 124:../../DaisyExamples/libDaisy//src/dev/oled_ssd130x.h ****         dsy_gpio_write(&pin_dc_, 0);
 125:../../DaisyExamples/libDaisy//src/dev/oled_ssd130x.h ****         spi_.BlockingTransmit(&cmd, 1);
 126:../../DaisyExamples/libDaisy//src/dev/oled_ssd130x.h ****     };
 127:../../DaisyExamples/libDaisy//src/dev/oled_ssd130x.h **** 
 128:../../DaisyExamples/libDaisy//src/dev/oled_ssd130x.h ****     void SendData(uint8_t* buff, size_t size)
 129:../../DaisyExamples/libDaisy//src/dev/oled_ssd130x.h ****     {
 130:../../DaisyExamples/libDaisy//src/dev/oled_ssd130x.h ****         dsy_gpio_write(&pin_dc_, 1);
 131:../../DaisyExamples/libDaisy//src/dev/oled_ssd130x.h ****         spi_.BlockingTransmit(buff, size);
 132:../../DaisyExamples/libDaisy//src/dev/oled_ssd130x.h ****     };
 133:../../DaisyExamples/libDaisy//src/dev/oled_ssd130x.h **** 
 134:../../DaisyExamples/libDaisy//src/dev/oled_ssd130x.h ****   private:
 135:../../DaisyExamples/libDaisy//src/dev/oled_ssd130x.h ****     SpiHandle spi_;
 136:../../DaisyExamples/libDaisy//src/dev/oled_ssd130x.h ****     dsy_gpio  pin_reset_;
 137:../../DaisyExamples/libDaisy//src/dev/oled_ssd130x.h ****     dsy_gpio  pin_dc_;
 138:../../DaisyExamples/libDaisy//src/dev/oled_ssd130x.h **** };
 139:../../DaisyExamples/libDaisy//src/dev/oled_ssd130x.h **** 
 140:../../DaisyExamples/libDaisy//src/dev/oled_ssd130x.h **** /**
 141:../../DaisyExamples/libDaisy//src/dev/oled_ssd130x.h ****  * Soft SPI Transport for SSD1306 / SSD1309 OLED display devices
 142:../../DaisyExamples/libDaisy//src/dev/oled_ssd130x.h ****  */
 143:../../DaisyExamples/libDaisy//src/dev/oled_ssd130x.h **** class SSD130x4WireSoftSpiTransport
 144:../../DaisyExamples/libDaisy//src/dev/oled_ssd130x.h **** {
ARM GAS  /var/folders/hp/45mn71hd0ps5f5pnytxy5bt00000gn/T//ccdvmoSj.s 			page 12


 145:../../DaisyExamples/libDaisy//src/dev/oled_ssd130x.h ****   public:
 146:../../DaisyExamples/libDaisy//src/dev/oled_ssd130x.h ****     struct Config
 147:../../DaisyExamples/libDaisy//src/dev/oled_ssd130x.h ****     {
 148:../../DaisyExamples/libDaisy//src/dev/oled_ssd130x.h ****         Config()
 149:../../DaisyExamples/libDaisy//src/dev/oled_ssd130x.h ****         {
 150:../../DaisyExamples/libDaisy//src/dev/oled_ssd130x.h ****             // Initialize using defaults
 151:../../DaisyExamples/libDaisy//src/dev/oled_ssd130x.h ****             Defaults();
 152:../../DaisyExamples/libDaisy//src/dev/oled_ssd130x.h ****         }
 153:../../DaisyExamples/libDaisy//src/dev/oled_ssd130x.h ****         struct
 154:../../DaisyExamples/libDaisy//src/dev/oled_ssd130x.h ****         {
 155:../../DaisyExamples/libDaisy//src/dev/oled_ssd130x.h ****             uint32_t     sclk_delay;
 156:../../DaisyExamples/libDaisy//src/dev/oled_ssd130x.h ****             dsy_gpio_pin sclk;
 157:../../DaisyExamples/libDaisy//src/dev/oled_ssd130x.h ****             dsy_gpio_pin mosi;
 158:../../DaisyExamples/libDaisy//src/dev/oled_ssd130x.h ****             dsy_gpio_pin dc;
 159:../../DaisyExamples/libDaisy//src/dev/oled_ssd130x.h ****             dsy_gpio_pin reset;
 160:../../DaisyExamples/libDaisy//src/dev/oled_ssd130x.h ****         } pin_config;
 161:../../DaisyExamples/libDaisy//src/dev/oled_ssd130x.h ****         void Defaults()
 162:../../DaisyExamples/libDaisy//src/dev/oled_ssd130x.h ****         {
 163:../../DaisyExamples/libDaisy//src/dev/oled_ssd130x.h ****             pin_config.sclk_delay = 0; // fast as possible?!
 164:../../DaisyExamples/libDaisy//src/dev/oled_ssd130x.h ****             // SPI peripheral config
 165:../../DaisyExamples/libDaisy//src/dev/oled_ssd130x.h ****             pin_config.sclk = {DSY_GPIOD, 3}; /**< D10 - SPI2 SCK  */
 166:../../DaisyExamples/libDaisy//src/dev/oled_ssd130x.h ****             pin_config.mosi = {DSY_GPIOC, 3}; /**< D9  - SPI2 MOSI */
 167:../../DaisyExamples/libDaisy//src/dev/oled_ssd130x.h ****             // SSD130x control pin config
 168:../../DaisyExamples/libDaisy//src/dev/oled_ssd130x.h ****             pin_config.dc    = {DSY_GPIOC, 11}; //D2
 169:../../DaisyExamples/libDaisy//src/dev/oled_ssd130x.h ****             pin_config.reset = {DSY_GPIOC, 10}; //D3
 170:../../DaisyExamples/libDaisy//src/dev/oled_ssd130x.h ****         }
 171:../../DaisyExamples/libDaisy//src/dev/oled_ssd130x.h ****     };
 172:../../DaisyExamples/libDaisy//src/dev/oled_ssd130x.h ****     void Init(const Config& config)
 173:../../DaisyExamples/libDaisy//src/dev/oled_ssd130x.h ****     {
 174:../../DaisyExamples/libDaisy//src/dev/oled_ssd130x.h ****         // Initialize both GPIO
 175:../../DaisyExamples/libDaisy//src/dev/oled_ssd130x.h ****         pin_sclk_.mode = DSY_GPIO_MODE_OUTPUT_PP;
 176:../../DaisyExamples/libDaisy//src/dev/oled_ssd130x.h ****         pin_sclk_.pin  = config.pin_config.sclk;
 177:../../DaisyExamples/libDaisy//src/dev/oled_ssd130x.h ****         dsy_gpio_init(&pin_sclk_);
 178:../../DaisyExamples/libDaisy//src/dev/oled_ssd130x.h ****         dsy_gpio_write(&pin_sclk_, 1); //ClockPolarity::LOW
 179:../../DaisyExamples/libDaisy//src/dev/oled_ssd130x.h ****         clk_delay      = config.pin_config.sclk_delay;
 180:../../DaisyExamples/libDaisy//src/dev/oled_ssd130x.h ****         pin_mosi_.mode = DSY_GPIO_MODE_OUTPUT_PP;
 181:../../DaisyExamples/libDaisy//src/dev/oled_ssd130x.h ****         pin_mosi_.pin  = config.pin_config.mosi;
 182:../../DaisyExamples/libDaisy//src/dev/oled_ssd130x.h ****         dsy_gpio_init(&pin_mosi_);
 183:../../DaisyExamples/libDaisy//src/dev/oled_ssd130x.h ****         dsy_gpio_write(&pin_mosi_, 0);
 184:../../DaisyExamples/libDaisy//src/dev/oled_ssd130x.h **** 
 185:../../DaisyExamples/libDaisy//src/dev/oled_ssd130x.h ****         pin_dc_.mode = DSY_GPIO_MODE_OUTPUT_PP;
 186:../../DaisyExamples/libDaisy//src/dev/oled_ssd130x.h ****         pin_dc_.pin  = config.pin_config.dc;
 187:../../DaisyExamples/libDaisy//src/dev/oled_ssd130x.h ****         dsy_gpio_init(&pin_dc_);
 188:../../DaisyExamples/libDaisy//src/dev/oled_ssd130x.h ****         pin_reset_.mode = DSY_GPIO_MODE_OUTPUT_PP;
 189:../../DaisyExamples/libDaisy//src/dev/oled_ssd130x.h ****         pin_reset_.pin  = config.pin_config.reset;
 190:../../DaisyExamples/libDaisy//src/dev/oled_ssd130x.h ****         dsy_gpio_init(&pin_reset_);
 191:../../DaisyExamples/libDaisy//src/dev/oled_ssd130x.h **** 
 192:../../DaisyExamples/libDaisy//src/dev/oled_ssd130x.h ****         // Reset and Configure OLED.
 193:../../DaisyExamples/libDaisy//src/dev/oled_ssd130x.h ****         dsy_gpio_write(&pin_reset_, 0);
 194:../../DaisyExamples/libDaisy//src/dev/oled_ssd130x.h ****         System::Delay(10);
 195:../../DaisyExamples/libDaisy//src/dev/oled_ssd130x.h ****         dsy_gpio_write(&pin_reset_, 1);
 196:../../DaisyExamples/libDaisy//src/dev/oled_ssd130x.h ****         System::Delay(10);
 197:../../DaisyExamples/libDaisy//src/dev/oled_ssd130x.h ****     };
 198:../../DaisyExamples/libDaisy//src/dev/oled_ssd130x.h ****     void SendCommand(uint8_t cmd)
 199:../../DaisyExamples/libDaisy//src/dev/oled_ssd130x.h ****     {
 200:../../DaisyExamples/libDaisy//src/dev/oled_ssd130x.h ****         dsy_gpio_write(&pin_dc_, 0);
 201:../../DaisyExamples/libDaisy//src/dev/oled_ssd130x.h ****         SoftSpiTransmit(cmd);
ARM GAS  /var/folders/hp/45mn71hd0ps5f5pnytxy5bt00000gn/T//ccdvmoSj.s 			page 13


 202:../../DaisyExamples/libDaisy//src/dev/oled_ssd130x.h ****     };
 203:../../DaisyExamples/libDaisy//src/dev/oled_ssd130x.h **** 
 204:../../DaisyExamples/libDaisy//src/dev/oled_ssd130x.h ****     void SendData(uint8_t* buff, size_t size)
 205:../../DaisyExamples/libDaisy//src/dev/oled_ssd130x.h ****     {
 206:../../DaisyExamples/libDaisy//src/dev/oled_ssd130x.h ****         dsy_gpio_write(&pin_dc_, 1);
 207:../../DaisyExamples/libDaisy//src/dev/oled_ssd130x.h ****         for(size_t i = 0; i < size; i++)
 208:../../DaisyExamples/libDaisy//src/dev/oled_ssd130x.h ****             SoftSpiTransmit(buff[i]);
 209:../../DaisyExamples/libDaisy//src/dev/oled_ssd130x.h ****     };
 210:../../DaisyExamples/libDaisy//src/dev/oled_ssd130x.h **** 
 211:../../DaisyExamples/libDaisy//src/dev/oled_ssd130x.h ****   private:
 212:../../DaisyExamples/libDaisy//src/dev/oled_ssd130x.h ****     void SoftSpiTransmit(uint8_t val)
 213:../../DaisyExamples/libDaisy//src/dev/oled_ssd130x.h ****     {
 214:../../DaisyExamples/libDaisy//src/dev/oled_ssd130x.h ****         // bit flip
 215:../../DaisyExamples/libDaisy//src/dev/oled_ssd130x.h ****         val = ((val & 0x01) << 7) | ((val & 0x02) << 5) | ((val & 0x04) << 3)
 216:../../DaisyExamples/libDaisy//src/dev/oled_ssd130x.h ****               | ((val & 0x08) << 1) | ((val & 0x10) >> 1) | ((val & 0x20) >> 3)
 217:../../DaisyExamples/libDaisy//src/dev/oled_ssd130x.h ****               | ((val & 0x40) >> 5) | ((val & 0x80) >> 7);
 218:../../DaisyExamples/libDaisy//src/dev/oled_ssd130x.h **** 
 219:../../DaisyExamples/libDaisy//src/dev/oled_ssd130x.h ****         for(uint8_t bit = 0u; bit < 8u; bit++)
 220:../../DaisyExamples/libDaisy//src/dev/oled_ssd130x.h ****         {
 221:../../DaisyExamples/libDaisy//src/dev/oled_ssd130x.h ****             dsy_gpio_write(&pin_mosi_, ((val & (1 << bit)) ? 1 : 0));
 222:../../DaisyExamples/libDaisy//src/dev/oled_ssd130x.h **** 
 223:../../DaisyExamples/libDaisy//src/dev/oled_ssd130x.h ****             System::DelayTicks(clk_delay);
 224:../../DaisyExamples/libDaisy//src/dev/oled_ssd130x.h **** 
 225:../../DaisyExamples/libDaisy//src/dev/oled_ssd130x.h ****             dsy_gpio_toggle(&pin_sclk_);
 226:../../DaisyExamples/libDaisy//src/dev/oled_ssd130x.h **** 
 227:../../DaisyExamples/libDaisy//src/dev/oled_ssd130x.h ****             System::DelayTicks(clk_delay);
 228:../../DaisyExamples/libDaisy//src/dev/oled_ssd130x.h **** 
 229:../../DaisyExamples/libDaisy//src/dev/oled_ssd130x.h ****             dsy_gpio_toggle(&pin_sclk_);
 230:../../DaisyExamples/libDaisy//src/dev/oled_ssd130x.h ****         }
 231:../../DaisyExamples/libDaisy//src/dev/oled_ssd130x.h ****     }
 232:../../DaisyExamples/libDaisy//src/dev/oled_ssd130x.h **** 
 233:../../DaisyExamples/libDaisy//src/dev/oled_ssd130x.h ****     uint32_t clk_delay;
 234:../../DaisyExamples/libDaisy//src/dev/oled_ssd130x.h ****     dsy_gpio pin_sclk_;
 235:../../DaisyExamples/libDaisy//src/dev/oled_ssd130x.h ****     dsy_gpio pin_mosi_;
 236:../../DaisyExamples/libDaisy//src/dev/oled_ssd130x.h ****     dsy_gpio pin_reset_;
 237:../../DaisyExamples/libDaisy//src/dev/oled_ssd130x.h ****     dsy_gpio pin_dc_;
 238:../../DaisyExamples/libDaisy//src/dev/oled_ssd130x.h **** };
 239:../../DaisyExamples/libDaisy//src/dev/oled_ssd130x.h **** 
 240:../../DaisyExamples/libDaisy//src/dev/oled_ssd130x.h **** 
 241:../../DaisyExamples/libDaisy//src/dev/oled_ssd130x.h **** /**
 242:../../DaisyExamples/libDaisy//src/dev/oled_ssd130x.h ****  * A driver implementation for the SSD1306/SSD1309
 243:../../DaisyExamples/libDaisy//src/dev/oled_ssd130x.h ****  */
 244:../../DaisyExamples/libDaisy//src/dev/oled_ssd130x.h **** template <size_t width, size_t height, typename Transport>
 245:../../DaisyExamples/libDaisy//src/dev/oled_ssd130x.h **** class SSD130xDriver
 246:../../DaisyExamples/libDaisy//src/dev/oled_ssd130x.h **** {
 247:../../DaisyExamples/libDaisy//src/dev/oled_ssd130x.h ****   public:
 248:../../DaisyExamples/libDaisy//src/dev/oled_ssd130x.h ****     struct Config
 249:../../DaisyExamples/libDaisy//src/dev/oled_ssd130x.h ****     {
 250:../../DaisyExamples/libDaisy//src/dev/oled_ssd130x.h ****         typename Transport::Config transport_config;
 251:../../DaisyExamples/libDaisy//src/dev/oled_ssd130x.h ****     };
 252:../../DaisyExamples/libDaisy//src/dev/oled_ssd130x.h **** 
 253:../../DaisyExamples/libDaisy//src/dev/oled_ssd130x.h ****     void Init(Config config)
 254:../../DaisyExamples/libDaisy//src/dev/oled_ssd130x.h ****     {
 255:../../DaisyExamples/libDaisy//src/dev/oled_ssd130x.h ****         transport_.Init(config.transport_config);
 256:../../DaisyExamples/libDaisy//src/dev/oled_ssd130x.h **** 
 257:../../DaisyExamples/libDaisy//src/dev/oled_ssd130x.h ****         // Init routine...
 258:../../DaisyExamples/libDaisy//src/dev/oled_ssd130x.h **** 
ARM GAS  /var/folders/hp/45mn71hd0ps5f5pnytxy5bt00000gn/T//ccdvmoSj.s 			page 14


 259:../../DaisyExamples/libDaisy//src/dev/oled_ssd130x.h ****         // Display Off
 260:../../DaisyExamples/libDaisy//src/dev/oled_ssd130x.h ****         transport_.SendCommand(0xaE);
 261:../../DaisyExamples/libDaisy//src/dev/oled_ssd130x.h ****         // Dimension dependent commands...
 262:../../DaisyExamples/libDaisy//src/dev/oled_ssd130x.h ****         switch(height)
 263:../../DaisyExamples/libDaisy//src/dev/oled_ssd130x.h ****         {
 264:../../DaisyExamples/libDaisy//src/dev/oled_ssd130x.h ****             case 16:
 265:../../DaisyExamples/libDaisy//src/dev/oled_ssd130x.h ****                 // Display Clock Divide Ratio
 266:../../DaisyExamples/libDaisy//src/dev/oled_ssd130x.h ****                 transport_.SendCommand(0xD5);
 267:../../DaisyExamples/libDaisy//src/dev/oled_ssd130x.h ****                 transport_.SendCommand(0x60);
 268:../../DaisyExamples/libDaisy//src/dev/oled_ssd130x.h ****                 // Multiplex Ratio
 269:../../DaisyExamples/libDaisy//src/dev/oled_ssd130x.h ****                 transport_.SendCommand(0xA8);
 270:../../DaisyExamples/libDaisy//src/dev/oled_ssd130x.h ****                 transport_.SendCommand(0x0F);
 271:../../DaisyExamples/libDaisy//src/dev/oled_ssd130x.h ****                 // COM Pins
 272:../../DaisyExamples/libDaisy//src/dev/oled_ssd130x.h ****                 transport_.SendCommand(0xDA);
 273:../../DaisyExamples/libDaisy//src/dev/oled_ssd130x.h ****                 transport_.SendCommand(0x02);
 274:../../DaisyExamples/libDaisy//src/dev/oled_ssd130x.h ****                 break;
 275:../../DaisyExamples/libDaisy//src/dev/oled_ssd130x.h ****             case 32:
 276:../../DaisyExamples/libDaisy//src/dev/oled_ssd130x.h ****                 // Display Clock Divide Ratio
 277:../../DaisyExamples/libDaisy//src/dev/oled_ssd130x.h ****                 transport_.SendCommand(0xD5);
 278:../../DaisyExamples/libDaisy//src/dev/oled_ssd130x.h ****                 transport_.SendCommand(0x80);
 279:../../DaisyExamples/libDaisy//src/dev/oled_ssd130x.h ****                 // Multiplex Ratio
 280:../../DaisyExamples/libDaisy//src/dev/oled_ssd130x.h ****                 transport_.SendCommand(0xA8);
 281:../../DaisyExamples/libDaisy//src/dev/oled_ssd130x.h ****                 transport_.SendCommand(0x1F);
 282:../../DaisyExamples/libDaisy//src/dev/oled_ssd130x.h ****                 // COM Pins
 283:../../DaisyExamples/libDaisy//src/dev/oled_ssd130x.h ****                 transport_.SendCommand(0xDA);
 284:../../DaisyExamples/libDaisy//src/dev/oled_ssd130x.h ****                 if(width == 64)
 285:../../DaisyExamples/libDaisy//src/dev/oled_ssd130x.h ****                 {
 286:../../DaisyExamples/libDaisy//src/dev/oled_ssd130x.h ****                     transport_.SendCommand(0x12);
 287:../../DaisyExamples/libDaisy//src/dev/oled_ssd130x.h ****                 }
 288:../../DaisyExamples/libDaisy//src/dev/oled_ssd130x.h ****                 else
 289:../../DaisyExamples/libDaisy//src/dev/oled_ssd130x.h ****                 {
 290:../../DaisyExamples/libDaisy//src/dev/oled_ssd130x.h ****                     transport_.SendCommand(0x02);
 291:../../DaisyExamples/libDaisy//src/dev/oled_ssd130x.h ****                 }
 292:../../DaisyExamples/libDaisy//src/dev/oled_ssd130x.h **** 
 293:../../DaisyExamples/libDaisy//src/dev/oled_ssd130x.h ****                 break;
 294:../../DaisyExamples/libDaisy//src/dev/oled_ssd130x.h ****             case 48:
 295:../../DaisyExamples/libDaisy//src/dev/oled_ssd130x.h ****                 // Display Clock Divide Ratio
 296:../../DaisyExamples/libDaisy//src/dev/oled_ssd130x.h ****                 transport_.SendCommand(0xD5);
 297:../../DaisyExamples/libDaisy//src/dev/oled_ssd130x.h ****                 transport_.SendCommand(0x80);
 298:../../DaisyExamples/libDaisy//src/dev/oled_ssd130x.h ****                 // Multiplex Ratio
 299:../../DaisyExamples/libDaisy//src/dev/oled_ssd130x.h ****                 transport_.SendCommand(0xA8);
 300:../../DaisyExamples/libDaisy//src/dev/oled_ssd130x.h ****                 transport_.SendCommand(0x2F);
 301:../../DaisyExamples/libDaisy//src/dev/oled_ssd130x.h ****                 // COM Pins
 302:../../DaisyExamples/libDaisy//src/dev/oled_ssd130x.h ****                 transport_.SendCommand(0xDA);
 303:../../DaisyExamples/libDaisy//src/dev/oled_ssd130x.h ****                 transport_.SendCommand(0x12);
 304:../../DaisyExamples/libDaisy//src/dev/oled_ssd130x.h ****                 break;
 305:../../DaisyExamples/libDaisy//src/dev/oled_ssd130x.h ****             default: // 128
 306:../../DaisyExamples/libDaisy//src/dev/oled_ssd130x.h ****                 // Display Clock Divide Ratio
 307:../../DaisyExamples/libDaisy//src/dev/oled_ssd130x.h ****                 transport_.SendCommand(0xD5);
 308:../../DaisyExamples/libDaisy//src/dev/oled_ssd130x.h ****                 transport_.SendCommand(0x80);
 309:../../DaisyExamples/libDaisy//src/dev/oled_ssd130x.h ****                 // Multiplex Ratio
 310:../../DaisyExamples/libDaisy//src/dev/oled_ssd130x.h ****                 transport_.SendCommand(0xA8);
 311:../../DaisyExamples/libDaisy//src/dev/oled_ssd130x.h ****                 transport_.SendCommand(0x3F);
 312:../../DaisyExamples/libDaisy//src/dev/oled_ssd130x.h ****                 // COM Pins
 313:../../DaisyExamples/libDaisy//src/dev/oled_ssd130x.h ****                 transport_.SendCommand(0xDA);
 314:../../DaisyExamples/libDaisy//src/dev/oled_ssd130x.h ****                 transport_.SendCommand(0x12);
 315:../../DaisyExamples/libDaisy//src/dev/oled_ssd130x.h ****                 break;
ARM GAS  /var/folders/hp/45mn71hd0ps5f5pnytxy5bt00000gn/T//ccdvmoSj.s 			page 15


 316:../../DaisyExamples/libDaisy//src/dev/oled_ssd130x.h ****         }
 317:../../DaisyExamples/libDaisy//src/dev/oled_ssd130x.h **** 
 318:../../DaisyExamples/libDaisy//src/dev/oled_ssd130x.h ****         // Display Offset
 319:../../DaisyExamples/libDaisy//src/dev/oled_ssd130x.h ****         transport_.SendCommand(0xD3);
 320:../../DaisyExamples/libDaisy//src/dev/oled_ssd130x.h ****         transport_.SendCommand(0x00);
 321:../../DaisyExamples/libDaisy//src/dev/oled_ssd130x.h ****         // Start Line Address
 322:../../DaisyExamples/libDaisy//src/dev/oled_ssd130x.h ****         transport_.SendCommand(0x40);
 323:../../DaisyExamples/libDaisy//src/dev/oled_ssd130x.h ****         // Normal Display
 324:../../DaisyExamples/libDaisy//src/dev/oled_ssd130x.h ****         transport_.SendCommand(0xA6);
 325:../../DaisyExamples/libDaisy//src/dev/oled_ssd130x.h ****         // All On Resume
 326:../../DaisyExamples/libDaisy//src/dev/oled_ssd130x.h ****         transport_.SendCommand(0xA4);
 327:../../DaisyExamples/libDaisy//src/dev/oled_ssd130x.h ****         // Charge Pump
 328:../../DaisyExamples/libDaisy//src/dev/oled_ssd130x.h ****         transport_.SendCommand(0x8D);
 329:../../DaisyExamples/libDaisy//src/dev/oled_ssd130x.h ****         transport_.SendCommand(0x14);
 330:../../DaisyExamples/libDaisy//src/dev/oled_ssd130x.h ****         // Set Segment Remap
 331:../../DaisyExamples/libDaisy//src/dev/oled_ssd130x.h ****         transport_.SendCommand(0xA1);
 332:../../DaisyExamples/libDaisy//src/dev/oled_ssd130x.h ****         // COM Output Scan Direction
 333:../../DaisyExamples/libDaisy//src/dev/oled_ssd130x.h ****         transport_.SendCommand(0xC8);
 334:../../DaisyExamples/libDaisy//src/dev/oled_ssd130x.h ****         // Contrast Control
 335:../../DaisyExamples/libDaisy//src/dev/oled_ssd130x.h ****         transport_.SendCommand(0x81);
 336:../../DaisyExamples/libDaisy//src/dev/oled_ssd130x.h ****         transport_.SendCommand(0x8F);
 337:../../DaisyExamples/libDaisy//src/dev/oled_ssd130x.h ****         // Pre Charge
 338:../../DaisyExamples/libDaisy//src/dev/oled_ssd130x.h ****         transport_.SendCommand(0xD9);
 339:../../DaisyExamples/libDaisy//src/dev/oled_ssd130x.h ****         transport_.SendCommand(0x25);
 340:../../DaisyExamples/libDaisy//src/dev/oled_ssd130x.h ****         // VCOM Detect
 341:../../DaisyExamples/libDaisy//src/dev/oled_ssd130x.h ****         transport_.SendCommand(0xDB);
 342:../../DaisyExamples/libDaisy//src/dev/oled_ssd130x.h ****         transport_.SendCommand(0x34);
 343:../../DaisyExamples/libDaisy//src/dev/oled_ssd130x.h **** 
 344:../../DaisyExamples/libDaisy//src/dev/oled_ssd130x.h **** 
 345:../../DaisyExamples/libDaisy//src/dev/oled_ssd130x.h ****         // Display On
 346:../../DaisyExamples/libDaisy//src/dev/oled_ssd130x.h ****         transport_.SendCommand(0xAF); //--turn on oled panel
 347:../../DaisyExamples/libDaisy//src/dev/oled_ssd130x.h ****     };
 348:../../DaisyExamples/libDaisy//src/dev/oled_ssd130x.h **** 
 349:../../DaisyExamples/libDaisy//src/dev/oled_ssd130x.h ****     size_t Width() const { return width; };
 350:../../DaisyExamples/libDaisy//src/dev/oled_ssd130x.h ****     size_t Height() const { return height; };
 351:../../DaisyExamples/libDaisy//src/dev/oled_ssd130x.h **** 
 352:../../DaisyExamples/libDaisy//src/dev/oled_ssd130x.h ****     void DrawPixel(uint_fast8_t x, uint_fast8_t y, bool on)
 353:../../DaisyExamples/libDaisy//src/dev/oled_ssd130x.h ****     {
 354:../../DaisyExamples/libDaisy//src/dev/oled_ssd130x.h ****         if(x >= width || y >= height)
 355:../../DaisyExamples/libDaisy//src/dev/oled_ssd130x.h ****             return;
 356:../../DaisyExamples/libDaisy//src/dev/oled_ssd130x.h ****         if(on)
 357:../../DaisyExamples/libDaisy//src/dev/oled_ssd130x.h ****             buffer_[x + (y / 8) * width] |= (1 << (y % 8));
 358:../../DaisyExamples/libDaisy//src/dev/oled_ssd130x.h ****         else
 359:../../DaisyExamples/libDaisy//src/dev/oled_ssd130x.h ****             buffer_[x + (y / 8) * width] &= ~(1 << (y % 8));
 360:../../DaisyExamples/libDaisy//src/dev/oled_ssd130x.h ****     }
 361:../../DaisyExamples/libDaisy//src/dev/oled_ssd130x.h **** 
 362:../../DaisyExamples/libDaisy//src/dev/oled_ssd130x.h ****     void Fill(bool on)
  86              		.loc 7 362 10 view .LVU11
  87              	.LBB340:
 363:../../DaisyExamples/libDaisy//src/dev/oled_ssd130x.h ****     {
 364:../../DaisyExamples/libDaisy//src/dev/oled_ssd130x.h ****         for(size_t i = 0; i < sizeof(buffer_); i++)
  88              		.loc 7 364 29 view .LVU12
 365:../../DaisyExamples/libDaisy//src/dev/oled_ssd130x.h ****         {
 366:../../DaisyExamples/libDaisy//src/dev/oled_ssd130x.h ****             buffer_[i] = on ? 0xff : 0x00;
  89              		.loc 7 366 24 is_stmt 0 view .LVU13
  90 0000 4942     		rsbs	r1, r1, #0
  91              	.LVL2:
ARM GAS  /var/folders/hp/45mn71hd0ps5f5pnytxy5bt00000gn/T//ccdvmoSj.s 			page 16


  92              		.loc 7 366 24 view .LVU14
  93 0002 4FF40072 		mov	r2, #512
  94 0006 1030     		adds	r0, r0, #16
  95              	.LVL3:
  96              		.loc 7 366 24 view .LVU15
  97 0008 C9B2     		uxtb	r1, r1
  98 000a FFF7FEBF 		b	memset
  99              	.LVL4:
 100              		.loc 7 366 24 view .LVU16
 101              	.LBE340:
 102              	.LBE339:
 103              		.cfi_endproc
 104              	.LFE2635:
 106 000e 00BF     		.section	.text._ZN5daisy11OledDisplayINS_13SSD130xDriverILj128ELj32ENS_19SSD130xI2CTransportEEEED2
 107              		.align	1
 108              		.p2align 2,,3
 109              		.weak	_ZN5daisy11OledDisplayINS_13SSD130xDriverILj128ELj32ENS_19SSD130xI2CTransportEEEED2Ev
 110              		.syntax unified
 111              		.thumb
 112              		.thumb_func
 114              	_ZN5daisy11OledDisplayINS_13SSD130xDriverILj128ELj32ENS_19SSD130xI2CTransportEEEED2Ev:
 115              	.LVL5:
 116              	.LFB2669:
  18:../../DaisyExamples/libDaisy//src/hid/disp/oled_display.h **** 
 117              		.loc 6 18 13 is_stmt 1 view -0
 118              		.cfi_startproc
 119              		@ args = 0, pretend = 0, frame = 0
 120              		@ frame_needed = 0, uses_anonymous_args = 0
 121              		@ link register save eliminated.
 122              	.LBB341:
 123              	.LBI341:
 124              		.file 8 "../../DaisyExamples/libDaisy//src/hid/disp/display.h"
   1:../../DaisyExamples/libDaisy//src/hid/disp/display.h **** #pragma once
   2:../../DaisyExamples/libDaisy//src/hid/disp/display.h **** #ifndef DSY_DISPLAY_H
   3:../../DaisyExamples/libDaisy//src/hid/disp/display.h **** #define DSY_DISPLAY_H /**< Macro */
   4:../../DaisyExamples/libDaisy//src/hid/disp/display.h **** #include <cmath>
   5:../../DaisyExamples/libDaisy//src/hid/disp/display.h **** #include "util/oled_fonts.h"
   6:../../DaisyExamples/libDaisy//src/hid/disp/display.h **** #include "daisy_core.h"
   7:../../DaisyExamples/libDaisy//src/hid/disp/display.h **** #include "graphics_common.h"
   8:../../DaisyExamples/libDaisy//src/hid/disp/display.h **** 
   9:../../DaisyExamples/libDaisy//src/hid/disp/display.h **** #ifndef deg2rad
  10:../../DaisyExamples/libDaisy//src/hid/disp/display.h **** #define deg2rad(deg) ((deg)*3.141592 / 180.0)
  11:../../DaisyExamples/libDaisy//src/hid/disp/display.h **** #endif
  12:../../DaisyExamples/libDaisy//src/hid/disp/display.h **** 
  13:../../DaisyExamples/libDaisy//src/hid/disp/display.h **** namespace daisy
  14:../../DaisyExamples/libDaisy//src/hid/disp/display.h **** {
  15:../../DaisyExamples/libDaisy//src/hid/disp/display.h **** /** 
  16:../../DaisyExamples/libDaisy//src/hid/disp/display.h ****  * This interface is used as a base class for all types of 1bit-per-pixel
  17:../../DaisyExamples/libDaisy//src/hid/disp/display.h ****  * graphics displays.
  18:../../DaisyExamples/libDaisy//src/hid/disp/display.h **** */
  19:../../DaisyExamples/libDaisy//src/hid/disp/display.h **** class OneBitGraphicsDisplay
  20:../../DaisyExamples/libDaisy//src/hid/disp/display.h **** {
  21:../../DaisyExamples/libDaisy//src/hid/disp/display.h ****   public:
  22:../../DaisyExamples/libDaisy//src/hid/disp/display.h ****     OneBitGraphicsDisplay() {}
  23:../../DaisyExamples/libDaisy//src/hid/disp/display.h ****     virtual ~OneBitGraphicsDisplay() {}
  24:../../DaisyExamples/libDaisy//src/hid/disp/display.h **** 
  25:../../DaisyExamples/libDaisy//src/hid/disp/display.h ****     virtual uint16_t Height() const = 0;
ARM GAS  /var/folders/hp/45mn71hd0ps5f5pnytxy5bt00000gn/T//ccdvmoSj.s 			page 17


  26:../../DaisyExamples/libDaisy//src/hid/disp/display.h ****     virtual uint16_t Width() const  = 0;
  27:../../DaisyExamples/libDaisy//src/hid/disp/display.h **** 
  28:../../DaisyExamples/libDaisy//src/hid/disp/display.h ****     Rectangle GetBounds() const
  29:../../DaisyExamples/libDaisy//src/hid/disp/display.h ****     {
  30:../../DaisyExamples/libDaisy//src/hid/disp/display.h ****         return Rectangle(int16_t(Width()), int16_t(Height()));
  31:../../DaisyExamples/libDaisy//src/hid/disp/display.h ****     }
  32:../../DaisyExamples/libDaisy//src/hid/disp/display.h **** 
  33:../../DaisyExamples/libDaisy//src/hid/disp/display.h **** 
  34:../../DaisyExamples/libDaisy//src/hid/disp/display.h ****     size_t CurrentX() { return currentX_; };
  35:../../DaisyExamples/libDaisy//src/hid/disp/display.h ****     size_t CurrentY() { return currentY_; };
  36:../../DaisyExamples/libDaisy//src/hid/disp/display.h **** 
  37:../../DaisyExamples/libDaisy//src/hid/disp/display.h ****     /** 
  38:../../DaisyExamples/libDaisy//src/hid/disp/display.h ****     Fills the entire display with either on/off.
  39:../../DaisyExamples/libDaisy//src/hid/disp/display.h ****     \param on Sets on or off.
  40:../../DaisyExamples/libDaisy//src/hid/disp/display.h ****     */
  41:../../DaisyExamples/libDaisy//src/hid/disp/display.h ****     virtual void Fill(bool on) = 0;
  42:../../DaisyExamples/libDaisy//src/hid/disp/display.h **** 
  43:../../DaisyExamples/libDaisy//src/hid/disp/display.h ****     /**
  44:../../DaisyExamples/libDaisy//src/hid/disp/display.h ****     Sets the pixel at the specified coordinate to be on/off.
  45:../../DaisyExamples/libDaisy//src/hid/disp/display.h ****     \param x   x Coordinate
  46:../../DaisyExamples/libDaisy//src/hid/disp/display.h ****     \param y   y coordinate
  47:../../DaisyExamples/libDaisy//src/hid/disp/display.h ****     \param on  on or off
  48:../../DaisyExamples/libDaisy//src/hid/disp/display.h ****     */
  49:../../DaisyExamples/libDaisy//src/hid/disp/display.h ****     virtual void DrawPixel(uint_fast8_t x, uint_fast8_t y, bool on) = 0;
  50:../../DaisyExamples/libDaisy//src/hid/disp/display.h **** 
  51:../../DaisyExamples/libDaisy//src/hid/disp/display.h ****     /**
  52:../../DaisyExamples/libDaisy//src/hid/disp/display.h ****     Draws a line from (x1, y1) to (y1, y2)
  53:../../DaisyExamples/libDaisy//src/hid/disp/display.h ****     \param x1  x Coordinate of the starting point
  54:../../DaisyExamples/libDaisy//src/hid/disp/display.h ****     \param y1  y Coordinate of the starting point
  55:../../DaisyExamples/libDaisy//src/hid/disp/display.h ****     \param x2  x Coordinate of the ending point
  56:../../DaisyExamples/libDaisy//src/hid/disp/display.h ****     \param y2  y Coordinate of the ending point
  57:../../DaisyExamples/libDaisy//src/hid/disp/display.h ****     \param on  on or off
  58:../../DaisyExamples/libDaisy//src/hid/disp/display.h ****     */
  59:../../DaisyExamples/libDaisy//src/hid/disp/display.h ****     virtual void DrawLine(uint_fast8_t x1,
  60:../../DaisyExamples/libDaisy//src/hid/disp/display.h ****                           uint_fast8_t y1,
  61:../../DaisyExamples/libDaisy//src/hid/disp/display.h ****                           uint_fast8_t x2,
  62:../../DaisyExamples/libDaisy//src/hid/disp/display.h ****                           uint_fast8_t y2,
  63:../../DaisyExamples/libDaisy//src/hid/disp/display.h ****                           bool         on)
  64:../../DaisyExamples/libDaisy//src/hid/disp/display.h ****         = 0;
  65:../../DaisyExamples/libDaisy//src/hid/disp/display.h **** 
  66:../../DaisyExamples/libDaisy//src/hid/disp/display.h ****     /**
  67:../../DaisyExamples/libDaisy//src/hid/disp/display.h ****     Draws a rectangle based on two coordinates.
  68:../../DaisyExamples/libDaisy//src/hid/disp/display.h ****     \param x1 x Coordinate of the first point
  69:../../DaisyExamples/libDaisy//src/hid/disp/display.h ****     \param y1 y Coordinate of the first point
  70:../../DaisyExamples/libDaisy//src/hid/disp/display.h ****     \param x2 x Coordinate of the second point
  71:../../DaisyExamples/libDaisy//src/hid/disp/display.h ****     \param y2 y Coordinate of the second point
  72:../../DaisyExamples/libDaisy//src/hid/disp/display.h ****     \param on on or off
  73:../../DaisyExamples/libDaisy//src/hid/disp/display.h ****     \param fill fill the rectangle or draw only the outline
  74:../../DaisyExamples/libDaisy//src/hid/disp/display.h ****     */
  75:../../DaisyExamples/libDaisy//src/hid/disp/display.h ****     virtual void DrawRect(uint_fast8_t x1,
  76:../../DaisyExamples/libDaisy//src/hid/disp/display.h ****                           uint_fast8_t y1,
  77:../../DaisyExamples/libDaisy//src/hid/disp/display.h ****                           uint_fast8_t x2,
  78:../../DaisyExamples/libDaisy//src/hid/disp/display.h ****                           uint_fast8_t y2,
  79:../../DaisyExamples/libDaisy//src/hid/disp/display.h ****                           bool         on,
  80:../../DaisyExamples/libDaisy//src/hid/disp/display.h ****                           bool         fill = false)
  81:../../DaisyExamples/libDaisy//src/hid/disp/display.h ****         = 0;
  82:../../DaisyExamples/libDaisy//src/hid/disp/display.h **** 
ARM GAS  /var/folders/hp/45mn71hd0ps5f5pnytxy5bt00000gn/T//ccdvmoSj.s 			page 18


  83:../../DaisyExamples/libDaisy//src/hid/disp/display.h ****     /**
  84:../../DaisyExamples/libDaisy//src/hid/disp/display.h ****     Draws a rectangle.
  85:../../DaisyExamples/libDaisy//src/hid/disp/display.h ****     \param rect the rectangle
  86:../../DaisyExamples/libDaisy//src/hid/disp/display.h ****     \param on   on or off
  87:../../DaisyExamples/libDaisy//src/hid/disp/display.h ****     \param fill fill the rectangle or draw only the outline
  88:../../DaisyExamples/libDaisy//src/hid/disp/display.h ****     */
  89:../../DaisyExamples/libDaisy//src/hid/disp/display.h ****     void DrawRect(const Rectangle& rect, bool on, bool fill = false)
  90:../../DaisyExamples/libDaisy//src/hid/disp/display.h ****     {
  91:../../DaisyExamples/libDaisy//src/hid/disp/display.h ****         DrawRect(rect.GetX(),
  92:../../DaisyExamples/libDaisy//src/hid/disp/display.h ****                  rect.GetY(),
  93:../../DaisyExamples/libDaisy//src/hid/disp/display.h ****                  rect.GetRight(),
  94:../../DaisyExamples/libDaisy//src/hid/disp/display.h ****                  rect.GetBottom(),
  95:../../DaisyExamples/libDaisy//src/hid/disp/display.h ****                  on,
  96:../../DaisyExamples/libDaisy//src/hid/disp/display.h ****                  fill);
  97:../../DaisyExamples/libDaisy//src/hid/disp/display.h ****     }
  98:../../DaisyExamples/libDaisy//src/hid/disp/display.h **** 
  99:../../DaisyExamples/libDaisy//src/hid/disp/display.h ****     /**
 100:../../DaisyExamples/libDaisy//src/hid/disp/display.h ****     Draws an arc around the specified coordinate
 101:../../DaisyExamples/libDaisy//src/hid/disp/display.h ****     \param x           x Coordinate of the center of the arc
 102:../../DaisyExamples/libDaisy//src/hid/disp/display.h ****     \param y           y Coordinate of the center of the arc
 103:../../DaisyExamples/libDaisy//src/hid/disp/display.h ****     \param radius      radius of the arc
 104:../../DaisyExamples/libDaisy//src/hid/disp/display.h ****     \param start_angle angle where to start the arc
 105:../../DaisyExamples/libDaisy//src/hid/disp/display.h ****     \param sweep       total angle of the arc
 106:../../DaisyExamples/libDaisy//src/hid/disp/display.h ****     \param on  on or off
 107:../../DaisyExamples/libDaisy//src/hid/disp/display.h ****     */
 108:../../DaisyExamples/libDaisy//src/hid/disp/display.h ****     virtual void DrawArc(uint_fast8_t x,
 109:../../DaisyExamples/libDaisy//src/hid/disp/display.h ****                          uint_fast8_t y,
 110:../../DaisyExamples/libDaisy//src/hid/disp/display.h ****                          uint_fast8_t radius,
 111:../../DaisyExamples/libDaisy//src/hid/disp/display.h ****                          int_fast16_t start_angle,
 112:../../DaisyExamples/libDaisy//src/hid/disp/display.h ****                          int_fast16_t sweep,
 113:../../DaisyExamples/libDaisy//src/hid/disp/display.h ****                          bool         on)
 114:../../DaisyExamples/libDaisy//src/hid/disp/display.h ****         = 0;
 115:../../DaisyExamples/libDaisy//src/hid/disp/display.h **** 
 116:../../DaisyExamples/libDaisy//src/hid/disp/display.h ****     /**
 117:../../DaisyExamples/libDaisy//src/hid/disp/display.h ****     Draws a circle around the specified coordinate
 118:../../DaisyExamples/libDaisy//src/hid/disp/display.h ****     \param x           x Coordinate of the center of the circle
 119:../../DaisyExamples/libDaisy//src/hid/disp/display.h ****     \param y           y Coordinate of the center of the circle
 120:../../DaisyExamples/libDaisy//src/hid/disp/display.h ****     \param radius      radius of the circle
 121:../../DaisyExamples/libDaisy//src/hid/disp/display.h ****     \param on  on or off
 122:../../DaisyExamples/libDaisy//src/hid/disp/display.h ****     */
 123:../../DaisyExamples/libDaisy//src/hid/disp/display.h ****     void
 124:../../DaisyExamples/libDaisy//src/hid/disp/display.h ****     DrawCircle(uint_fast8_t x, uint_fast8_t y, uint_fast8_t radius, bool on)
 125:../../DaisyExamples/libDaisy//src/hid/disp/display.h ****     {
 126:../../DaisyExamples/libDaisy//src/hid/disp/display.h ****         DrawArc(x, y, radius, 0, 360, on);
 127:../../DaisyExamples/libDaisy//src/hid/disp/display.h ****     };
 128:../../DaisyExamples/libDaisy//src/hid/disp/display.h **** 
 129:../../DaisyExamples/libDaisy//src/hid/disp/display.h ****     /** 
 130:../../DaisyExamples/libDaisy//src/hid/disp/display.h ****     Writes the character with the specific FontDef
 131:../../DaisyExamples/libDaisy//src/hid/disp/display.h ****     to the display buffer at the current Cursor position.
 132:../../DaisyExamples/libDaisy//src/hid/disp/display.h ****     \param ch character to be written
 133:../../DaisyExamples/libDaisy//src/hid/disp/display.h ****     \param font font to be written in
 134:../../DaisyExamples/libDaisy//src/hid/disp/display.h ****     \param on    on or off
 135:../../DaisyExamples/libDaisy//src/hid/disp/display.h ****     \return &
 136:../../DaisyExamples/libDaisy//src/hid/disp/display.h ****     */
 137:../../DaisyExamples/libDaisy//src/hid/disp/display.h ****     virtual char WriteChar(char ch, FontDef font, bool on) = 0;
 138:../../DaisyExamples/libDaisy//src/hid/disp/display.h **** 
 139:../../DaisyExamples/libDaisy//src/hid/disp/display.h ****     /** 
ARM GAS  /var/folders/hp/45mn71hd0ps5f5pnytxy5bt00000gn/T//ccdvmoSj.s 			page 19


 140:../../DaisyExamples/libDaisy//src/hid/disp/display.h ****     Similar to WriteChar, except it will handle an entire String.
 141:../../DaisyExamples/libDaisy//src/hid/disp/display.h ****     Wrapping does not happen automatically, so the width
 142:../../DaisyExamples/libDaisy//src/hid/disp/display.h ****     of the string must be kept within the dimensions of the screen.
 143:../../DaisyExamples/libDaisy//src/hid/disp/display.h ****     \param str string to be written
 144:../../DaisyExamples/libDaisy//src/hid/disp/display.h ****     \param font font to use
 145:../../DaisyExamples/libDaisy//src/hid/disp/display.h ****     \param on  on or off
 146:../../DaisyExamples/libDaisy//src/hid/disp/display.h ****     \return &
 147:../../DaisyExamples/libDaisy//src/hid/disp/display.h ****     */
 148:../../DaisyExamples/libDaisy//src/hid/disp/display.h ****     virtual char WriteString(const char* str, FontDef font, bool on) = 0;
 149:../../DaisyExamples/libDaisy//src/hid/disp/display.h **** 
 150:../../DaisyExamples/libDaisy//src/hid/disp/display.h ****     /** 
 151:../../DaisyExamples/libDaisy//src/hid/disp/display.h ****     Similar to WriteString but justified within a bounding box.
 152:../../DaisyExamples/libDaisy//src/hid/disp/display.h ****     \param str          string to be written
 153:../../DaisyExamples/libDaisy//src/hid/disp/display.h ****     \param font         font to use
 154:../../DaisyExamples/libDaisy//src/hid/disp/display.h ****     \param boundingBox  the bounding box to draw the text in
 155:../../DaisyExamples/libDaisy//src/hid/disp/display.h ****     \param alignment    the alignment to use
 156:../../DaisyExamples/libDaisy//src/hid/disp/display.h ****     \param on           on or off
 157:../../DaisyExamples/libDaisy//src/hid/disp/display.h ****     \return The rectangle that was drawn to
 158:../../DaisyExamples/libDaisy//src/hid/disp/display.h ****     */
 159:../../DaisyExamples/libDaisy//src/hid/disp/display.h ****     virtual Rectangle WriteStringAligned(const char*    str,
 160:../../DaisyExamples/libDaisy//src/hid/disp/display.h ****                                          const FontDef& font,
 161:../../DaisyExamples/libDaisy//src/hid/disp/display.h ****                                          Rectangle      boundingBox,
 162:../../DaisyExamples/libDaisy//src/hid/disp/display.h ****                                          Alignment      alignment,
 163:../../DaisyExamples/libDaisy//src/hid/disp/display.h ****                                          bool           on)
 164:../../DaisyExamples/libDaisy//src/hid/disp/display.h ****         = 0;
 165:../../DaisyExamples/libDaisy//src/hid/disp/display.h **** 
 166:../../DaisyExamples/libDaisy//src/hid/disp/display.h ****     /** 
 167:../../DaisyExamples/libDaisy//src/hid/disp/display.h ****     Moves the 'Cursor' position used for WriteChar, and WriteStr to the specified coordinate.
 168:../../DaisyExamples/libDaisy//src/hid/disp/display.h ****     \param x x pos
 169:../../DaisyExamples/libDaisy//src/hid/disp/display.h ****     \param y y pos
 170:../../DaisyExamples/libDaisy//src/hid/disp/display.h ****     */
 171:../../DaisyExamples/libDaisy//src/hid/disp/display.h ****     void SetCursor(uint16_t x, uint16_t y)
 172:../../DaisyExamples/libDaisy//src/hid/disp/display.h ****     {
 173:../../DaisyExamples/libDaisy//src/hid/disp/display.h ****         currentX_ = (x >= Width()) ? Width() - 1 : x;
 174:../../DaisyExamples/libDaisy//src/hid/disp/display.h ****         currentY_ = (y >= Height()) ? Height() - 1 : y;
 175:../../DaisyExamples/libDaisy//src/hid/disp/display.h ****     }
 176:../../DaisyExamples/libDaisy//src/hid/disp/display.h **** 
 177:../../DaisyExamples/libDaisy//src/hid/disp/display.h ****     /** 
 178:../../DaisyExamples/libDaisy//src/hid/disp/display.h ****     Writes the current display buffer to the OLED device using SPI or I2C depending on 
 179:../../DaisyExamples/libDaisy//src/hid/disp/display.h ****     how the object was initialized.
 180:../../DaisyExamples/libDaisy//src/hid/disp/display.h ****     */
 181:../../DaisyExamples/libDaisy//src/hid/disp/display.h ****     virtual void Update() = 0;
 182:../../DaisyExamples/libDaisy//src/hid/disp/display.h **** 
 183:../../DaisyExamples/libDaisy//src/hid/disp/display.h ****   protected:
 184:../../DaisyExamples/libDaisy//src/hid/disp/display.h ****     uint16_t currentX_;
 185:../../DaisyExamples/libDaisy//src/hid/disp/display.h ****     uint16_t currentY_;
 186:../../DaisyExamples/libDaisy//src/hid/disp/display.h **** };
 187:../../DaisyExamples/libDaisy//src/hid/disp/display.h **** 
 188:../../DaisyExamples/libDaisy//src/hid/disp/display.h **** /** This class is intended as a intermediary class for your actual implementation of the OneBitGrap
 189:../../DaisyExamples/libDaisy//src/hid/disp/display.h ****  *  interface. It uses the CRTP design pattern where the template argument is the child class. It p
 190:../../DaisyExamples/libDaisy//src/hid/disp/display.h ****  *  implementations for most of the functions, except DrawPixel(), Update() and Fill(), which you'l
 191:../../DaisyExamples/libDaisy//src/hid/disp/display.h ****  *  to provide in your child class.
 192:../../DaisyExamples/libDaisy//src/hid/disp/display.h ****  *  The main goal of this class is to provide common drawing functions without relying on massive a
 193:../../DaisyExamples/libDaisy//src/hid/disp/display.h ****  *  virtual function calls that would result in a performance loss. To achieve this, any drawing fu
 194:../../DaisyExamples/libDaisy//src/hid/disp/display.h ****  *  is implemented here and internally calls other drawing functions (e.g. DrawRect() which interna
 195:../../DaisyExamples/libDaisy//src/hid/disp/display.h ****  *  DrawPixel() and DrawLine()) makes these calls via the qualified name of these functions to expl
 196:../../DaisyExamples/libDaisy//src/hid/disp/display.h ****  *  suppress the virtual dispatch mechanism like this:
ARM GAS  /var/folders/hp/45mn71hd0ps5f5pnytxy5bt00000gn/T//ccdvmoSj.s 			page 20


 197:../../DaisyExamples/libDaisy//src/hid/disp/display.h ****  * 
 198:../../DaisyExamples/libDaisy//src/hid/disp/display.h ****  *      ChildType::DrawPixel(...); // no virtual function call; direct call into the child class fu
 199:../../DaisyExamples/libDaisy//src/hid/disp/display.h ****  *  
 200:../../DaisyExamples/libDaisy//src/hid/disp/display.h ****  *  To create a custom OneBitGraphicsDisplay implementation, you can 
 201:../../DaisyExamples/libDaisy//src/hid/disp/display.h ****  *  A) inherit from OneBitGraphicsDisplay directly and provide all the drawing functions yourself
 202:../../DaisyExamples/libDaisy//src/hid/disp/display.h ****  *  B) Inherit from OneBitGraphicsDisplayImpl and only provide DrawPixel(), Fill() and Update()
 203:../../DaisyExamples/libDaisy//src/hid/disp/display.h ****  *     like this:
 204:../../DaisyExamples/libDaisy//src/hid/disp/display.h ****  *  
 205:../../DaisyExamples/libDaisy//src/hid/disp/display.h ****  *      class MyDisplayClass : public OneBitGraphicsDisplayImpl<MyDisplayClass> 
 206:../../DaisyExamples/libDaisy//src/hid/disp/display.h ****  *      {
 207:../../DaisyExamples/libDaisy//src/hid/disp/display.h ****  *      public:
 208:../../DaisyExamples/libDaisy//src/hid/disp/display.h ****  *          void Fill() override { ... };
 209:../../DaisyExamples/libDaisy//src/hid/disp/display.h ****  *          void DrawPixel(uint_fast8_t x, uint_fast8_t y, bool on) override { ... };
 210:../../DaisyExamples/libDaisy//src/hid/disp/display.h ****  *          void Update() override { ... }
 211:../../DaisyExamples/libDaisy//src/hid/disp/display.h ****  *      };
 212:../../DaisyExamples/libDaisy//src/hid/disp/display.h ****  *  
 213:../../DaisyExamples/libDaisy//src/hid/disp/display.h ****  */
 214:../../DaisyExamples/libDaisy//src/hid/disp/display.h **** template <class ChildType>
 215:../../DaisyExamples/libDaisy//src/hid/disp/display.h **** class OneBitGraphicsDisplayImpl : public OneBitGraphicsDisplay
 216:../../DaisyExamples/libDaisy//src/hid/disp/display.h **** {
 217:../../DaisyExamples/libDaisy//src/hid/disp/display.h ****   public:
 218:../../DaisyExamples/libDaisy//src/hid/disp/display.h ****     OneBitGraphicsDisplayImpl() {}
 219:../../DaisyExamples/libDaisy//src/hid/disp/display.h ****     virtual ~OneBitGraphicsDisplayImpl() {}
 125              		.loc 8 219 13 view .LVU18
 126              	.LBB342:
 127              	.LBI342:
  23:../../DaisyExamples/libDaisy//src/hid/disp/display.h **** 
 128              		.loc 8 23 13 view .LVU19
  23:../../DaisyExamples/libDaisy//src/hid/disp/display.h **** 
 129              		.loc 8 23 13 is_stmt 0 view .LVU20
 130              	.LBE342:
 131              	.LBE341:
  18:../../DaisyExamples/libDaisy//src/hid/disp/oled_display.h **** 
 132              		.loc 6 18 29 view .LVU21
 133 0000 7047     		bx	lr
 134              		.cfi_endproc
 135              	.LFE2669:
 137              		.weak	_ZN5daisy11OledDisplayINS_13SSD130xDriverILj128ELj32ENS_19SSD130xI2CTransportEEEED1Ev
 138              		.thumb_set _ZN5daisy11OledDisplayINS_13SSD130xDriverILj128ELj32ENS_19SSD130xI2CTransportEEEED1Ev,_
 139 0002 00BF     		.section	.text._ZNK5daisy11OledDisplayINS_13SSD130xDriverILj128ELj32ENS_19SSD130xI2CTransportEEEE6
 140              		.align	1
 141              		.p2align 2,,3
 142              		.weak	_ZNK5daisy11OledDisplayINS_13SSD130xDriverILj128ELj32ENS_19SSD130xI2CTransportEEEE6HeightEv
 143              		.syntax unified
 144              		.thumb
 145              		.thumb_func
 147              	_ZNK5daisy11OledDisplayINS_13SSD130xDriverILj128ELj32ENS_19SSD130xI2CTransportEEEE6HeightEv:
 148              	.LVL6:
 149              	.LFB2672:
  27:../../DaisyExamples/libDaisy//src/hid/disp/oled_display.h ****     uint16_t Width() const override { return driver_.Width(); }
 150              		.loc 6 27 14 is_stmt 1 view -0
 151              		.cfi_startproc
 152              		@ args = 0, pretend = 0, frame = 0
 153              		@ frame_needed = 0, uses_anonymous_args = 0
 154              		@ link register save eliminated.
  27:../../DaisyExamples/libDaisy//src/hid/disp/oled_display.h ****     uint16_t Width() const override { return driver_.Width(); }
 155              		.loc 6 27 65 is_stmt 0 view .LVU23
ARM GAS  /var/folders/hp/45mn71hd0ps5f5pnytxy5bt00000gn/T//ccdvmoSj.s 			page 21


 156 0000 2020     		movs	r0, #32
 157              	.LVL7:
  27:../../DaisyExamples/libDaisy//src/hid/disp/oled_display.h ****     uint16_t Width() const override { return driver_.Width(); }
 158              		.loc 6 27 65 view .LVU24
 159 0002 7047     		bx	lr
 160              		.cfi_endproc
 161              	.LFE2672:
 163              		.section	.text._ZNK5daisy11OledDisplayINS_13SSD130xDriverILj128ELj32ENS_19SSD130xI2CTransportEEEE5
 164              		.align	1
 165              		.p2align 2,,3
 166              		.weak	_ZNK5daisy11OledDisplayINS_13SSD130xDriverILj128ELj32ENS_19SSD130xI2CTransportEEEE5WidthEv
 167              		.syntax unified
 168              		.thumb
 169              		.thumb_func
 171              	_ZNK5daisy11OledDisplayINS_13SSD130xDriverILj128ELj32ENS_19SSD130xI2CTransportEEEE5WidthEv:
 172              	.LVL8:
 173              	.LFB2673:
  28:../../DaisyExamples/libDaisy//src/hid/disp/oled_display.h **** 
 174              		.loc 6 28 14 is_stmt 1 view -0
 175              		.cfi_startproc
 176              		@ args = 0, pretend = 0, frame = 0
 177              		@ frame_needed = 0, uses_anonymous_args = 0
 178              		@ link register save eliminated.
  28:../../DaisyExamples/libDaisy//src/hid/disp/oled_display.h **** 
 179              		.loc 6 28 63 is_stmt 0 view .LVU26
 180 0000 8020     		movs	r0, #128
 181              	.LVL9:
  28:../../DaisyExamples/libDaisy//src/hid/disp/oled_display.h **** 
 182              		.loc 6 28 63 view .LVU27
 183 0002 7047     		bx	lr
 184              		.cfi_endproc
 185              	.LFE2673:
 187              		.section	.text._ZN5daisy11OledDisplayINS_13SSD130xDriverILj128ELj32ENS_19SSD130xI2CTransportEEEED0
 188              		.align	1
 189              		.p2align 2,,3
 190              		.weak	_ZN5daisy11OledDisplayINS_13SSD130xDriverILj128ELj32ENS_19SSD130xI2CTransportEEEED0Ev
 191              		.syntax unified
 192              		.thumb
 193              		.thumb_func
 195              	_ZN5daisy11OledDisplayINS_13SSD130xDriverILj128ELj32ENS_19SSD130xI2CTransportEEEED0Ev:
 196              	.LVL10:
 197              	.LFB2671:
  18:../../DaisyExamples/libDaisy//src/hid/disp/oled_display.h **** 
 198              		.loc 6 18 13 is_stmt 1 view -0
 199              		.cfi_startproc
 200              		@ args = 0, pretend = 0, frame = 0
 201              		@ frame_needed = 0, uses_anonymous_args = 0
  18:../../DaisyExamples/libDaisy//src/hid/disp/oled_display.h **** 
 202              		.loc 6 18 13 is_stmt 0 view .LVU29
 203 0000 10B5     		push	{r4, lr}
 204              		.cfi_def_cfa_offset 8
 205              		.cfi_offset 4, -8
 206              		.cfi_offset 14, -4
  18:../../DaisyExamples/libDaisy//src/hid/disp/oled_display.h **** 
 207              		.loc 6 18 13 view .LVU30
 208 0002 0446     		mov	r4, r0
 209              	.LVL11:
ARM GAS  /var/folders/hp/45mn71hd0ps5f5pnytxy5bt00000gn/T//ccdvmoSj.s 			page 22


 210              	.LBB343:
 211              	.LBI343:
  18:../../DaisyExamples/libDaisy//src/hid/disp/oled_display.h **** 
 212              		.loc 6 18 13 is_stmt 1 view .LVU31
 213              	.LBB344:
 214              	.LBI344:
 215              		.loc 8 219 13 view .LVU32
 216              	.LBB345:
 217              	.LBI345:
  23:../../DaisyExamples/libDaisy//src/hid/disp/display.h **** 
 218              		.loc 8 23 13 view .LVU33
  23:../../DaisyExamples/libDaisy//src/hid/disp/display.h **** 
 219              		.loc 8 23 13 is_stmt 0 view .LVU34
 220              	.LBE345:
 221              	.LBE344:
 222              	.LBE343:
  18:../../DaisyExamples/libDaisy//src/hid/disp/oled_display.h **** 
 223              		.loc 6 18 29 view .LVU35
 224 0004 4FF40471 		mov	r1, #528
 225 0008 FFF7FEFF 		bl	_ZdlPvj
 226              	.LVL12:
  18:../../DaisyExamples/libDaisy//src/hid/disp/oled_display.h **** 
 227              		.loc 6 18 29 view .LVU36
 228 000c 2046     		mov	r0, r4
 229 000e 10BD     		pop	{r4, pc}
  18:../../DaisyExamples/libDaisy//src/hid/disp/oled_display.h **** 
 230              		.loc 6 18 29 view .LVU37
 231              		.cfi_endproc
 232              	.LFE2671:
 234              		.section	.text._ZN5daisy11OledDisplayINS_13SSD130xDriverILj128ELj32ENS_19SSD130xI2CTransportEEEE6U
 235              		.align	1
 236              		.p2align 2,,3
 237              		.weak	_ZN5daisy11OledDisplayINS_13SSD130xDriverILj128ELj32ENS_19SSD130xI2CTransportEEEE6UpdateEv
 238              		.syntax unified
 239              		.thumb
 240              		.thumb_func
 242              	_ZN5daisy11OledDisplayINS_13SSD130xDriverILj128ELj32ENS_19SSD130xI2CTransportEEEE6UpdateEv:
 243              	.LVL13:
 244              	.LFB2637:
  35:../../DaisyExamples/libDaisy//src/hid/disp/oled_display.h **** 
  36:../../DaisyExamples/libDaisy//src/hid/disp/oled_display.h ****     /**
  37:../../DaisyExamples/libDaisy//src/hid/disp/oled_display.h ****     Sets the pixel at the specified coordinate to be on/off.
  38:../../DaisyExamples/libDaisy//src/hid/disp/oled_display.h ****     \param x   x Coordinate
  39:../../DaisyExamples/libDaisy//src/hid/disp/oled_display.h ****     \param y   y coordinate
  40:../../DaisyExamples/libDaisy//src/hid/disp/oled_display.h ****     \param on  on or off
  41:../../DaisyExamples/libDaisy//src/hid/disp/oled_display.h ****     */
  42:../../DaisyExamples/libDaisy//src/hid/disp/oled_display.h ****     void DrawPixel(uint_fast8_t x, uint_fast8_t y, bool on) override
  43:../../DaisyExamples/libDaisy//src/hid/disp/oled_display.h ****     {
  44:../../DaisyExamples/libDaisy//src/hid/disp/oled_display.h ****         driver_.DrawPixel(x, y, on);
  45:../../DaisyExamples/libDaisy//src/hid/disp/oled_display.h ****     }
  46:../../DaisyExamples/libDaisy//src/hid/disp/oled_display.h **** 
  47:../../DaisyExamples/libDaisy//src/hid/disp/oled_display.h ****     /** 
  48:../../DaisyExamples/libDaisy//src/hid/disp/oled_display.h ****     Writes the current display buffer to the OLED device using SPI or I2C depending on 
  49:../../DaisyExamples/libDaisy//src/hid/disp/oled_display.h ****     how the object was initialized.
  50:../../DaisyExamples/libDaisy//src/hid/disp/oled_display.h ****     */
  51:../../DaisyExamples/libDaisy//src/hid/disp/oled_display.h ****     void Update() override { driver_.Update(); }
 245              		.loc 6 51 10 is_stmt 1 view -0
ARM GAS  /var/folders/hp/45mn71hd0ps5f5pnytxy5bt00000gn/T//ccdvmoSj.s 			page 23


 246              		.cfi_startproc
 247              		@ args = 0, pretend = 0, frame = 8
 248              		@ frame_needed = 0, uses_anonymous_args = 0
 249              		.loc 6 51 10 is_stmt 0 view .LVU39
 250 0000 2DE9F04F 		push	{r4, r5, r6, r7, r8, r9, r10, fp, lr}
 251              		.cfi_def_cfa_offset 36
 252              		.cfi_offset 4, -36
 253              		.cfi_offset 5, -32
 254              		.cfi_offset 6, -28
 255              		.cfi_offset 7, -24
 256              		.cfi_offset 8, -20
 257              		.cfi_offset 9, -16
 258              		.cfi_offset 10, -12
 259              		.cfi_offset 11, -8
 260              		.cfi_offset 14, -4
 261              	.LBB358:
 262              	.LBB359:
 263              	.LBB360:
 264              	.LBB361:
  45:../../DaisyExamples/libDaisy//src/dev/oled_ssd130x.h ****     };
 265              		.loc 7 45 30 view .LVU40
 266 0004 4FF0B008 		mov	r8, #176
 267              	.LBE361:
 268              	.LBE360:
 269              	.LBE359:
 270              	.LBE358:
 271              		.loc 6 51 10 view .LVU41
 272 0008 85B0     		sub	sp, sp, #20
 273              		.cfi_def_cfa_offset 56
 274              		.loc 6 51 10 view .LVU42
 275 000a 0546     		mov	r5, r0
 276              	.LVL14:
 277              	.LBB373:
 278              	.LBI358:
 367:../../DaisyExamples/libDaisy//src/dev/oled_ssd130x.h ****         }
 368:../../DaisyExamples/libDaisy//src/dev/oled_ssd130x.h ****     };
 369:../../DaisyExamples/libDaisy//src/dev/oled_ssd130x.h **** 
 370:../../DaisyExamples/libDaisy//src/dev/oled_ssd130x.h ****     /**
 371:../../DaisyExamples/libDaisy//src/dev/oled_ssd130x.h ****      * Update the display 
 372:../../DaisyExamples/libDaisy//src/dev/oled_ssd130x.h ****     */
 373:../../DaisyExamples/libDaisy//src/dev/oled_ssd130x.h ****     void Update()
 279              		.loc 7 373 10 is_stmt 1 view .LVU43
 280              	.LBB372:
 374:../../DaisyExamples/libDaisy//src/dev/oled_ssd130x.h ****     {
 375:../../DaisyExamples/libDaisy//src/dev/oled_ssd130x.h ****         uint8_t i;
 376:../../DaisyExamples/libDaisy//src/dev/oled_ssd130x.h ****         uint8_t high_column_addr;
 377:../../DaisyExamples/libDaisy//src/dev/oled_ssd130x.h ****         switch(height)
 378:../../DaisyExamples/libDaisy//src/dev/oled_ssd130x.h ****         {
 379:../../DaisyExamples/libDaisy//src/dev/oled_ssd130x.h ****             case 32: high_column_addr = 0x12; break;
 380:../../DaisyExamples/libDaisy//src/dev/oled_ssd130x.h **** 
 381:../../DaisyExamples/libDaisy//src/dev/oled_ssd130x.h ****             default: high_column_addr = 0x10; break;
 382:../../DaisyExamples/libDaisy//src/dev/oled_ssd130x.h ****         }
 383:../../DaisyExamples/libDaisy//src/dev/oled_ssd130x.h ****         for(i = 0; i < (height / 8); i++)
 281              		.loc 7 383 22 view .LVU44
 282              	.LBB364:
 283              	.LBB362:
  45:../../DaisyExamples/libDaisy//src/dev/oled_ssd130x.h ****     };
ARM GAS  /var/folders/hp/45mn71hd0ps5f5pnytxy5bt00000gn/T//ccdvmoSj.s 			page 24


 284              		.loc 7 45 30 is_stmt 0 view .LVU45
 285 000c 00F10807 		add	r7, r0, #8
 286              	.LVL15:
  45:../../DaisyExamples/libDaisy//src/dev/oled_ssd130x.h ****     };
 287              		.loc 7 45 30 view .LVU46
 288 0010 00F18F06 		add	r6, r0, #143
 289 0014 00F28F29 		addw	r9, r0, #655
 290              	.LVL16:
 291              	.L11:
  45:../../DaisyExamples/libDaisy//src/dev/oled_ssd130x.h ****     };
 292              		.loc 7 45 30 view .LVU47
 293              	.LBE362:
 294              	.LBI360:
  42:../../DaisyExamples/libDaisy//src/dev/oled_ssd130x.h ****     {
 295              		.loc 7 42 10 is_stmt 1 view .LVU48
 296              	.LBB363:
  44:../../DaisyExamples/libDaisy//src/dev/oled_ssd130x.h ****         i2c_.TransmitBlocking(i2c_address_, buf, 2, 1000);
 297              		.loc 7 44 9 view .LVU49
  45:../../DaisyExamples/libDaisy//src/dev/oled_ssd130x.h ****     };
 298              		.loc 7 45 30 is_stmt 0 view .LVU50
 299 0018 4FF47A7B 		mov	fp, #1000
  44:../../DaisyExamples/libDaisy//src/dev/oled_ssd130x.h ****         i2c_.TransmitBlocking(i2c_address_, buf, 2, 1000);
 300              		.loc 7 44 17 view .LVU51
 301 001c 4FF0000A 		mov	r10, #0
  45:../../DaisyExamples/libDaisy//src/dev/oled_ssd130x.h ****     };
 302              		.loc 7 45 30 view .LVU52
 303 0020 297B     		ldrb	r1, [r5, #12]	@ zero_extendqisi2
 304 0022 0223     		movs	r3, #2
 305 0024 03AA     		add	r2, sp, #12
 306 0026 3846     		mov	r0, r7
 307 0028 CDF800B0 		str	fp, [sp]
 308 002c A6F18004 		sub	r4, r6, #128
  44:../../DaisyExamples/libDaisy//src/dev/oled_ssd130x.h ****         i2c_.TransmitBlocking(i2c_address_, buf, 2, 1000);
 309              		.loc 7 44 17 view .LVU53
 310 0030 8DF80CA0 		strb	r10, [sp, #12]
  44:../../DaisyExamples/libDaisy//src/dev/oled_ssd130x.h ****         i2c_.TransmitBlocking(i2c_address_, buf, 2, 1000);
 311              		.loc 7 44 36 view .LVU54
 312 0034 8DF80D80 		strb	r8, [sp, #13]
  45:../../DaisyExamples/libDaisy//src/dev/oled_ssd130x.h ****     };
 313              		.loc 7 45 9 is_stmt 1 view .LVU55
  45:../../DaisyExamples/libDaisy//src/dev/oled_ssd130x.h ****     };
 314              		.loc 7 45 30 is_stmt 0 view .LVU56
 315 0038 FFF7FEFF 		bl	_ZN5daisy9I2CHandle16TransmitBlockingEtPhtm
 316              	.LVL17:
  45:../../DaisyExamples/libDaisy//src/dev/oled_ssd130x.h ****     };
 317              		.loc 7 45 30 view .LVU57
 318              	.LBE363:
 319              	.LBE364:
 320              	.LBB365:
 321              	.LBI365:
  42:../../DaisyExamples/libDaisy//src/dev/oled_ssd130x.h ****     {
 322              		.loc 7 42 10 is_stmt 1 view .LVU58
 323              	.LBB366:
  44:../../DaisyExamples/libDaisy//src/dev/oled_ssd130x.h ****         i2c_.TransmitBlocking(i2c_address_, buf, 2, 1000);
 324              		.loc 7 44 9 view .LVU59
  45:../../DaisyExamples/libDaisy//src/dev/oled_ssd130x.h ****     };
 325              		.loc 7 45 30 is_stmt 0 view .LVU60
ARM GAS  /var/folders/hp/45mn71hd0ps5f5pnytxy5bt00000gn/T//ccdvmoSj.s 			page 25


 326 003c 297B     		ldrb	r1, [r5, #12]	@ zero_extendqisi2
 327 003e 0223     		movs	r3, #2
 328 0040 03AA     		add	r2, sp, #12
 329 0042 3846     		mov	r0, r7
 330 0044 CDF800B0 		str	fp, [sp]
  44:../../DaisyExamples/libDaisy//src/dev/oled_ssd130x.h ****         i2c_.TransmitBlocking(i2c_address_, buf, 2, 1000);
 331              		.loc 7 44 17 view .LVU61
 332 0048 8DF80CA0 		strb	r10, [sp, #12]
  44:../../DaisyExamples/libDaisy//src/dev/oled_ssd130x.h ****         i2c_.TransmitBlocking(i2c_address_, buf, 2, 1000);
 333              		.loc 7 44 36 view .LVU62
 334 004c 8DF80DA0 		strb	r10, [sp, #13]
  45:../../DaisyExamples/libDaisy//src/dev/oled_ssd130x.h ****     };
 335              		.loc 7 45 9 is_stmt 1 view .LVU63
  45:../../DaisyExamples/libDaisy//src/dev/oled_ssd130x.h ****     };
 336              		.loc 7 45 30 is_stmt 0 view .LVU64
 337 0050 FFF7FEFF 		bl	_ZN5daisy9I2CHandle16TransmitBlockingEtPhtm
 338              	.LVL18:
  45:../../DaisyExamples/libDaisy//src/dev/oled_ssd130x.h ****     };
 339              		.loc 7 45 30 view .LVU65
 340              	.LBE366:
 341              	.LBE365:
 342              	.LBB367:
 343              	.LBI367:
  42:../../DaisyExamples/libDaisy//src/dev/oled_ssd130x.h ****     {
 344              		.loc 7 42 10 is_stmt 1 view .LVU66
 345              	.LBB368:
  44:../../DaisyExamples/libDaisy//src/dev/oled_ssd130x.h ****         i2c_.TransmitBlocking(i2c_address_, buf, 2, 1000);
 346              		.loc 7 44 9 view .LVU67
  44:../../DaisyExamples/libDaisy//src/dev/oled_ssd130x.h ****         i2c_.TransmitBlocking(i2c_address_, buf, 2, 1000);
 347              		.loc 7 44 36 is_stmt 0 view .LVU68
 348 0054 1220     		movs	r0, #18
  45:../../DaisyExamples/libDaisy//src/dev/oled_ssd130x.h ****     };
 349              		.loc 7 45 30 view .LVU69
 350 0056 CDF800B0 		str	fp, [sp]
 351 005a 0223     		movs	r3, #2
 352 005c 03AA     		add	r2, sp, #12
  44:../../DaisyExamples/libDaisy//src/dev/oled_ssd130x.h ****         i2c_.TransmitBlocking(i2c_address_, buf, 2, 1000);
 353              		.loc 7 44 36 view .LVU70
 354 005e 8DF80D00 		strb	r0, [sp, #13]
  45:../../DaisyExamples/libDaisy//src/dev/oled_ssd130x.h ****     };
 355              		.loc 7 45 9 is_stmt 1 view .LVU71
  45:../../DaisyExamples/libDaisy//src/dev/oled_ssd130x.h ****     };
 356              		.loc 7 45 30 is_stmt 0 view .LVU72
 357 0062 3846     		mov	r0, r7
 358 0064 297B     		ldrb	r1, [r5, #12]	@ zero_extendqisi2
  44:../../DaisyExamples/libDaisy//src/dev/oled_ssd130x.h ****         i2c_.TransmitBlocking(i2c_address_, buf, 2, 1000);
 359              		.loc 7 44 17 view .LVU73
 360 0066 8DF80CA0 		strb	r10, [sp, #12]
  45:../../DaisyExamples/libDaisy//src/dev/oled_ssd130x.h ****     };
 361              		.loc 7 45 30 view .LVU74
 362 006a FFF7FEFF 		bl	_ZN5daisy9I2CHandle16TransmitBlockingEtPhtm
 363              	.LVL19:
  45:../../DaisyExamples/libDaisy//src/dev/oled_ssd130x.h ****     };
 364              		.loc 7 45 30 view .LVU75
 365              	.LBE368:
 366              	.LBE367:
 367              	.LBB369:
ARM GAS  /var/folders/hp/45mn71hd0ps5f5pnytxy5bt00000gn/T//ccdvmoSj.s 			page 26


 368              	.LBI369:
  48:../../DaisyExamples/libDaisy//src/dev/oled_ssd130x.h ****     {
 369              		.loc 7 48 10 is_stmt 1 view .LVU76
 370              	.LBB370:
  50:../../DaisyExamples/libDaisy//src/dev/oled_ssd130x.h ****         {
 371              		.loc 7 50 29 view .LVU77
 372              	.L10:
 373              	.LBB371:
  52:../../DaisyExamples/libDaisy//src/dev/oled_ssd130x.h ****             i2c_.TransmitBlocking(i2c_address_, buf, 2, 1000);
 374              		.loc 7 52 13 view .LVU78
  53:../../DaisyExamples/libDaisy//src/dev/oled_ssd130x.h ****         }
 375              		.loc 7 53 34 is_stmt 0 view .LVU79
 376 006e 4FF47A70 		mov	r0, #1000
  52:../../DaisyExamples/libDaisy//src/dev/oled_ssd130x.h ****             i2c_.TransmitBlocking(i2c_address_, buf, 2, 1000);
 377              		.loc 7 52 44 view .LVU80
 378 0072 14F801CF 		ldrb	ip, [r4, #1]!	@ zero_extendqisi2
 379              	.LVL20:
  52:../../DaisyExamples/libDaisy//src/dev/oled_ssd130x.h ****             i2c_.TransmitBlocking(i2c_address_, buf, 2, 1000);
 380              		.loc 7 52 21 view .LVU81
 381 0076 4FF0400E 		mov	lr, #64
  53:../../DaisyExamples/libDaisy//src/dev/oled_ssd130x.h ****         }
 382              		.loc 7 53 34 view .LVU82
 383 007a 297B     		ldrb	r1, [r5, #12]	@ zero_extendqisi2
 384 007c 0223     		movs	r3, #2
 385 007e 0090     		str	r0, [sp]
 386 0080 03AA     		add	r2, sp, #12
 387 0082 3846     		mov	r0, r7
  52:../../DaisyExamples/libDaisy//src/dev/oled_ssd130x.h ****             i2c_.TransmitBlocking(i2c_address_, buf, 2, 1000);
 388              		.loc 7 52 21 view .LVU83
 389 0084 8DF80CE0 		strb	lr, [sp, #12]
  52:../../DaisyExamples/libDaisy//src/dev/oled_ssd130x.h ****             i2c_.TransmitBlocking(i2c_address_, buf, 2, 1000);
 390              		.loc 7 52 44 view .LVU84
 391 0088 8DF80DC0 		strb	ip, [sp, #13]
  53:../../DaisyExamples/libDaisy//src/dev/oled_ssd130x.h ****         }
 392              		.loc 7 53 13 is_stmt 1 view .LVU85
  53:../../DaisyExamples/libDaisy//src/dev/oled_ssd130x.h ****         }
 393              		.loc 7 53 34 is_stmt 0 view .LVU86
 394 008c FFF7FEFF 		bl	_ZN5daisy9I2CHandle16TransmitBlockingEtPhtm
 395              	.LVL21:
 396              	.LBE371:
  50:../../DaisyExamples/libDaisy//src/dev/oled_ssd130x.h ****         {
 397              		.loc 7 50 9 is_stmt 1 view .LVU87
  50:../../DaisyExamples/libDaisy//src/dev/oled_ssd130x.h ****         {
 398              		.loc 7 50 29 view .LVU88
 399 0090 B442     		cmp	r4, r6
 400 0092 ECD1     		bne	.L10
 401              	.LVL22:
  50:../../DaisyExamples/libDaisy//src/dev/oled_ssd130x.h ****         {
 402              		.loc 7 50 29 is_stmt 0 view .LVU89
 403              	.LBE370:
 404              	.LBE369:
 405              		.loc 7 383 9 is_stmt 1 view .LVU90
 406              		.loc 7 383 22 view .LVU91
 407 0094 04F18006 		add	r6, r4, #128
 408 0098 08F10108 		add	r8, r8, #1
 409              	.LVL23:
 410              		.loc 7 383 22 is_stmt 0 view .LVU92
ARM GAS  /var/folders/hp/45mn71hd0ps5f5pnytxy5bt00000gn/T//ccdvmoSj.s 			page 27


 411 009c 4E45     		cmp	r6, r9
 412 009e 5FFA88F8 		uxtb	r8, r8
 413 00a2 B9D1     		bne	.L11
 414              	.LBE372:
 415              	.LBE373:
 416              		.loc 6 51 48 view .LVU93
 417 00a4 05B0     		add	sp, sp, #20
 418              		.cfi_def_cfa_offset 36
 419              		@ sp needed
 420 00a6 BDE8F08F 		pop	{r4, r5, r6, r7, r8, r9, r10, fp, pc}
 421              		.loc 6 51 48 view .LVU94
 422              		.cfi_endproc
 423              	.LFE2637:
 425 00aa 00BF     		.section	.text._ZN5daisy25OneBitGraphicsDisplayImplINS_11OledDisplayINS_13SSD130xDriverILj128ELj32
 426              		.align	1
 427              		.p2align 2,,3
 428              		.weak	_ZN5daisy25OneBitGraphicsDisplayImplINS_11OledDisplayINS_13SSD130xDriverILj128ELj32ENS_19SSD
 429              		.syntax unified
 430              		.thumb
 431              		.thumb_func
 433              	_ZN5daisy25OneBitGraphicsDisplayImplINS_11OledDisplayINS_13SSD130xDriverILj128ELj32ENS_19SSD130xI2C
 434              	.LVL24:
 435              	.LFB2658:
 220:../../DaisyExamples/libDaisy//src/hid/disp/display.h **** 
 221:../../DaisyExamples/libDaisy//src/hid/disp/display.h ****     void DrawLine(uint_fast8_t x1,
 222:../../DaisyExamples/libDaisy//src/hid/disp/display.h ****                   uint_fast8_t y1,
 223:../../DaisyExamples/libDaisy//src/hid/disp/display.h ****                   uint_fast8_t x2,
 224:../../DaisyExamples/libDaisy//src/hid/disp/display.h ****                   uint_fast8_t y2,
 225:../../DaisyExamples/libDaisy//src/hid/disp/display.h ****                   bool         on) override
 226:../../DaisyExamples/libDaisy//src/hid/disp/display.h ****     {
 227:../../DaisyExamples/libDaisy//src/hid/disp/display.h ****         int_fast16_t deltaX = abs((int_fast16_t)x2 - (int_fast16_t)x1);
 228:../../DaisyExamples/libDaisy//src/hid/disp/display.h ****         int_fast16_t deltaY = abs((int_fast16_t)y2 - (int_fast16_t)y1);
 229:../../DaisyExamples/libDaisy//src/hid/disp/display.h ****         int_fast16_t signX  = ((x1 < x2) ? 1 : -1);
 230:../../DaisyExamples/libDaisy//src/hid/disp/display.h ****         int_fast16_t signY  = ((y1 < y2) ? 1 : -1);
 231:../../DaisyExamples/libDaisy//src/hid/disp/display.h ****         int_fast16_t error  = deltaX - deltaY;
 232:../../DaisyExamples/libDaisy//src/hid/disp/display.h ****         int_fast16_t error2;
 233:../../DaisyExamples/libDaisy//src/hid/disp/display.h **** 
 234:../../DaisyExamples/libDaisy//src/hid/disp/display.h ****         // If we write "ChildType::DrawPixel(x2, y2, on);", we end up with
 235:../../DaisyExamples/libDaisy//src/hid/disp/display.h ****         // all sorts of weird compiler errors when the Child class is a template
 236:../../DaisyExamples/libDaisy//src/hid/disp/display.h ****         // class. The only way around this is to use this very verbose syntax:
 237:../../DaisyExamples/libDaisy//src/hid/disp/display.h ****         ((ChildType*)(this))->ChildType::DrawPixel(x2, y2, on);
 238:../../DaisyExamples/libDaisy//src/hid/disp/display.h **** 
 239:../../DaisyExamples/libDaisy//src/hid/disp/display.h ****         while((x1 != x2) || (y1 != y2))
 240:../../DaisyExamples/libDaisy//src/hid/disp/display.h ****         {
 241:../../DaisyExamples/libDaisy//src/hid/disp/display.h ****             ((ChildType*)(this))->ChildType::DrawPixel(x1, y1, on);
 242:../../DaisyExamples/libDaisy//src/hid/disp/display.h ****             error2 = error * 2;
 243:../../DaisyExamples/libDaisy//src/hid/disp/display.h ****             if(error2 > -deltaY)
 244:../../DaisyExamples/libDaisy//src/hid/disp/display.h ****             {
 245:../../DaisyExamples/libDaisy//src/hid/disp/display.h ****                 error -= deltaY;
 246:../../DaisyExamples/libDaisy//src/hid/disp/display.h ****                 x1 += signX;
 247:../../DaisyExamples/libDaisy//src/hid/disp/display.h ****             }
 248:../../DaisyExamples/libDaisy//src/hid/disp/display.h **** 
 249:../../DaisyExamples/libDaisy//src/hid/disp/display.h ****             if(error2 < deltaX)
 250:../../DaisyExamples/libDaisy//src/hid/disp/display.h ****             {
 251:../../DaisyExamples/libDaisy//src/hid/disp/display.h ****                 error += deltaX;
 252:../../DaisyExamples/libDaisy//src/hid/disp/display.h ****                 y1 += signY;
 253:../../DaisyExamples/libDaisy//src/hid/disp/display.h ****             }
ARM GAS  /var/folders/hp/45mn71hd0ps5f5pnytxy5bt00000gn/T//ccdvmoSj.s 			page 28


 254:../../DaisyExamples/libDaisy//src/hid/disp/display.h ****         }
 255:../../DaisyExamples/libDaisy//src/hid/disp/display.h ****     }
 256:../../DaisyExamples/libDaisy//src/hid/disp/display.h **** 
 257:../../DaisyExamples/libDaisy//src/hid/disp/display.h ****     void DrawRect(uint_fast8_t x1,
 258:../../DaisyExamples/libDaisy//src/hid/disp/display.h ****                   uint_fast8_t y1,
 259:../../DaisyExamples/libDaisy//src/hid/disp/display.h ****                   uint_fast8_t x2,
 260:../../DaisyExamples/libDaisy//src/hid/disp/display.h ****                   uint_fast8_t y2,
 261:../../DaisyExamples/libDaisy//src/hid/disp/display.h ****                   bool         on,
 262:../../DaisyExamples/libDaisy//src/hid/disp/display.h ****                   bool         fill = false) override
 263:../../DaisyExamples/libDaisy//src/hid/disp/display.h ****     {
 264:../../DaisyExamples/libDaisy//src/hid/disp/display.h ****         if(fill)
 265:../../DaisyExamples/libDaisy//src/hid/disp/display.h ****         {
 266:../../DaisyExamples/libDaisy//src/hid/disp/display.h ****             for(uint_fast8_t x = x1; x <= x2; x++)
 267:../../DaisyExamples/libDaisy//src/hid/disp/display.h ****             {
 268:../../DaisyExamples/libDaisy//src/hid/disp/display.h ****                 for(uint_fast8_t y = y1; y <= y2; y++)
 269:../../DaisyExamples/libDaisy//src/hid/disp/display.h ****                 {
 270:../../DaisyExamples/libDaisy//src/hid/disp/display.h ****                     ((ChildType*)(this))->ChildType::DrawPixel(x, y, on);
 271:../../DaisyExamples/libDaisy//src/hid/disp/display.h ****                 }
 272:../../DaisyExamples/libDaisy//src/hid/disp/display.h ****             }
 273:../../DaisyExamples/libDaisy//src/hid/disp/display.h ****         }
 274:../../DaisyExamples/libDaisy//src/hid/disp/display.h ****         else
 275:../../DaisyExamples/libDaisy//src/hid/disp/display.h ****         {
 276:../../DaisyExamples/libDaisy//src/hid/disp/display.h ****             ((ChildType*)(this))->ChildType::DrawLine(x1, y1, x2, y1, on);
 277:../../DaisyExamples/libDaisy//src/hid/disp/display.h ****             ((ChildType*)(this))->ChildType::DrawLine(x2, y1, x2, y2, on);
 278:../../DaisyExamples/libDaisy//src/hid/disp/display.h ****             ((ChildType*)(this))->ChildType::DrawLine(x2, y2, x1, y2, on);
 279:../../DaisyExamples/libDaisy//src/hid/disp/display.h ****             ((ChildType*)(this))->ChildType::DrawLine(x1, y2, x1, y1, on);
 280:../../DaisyExamples/libDaisy//src/hid/disp/display.h ****         }
 281:../../DaisyExamples/libDaisy//src/hid/disp/display.h ****     }
 282:../../DaisyExamples/libDaisy//src/hid/disp/display.h **** 
 283:../../DaisyExamples/libDaisy//src/hid/disp/display.h ****     void DrawArc(uint_fast8_t x,
 284:../../DaisyExamples/libDaisy//src/hid/disp/display.h ****                  uint_fast8_t y,
 285:../../DaisyExamples/libDaisy//src/hid/disp/display.h ****                  uint_fast8_t radius,
 286:../../DaisyExamples/libDaisy//src/hid/disp/display.h ****                  int_fast16_t start_angle,
 287:../../DaisyExamples/libDaisy//src/hid/disp/display.h ****                  int_fast16_t sweep,
 288:../../DaisyExamples/libDaisy//src/hid/disp/display.h ****                  bool         on) override
 289:../../DaisyExamples/libDaisy//src/hid/disp/display.h ****     {
 290:../../DaisyExamples/libDaisy//src/hid/disp/display.h ****         // Values to calculate the circle
 291:../../DaisyExamples/libDaisy//src/hid/disp/display.h ****         int_fast16_t t_x, t_y, err, e2;
 292:../../DaisyExamples/libDaisy//src/hid/disp/display.h **** 
 293:../../DaisyExamples/libDaisy//src/hid/disp/display.h ****         // Temporary values to speed up comparisons
 294:../../DaisyExamples/libDaisy//src/hid/disp/display.h ****         float t_sxy, t_syx, t_sxny, t_synx;
 295:../../DaisyExamples/libDaisy//src/hid/disp/display.h ****         float t_exy, t_eyx, t_exny, t_eynx;
 296:../../DaisyExamples/libDaisy//src/hid/disp/display.h **** 
 297:../../DaisyExamples/libDaisy//src/hid/disp/display.h ****         float start_angle_rad, end_angle_rad;
 298:../../DaisyExamples/libDaisy//src/hid/disp/display.h ****         float start_x, start_y, end_x, end_y;
 299:../../DaisyExamples/libDaisy//src/hid/disp/display.h **** 
 300:../../DaisyExamples/libDaisy//src/hid/disp/display.h ****         bool d1, d2, d3, d4;
 301:../../DaisyExamples/libDaisy//src/hid/disp/display.h **** 
 302:../../DaisyExamples/libDaisy//src/hid/disp/display.h ****         d1 = d2 = d3 = d4 = true;
 303:../../DaisyExamples/libDaisy//src/hid/disp/display.h **** 
 304:../../DaisyExamples/libDaisy//src/hid/disp/display.h ****         bool circle = false;
 305:../../DaisyExamples/libDaisy//src/hid/disp/display.h **** 
 306:../../DaisyExamples/libDaisy//src/hid/disp/display.h ****         if(sweep < 0)
 307:../../DaisyExamples/libDaisy//src/hid/disp/display.h ****         {
 308:../../DaisyExamples/libDaisy//src/hid/disp/display.h ****             start_angle += sweep;
 309:../../DaisyExamples/libDaisy//src/hid/disp/display.h ****             sweep = -sweep;
 310:../../DaisyExamples/libDaisy//src/hid/disp/display.h ****         }
ARM GAS  /var/folders/hp/45mn71hd0ps5f5pnytxy5bt00000gn/T//ccdvmoSj.s 			page 29


 311:../../DaisyExamples/libDaisy//src/hid/disp/display.h **** 
 312:../../DaisyExamples/libDaisy//src/hid/disp/display.h ****         start_angle_rad = deg2rad(start_angle);
 313:../../DaisyExamples/libDaisy//src/hid/disp/display.h ****         end_angle_rad   = deg2rad(start_angle + sweep);
 314:../../DaisyExamples/libDaisy//src/hid/disp/display.h **** 
 315:../../DaisyExamples/libDaisy//src/hid/disp/display.h ****         start_x = cos(start_angle_rad) * radius;
 316:../../DaisyExamples/libDaisy//src/hid/disp/display.h ****         start_y = -sin(start_angle_rad) * radius;
 317:../../DaisyExamples/libDaisy//src/hid/disp/display.h ****         end_x   = cos(end_angle_rad) * radius;
 318:../../DaisyExamples/libDaisy//src/hid/disp/display.h ****         end_y   = -sin(end_angle_rad) * radius;
 319:../../DaisyExamples/libDaisy//src/hid/disp/display.h **** 
 320:../../DaisyExamples/libDaisy//src/hid/disp/display.h ****         // Check if start and endpoint are very near
 321:../../DaisyExamples/libDaisy//src/hid/disp/display.h ****         if((end_x - start_x) * (end_x - start_x)
 322:../../DaisyExamples/libDaisy//src/hid/disp/display.h ****                + (end_y - start_y) * (end_y - start_y)
 323:../../DaisyExamples/libDaisy//src/hid/disp/display.h ****            < 2.0f)
 324:../../DaisyExamples/libDaisy//src/hid/disp/display.h ****         {
 325:../../DaisyExamples/libDaisy//src/hid/disp/display.h ****             if(sweep > 180)
 326:../../DaisyExamples/libDaisy//src/hid/disp/display.h ****                 circle = true;
 327:../../DaisyExamples/libDaisy//src/hid/disp/display.h ****             else
 328:../../DaisyExamples/libDaisy//src/hid/disp/display.h ****                 // Nothing to draw
 329:../../DaisyExamples/libDaisy//src/hid/disp/display.h ****                 return;
 330:../../DaisyExamples/libDaisy//src/hid/disp/display.h ****         }
 331:../../DaisyExamples/libDaisy//src/hid/disp/display.h **** 
 332:../../DaisyExamples/libDaisy//src/hid/disp/display.h ****         t_x = -radius;
 333:../../DaisyExamples/libDaisy//src/hid/disp/display.h ****         t_y = 0;
 334:../../DaisyExamples/libDaisy//src/hid/disp/display.h ****         err = 2 - 2 * radius;
 335:../../DaisyExamples/libDaisy//src/hid/disp/display.h **** 
 336:../../DaisyExamples/libDaisy//src/hid/disp/display.h ****         do
 337:../../DaisyExamples/libDaisy//src/hid/disp/display.h ****         {
 338:../../DaisyExamples/libDaisy//src/hid/disp/display.h ****             if(!circle)
 339:../../DaisyExamples/libDaisy//src/hid/disp/display.h ****             {
 340:../../DaisyExamples/libDaisy//src/hid/disp/display.h ****                 t_sxy  = start_x * t_y;
 341:../../DaisyExamples/libDaisy//src/hid/disp/display.h ****                 t_syx  = start_y * t_x;
 342:../../DaisyExamples/libDaisy//src/hid/disp/display.h ****                 t_sxny = start_x * -t_y;
 343:../../DaisyExamples/libDaisy//src/hid/disp/display.h ****                 t_synx = start_y * -t_x;
 344:../../DaisyExamples/libDaisy//src/hid/disp/display.h ****                 t_exy  = end_x * t_y;
 345:../../DaisyExamples/libDaisy//src/hid/disp/display.h ****                 t_eyx  = end_y * t_x;
 346:../../DaisyExamples/libDaisy//src/hid/disp/display.h ****                 t_exny = end_x * -t_y;
 347:../../DaisyExamples/libDaisy//src/hid/disp/display.h ****                 t_eynx = end_y * -t_x;
 348:../../DaisyExamples/libDaisy//src/hid/disp/display.h **** 
 349:../../DaisyExamples/libDaisy//src/hid/disp/display.h ****                 if(sweep > 180)
 350:../../DaisyExamples/libDaisy//src/hid/disp/display.h ****                 {
 351:../../DaisyExamples/libDaisy//src/hid/disp/display.h ****                     d1 = (t_sxy - t_synx < 0 || t_exy - t_eynx > 0);
 352:../../DaisyExamples/libDaisy//src/hid/disp/display.h ****                     d2 = (t_sxy - t_syx < 0 || t_exy - t_eyx > 0);
 353:../../DaisyExamples/libDaisy//src/hid/disp/display.h ****                     d3 = (t_sxny - t_syx < 0 || t_exny - t_eyx > 0);
 354:../../DaisyExamples/libDaisy//src/hid/disp/display.h ****                     d4 = (t_sxny - t_synx < 0 || t_exny - t_eynx > 0);
 355:../../DaisyExamples/libDaisy//src/hid/disp/display.h ****                 }
 356:../../DaisyExamples/libDaisy//src/hid/disp/display.h ****                 else
 357:../../DaisyExamples/libDaisy//src/hid/disp/display.h ****                 {
 358:../../DaisyExamples/libDaisy//src/hid/disp/display.h ****                     d1 = (t_sxy - t_synx < 0 && t_exy - t_eynx > 0);
 359:../../DaisyExamples/libDaisy//src/hid/disp/display.h ****                     d2 = (t_sxy - t_syx < 0 && t_exy - t_eyx > 0);
 360:../../DaisyExamples/libDaisy//src/hid/disp/display.h ****                     d3 = (t_sxny - t_syx < 0 && t_exny - t_eyx > 0);
 361:../../DaisyExamples/libDaisy//src/hid/disp/display.h ****                     d4 = (t_sxny - t_synx < 0 && t_exny - t_eynx > 0);
 362:../../DaisyExamples/libDaisy//src/hid/disp/display.h ****                 }
 363:../../DaisyExamples/libDaisy//src/hid/disp/display.h ****             }
 364:../../DaisyExamples/libDaisy//src/hid/disp/display.h **** 
 365:../../DaisyExamples/libDaisy//src/hid/disp/display.h ****             if(d1)
 366:../../DaisyExamples/libDaisy//src/hid/disp/display.h ****                 ((ChildType*)(this))
 367:../../DaisyExamples/libDaisy//src/hid/disp/display.h ****                     ->ChildType::DrawPixel(x - t_x, y + t_y, on);
ARM GAS  /var/folders/hp/45mn71hd0ps5f5pnytxy5bt00000gn/T//ccdvmoSj.s 			page 30


 368:../../DaisyExamples/libDaisy//src/hid/disp/display.h ****             if(d2)
 369:../../DaisyExamples/libDaisy//src/hid/disp/display.h ****                 ((ChildType*)(this))
 370:../../DaisyExamples/libDaisy//src/hid/disp/display.h ****                     ->ChildType::DrawPixel(x + t_x, y + t_y, on);
 371:../../DaisyExamples/libDaisy//src/hid/disp/display.h ****             if(d3)
 372:../../DaisyExamples/libDaisy//src/hid/disp/display.h ****                 ((ChildType*)(this))
 373:../../DaisyExamples/libDaisy//src/hid/disp/display.h ****                     ->ChildType::DrawPixel(x + t_x, y - t_y, on);
 374:../../DaisyExamples/libDaisy//src/hid/disp/display.h ****             if(d4)
 375:../../DaisyExamples/libDaisy//src/hid/disp/display.h ****                 ((ChildType*)(this))
 376:../../DaisyExamples/libDaisy//src/hid/disp/display.h ****                     ->ChildType::DrawPixel(x - t_x, y - t_y, on);
 377:../../DaisyExamples/libDaisy//src/hid/disp/display.h **** 
 378:../../DaisyExamples/libDaisy//src/hid/disp/display.h ****             e2 = err;
 379:../../DaisyExamples/libDaisy//src/hid/disp/display.h ****             if(e2 <= t_y)
 380:../../DaisyExamples/libDaisy//src/hid/disp/display.h ****             {
 381:../../DaisyExamples/libDaisy//src/hid/disp/display.h ****                 t_y++;
 382:../../DaisyExamples/libDaisy//src/hid/disp/display.h ****                 err = err + (t_y * 2 + 1);
 383:../../DaisyExamples/libDaisy//src/hid/disp/display.h ****                 if(-t_x == t_y && e2 <= t_x)
 384:../../DaisyExamples/libDaisy//src/hid/disp/display.h ****                 {
 385:../../DaisyExamples/libDaisy//src/hid/disp/display.h ****                     e2 = 0;
 386:../../DaisyExamples/libDaisy//src/hid/disp/display.h ****                 }
 387:../../DaisyExamples/libDaisy//src/hid/disp/display.h ****             }
 388:../../DaisyExamples/libDaisy//src/hid/disp/display.h ****             if(e2 > t_x)
 389:../../DaisyExamples/libDaisy//src/hid/disp/display.h ****             {
 390:../../DaisyExamples/libDaisy//src/hid/disp/display.h ****                 t_x++;
 391:../../DaisyExamples/libDaisy//src/hid/disp/display.h ****                 err = err + (t_x * 2 + 1);
 392:../../DaisyExamples/libDaisy//src/hid/disp/display.h ****             }
 393:../../DaisyExamples/libDaisy//src/hid/disp/display.h ****         } while(t_x <= 0);
 394:../../DaisyExamples/libDaisy//src/hid/disp/display.h ****     }
 395:../../DaisyExamples/libDaisy//src/hid/disp/display.h **** 
 396:../../DaisyExamples/libDaisy//src/hid/disp/display.h ****     char WriteChar(char ch, FontDef font, bool on) override
 436              		.loc 8 396 10 is_stmt 1 view -0
 437              		.cfi_startproc
 438              		@ args = 4, pretend = 0, frame = 16
 439              		@ frame_needed = 0, uses_anonymous_args = 0
 440              		.loc 8 396 10 is_stmt 0 view .LVU96
 441 0000 2DE9F04F 		push	{r4, r5, r6, r7, r8, r9, r10, fp, lr}
 442              		.cfi_def_cfa_offset 36
 443              		.cfi_offset 4, -36
 444              		.cfi_offset 5, -32
 445              		.cfi_offset 6, -28
 446              		.cfi_offset 7, -24
 447              		.cfi_offset 8, -20
 448              		.cfi_offset 9, -16
 449              		.cfi_offset 10, -12
 450              		.cfi_offset 11, -8
 451              		.cfi_offset 14, -4
 452 0004 85B0     		sub	sp, sp, #20
 453              		.cfi_def_cfa_offset 56
 454              	.LVL25:
 397:../../DaisyExamples/libDaisy//src/hid/disp/display.h ****     {
 398:../../DaisyExamples/libDaisy//src/hid/disp/display.h ****         uint32_t i, b, j;
 399:../../DaisyExamples/libDaisy//src/hid/disp/display.h **** 
 400:../../DaisyExamples/libDaisy//src/hid/disp/display.h ****         // Check if character is valid
 401:../../DaisyExamples/libDaisy//src/hid/disp/display.h ****         if(ch < 32 || ch > 126)
 455              		.loc 8 401 20 view .LVU97
 456 0006 A1F12005 		sub	r5, r1, #32
 396:../../DaisyExamples/libDaisy//src/hid/disp/display.h ****     {
 457              		.loc 8 396 10 view .LVU98
ARM GAS  /var/folders/hp/45mn71hd0ps5f5pnytxy5bt00000gn/T//ccdvmoSj.s 			page 31


 458 000a 04AC     		add	r4, sp, #16
 459 000c 9DF83870 		ldrb	r7, [sp, #56]	@ zero_extendqisi2
 460 0010 0091     		str	r1, [sp]
 461 0012 04E90C00 		stmdb	r4, {r2, r3}
 462              	.LVL26:
 463              		.loc 8 401 9 view .LVU99
 464 0016 EBB2     		uxtb	r3, r5
 465 0018 5E2B     		cmp	r3, #94
 466 001a 00F29580 		bhi	.L19
 402:../../DaisyExamples/libDaisy//src/hid/disp/display.h ****             return 0;
 403:../../DaisyExamples/libDaisy//src/hid/disp/display.h **** 
 404:../../DaisyExamples/libDaisy//src/hid/disp/display.h ****         // Check remaining space on current line
 405:../../DaisyExamples/libDaisy//src/hid/disp/display.h ****         if(Width() < (currentX_ + font.FontWidth)
 467              		.loc 8 405 17 view .LVU100
 468 001e 0368     		ldr	r3, [r0]
 469 0020 8046     		mov	r8, r0
 470 0022 5D4A     		ldr	r2, .L54
 471 0024 DB68     		ldr	r3, [r3, #12]
 472 0026 9DF80840 		ldrb	r4, [sp, #8]	@ zero_extendqisi2
 473 002a 9342     		cmp	r3, r2
 474 002c 9DF80960 		ldrb	r6, [sp, #9]	@ zero_extendqisi2
 475 0030 40F09480 		bne	.L46
 476 0034 8020     		movs	r0, #128
 477              	.LVL27:
 478              	.L18:
 479              		.loc 8 405 23 view .LVU101
 480 0036 B8F80430 		ldrh	r3, [r8, #4]
 481              		.loc 8 405 33 view .LVU102
 482 003a 2344     		add	r3, r3, r4
 406:../../DaisyExamples/libDaisy//src/hid/disp/display.h ****            || Height() < (currentY_ + font.FontHeight))
 483              		.loc 8 406 12 view .LVU103
 484 003c 8342     		cmp	r3, r0
 485 003e 00F38380 		bgt	.L19
 486              		.loc 8 406 21 discriminator 2 view .LVU104
 487 0042 D8F80030 		ldr	r3, [r8]
 488 0046 554A     		ldr	r2, .L54+4
 489 0048 9B68     		ldr	r3, [r3, #8]
 490 004a 9342     		cmp	r3, r2
 491 004c 40F08880 		bne	.L47
 492              		.loc 8 406 21 view .LVU105
 493 0050 2020     		movs	r0, #32
 494              	.L20:
 495              		.loc 8 406 27 discriminator 2 view .LVU106
 496 0052 B8F80620 		ldrh	r2, [r8, #6]
 497              		.loc 8 406 37 discriminator 2 view .LVU107
 498 0056 9319     		adds	r3, r2, r6
 499              		.loc 8 406 27 discriminator 2 view .LVU108
 500 0058 0192     		str	r2, [sp, #4]
 501              		.loc 8 406 12 discriminator 2 view .LVU109
 502 005a 8342     		cmp	r3, r0
 503 005c 74DC     		bgt	.L19
 504              	.LVL28:
 407:../../DaisyExamples/libDaisy//src/hid/disp/display.h ****         {
 408:../../DaisyExamples/libDaisy//src/hid/disp/display.h ****             // Not enough space on current line
 409:../../DaisyExamples/libDaisy//src/hid/disp/display.h ****             return 0;
 410:../../DaisyExamples/libDaisy//src/hid/disp/display.h ****         }
 411:../../DaisyExamples/libDaisy//src/hid/disp/display.h **** 
ARM GAS  /var/folders/hp/45mn71hd0ps5f5pnytxy5bt00000gn/T//ccdvmoSj.s 			page 32


 412:../../DaisyExamples/libDaisy//src/hid/disp/display.h ****         // Use the font to write
 413:../../DaisyExamples/libDaisy//src/hid/disp/display.h ****         for(i = 0; i < font.FontHeight; i++)
 505              		.loc 8 413 22 is_stmt 1 view .LVU110
 506 005e 002E     		cmp	r6, #0
 507 0060 00F08980 		beq	.L21
 414:../../DaisyExamples/libDaisy//src/hid/disp/display.h ****         {
 415:../../DaisyExamples/libDaisy//src/hid/disp/display.h ****             b = font.data[(ch - 32) * font.FontHeight + i];
 508              		.loc 8 415 37 is_stmt 0 view .LVU111
 509 0064 06FB05F5 		mul	r5, r6, r5
 510 0068 6FF00040 		mvn	r0, #-2147483648
 511              		.loc 8 415 22 view .LVU112
 512 006c 039B     		ldr	r3, [sp, #12]
 513 006e 9646     		mov	lr, r2
 514 0070 2844     		add	r0, r0, r5
 515 0072 2E44     		add	r6, r6, r5
 416:../../DaisyExamples/libDaisy//src/hid/disp/display.h ****             for(j = 0; j < font.FontWidth; j++)
 417:../../DaisyExamples/libDaisy//src/hid/disp/display.h ****             {
 418:../../DaisyExamples/libDaisy//src/hid/disp/display.h ****                 if((b << j) & 0x8000)
 419:../../DaisyExamples/libDaisy//src/hid/disp/display.h ****                 {
 420:../../DaisyExamples/libDaisy//src/hid/disp/display.h ****                     ((ChildType*)(this))
 421:../../DaisyExamples/libDaisy//src/hid/disp/display.h ****                         ->ChildType::DrawPixel(
 422:../../DaisyExamples/libDaisy//src/hid/disp/display.h ****                             currentX_ + j, (currentY_ + i), on);
 423:../../DaisyExamples/libDaisy//src/hid/disp/display.h ****                 }
 424:../../DaisyExamples/libDaisy//src/hid/disp/display.h ****                 else
 425:../../DaisyExamples/libDaisy//src/hid/disp/display.h ****                 {
 426:../../DaisyExamples/libDaisy//src/hid/disp/display.h ****                     ((ChildType*)(this))
 427:../../DaisyExamples/libDaisy//src/hid/disp/display.h ****                         ->ChildType::DrawPixel(
 428:../../DaisyExamples/libDaisy//src/hid/disp/display.h ****                             currentX_ + j, (currentY_ + i), !on);
 429:../../DaisyExamples/libDaisy//src/hid/disp/display.h ****                 }
 430:../../DaisyExamples/libDaisy//src/hid/disp/display.h ****             }
 431:../../DaisyExamples/libDaisy//src/hid/disp/display.h ****         }
 432:../../DaisyExamples/libDaisy//src/hid/disp/display.h **** 
 433:../../DaisyExamples/libDaisy//src/hid/disp/display.h ****         // The current space is now taken
 434:../../DaisyExamples/libDaisy//src/hid/disp/display.h ****         SetCursor(currentX_ + font.FontWidth, currentY_);
 516              		.loc 8 434 19 view .LVU113
 517 0074 B8F804A0 		ldrh	r10, [r8, #4]
 518 0078 03EB4000 		add	r0, r3, r0, lsl #1
 519 007c 023B     		subs	r3, r3, #2
 520 007e 03EB460B 		add	fp, r3, r6, lsl #1
 521              	.LVL29:
 522              	.L24:
 415:../../DaisyExamples/libDaisy//src/hid/disp/display.h ****             for(j = 0; j < font.FontWidth; j++)
 523              		.loc 8 415 15 view .LVU114
 524 0082 30F8026F 		ldrh	r6, [r0, #2]!
 525              	.LVL30:
 416:../../DaisyExamples/libDaisy//src/hid/disp/display.h ****             for(j = 0; j < font.FontWidth; j++)
 526              		.loc 8 416 26 is_stmt 1 view .LVU115
 527 0086 BCB3     		cbz	r4, .L29
 528              	.LBB404:
 529              	.LBB405:
 530              	.LBB406:
 531              	.LBB407:
 532              	.LBB408:
 359:../../DaisyExamples/libDaisy//src/dev/oled_ssd130x.h ****     }
 533              		.loc 7 359 55 is_stmt 0 view .LVU116
 534 0088 0EF00703 		and	r3, lr, #7
 359:../../DaisyExamples/libDaisy//src/dev/oled_ssd130x.h ****     }
ARM GAS  /var/folders/hp/45mn71hd0ps5f5pnytxy5bt00000gn/T//ccdvmoSj.s 			page 33


 535              		.loc 7 359 49 view .LVU117
 536 008c 4FF0010C 		mov	ip, #1
 359:../../DaisyExamples/libDaisy//src/dev/oled_ssd130x.h ****     }
 537              		.loc 7 359 28 view .LVU118
 538 0090 4FEADE02 		lsr	r2, lr, #3
 539 0094 5146     		mov	r1, r10
 359:../../DaisyExamples/libDaisy//src/dev/oled_ssd130x.h ****     }
 540              		.loc 7 359 49 view .LVU119
 541 0096 0CFA03FC 		lsl	ip, ip, r3
 542 009a 0AF11003 		add	r3, r10, #16
 359:../../DaisyExamples/libDaisy//src/dev/oled_ssd130x.h ****     }
 543              		.loc 7 359 42 view .LVU120
 544 009e 4FFA8CFC 		sxtb	ip, ip
 545 00a2 03EBC212 		add	r2, r3, r2, lsl #7
 546              	.LBE408:
 547              	.LBE407:
 548              	.LBE406:
 549              	.LBE405:
 550              	.LBE404:
 416:../../DaisyExamples/libDaisy//src/hid/disp/display.h ****             for(j = 0; j < font.FontWidth; j++)
 551              		.loc 8 416 19 view .LVU121
 552 00a6 0023     		movs	r3, #0
 553              	.LBB426:
 554              	.LBB421:
 555              	.LBB416:
 556              	.LBB412:
 557              	.LBB409:
 359:../../DaisyExamples/libDaisy//src/dev/oled_ssd130x.h ****     }
 558              		.loc 7 359 42 view .LVU122
 559 00a8 6FEA0C09 		mvn	r9, ip
 560 00ac 4244     		add	r2, r2, r8
 561 00ae 0EE0     		b	.L30
 562              	.LVL31:
 563              	.L48:
 359:../../DaisyExamples/libDaisy//src/dev/oled_ssd130x.h ****     }
 564              		.loc 7 359 42 view .LVU123
 565              	.LBE409:
 566              	.LBE412:
 567              	.LBE416:
 568              	.LBE421:
 569              	.LBE426:
 570              	.LBB427:
 571              	.LBI427:
  42:../../DaisyExamples/libDaisy//src/hid/disp/oled_display.h ****     {
 572              		.loc 6 42 10 is_stmt 1 view .LVU124
 573              	.LBB428:
 574              	.LBI428:
 352:../../DaisyExamples/libDaisy//src/dev/oled_ssd130x.h ****     {
 575              		.loc 7 352 10 view .LVU125
 576              	.LBB429:
 354:../../DaisyExamples/libDaisy//src/dev/oled_ssd130x.h ****             return;
 577              		.loc 7 354 9 is_stmt 0 view .LVU126
 578 00b0 7F29     		cmp	r1, #127
 579 00b2 07D8     		bhi	.L26
 580 00b4 BEF11F0F 		cmp	lr, #31
 581 00b8 04D8     		bhi	.L26
 357:../../DaisyExamples/libDaisy//src/dev/oled_ssd130x.h ****         else
ARM GAS  /var/folders/hp/45mn71hd0ps5f5pnytxy5bt00000gn/T//ccdvmoSj.s 			page 34


 582              		.loc 7 357 42 view .LVU127
 583 00ba 1578     		ldrb	r5, [r2]	@ zero_extendqisi2
 356:../../DaisyExamples/libDaisy//src/dev/oled_ssd130x.h ****             buffer_[x + (y / 8) * width] |= (1 << (y % 8));
 584              		.loc 7 356 9 view .LVU128
 585 00bc 9FB1     		cbz	r7, .L28
 586              	.L45:
 356:../../DaisyExamples/libDaisy//src/dev/oled_ssd130x.h ****             buffer_[x + (y / 8) * width] |= (1 << (y % 8));
 587              		.loc 7 356 9 view .LVU129
 588              	.LBE429:
 589              	.LBE428:
 590              	.LBE427:
 591              	.LBB430:
 592              	.LBB422:
 593              	.LBB417:
 357:../../DaisyExamples/libDaisy//src/dev/oled_ssd130x.h ****         else
 594              		.loc 7 357 42 view .LVU130
 595 00be 4CEA0505 		orr	r5, ip, r5
 596 00c2 1570     		strb	r5, [r2]
 597              	.L26:
 598              	.LBE417:
 599              	.LBE422:
 600              	.LBE430:
 416:../../DaisyExamples/libDaisy//src/hid/disp/display.h ****             {
 601              		.loc 8 416 13 is_stmt 1 discriminator 2 view .LVU131
 602 00c4 0133     		adds	r3, r3, #1
 603              	.LVL32:
 416:../../DaisyExamples/libDaisy//src/hid/disp/display.h ****             {
 604              		.loc 8 416 26 discriminator 2 view .LVU132
 605 00c6 0132     		adds	r2, r2, #1
 606 00c8 0131     		adds	r1, r1, #1
 607 00ca 9C42     		cmp	r4, r3
 608 00cc 14D0     		beq	.L29
 609              	.LVL33:
 610              	.L30:
 418:../../DaisyExamples/libDaisy//src/hid/disp/display.h ****                 {
 611              		.loc 8 418 23 is_stmt 0 view .LVU133
 612 00ce 06FA03F5 		lsl	r5, r6, r3
 418:../../DaisyExamples/libDaisy//src/hid/disp/display.h ****                 {
 613              		.loc 8 418 17 view .LVU134
 614 00d2 2D04     		lsls	r5, r5, #16
 615 00d4 ECD4     		bmi	.L48
 616              	.LVL34:
 617              	.LBB431:
 618              	.LBI404:
  42:../../DaisyExamples/libDaisy//src/hid/disp/oled_display.h ****     {
 619              		.loc 6 42 10 is_stmt 1 view .LVU135
 620              	.LBB423:
 621              	.LBI405:
 352:../../DaisyExamples/libDaisy//src/dev/oled_ssd130x.h ****     {
 622              		.loc 7 352 10 view .LVU136
 623              	.LBB418:
 354:../../DaisyExamples/libDaisy//src/dev/oled_ssd130x.h ****             return;
 624              		.loc 7 354 9 is_stmt 0 view .LVU137
 625 00d6 7F29     		cmp	r1, #127
 626 00d8 F4D8     		bhi	.L26
 627 00da BEF11F0F 		cmp	lr, #31
 628 00de F1D8     		bhi	.L26
ARM GAS  /var/folders/hp/45mn71hd0ps5f5pnytxy5bt00000gn/T//ccdvmoSj.s 			page 35


 357:../../DaisyExamples/libDaisy//src/dev/oled_ssd130x.h ****         else
 629              		.loc 7 357 42 view .LVU138
 630 00e0 1578     		ldrb	r5, [r2]	@ zero_extendqisi2
 356:../../DaisyExamples/libDaisy//src/dev/oled_ssd130x.h ****             buffer_[x + (y / 8) * width] |= (1 << (y % 8));
 631              		.loc 7 356 9 view .LVU139
 632 00e2 002F     		cmp	r7, #0
 633 00e4 EBD0     		beq	.L45
 634              	.L28:
 635              	.LVL35:
 636              	.LBB413:
 637              	.LBI407:
 352:../../DaisyExamples/libDaisy//src/dev/oled_ssd130x.h ****     {
 638              		.loc 7 352 10 is_stmt 1 view .LVU140
 352:../../DaisyExamples/libDaisy//src/dev/oled_ssd130x.h ****     {
 639              		.loc 7 352 10 is_stmt 0 view .LVU141
 640              	.LBE413:
 641              	.LBE418:
 642              	.LBE423:
 643              	.LBE431:
 416:../../DaisyExamples/libDaisy//src/hid/disp/display.h ****             {
 644              		.loc 8 416 13 view .LVU142
 645 00e6 0133     		adds	r3, r3, #1
 646              	.LVL36:
 647              	.LBB432:
 648              	.LBB424:
 649              	.LBB419:
 650              	.LBB414:
 651              	.LBB410:
 359:../../DaisyExamples/libDaisy//src/dev/oled_ssd130x.h ****     }
 652              		.loc 7 359 42 view .LVU143
 653 00e8 09EA0505 		and	r5, r9, r5
 654              	.LBE410:
 655              	.LBE414:
 656              	.LBE419:
 657              	.LBE424:
 658              	.LBE432:
 416:../../DaisyExamples/libDaisy//src/hid/disp/display.h ****             {
 659              		.loc 8 416 26 view .LVU144
 660 00ec 0132     		adds	r2, r2, #1
 661 00ee 0131     		adds	r1, r1, #1
 662 00f0 9C42     		cmp	r4, r3
 663              	.LBB433:
 664              	.LBB425:
 665              	.LBB420:
 666              	.LBB415:
 667              	.LBB411:
 359:../../DaisyExamples/libDaisy//src/dev/oled_ssd130x.h ****     }
 668              		.loc 7 359 42 view .LVU145
 669 00f2 02F8015C 		strb	r5, [r2, #-1]
 359:../../DaisyExamples/libDaisy//src/dev/oled_ssd130x.h ****     }
 670              		.loc 7 359 42 view .LVU146
 671              	.LBE411:
 672              	.LBE415:
 673              	.LBE420:
 674              	.LBE425:
 675              	.LBE433:
 416:../../DaisyExamples/libDaisy//src/hid/disp/display.h ****             {
ARM GAS  /var/folders/hp/45mn71hd0ps5f5pnytxy5bt00000gn/T//ccdvmoSj.s 			page 36


 676              		.loc 8 416 13 is_stmt 1 view .LVU147
 677              	.LVL37:
 416:../../DaisyExamples/libDaisy//src/hid/disp/display.h ****             {
 678              		.loc 8 416 26 view .LVU148
 679 00f6 EAD1     		bne	.L30
 680              	.LVL38:
 681              	.L29:
 413:../../DaisyExamples/libDaisy//src/hid/disp/display.h ****         {
 682              		.loc 8 413 9 view .LVU149
 413:../../DaisyExamples/libDaisy//src/hid/disp/display.h ****         {
 683              		.loc 8 413 22 view .LVU150
 684 00f8 5845     		cmp	r0, fp
 685 00fa 0EF1010E 		add	lr, lr, #1
 686 00fe C0D1     		bne	.L24
 687              	.LVL39:
 688              	.L23:
 689              	.LBB434:
 690              	.LBB435:
 173:../../DaisyExamples/libDaisy//src/hid/disp/display.h ****         currentY_ = (y >= Height()) ? Height() - 1 : y;
 691              		.loc 8 173 33 is_stmt 0 view .LVU151
 692 0100 D8F80030 		ldr	r3, [r8]
 693              	.LBE435:
 694              	.LBE434:
 695              		.loc 8 434 18 view .LVU152
 696 0104 5444     		add	r4, r4, r10
 697 0106 2449     		ldr	r1, .L54
 698              	.LBB441:
 699              	.LBB436:
 173:../../DaisyExamples/libDaisy//src/hid/disp/display.h ****         currentY_ = (y >= Height()) ? Height() - 1 : y;
 700              		.loc 8 173 33 view .LVU153
 701 0108 DA68     		ldr	r2, [r3, #12]
 702              	.LBE436:
 703              	.LBE441:
 704              		.loc 8 434 18 view .LVU154
 705 010a A4B2     		uxth	r4, r4
 706              	.LVL40:
 707              	.LBB442:
 708              	.LBI434:
 171:../../DaisyExamples/libDaisy//src/hid/disp/display.h ****     {
 709              		.loc 8 171 10 is_stmt 1 view .LVU155
 710              	.LBB437:
 173:../../DaisyExamples/libDaisy//src/hid/disp/display.h ****         currentY_ = (y >= Height()) ? Height() - 1 : y;
 711              		.loc 8 173 9 view .LVU156
 712 010c 8A42     		cmp	r2, r1
 713 010e 2DD1     		bne	.L49
 173:../../DaisyExamples/libDaisy//src/hid/disp/display.h ****         currentY_ = (y >= Height()) ? Height() - 1 : y;
 714              		.loc 8 173 33 is_stmt 0 view .LVU157
 715 0110 8020     		movs	r0, #128
 716              	.L31:
 173:../../DaisyExamples/libDaisy//src/hid/disp/display.h ****         currentY_ = (y >= Height()) ? Height() - 1 : y;
 717              		.loc 8 173 19 view .LVU158
 718 0112 8442     		cmp	r4, r0
 719 0114 1CD2     		bcs	.L50
 720              	.LVL41:
 721              	.L32:
 174:../../DaisyExamples/libDaisy//src/hid/disp/display.h ****     }
 722              		.loc 8 174 34 view .LVU159
ARM GAS  /var/folders/hp/45mn71hd0ps5f5pnytxy5bt00000gn/T//ccdvmoSj.s 			page 37


 723 0116 9B68     		ldr	r3, [r3, #8]
 724 0118 204A     		ldr	r2, .L54+4
 173:../../DaisyExamples/libDaisy//src/hid/disp/display.h ****         currentY_ = (y >= Height()) ? Height() - 1 : y;
 725              		.loc 8 173 19 view .LVU160
 726 011a A8F80440 		strh	r4, [r8, #4]	@ movhi
 174:../../DaisyExamples/libDaisy//src/hid/disp/display.h ****     }
 727              		.loc 8 174 9 is_stmt 1 view .LVU161
 728 011e 9342     		cmp	r3, r2
 729 0120 21D1     		bne	.L51
 174:../../DaisyExamples/libDaisy//src/hid/disp/display.h ****     }
 730              		.loc 8 174 34 is_stmt 0 view .LVU162
 731 0122 2020     		movs	r0, #32
 732              	.L34:
 174:../../DaisyExamples/libDaisy//src/hid/disp/display.h ****     }
 733              		.loc 8 174 19 view .LVU163
 734 0124 019B     		ldr	r3, [sp, #4]
 735 0126 8342     		cmp	r3, r0
 736 0128 07D3     		bcc	.L35
 174:../../DaisyExamples/libDaisy//src/hid/disp/display.h ****     }
 737              		.loc 8 174 46 view .LVU164
 738 012a D8F80030 		ldr	r3, [r8]
 739 012e 1B4A     		ldr	r2, .L54+4
 740 0130 9B68     		ldr	r3, [r3, #8]
 741 0132 9342     		cmp	r3, r2
 742 0134 29D1     		bne	.L52
 743 0136 1F23     		movs	r3, #31
 744 0138 0193     		str	r3, [sp, #4]
 745              	.LVL42:
 746              	.L35:
 174:../../DaisyExamples/libDaisy//src/hid/disp/display.h ****     }
 747              		.loc 8 174 19 view .LVU165
 748 013a DDE90003 		ldrd	r0, r3, [sp]
 749 013e A8F80630 		strh	r3, [r8, #6]	@ movhi
 750              	.LVL43:
 174:../../DaisyExamples/libDaisy//src/hid/disp/display.h ****     }
 751              		.loc 8 174 19 view .LVU166
 752              	.LBE437:
 753              	.LBE442:
 435:../../DaisyExamples/libDaisy//src/hid/disp/display.h **** 
 436:../../DaisyExamples/libDaisy//src/hid/disp/display.h ****         // Return written char for validation
 437:../../DaisyExamples/libDaisy//src/hid/disp/display.h ****         return ch;
 438:../../DaisyExamples/libDaisy//src/hid/disp/display.h ****     }
 754              		.loc 8 438 5 view .LVU167
 755 0142 05B0     		add	sp, sp, #20
 756              		.cfi_remember_state
 757              		.cfi_def_cfa_offset 36
 758              		@ sp needed
 759 0144 BDE8F08F 		pop	{r4, r5, r6, r7, r8, r9, r10, fp, pc}
 760              	.LVL44:
 761              	.L19:
 762              		.cfi_restore_state
 402:../../DaisyExamples/libDaisy//src/hid/disp/display.h **** 
 763              		.loc 8 402 20 view .LVU168
 764 0148 0020     		movs	r0, #0
 765              		.loc 8 438 5 view .LVU169
 766 014a 05B0     		add	sp, sp, #20
 767              		.cfi_remember_state
ARM GAS  /var/folders/hp/45mn71hd0ps5f5pnytxy5bt00000gn/T//ccdvmoSj.s 			page 38


 768              		.cfi_def_cfa_offset 36
 769              		@ sp needed
 770 014c BDE8F08F 		pop	{r4, r5, r6, r7, r8, r9, r10, fp, pc}
 771              	.LVL45:
 772              	.L50:
 773              		.cfi_restore_state
 774              	.LBB443:
 775              	.LBB438:
 173:../../DaisyExamples/libDaisy//src/hid/disp/display.h ****         currentY_ = (y >= Height()) ? Height() - 1 : y;
 776              		.loc 8 173 44 view .LVU170
 777 0150 DA68     		ldr	r2, [r3, #12]
 778 0152 1149     		ldr	r1, .L54
 779 0154 8A42     		cmp	r2, r1
 780 0156 11D1     		bne	.L53
 781 0158 7F24     		movs	r4, #127
 782              	.LVL46:
 173:../../DaisyExamples/libDaisy//src/hid/disp/display.h ****         currentY_ = (y >= Height()) ? Height() - 1 : y;
 783              		.loc 8 173 44 view .LVU171
 784 015a DCE7     		b	.L32
 785              	.LVL47:
 786              	.L46:
 173:../../DaisyExamples/libDaisy//src/hid/disp/display.h ****         currentY_ = (y >= Height()) ? Height() - 1 : y;
 787              		.loc 8 173 44 view .LVU172
 788              	.LBE438:
 789              	.LBE443:
 405:../../DaisyExamples/libDaisy//src/hid/disp/display.h ****            || Height() < (currentY_ + font.FontHeight))
 790              		.loc 8 405 17 view .LVU173
 791 015c 9847     		blx	r3
 792              	.LVL48:
 405:../../DaisyExamples/libDaisy//src/hid/disp/display.h ****            || Height() < (currentY_ + font.FontHeight))
 793              		.loc 8 405 17 view .LVU174
 794 015e 6AE7     		b	.L18
 795              	.L47:
 406:../../DaisyExamples/libDaisy//src/hid/disp/display.h ****         {
 796              		.loc 8 406 21 discriminator 2 view .LVU175
 797 0160 4046     		mov	r0, r8
 798 0162 9847     		blx	r3
 799              	.LVL49:
 800 0164 75E7     		b	.L20
 801              	.LVL50:
 802              	.L51:
 803              	.LBB444:
 804              	.LBB439:
 174:../../DaisyExamples/libDaisy//src/hid/disp/display.h ****     }
 805              		.loc 8 174 33 view .LVU176
 806 0166 4046     		mov	r0, r8
 807 0168 9847     		blx	r3
 808              	.LVL51:
 809 016a DBE7     		b	.L34
 810              	.LVL52:
 811              	.L49:
 173:../../DaisyExamples/libDaisy//src/hid/disp/display.h ****         currentY_ = (y >= Height()) ? Height() - 1 : y;
 812              		.loc 8 173 32 view .LVU177
 813 016c 4046     		mov	r0, r8
 814 016e 9047     		blx	r2
 815              	.LVL53:
 173:../../DaisyExamples/libDaisy//src/hid/disp/display.h ****         currentY_ = (y >= Height()) ? Height() - 1 : y;
ARM GAS  /var/folders/hp/45mn71hd0ps5f5pnytxy5bt00000gn/T//ccdvmoSj.s 			page 39


 816              		.loc 8 173 44 view .LVU178
 817 0170 D8F80030 		ldr	r3, [r8]
 818 0174 CDE7     		b	.L31
 819              	.LVL54:
 820              	.L21:
 173:../../DaisyExamples/libDaisy//src/hid/disp/display.h ****         currentY_ = (y >= Height()) ? Height() - 1 : y;
 821              		.loc 8 173 44 view .LVU179
 822              	.LBE439:
 823              	.LBE444:
 434:../../DaisyExamples/libDaisy//src/hid/disp/display.h **** 
 824              		.loc 8 434 19 view .LVU180
 825 0176 B8F804A0 		ldrh	r10, [r8, #4]
 826 017a C1E7     		b	.L23
 827              	.LVL55:
 828              	.L53:
 829              	.LBB445:
 830              	.LBB440:
 173:../../DaisyExamples/libDaisy//src/hid/disp/display.h ****         currentY_ = (y >= Height()) ? Height() - 1 : y;
 831              		.loc 8 173 43 view .LVU181
 832 017c 4046     		mov	r0, r8
 833 017e 9047     		blx	r2
 834              	.LVL56:
 173:../../DaisyExamples/libDaisy//src/hid/disp/display.h ****         currentY_ = (y >= Height()) ? Height() - 1 : y;
 835              		.loc 8 173 19 view .LVU182
 836 0180 0138     		subs	r0, r0, #1
 174:../../DaisyExamples/libDaisy//src/hid/disp/display.h ****     }
 837              		.loc 8 174 34 view .LVU183
 838 0182 D8F80030 		ldr	r3, [r8]
 173:../../DaisyExamples/libDaisy//src/hid/disp/display.h ****         currentY_ = (y >= Height()) ? Height() - 1 : y;
 839              		.loc 8 173 19 view .LVU184
 840 0186 84B2     		uxth	r4, r0
 841              	.LVL57:
 173:../../DaisyExamples/libDaisy//src/hid/disp/display.h ****         currentY_ = (y >= Height()) ? Height() - 1 : y;
 842              		.loc 8 173 19 view .LVU185
 843 0188 C5E7     		b	.L32
 844              	.L52:
 174:../../DaisyExamples/libDaisy//src/hid/disp/display.h ****     }
 845              		.loc 8 174 45 view .LVU186
 846 018a 4046     		mov	r0, r8
 847 018c 9847     		blx	r3
 848              	.LVL58:
 174:../../DaisyExamples/libDaisy//src/hid/disp/display.h ****     }
 849              		.loc 8 174 19 view .LVU187
 850 018e 0138     		subs	r0, r0, #1
 851 0190 83B2     		uxth	r3, r0
 852 0192 0193     		str	r3, [sp, #4]
 853              	.LVL59:
 174:../../DaisyExamples/libDaisy//src/hid/disp/display.h ****     }
 854              		.loc 8 174 19 view .LVU188
 855 0194 D1E7     		b	.L35
 856              	.L55:
 857 0196 00BF     		.align	2
 858              	.L54:
 859 0198 00000000 		.word	_ZNK5daisy11OledDisplayINS_13SSD130xDriverILj128ELj32ENS_19SSD130xI2CTransportEEEE5WidthEv
 860 019c 00000000 		.word	_ZNK5daisy11OledDisplayINS_13SSD130xDriverILj128ELj32ENS_19SSD130xI2CTransportEEEE6HeightEv
 861              	.LBE440:
 862              	.LBE445:
ARM GAS  /var/folders/hp/45mn71hd0ps5f5pnytxy5bt00000gn/T//ccdvmoSj.s 			page 40


 863              		.cfi_endproc
 864              	.LFE2658:
 866              		.section	.text._ZN5daisy25OneBitGraphicsDisplayImplINS_11OledDisplayINS_13SSD130xDriverILj128ELj32
 867              		.align	1
 868              		.p2align 2,,3
 869              		.weak	_ZN5daisy25OneBitGraphicsDisplayImplINS_11OledDisplayINS_13SSD130xDriverILj128ELj32ENS_19SSD
 870              		.syntax unified
 871              		.thumb
 872              		.thumb_func
 874              	_ZN5daisy25OneBitGraphicsDisplayImplINS_11OledDisplayINS_13SSD130xDriverILj128ELj32ENS_19SSD130xI2C
 875              	.LVL60:
 876              	.LFB2636:
 439:../../DaisyExamples/libDaisy//src/hid/disp/display.h **** 
 440:../../DaisyExamples/libDaisy//src/hid/disp/display.h ****     char WriteString(const char* str, FontDef font, bool on) override
 877              		.loc 8 440 10 is_stmt 1 view -0
 878              		.cfi_startproc
 879              		@ args = 4, pretend = 0, frame = 32
 880              		@ frame_needed = 0, uses_anonymous_args = 0
 881              		.loc 8 440 10 is_stmt 0 view .LVU190
 882 0000 2DE9F04F 		push	{r4, r5, r6, r7, r8, r9, r10, fp, lr}
 883              		.cfi_def_cfa_offset 36
 884              		.cfi_offset 4, -36
 885              		.cfi_offset 5, -32
 886              		.cfi_offset 6, -28
 887              		.cfi_offset 7, -24
 888              		.cfi_offset 8, -20
 889              		.cfi_offset 9, -16
 890              		.cfi_offset 10, -12
 891              		.cfi_offset 11, -8
 892              		.cfi_offset 14, -4
 893 0004 89B0     		sub	sp, sp, #36
 894              		.cfi_def_cfa_offset 72
 895              		.loc 8 440 10 view .LVU191
 896 0006 08AC     		add	r4, sp, #32
 897 0008 9DF84870 		ldrb	r7, [sp, #72]	@ zero_extendqisi2
 898 000c 0191     		str	r1, [sp, #4]
 899 000e 04E90C00 		stmdb	r4, {r2, r3}
 441:../../DaisyExamples/libDaisy//src/hid/disp/display.h ****     {
 442:../../DaisyExamples/libDaisy//src/hid/disp/display.h ****         // Write until null-byte
 443:../../DaisyExamples/libDaisy//src/hid/disp/display.h ****         while(*str)
 900              		.loc 8 443 9 is_stmt 1 view .LVU192
 901 0012 0B78     		ldrb	r3, [r1]	@ zero_extendqisi2
 902 0014 002B     		cmp	r3, #0
 903 0016 00F0AB80 		beq	.L80
 904 001a 1A46     		mov	r2, r3
 905 001c 9DF81880 		ldrb	r8, [sp, #24]	@ zero_extendqisi2
 906 0020 9DF81930 		ldrb	r3, [sp, #25]	@ zero_extendqisi2
 907 0024 0646     		mov	r6, r0
 908 0026 4546     		mov	r5, r8
 909 0028 9046     		mov	r8, r2
 910 002a 0393     		str	r3, [sp, #12]
 911 002c 079B     		ldr	r3, [sp, #28]
 912 002e 0593     		str	r3, [sp, #20]
 913              	.LVL61:
 914              	.L81:
 915              	.LBB474:
 916              	.LBI474:
ARM GAS  /var/folders/hp/45mn71hd0ps5f5pnytxy5bt00000gn/T//ccdvmoSj.s 			page 41


 396:../../DaisyExamples/libDaisy//src/hid/disp/display.h ****     {
 917              		.loc 8 396 10 view .LVU193
 918              	.LBB475:
 401:../../DaisyExamples/libDaisy//src/hid/disp/display.h ****             return 0;
 919              		.loc 8 401 20 is_stmt 0 view .LVU194
 920 0030 A8F12004 		sub	r4, r8, #32
 401:../../DaisyExamples/libDaisy//src/hid/disp/display.h ****             return 0;
 921              		.loc 8 401 9 view .LVU195
 922 0034 E3B2     		uxtb	r3, r4
 923 0036 5E2B     		cmp	r3, #94
 924 0038 00F29E80 		bhi	.L62
 405:../../DaisyExamples/libDaisy//src/hid/disp/display.h ****            || Height() < (currentY_ + font.FontHeight))
 925              		.loc 8 405 17 view .LVU196
 926 003c 3368     		ldr	r3, [r6]
 927 003e 5E4A     		ldr	r2, .L102
 928 0040 DB68     		ldr	r3, [r3, #12]
 929 0042 9342     		cmp	r3, r2
 930 0044 40F09B80 		bne	.L95
 931 0048 8020     		movs	r0, #128
 932              	.L61:
 405:../../DaisyExamples/libDaisy//src/hid/disp/display.h ****            || Height() < (currentY_ + font.FontHeight))
 933              		.loc 8 405 23 view .LVU197
 934 004a B388     		ldrh	r3, [r6, #4]
 405:../../DaisyExamples/libDaisy//src/hid/disp/display.h ****            || Height() < (currentY_ + font.FontHeight))
 935              		.loc 8 405 33 view .LVU198
 936 004c 2B44     		add	r3, r3, r5
 406:../../DaisyExamples/libDaisy//src/hid/disp/display.h ****         {
 937              		.loc 8 406 12 view .LVU199
 938 004e 8342     		cmp	r3, r0
 939 0050 00F39280 		bgt	.L62
 406:../../DaisyExamples/libDaisy//src/hid/disp/display.h ****         {
 940              		.loc 8 406 21 view .LVU200
 941 0054 3368     		ldr	r3, [r6]
 942 0056 594A     		ldr	r2, .L102+4
 943 0058 9B68     		ldr	r3, [r3, #8]
 944 005a 9342     		cmp	r3, r2
 945 005c 40F09280 		bne	.L96
 946 0060 2020     		movs	r0, #32
 947              	.L63:
 406:../../DaisyExamples/libDaisy//src/hid/disp/display.h ****         {
 948              		.loc 8 406 27 view .LVU201
 949 0062 F188     		ldrh	r1, [r6, #6]
 406:../../DaisyExamples/libDaisy//src/hid/disp/display.h ****         {
 950              		.loc 8 406 37 view .LVU202
 951 0064 039A     		ldr	r2, [sp, #12]
 406:../../DaisyExamples/libDaisy//src/hid/disp/display.h ****         {
 952              		.loc 8 406 27 view .LVU203
 953 0066 0291     		str	r1, [sp, #8]
 406:../../DaisyExamples/libDaisy//src/hid/disp/display.h ****         {
 954              		.loc 8 406 37 view .LVU204
 955 0068 8B18     		adds	r3, r1, r2
 406:../../DaisyExamples/libDaisy//src/hid/disp/display.h ****         {
 956              		.loc 8 406 12 view .LVU205
 957 006a 8342     		cmp	r3, r0
 958 006c 00F38480 		bgt	.L62
 959              	.LVL62:
 413:../../DaisyExamples/libDaisy//src/hid/disp/display.h ****         {
ARM GAS  /var/folders/hp/45mn71hd0ps5f5pnytxy5bt00000gn/T//ccdvmoSj.s 			page 42


 960              		.loc 8 413 22 is_stmt 1 view .LVU206
 961 0070 002A     		cmp	r2, #0
 962 0072 00F09180 		beq	.L64
 415:../../DaisyExamples/libDaisy//src/hid/disp/display.h ****             for(j = 0; j < font.FontWidth; j++)
 963              		.loc 8 415 37 is_stmt 0 view .LVU207
 964 0076 02FB04F4 		mul	r4, r2, r4
 965 007a 6FF00049 		mvn	r9, #-2147483648
 966 007e 059B     		ldr	r3, [sp, #20]
 967 0080 A144     		add	r9, r9, r4
 968 0082 1444     		add	r4, r4, r2
 434:../../DaisyExamples/libDaisy//src/hid/disp/display.h **** 
 969              		.loc 8 434 19 view .LVU208
 970 0084 B6F804B0 		ldrh	fp, [r6, #4]
 971 0088 03EB4909 		add	r9, r3, r9, lsl #1
 972 008c 023B     		subs	r3, r3, #2
 973 008e CDF81080 		str	r8, [sp, #16]
 974 0092 03EB4403 		add	r3, r3, r4, lsl #1
 975 0096 0C46     		mov	r4, r1
 976 0098 9A46     		mov	r10, r3
 977              	.LVL63:
 978              	.L67:
 415:../../DaisyExamples/libDaisy//src/hid/disp/display.h ****             for(j = 0; j < font.FontWidth; j++)
 979              		.loc 8 415 15 view .LVU209
 980 009a 39F802CF 		ldrh	ip, [r9, #2]!
 981              	.LVL64:
 416:../../DaisyExamples/libDaisy//src/hid/disp/display.h ****             {
 982              		.loc 8 416 26 is_stmt 1 view .LVU210
 983 009e A5B3     		cbz	r5, .L72
 984              	.LBB476:
 985              	.LBB477:
 986              	.LBB478:
 987              	.LBB479:
 988              	.LBB480:
 359:../../DaisyExamples/libDaisy//src/dev/oled_ssd130x.h ****     }
 989              		.loc 7 359 55 is_stmt 0 view .LVU211
 990 00a0 04F00703 		and	r3, r4, #7
 359:../../DaisyExamples/libDaisy//src/dev/oled_ssd130x.h ****     }
 991              		.loc 7 359 49 view .LVU212
 992 00a4 4FF0010E 		mov	lr, #1
 359:../../DaisyExamples/libDaisy//src/dev/oled_ssd130x.h ****     }
 993              		.loc 7 359 28 view .LVU213
 994 00a8 E208     		lsrs	r2, r4, #3
 995 00aa 5946     		mov	r1, fp
 359:../../DaisyExamples/libDaisy//src/dev/oled_ssd130x.h ****     }
 996              		.loc 7 359 49 view .LVU214
 997 00ac 0EFA03FE 		lsl	lr, lr, r3
 998 00b0 0BF11003 		add	r3, fp, #16
 359:../../DaisyExamples/libDaisy//src/dev/oled_ssd130x.h ****     }
 999              		.loc 7 359 42 view .LVU215
 1000 00b4 4FFA8EFE 		sxtb	lr, lr
 1001 00b8 03EBC212 		add	r2, r3, r2, lsl #7
 1002              	.LBE480:
 1003              	.LBE479:
 1004              	.LBE478:
 1005              	.LBE477:
 1006              	.LBE476:
 416:../../DaisyExamples/libDaisy//src/hid/disp/display.h ****             {
ARM GAS  /var/folders/hp/45mn71hd0ps5f5pnytxy5bt00000gn/T//ccdvmoSj.s 			page 43


 1007              		.loc 8 416 19 view .LVU216
 1008 00bc 0023     		movs	r3, #0
 1009              	.LBB498:
 1010              	.LBB493:
 1011              	.LBB488:
 1012              	.LBB484:
 1013              	.LBB481:
 359:../../DaisyExamples/libDaisy//src/dev/oled_ssd130x.h ****     }
 1014              		.loc 7 359 42 view .LVU217
 1015 00be 6FEA0E08 		mvn	r8, lr
 1016 00c2 3244     		add	r2, r2, r6
 1017 00c4 0DE0     		b	.L73
 1018              	.LVL65:
 1019              	.L97:
 359:../../DaisyExamples/libDaisy//src/dev/oled_ssd130x.h ****     }
 1020              		.loc 7 359 42 view .LVU218
 1021              	.LBE481:
 1022              	.LBE484:
 1023              	.LBE488:
 1024              	.LBE493:
 1025              	.LBE498:
 1026              	.LBB499:
 1027              	.LBI499:
  42:../../DaisyExamples/libDaisy//src/hid/disp/oled_display.h ****     {
 1028              		.loc 6 42 10 is_stmt 1 view .LVU219
 1029              	.LBB500:
 1030              	.LBI500:
 352:../../DaisyExamples/libDaisy//src/dev/oled_ssd130x.h ****     {
 1031              		.loc 7 352 10 view .LVU220
 1032              	.LBB501:
 354:../../DaisyExamples/libDaisy//src/dev/oled_ssd130x.h ****             return;
 1033              		.loc 7 354 9 is_stmt 0 view .LVU221
 1034 00c6 7F29     		cmp	r1, #127
 1035 00c8 06D8     		bhi	.L69
 1036 00ca 1F2C     		cmp	r4, #31
 1037 00cc 04D8     		bhi	.L69
 357:../../DaisyExamples/libDaisy//src/dev/oled_ssd130x.h ****         else
 1038              		.loc 7 357 42 view .LVU222
 1039 00ce 1078     		ldrb	r0, [r2]	@ zero_extendqisi2
 356:../../DaisyExamples/libDaisy//src/dev/oled_ssd130x.h ****             buffer_[x + (y / 8) * width] |= (1 << (y % 8));
 1040              		.loc 7 356 9 view .LVU223
 1041 00d0 97B1     		cbz	r7, .L71
 1042              	.L94:
 356:../../DaisyExamples/libDaisy//src/dev/oled_ssd130x.h ****             buffer_[x + (y / 8) * width] |= (1 << (y % 8));
 1043              		.loc 7 356 9 view .LVU224
 1044              	.LBE501:
 1045              	.LBE500:
 1046              	.LBE499:
 1047              	.LBB502:
 1048              	.LBB494:
 1049              	.LBB489:
 357:../../DaisyExamples/libDaisy//src/dev/oled_ssd130x.h ****         else
 1050              		.loc 7 357 42 view .LVU225
 1051 00d2 4EEA0000 		orr	r0, lr, r0
 1052 00d6 1070     		strb	r0, [r2]
 1053              	.L69:
 1054              	.LBE489:
ARM GAS  /var/folders/hp/45mn71hd0ps5f5pnytxy5bt00000gn/T//ccdvmoSj.s 			page 44


 1055              	.LBE494:
 1056              	.LBE502:
 416:../../DaisyExamples/libDaisy//src/hid/disp/display.h ****             {
 1057              		.loc 8 416 13 is_stmt 1 view .LVU226
 1058 00d8 0133     		adds	r3, r3, #1
 1059              	.LVL66:
 416:../../DaisyExamples/libDaisy//src/hid/disp/display.h ****             {
 1060              		.loc 8 416 26 view .LVU227
 1061 00da 0132     		adds	r2, r2, #1
 1062 00dc 0131     		adds	r1, r1, #1
 1063 00de AB42     		cmp	r3, r5
 1064 00e0 13D0     		beq	.L72
 1065              	.LVL67:
 1066              	.L73:
 418:../../DaisyExamples/libDaisy//src/hid/disp/display.h ****                 {
 1067              		.loc 8 418 23 is_stmt 0 view .LVU228
 1068 00e2 0CFA03F0 		lsl	r0, ip, r3
 418:../../DaisyExamples/libDaisy//src/hid/disp/display.h ****                 {
 1069              		.loc 8 418 17 view .LVU229
 1070 00e6 0004     		lsls	r0, r0, #16
 1071 00e8 EDD4     		bmi	.L97
 1072              	.LVL68:
 1073              	.LBB503:
 1074              	.LBI476:
  42:../../DaisyExamples/libDaisy//src/hid/disp/oled_display.h ****     {
 1075              		.loc 6 42 10 is_stmt 1 view .LVU230
 1076              	.LBB495:
 1077              	.LBI477:
 352:../../DaisyExamples/libDaisy//src/dev/oled_ssd130x.h ****     {
 1078              		.loc 7 352 10 view .LVU231
 1079              	.LBB490:
 354:../../DaisyExamples/libDaisy//src/dev/oled_ssd130x.h ****             return;
 1080              		.loc 7 354 9 is_stmt 0 view .LVU232
 1081 00ea 7F29     		cmp	r1, #127
 1082 00ec F4D8     		bhi	.L69
 1083 00ee 1F2C     		cmp	r4, #31
 1084 00f0 F2D8     		bhi	.L69
 357:../../DaisyExamples/libDaisy//src/dev/oled_ssd130x.h ****         else
 1085              		.loc 7 357 42 view .LVU233
 1086 00f2 1078     		ldrb	r0, [r2]	@ zero_extendqisi2
 356:../../DaisyExamples/libDaisy//src/dev/oled_ssd130x.h ****             buffer_[x + (y / 8) * width] |= (1 << (y % 8));
 1087              		.loc 7 356 9 view .LVU234
 1088 00f4 002F     		cmp	r7, #0
 1089 00f6 ECD0     		beq	.L94
 1090              	.L71:
 1091              	.LVL69:
 1092              	.LBB485:
 1093              	.LBI479:
 352:../../DaisyExamples/libDaisy//src/dev/oled_ssd130x.h ****     {
 1094              		.loc 7 352 10 is_stmt 1 view .LVU235
 352:../../DaisyExamples/libDaisy//src/dev/oled_ssd130x.h ****     {
 1095              		.loc 7 352 10 is_stmt 0 view .LVU236
 1096              	.LBE485:
 1097              	.LBE490:
 1098              	.LBE495:
 1099              	.LBE503:
 416:../../DaisyExamples/libDaisy//src/hid/disp/display.h ****             {
ARM GAS  /var/folders/hp/45mn71hd0ps5f5pnytxy5bt00000gn/T//ccdvmoSj.s 			page 45


 1100              		.loc 8 416 13 view .LVU237
 1101 00f8 0133     		adds	r3, r3, #1
 1102              	.LVL70:
 1103              	.LBB504:
 1104              	.LBB496:
 1105              	.LBB491:
 1106              	.LBB486:
 1107              	.LBB482:
 359:../../DaisyExamples/libDaisy//src/dev/oled_ssd130x.h ****     }
 1108              		.loc 7 359 42 view .LVU238
 1109 00fa 08EA0000 		and	r0, r8, r0
 1110              	.LBE482:
 1111              	.LBE486:
 1112              	.LBE491:
 1113              	.LBE496:
 1114              	.LBE504:
 416:../../DaisyExamples/libDaisy//src/hid/disp/display.h ****             {
 1115              		.loc 8 416 26 view .LVU239
 1116 00fe 0132     		adds	r2, r2, #1
 1117 0100 0131     		adds	r1, r1, #1
 1118 0102 AB42     		cmp	r3, r5
 1119              	.LBB505:
 1120              	.LBB497:
 1121              	.LBB492:
 1122              	.LBB487:
 1123              	.LBB483:
 359:../../DaisyExamples/libDaisy//src/dev/oled_ssd130x.h ****     }
 1124              		.loc 7 359 42 view .LVU240
 1125 0104 02F8010C 		strb	r0, [r2, #-1]
 359:../../DaisyExamples/libDaisy//src/dev/oled_ssd130x.h ****     }
 1126              		.loc 7 359 42 view .LVU241
 1127              	.LBE483:
 1128              	.LBE487:
 1129              	.LBE492:
 1130              	.LBE497:
 1131              	.LBE505:
 416:../../DaisyExamples/libDaisy//src/hid/disp/display.h ****             {
 1132              		.loc 8 416 13 is_stmt 1 view .LVU242
 1133              	.LVL71:
 416:../../DaisyExamples/libDaisy//src/hid/disp/display.h ****             {
 1134              		.loc 8 416 26 view .LVU243
 1135 0108 EBD1     		bne	.L73
 1136              	.LVL72:
 1137              	.L72:
 413:../../DaisyExamples/libDaisy//src/hid/disp/display.h ****         {
 1138              		.loc 8 413 9 view .LVU244
 413:../../DaisyExamples/libDaisy//src/hid/disp/display.h ****         {
 1139              		.loc 8 413 22 view .LVU245
 1140 010a D145     		cmp	r9, r10
 1141 010c 04F10104 		add	r4, r4, #1
 1142 0110 C3D1     		bne	.L67
 1143 0112 DDF81080 		ldr	r8, [sp, #16]
 1144              	.LVL73:
 1145              	.L66:
 1146              	.LBB506:
 1147              	.LBB507:
 173:../../DaisyExamples/libDaisy//src/hid/disp/display.h ****         currentY_ = (y >= Height()) ? Height() - 1 : y;
ARM GAS  /var/folders/hp/45mn71hd0ps5f5pnytxy5bt00000gn/T//ccdvmoSj.s 			page 46


 1148              		.loc 8 173 33 is_stmt 0 view .LVU246
 1149 0116 3268     		ldr	r2, [r6]
 1150              	.LBE507:
 1151              	.LBE506:
 434:../../DaisyExamples/libDaisy//src/hid/disp/display.h **** 
 1152              		.loc 8 434 18 view .LVU247
 1153 0118 0BEB0504 		add	r4, fp, r5
 1154 011c 2649     		ldr	r1, .L102
 1155              	.LBB512:
 1156              	.LBB508:
 173:../../DaisyExamples/libDaisy//src/hid/disp/display.h ****         currentY_ = (y >= Height()) ? Height() - 1 : y;
 1157              		.loc 8 173 33 view .LVU248
 1158 011e D368     		ldr	r3, [r2, #12]
 1159              	.LBE508:
 1160              	.LBE512:
 434:../../DaisyExamples/libDaisy//src/hid/disp/display.h **** 
 1161              		.loc 8 434 18 view .LVU249
 1162 0120 A4B2     		uxth	r4, r4
 1163              	.LVL74:
 1164              	.LBB513:
 1165              	.LBI506:
 171:../../DaisyExamples/libDaisy//src/hid/disp/display.h ****     {
 1166              		.loc 8 171 10 is_stmt 1 view .LVU250
 1167              	.LBB509:
 173:../../DaisyExamples/libDaisy//src/hid/disp/display.h ****         currentY_ = (y >= Height()) ? Height() - 1 : y;
 1168              		.loc 8 173 9 view .LVU251
 1169 0122 8B42     		cmp	r3, r1
 1170 0124 34D1     		bne	.L98
 173:../../DaisyExamples/libDaisy//src/hid/disp/display.h ****         currentY_ = (y >= Height()) ? Height() - 1 : y;
 1171              		.loc 8 173 33 is_stmt 0 view .LVU252
 1172 0126 8020     		movs	r0, #128
 1173              	.L74:
 173:../../DaisyExamples/libDaisy//src/hid/disp/display.h ****         currentY_ = (y >= Height()) ? Height() - 1 : y;
 1174              		.loc 8 173 19 view .LVU253
 1175 0128 8442     		cmp	r4, r0
 1176 012a 04D3     		bcc	.L75
 173:../../DaisyExamples/libDaisy//src/hid/disp/display.h ****         currentY_ = (y >= Height()) ? Height() - 1 : y;
 1177              		.loc 8 173 44 view .LVU254
 1178 012c D368     		ldr	r3, [r2, #12]
 1179 012e 2249     		ldr	r1, .L102
 1180 0130 8B42     		cmp	r3, r1
 1181 0132 3AD1     		bne	.L99
 1182 0134 7F24     		movs	r4, #127
 1183              	.LVL75:
 1184              	.L75:
 174:../../DaisyExamples/libDaisy//src/hid/disp/display.h ****     }
 1185              		.loc 8 174 34 view .LVU255
 1186 0136 9368     		ldr	r3, [r2, #8]
 1187 0138 204A     		ldr	r2, .L102+4
 173:../../DaisyExamples/libDaisy//src/hid/disp/display.h ****         currentY_ = (y >= Height()) ? Height() - 1 : y;
 1188              		.loc 8 173 19 view .LVU256
 1189 013a B480     		strh	r4, [r6, #4]	@ movhi
 174:../../DaisyExamples/libDaisy//src/hid/disp/display.h ****     }
 1190              		.loc 8 174 9 is_stmt 1 view .LVU257
 1191 013c 9342     		cmp	r3, r2
 1192 013e 24D1     		bne	.L100
 174:../../DaisyExamples/libDaisy//src/hid/disp/display.h ****     }
ARM GAS  /var/folders/hp/45mn71hd0ps5f5pnytxy5bt00000gn/T//ccdvmoSj.s 			page 47


 1193              		.loc 8 174 34 is_stmt 0 view .LVU258
 1194 0140 2020     		movs	r0, #32
 1195              	.L77:
 174:../../DaisyExamples/libDaisy//src/hid/disp/display.h ****     }
 1196              		.loc 8 174 19 view .LVU259
 1197 0142 029B     		ldr	r3, [sp, #8]
 1198 0144 8342     		cmp	r3, r0
 1199 0146 06D3     		bcc	.L78
 174:../../DaisyExamples/libDaisy//src/hid/disp/display.h ****     }
 1200              		.loc 8 174 46 view .LVU260
 1201 0148 3368     		ldr	r3, [r6]
 1202 014a 1C4A     		ldr	r2, .L102+4
 1203 014c 9B68     		ldr	r3, [r3, #8]
 1204 014e 9342     		cmp	r3, r2
 1205 0150 25D1     		bne	.L101
 1206 0152 1F23     		movs	r3, #31
 1207 0154 0293     		str	r3, [sp, #8]
 1208              	.LVL76:
 1209              	.L78:
 174:../../DaisyExamples/libDaisy//src/hid/disp/display.h ****     }
 1210              		.loc 8 174 19 view .LVU261
 1211 0156 029B     		ldr	r3, [sp, #8]
 1212 0158 F380     		strh	r3, [r6, #6]	@ movhi
 1213              	.LVL77:
 1214              	.L60:
 174:../../DaisyExamples/libDaisy//src/hid/disp/display.h ****     }
 1215              		.loc 8 174 19 view .LVU262
 1216              	.LBE509:
 1217              	.LBE513:
 1218              	.LBE475:
 1219              	.LBE474:
 444:../../DaisyExamples/libDaisy//src/hid/disp/display.h ****         {
 445:../../DaisyExamples/libDaisy//src/hid/disp/display.h ****             if(((ChildType*)(this))->ChildType::WriteChar(*str, font, on)
 446:../../DaisyExamples/libDaisy//src/hid/disp/display.h ****                != *str)
 1220              		.loc 8 446 16 view .LVU263
 1221 015a 019B     		ldr	r3, [sp, #4]
 1222 015c 1878     		ldrb	r0, [r3]	@ zero_extendqisi2
 445:../../DaisyExamples/libDaisy//src/hid/disp/display.h ****                != *str)
 1223              		.loc 8 445 13 view .LVU264
 1224 015e 4045     		cmp	r0, r8
 1225 0160 07D1     		bne	.L58
 1226              	.LVL78:
 443:../../DaisyExamples/libDaisy//src/hid/disp/display.h ****         {
 1227              		.loc 8 443 9 is_stmt 1 view .LVU265
 1228 0162 13F8018F 		ldrb	r8, [r3, #1]!	@ zero_extendqisi2
 1229              	.LVL79:
 443:../../DaisyExamples/libDaisy//src/hid/disp/display.h ****         {
 1230              		.loc 8 443 9 is_stmt 0 view .LVU266
 1231 0166 0193     		str	r3, [sp, #4]
 1232 0168 B8F1000F 		cmp	r8, #0
 1233 016c 7FF460AF 		bne	.L81
 1234              	.LVL80:
 1235              	.L80:
 1236              	.LBB518:
 1237              	.LBB516:
 402:../../DaisyExamples/libDaisy//src/hid/disp/display.h **** 
 1238              		.loc 8 402 20 view .LVU267
ARM GAS  /var/folders/hp/45mn71hd0ps5f5pnytxy5bt00000gn/T//ccdvmoSj.s 			page 48


 1239 0170 0020     		movs	r0, #0
 1240              	.L58:
 1241              	.LBE516:
 1242              	.LBE518:
 447:../../DaisyExamples/libDaisy//src/hid/disp/display.h ****             {
 448:../../DaisyExamples/libDaisy//src/hid/disp/display.h ****                 // Char could not be written
 449:../../DaisyExamples/libDaisy//src/hid/disp/display.h ****                 return *str;
 450:../../DaisyExamples/libDaisy//src/hid/disp/display.h ****             }
 451:../../DaisyExamples/libDaisy//src/hid/disp/display.h **** 
 452:../../DaisyExamples/libDaisy//src/hid/disp/display.h ****             // Next char
 453:../../DaisyExamples/libDaisy//src/hid/disp/display.h ****             str++;
 454:../../DaisyExamples/libDaisy//src/hid/disp/display.h ****         }
 455:../../DaisyExamples/libDaisy//src/hid/disp/display.h **** 
 456:../../DaisyExamples/libDaisy//src/hid/disp/display.h ****         // Everything ok
 457:../../DaisyExamples/libDaisy//src/hid/disp/display.h ****         return *str;
 458:../../DaisyExamples/libDaisy//src/hid/disp/display.h ****     }
 1243              		.loc 8 458 5 view .LVU268
 1244 0172 09B0     		add	sp, sp, #36
 1245              		.cfi_remember_state
 1246              		.cfi_def_cfa_offset 36
 1247              		@ sp needed
 1248 0174 BDE8F08F 		pop	{r4, r5, r6, r7, r8, r9, r10, fp, pc}
 1249              	.LVL81:
 1250              	.L62:
 1251              		.cfi_restore_state
 1252              	.LBB519:
 1253              	.LBB517:
 402:../../DaisyExamples/libDaisy//src/hid/disp/display.h **** 
 1254              		.loc 8 402 20 view .LVU269
 1255 0178 4FF00008 		mov	r8, #0
 1256              	.LVL82:
 402:../../DaisyExamples/libDaisy//src/hid/disp/display.h **** 
 1257              		.loc 8 402 20 view .LVU270
 1258 017c EDE7     		b	.L60
 1259              	.LVL83:
 1260              	.L95:
 405:../../DaisyExamples/libDaisy//src/hid/disp/display.h ****            || Height() < (currentY_ + font.FontHeight))
 1261              		.loc 8 405 17 view .LVU271
 1262 017e 3046     		mov	r0, r6
 1263 0180 9847     		blx	r3
 1264              	.LVL84:
 1265 0182 62E7     		b	.L61
 1266              	.L96:
 406:../../DaisyExamples/libDaisy//src/hid/disp/display.h ****         {
 1267              		.loc 8 406 21 view .LVU272
 1268 0184 3046     		mov	r0, r6
 1269 0186 9847     		blx	r3
 1270              	.LVL85:
 1271 0188 6BE7     		b	.L63
 1272              	.LVL86:
 1273              	.L100:
 1274              	.LBB514:
 1275              	.LBB510:
 174:../../DaisyExamples/libDaisy//src/hid/disp/display.h ****     }
 1276              		.loc 8 174 33 view .LVU273
 1277 018a 3046     		mov	r0, r6
 1278 018c 9847     		blx	r3
ARM GAS  /var/folders/hp/45mn71hd0ps5f5pnytxy5bt00000gn/T//ccdvmoSj.s 			page 49


 1279              	.LVL87:
 1280 018e D8E7     		b	.L77
 1281              	.LVL88:
 1282              	.L98:
 173:../../DaisyExamples/libDaisy//src/hid/disp/display.h ****         currentY_ = (y >= Height()) ? Height() - 1 : y;
 1283              		.loc 8 173 32 view .LVU274
 1284 0190 3046     		mov	r0, r6
 1285 0192 9847     		blx	r3
 1286              	.LVL89:
 173:../../DaisyExamples/libDaisy//src/hid/disp/display.h ****         currentY_ = (y >= Height()) ? Height() - 1 : y;
 1287              		.loc 8 173 44 view .LVU275
 1288 0194 3268     		ldr	r2, [r6]
 1289 0196 C7E7     		b	.L74
 1290              	.LVL90:
 1291              	.L64:
 173:../../DaisyExamples/libDaisy//src/hid/disp/display.h ****         currentY_ = (y >= Height()) ? Height() - 1 : y;
 1292              		.loc 8 173 44 view .LVU276
 1293              	.LBE510:
 1294              	.LBE514:
 434:../../DaisyExamples/libDaisy//src/hid/disp/display.h **** 
 1295              		.loc 8 434 19 view .LVU277
 1296 0198 B6F804B0 		ldrh	fp, [r6, #4]
 1297 019c BBE7     		b	.L66
 1298              	.LVL91:
 1299              	.L101:
 1300              	.LBB515:
 1301              	.LBB511:
 174:../../DaisyExamples/libDaisy//src/hid/disp/display.h ****     }
 1302              		.loc 8 174 45 view .LVU278
 1303 019e 3046     		mov	r0, r6
 1304 01a0 9847     		blx	r3
 1305              	.LVL92:
 174:../../DaisyExamples/libDaisy//src/hid/disp/display.h ****     }
 1306              		.loc 8 174 19 view .LVU279
 1307 01a2 431E     		subs	r3, r0, #1
 1308 01a4 9BB2     		uxth	r3, r3
 1309 01a6 0293     		str	r3, [sp, #8]
 1310              	.LVL93:
 174:../../DaisyExamples/libDaisy//src/hid/disp/display.h ****     }
 1311              		.loc 8 174 19 view .LVU280
 1312 01a8 D5E7     		b	.L78
 1313              	.LVL94:
 1314              	.L99:
 173:../../DaisyExamples/libDaisy//src/hid/disp/display.h ****         currentY_ = (y >= Height()) ? Height() - 1 : y;
 1315              		.loc 8 173 43 view .LVU281
 1316 01aa 3046     		mov	r0, r6
 1317 01ac 9847     		blx	r3
 1318              	.LVL95:
 173:../../DaisyExamples/libDaisy//src/hid/disp/display.h ****         currentY_ = (y >= Height()) ? Height() - 1 : y;
 1319              		.loc 8 173 19 view .LVU282
 1320 01ae 0138     		subs	r0, r0, #1
 174:../../DaisyExamples/libDaisy//src/hid/disp/display.h ****     }
 1321              		.loc 8 174 34 view .LVU283
 1322 01b0 3268     		ldr	r2, [r6]
 173:../../DaisyExamples/libDaisy//src/hid/disp/display.h ****         currentY_ = (y >= Height()) ? Height() - 1 : y;
 1323              		.loc 8 173 19 view .LVU284
 1324 01b2 84B2     		uxth	r4, r0
ARM GAS  /var/folders/hp/45mn71hd0ps5f5pnytxy5bt00000gn/T//ccdvmoSj.s 			page 50


 1325              	.LVL96:
 173:../../DaisyExamples/libDaisy//src/hid/disp/display.h ****         currentY_ = (y >= Height()) ? Height() - 1 : y;
 1326              		.loc 8 173 19 view .LVU285
 1327 01b4 BFE7     		b	.L75
 1328              	.L103:
 1329 01b6 00BF     		.align	2
 1330              	.L102:
 1331 01b8 00000000 		.word	_ZNK5daisy11OledDisplayINS_13SSD130xDriverILj128ELj32ENS_19SSD130xI2CTransportEEEE5WidthEv
 1332 01bc 00000000 		.word	_ZNK5daisy11OledDisplayINS_13SSD130xDriverILj128ELj32ENS_19SSD130xI2CTransportEEEE6HeightEv
 1333              	.LBE511:
 1334              	.LBE515:
 1335              	.LBE517:
 1336              	.LBE519:
 1337              		.cfi_endproc
 1338              	.LFE2636:
 1340              		.section	.text._ZN5daisy11OledDisplayINS_13SSD130xDriverILj128ELj32ENS_19SSD130xI2CTransportEEEE9D
 1341              		.align	1
 1342              		.p2align 2,,3
 1343              		.weak	_ZN5daisy11OledDisplayINS_13SSD130xDriverILj128ELj32ENS_19SSD130xI2CTransportEEEE9DrawPixelE
 1344              		.syntax unified
 1345              		.thumb
 1346              		.thumb_func
 1348              	_ZN5daisy11OledDisplayINS_13SSD130xDriverILj128ELj32ENS_19SSD130xI2CTransportEEEE9DrawPixelEjjb:
 1349              	.LVL97:
 1350              	.LFB2665:
  42:../../DaisyExamples/libDaisy//src/hid/disp/oled_display.h ****     {
 1351              		.loc 6 42 10 is_stmt 1 view -0
 1352              		.cfi_startproc
 1353              		@ args = 0, pretend = 0, frame = 0
 1354              		@ frame_needed = 0, uses_anonymous_args = 0
 1355              		@ link register save eliminated.
 1356              	.LBB524:
 1357              	.LBI524:
 352:../../DaisyExamples/libDaisy//src/dev/oled_ssd130x.h ****     {
 1358              		.loc 7 352 10 view .LVU287
 1359              	.LBB525:
 354:../../DaisyExamples/libDaisy//src/dev/oled_ssd130x.h ****             return;
 1360              		.loc 7 354 9 is_stmt 0 view .LVU288
 1361 0000 7F29     		cmp	r1, #127
 1362 0002 1ED8     		bhi	.L104
 1363 0004 1F2A     		cmp	r2, #31
 1364 0006 1CD8     		bhi	.L104
 356:../../DaisyExamples/libDaisy//src/dev/oled_ssd130x.h ****             buffer_[x + (y / 8) * width] |= (1 << (y % 8));
 1365              		.loc 7 356 9 view .LVU289
 1366 0008 6BB1     		cbz	r3, .L106
 357:../../DaisyExamples/libDaisy//src/dev/oled_ssd130x.h ****         else
 1367              		.loc 7 357 28 view .LVU290
 1368 000a D308     		lsrs	r3, r2, #3
 1369              	.LVL98:
 357:../../DaisyExamples/libDaisy//src/dev/oled_ssd130x.h ****         else
 1370              		.loc 7 357 48 view .LVU291
 1371 000c 4FF0010C 		mov	ip, #1
 357:../../DaisyExamples/libDaisy//src/dev/oled_ssd130x.h ****         else
 1372              		.loc 7 357 54 view .LVU292
 1373 0010 02F00702 		and	r2, r2, #7
 1374              	.LVL99:
 357:../../DaisyExamples/libDaisy//src/dev/oled_ssd130x.h ****         else
ARM GAS  /var/folders/hp/45mn71hd0ps5f5pnytxy5bt00000gn/T//ccdvmoSj.s 			page 51


 1375              		.loc 7 357 42 view .LVU293
 1376 0014 01EBC313 		add	r3, r1, r3, lsl #7
 357:../../DaisyExamples/libDaisy//src/dev/oled_ssd130x.h ****         else
 1377              		.loc 7 357 48 view .LVU294
 1378 0018 0CFA02F2 		lsl	r2, ip, r2
 357:../../DaisyExamples/libDaisy//src/dev/oled_ssd130x.h ****         else
 1379              		.loc 7 357 42 view .LVU295
 1380 001c C118     		adds	r1, r0, r3
 1381              	.LVL100:
 357:../../DaisyExamples/libDaisy//src/dev/oled_ssd130x.h ****         else
 1382              		.loc 7 357 42 view .LVU296
 1383 001e 0B7C     		ldrb	r3, [r1, #16]	@ zero_extendqisi2
 1384 0020 1A43     		orrs	r2, r2, r3
 1385 0022 0A74     		strb	r2, [r1, #16]
 1386 0024 7047     		bx	lr
 1387              	.LVL101:
 1388              	.L106:
 1389              	.LBB526:
 1390              	.LBI526:
 352:../../DaisyExamples/libDaisy//src/dev/oled_ssd130x.h ****     {
 1391              		.loc 7 352 10 is_stmt 1 view .LVU297
 1392              	.LBB527:
 359:../../DaisyExamples/libDaisy//src/dev/oled_ssd130x.h ****     }
 1393              		.loc 7 359 28 is_stmt 0 view .LVU298
 1394 0026 D308     		lsrs	r3, r2, #3
 1395              	.LVL102:
 359:../../DaisyExamples/libDaisy//src/dev/oled_ssd130x.h ****     }
 1396              		.loc 7 359 49 view .LVU299
 1397 0028 4FF0010C 		mov	ip, #1
 359:../../DaisyExamples/libDaisy//src/dev/oled_ssd130x.h ****     }
 1398              		.loc 7 359 55 view .LVU300
 1399 002c 02F00702 		and	r2, r2, #7
 1400              	.LVL103:
 359:../../DaisyExamples/libDaisy//src/dev/oled_ssd130x.h ****     }
 1401              		.loc 7 359 42 view .LVU301
 1402 0030 01EBC313 		add	r3, r1, r3, lsl #7
 359:../../DaisyExamples/libDaisy//src/dev/oled_ssd130x.h ****     }
 1403              		.loc 7 359 49 view .LVU302
 1404 0034 0CFA02FC 		lsl	ip, ip, r2
 359:../../DaisyExamples/libDaisy//src/dev/oled_ssd130x.h ****     }
 1405              		.loc 7 359 42 view .LVU303
 1406 0038 C118     		adds	r1, r0, r3
 1407              	.LVL104:
 359:../../DaisyExamples/libDaisy//src/dev/oled_ssd130x.h ****     }
 1408              		.loc 7 359 42 view .LVU304
 1409 003a 0A7C     		ldrb	r2, [r1, #16]	@ zero_extendqisi2
 1410 003c 22EA0C02 		bic	r2, r2, ip
 1411 0040 0A74     		strb	r2, [r1, #16]
 1412              	.LVL105:
 1413              	.L104:
 359:../../DaisyExamples/libDaisy//src/dev/oled_ssd130x.h ****     }
 1414              		.loc 7 359 42 view .LVU305
 1415              	.LBE527:
 1416              	.LBE526:
 1417              	.LBE525:
 1418              	.LBE524:
  45:../../DaisyExamples/libDaisy//src/hid/disp/oled_display.h **** 
ARM GAS  /var/folders/hp/45mn71hd0ps5f5pnytxy5bt00000gn/T//ccdvmoSj.s 			page 52


 1419              		.loc 6 45 5 view .LVU306
 1420 0042 7047     		bx	lr
 1421              		.cfi_endproc
 1422              	.LFE2665:
 1424              		.section	.text._ZN5daisy25OneBitGraphicsDisplayImplINS_11OledDisplayINS_13SSD130xDriverILj128ELj32
 1425              		.align	1
 1426              		.p2align 2,,3
 1427              		.weak	_ZN5daisy25OneBitGraphicsDisplayImplINS_11OledDisplayINS_13SSD130xDriverILj128ELj32ENS_19SSD
 1428              		.syntax unified
 1429              		.thumb
 1430              		.thumb_func
 1432              	_ZN5daisy25OneBitGraphicsDisplayImplINS_11OledDisplayINS_13SSD130xDriverILj128ELj32ENS_19SSD130xI2C
 1433              	.LVL106:
 1434              	.LFB2674:
 221:../../DaisyExamples/libDaisy//src/hid/disp/display.h ****                   uint_fast8_t y1,
 1435              		.loc 8 221 10 is_stmt 1 view -0
 1436              		.cfi_startproc
 1437              		@ args = 8, pretend = 0, frame = 8
 1438              		@ frame_needed = 0, uses_anonymous_args = 0
 221:../../DaisyExamples/libDaisy//src/hid/disp/display.h ****                   uint_fast8_t y1,
 1439              		.loc 8 221 10 is_stmt 0 view .LVU308
 1440 0000 2DE9F04F 		push	{r4, r5, r6, r7, r8, r9, r10, fp, lr}
 1441              		.cfi_def_cfa_offset 36
 1442              		.cfi_offset 4, -36
 1443              		.cfi_offset 5, -32
 1444              		.cfi_offset 6, -28
 1445              		.cfi_offset 7, -24
 1446              		.cfi_offset 8, -20
 1447              		.cfi_offset 9, -16
 1448              		.cfi_offset 10, -12
 1449              		.cfi_offset 11, -8
 1450              		.cfi_offset 14, -4
 1451 0004 83B0     		sub	sp, sp, #12
 1452              		.cfi_def_cfa_offset 48
 227:../../DaisyExamples/libDaisy//src/hid/disp/display.h ****         int_fast16_t deltaY = abs((int_fast16_t)y2 - (int_fast16_t)y1);
 1453              		.loc 8 227 52 view .LVU309
 1454 0006 5C1A     		subs	r4, r3, r1
 221:../../DaisyExamples/libDaisy//src/hid/disp/display.h ****                   uint_fast8_t y1,
 1455              		.loc 8 221 10 view .LVU310
 1456 0008 0C9E     		ldr	r6, [sp, #48]
 227:../../DaisyExamples/libDaisy//src/hid/disp/display.h ****         int_fast16_t deltaY = abs((int_fast16_t)y2 - (int_fast16_t)y1);
 1457              		.loc 8 227 22 view .LVU311
 1458 000a 002C     		cmp	r4, #0
 221:../../DaisyExamples/libDaisy//src/hid/disp/display.h ****                   uint_fast8_t y1,
 1459              		.loc 8 221 10 view .LVU312
 1460 000c 9DF83490 		ldrb	r9, [sp, #52]	@ zero_extendqisi2
 228:../../DaisyExamples/libDaisy//src/hid/disp/display.h ****         int_fast16_t signX  = ((x1 < x2) ? 1 : -1);
 1461              		.loc 8 228 52 view .LVU313
 1462 0010 A6EB0208 		sub	r8, r6, r2
 227:../../DaisyExamples/libDaisy//src/hid/disp/display.h ****         int_fast16_t deltaY = abs((int_fast16_t)y2 - (int_fast16_t)y1);
 1463              		.loc 8 227 22 view .LVU314
 1464 0014 B8BF     		it	lt
 1465 0016 6442     		rsblt	r4, r4, #0
 1466              	.LVL107:
 228:../../DaisyExamples/libDaisy//src/hid/disp/display.h ****         int_fast16_t signX  = ((x1 < x2) ? 1 : -1);
 1467              		.loc 8 228 22 view .LVU315
 1468 0018 B8F1000F 		cmp	r8, #0
ARM GAS  /var/folders/hp/45mn71hd0ps5f5pnytxy5bt00000gn/T//ccdvmoSj.s 			page 53


 1469 001c B8BF     		it	lt
 1470 001e C8F10008 		rsblt	r8, r8, #0
 1471              	.LVL108:
 229:../../DaisyExamples/libDaisy//src/hid/disp/display.h ****         int_fast16_t signY  = ((y1 < y2) ? 1 : -1);
 1472              		.loc 8 229 42 view .LVU316
 1473 0022 8B42     		cmp	r3, r1
 1474 0024 8CBF     		ite	hi
 1475 0026 4FF0010A 		movhi	r10, #1
 1476 002a 4FF0FF3A 		movls	r10, #-1
 1477              	.LVL109:
 230:../../DaisyExamples/libDaisy//src/hid/disp/display.h ****         int_fast16_t error  = deltaX - deltaY;
 1478              		.loc 8 230 42 view .LVU317
 1479 002e 9642     		cmp	r6, r2
 231:../../DaisyExamples/libDaisy//src/hid/disp/display.h ****         int_fast16_t error2;
 1480              		.loc 8 231 22 view .LVU318
 1481 0030 A4EB080C 		sub	ip, r4, r8
 230:../../DaisyExamples/libDaisy//src/hid/disp/display.h ****         int_fast16_t error  = deltaX - deltaY;
 1482              		.loc 8 230 42 view .LVU319
 1483 0034 51D8     		bhi	.L109
 1484              	.LVL110:
 1485              	.LBB544:
 1486              	.LBI544:
  42:../../DaisyExamples/libDaisy//src/hid/disp/oled_display.h ****     {
 1487              		.loc 6 42 10 is_stmt 1 discriminator 4 view .LVU320
 1488              	.LBB545:
 1489              	.LBI545:
 352:../../DaisyExamples/libDaisy//src/dev/oled_ssd130x.h ****     {
 1490              		.loc 7 352 10 discriminator 4 view .LVU321
 1491              	.LBE545:
 1492              	.LBE544:
 230:../../DaisyExamples/libDaisy//src/hid/disp/display.h ****         int_fast16_t error  = deltaX - deltaY;
 1493              		.loc 8 230 42 is_stmt 0 discriminator 4 view .LVU322
 1494 0036 4FF0FF35 		mov	r5, #-1
 1495              	.LBB561:
 1496              	.LBB555:
 1497              	.LBB546:
 354:../../DaisyExamples/libDaisy//src/dev/oled_ssd130x.h ****             return;
 1498              		.loc 7 354 9 discriminator 4 view .LVU323
 1499 003a 7F2B     		cmp	r3, #127
 1500              	.LBE546:
 1501              	.LBE555:
 1502              	.LBE561:
 230:../../DaisyExamples/libDaisy//src/hid/disp/display.h ****         int_fast16_t error  = deltaX - deltaY;
 1503              		.loc 8 230 42 discriminator 4 view .LVU324
 1504 003c 0195     		str	r5, [sp, #4]
 1505              	.LBB562:
 1506              	.LBB556:
 1507              	.LBB551:
 354:../../DaisyExamples/libDaisy//src/dev/oled_ssd130x.h ****             return;
 1508              		.loc 7 354 9 discriminator 4 view .LVU325
 1509 003e 12D8     		bhi	.L110
 1510 0040 1F2E     		cmp	r6, #31
 1511 0042 10D8     		bhi	.L110
 1512              	.LVL111:
 1513              	.L121:
 357:../../DaisyExamples/libDaisy//src/dev/oled_ssd130x.h ****         else
 1514              		.loc 7 357 28 view .LVU326
ARM GAS  /var/folders/hp/45mn71hd0ps5f5pnytxy5bt00000gn/T//ccdvmoSj.s 			page 54


 1515 0044 F508     		lsrs	r5, r6, #3
 357:../../DaisyExamples/libDaisy//src/dev/oled_ssd130x.h ****         else
 1516              		.loc 7 357 54 view .LVU327
 1517 0046 06F0070E 		and	lr, r6, #7
 357:../../DaisyExamples/libDaisy//src/dev/oled_ssd130x.h ****         else
 1518              		.loc 7 357 48 view .LVU328
 1519 004a 0127     		movs	r7, #1
 357:../../DaisyExamples/libDaisy//src/dev/oled_ssd130x.h ****         else
 1520              		.loc 7 357 42 view .LVU329
 1521 004c 03EBC515 		add	r5, r3, r5, lsl #7
 1522 0050 0544     		add	r5, r5, r0
 356:../../DaisyExamples/libDaisy//src/dev/oled_ssd130x.h ****             buffer_[x + (y / 8) * width] |= (1 << (y % 8));
 1523              		.loc 7 356 9 view .LVU330
 1524 0052 B9F1000F 		cmp	r9, #0
 1525 0056 47D0     		beq	.L111
 357:../../DaisyExamples/libDaisy//src/dev/oled_ssd130x.h ****         else
 1526              		.loc 7 357 48 view .LVU331
 1527 0058 07FA0EF7 		lsl	r7, r7, lr
 357:../../DaisyExamples/libDaisy//src/dev/oled_ssd130x.h ****         else
 1528              		.loc 7 357 42 view .LVU332
 1529 005c 95F810E0 		ldrb	lr, [r5, #16]	@ zero_extendqisi2
 1530 0060 47EA0E07 		orr	r7, r7, lr
 1531 0064 2F74     		strb	r7, [r5, #16]
 1532              	.LVL112:
 1533              	.L110:
 357:../../DaisyExamples/libDaisy//src/dev/oled_ssd130x.h ****         else
 1534              		.loc 7 357 42 view .LVU333
 1535              	.LBE551:
 1536              	.LBE556:
 1537              	.LBE562:
 239:../../DaisyExamples/libDaisy//src/hid/disp/display.h ****         {
 1538              		.loc 8 239 26 is_stmt 1 view .LVU334
 1539 0066 9642     		cmp	r6, r2
 1540 0068 01D1     		bne	.L114
 1541              	.L133:
 239:../../DaisyExamples/libDaisy//src/hid/disp/display.h ****         {
 1542              		.loc 8 239 26 is_stmt 0 view .LVU335
 1543 006a 8B42     		cmp	r3, r1
 1544 006c 29D0     		beq	.L107
 1545              	.L114:
 1546              	.LVL113:
 243:../../DaisyExamples/libDaisy//src/hid/disp/display.h ****             {
 1547              		.loc 8 243 23 view .LVU336
 1548 006e C8F10007 		rsb	r7, r8, #0
 1549              	.L116:
 1550              	.LVL114:
 1551              	.LBB563:
 1552              	.LBI563:
  42:../../DaisyExamples/libDaisy//src/hid/disp/oled_display.h ****     {
 1553              		.loc 6 42 10 is_stmt 1 view .LVU337
 1554              	.LBB564:
 1555              	.LBI564:
 352:../../DaisyExamples/libDaisy//src/dev/oled_ssd130x.h ****     {
 1556              		.loc 7 352 10 view .LVU338
 1557              	.LBB565:
 354:../../DaisyExamples/libDaisy//src/dev/oled_ssd130x.h ****             return;
 1558              		.loc 7 354 9 is_stmt 0 view .LVU339
ARM GAS  /var/folders/hp/45mn71hd0ps5f5pnytxy5bt00000gn/T//ccdvmoSj.s 			page 55


 1559 0072 7F29     		cmp	r1, #127
 1560 0074 14D8     		bhi	.L117
 1561 0076 1F2A     		cmp	r2, #31
 1562 0078 12D8     		bhi	.L117
 357:../../DaisyExamples/libDaisy//src/dev/oled_ssd130x.h ****         else
 1563              		.loc 7 357 28 view .LVU340
 1564 007a D508     		lsrs	r5, r2, #3
 357:../../DaisyExamples/libDaisy//src/dev/oled_ssd130x.h ****         else
 1565              		.loc 7 357 54 view .LVU341
 1566 007c 02F0070B 		and	fp, r2, #7
 357:../../DaisyExamples/libDaisy//src/dev/oled_ssd130x.h ****         else
 1567              		.loc 7 357 48 view .LVU342
 1568 0080 4FF0010E 		mov	lr, #1
 357:../../DaisyExamples/libDaisy//src/dev/oled_ssd130x.h ****         else
 1569              		.loc 7 357 42 view .LVU343
 1570 0084 01EBC515 		add	r5, r1, r5, lsl #7
 1571 0088 0544     		add	r5, r5, r0
 356:../../DaisyExamples/libDaisy//src/dev/oled_ssd130x.h ****             buffer_[x + (y / 8) * width] |= (1 << (y % 8));
 1572              		.loc 7 356 9 view .LVU344
 1573 008a B9F1000F 		cmp	r9, #0
 1574 008e 1BD0     		beq	.L118
 357:../../DaisyExamples/libDaisy//src/dev/oled_ssd130x.h ****         else
 1575              		.loc 7 357 48 view .LVU345
 1576 0090 0EFA0BFE 		lsl	lr, lr, fp
 357:../../DaisyExamples/libDaisy//src/dev/oled_ssd130x.h ****         else
 1577              		.loc 7 357 42 view .LVU346
 1578 0094 95F810B0 		ldrb	fp, [r5, #16]	@ zero_extendqisi2
 1579 0098 4EEA0B0E 		orr	lr, lr, fp
 1580 009c 85F810E0 		strb	lr, [r5, #16]
 1581              	.L117:
 1582              	.LVL115:
 357:../../DaisyExamples/libDaisy//src/dev/oled_ssd130x.h ****         else
 1583              		.loc 7 357 42 view .LVU347
 1584              	.LBE565:
 1585              	.LBE564:
 1586              	.LBE563:
 243:../../DaisyExamples/libDaisy//src/hid/disp/display.h ****             {
 1587              		.loc 8 243 13 view .LVU348
 1588 00a0 B7EB4C0F 		cmp	r7, ip, lsl #1
 242:../../DaisyExamples/libDaisy//src/hid/disp/display.h ****             if(error2 > -deltaY)
 1589              		.loc 8 242 20 view .LVU349
 1590 00a4 4FEA4C05 		lsl	r5, ip, #1
 1591              	.LVL116:
 243:../../DaisyExamples/libDaisy//src/hid/disp/display.h ****             {
 1592              		.loc 8 243 13 view .LVU350
 1593 00a8 02DA     		bge	.L119
 245:../../DaisyExamples/libDaisy//src/hid/disp/display.h ****                 x1 += signX;
 1594              		.loc 8 245 23 view .LVU351
 1595 00aa ACEB080C 		sub	ip, ip, r8
 1596              	.LVL117:
 246:../../DaisyExamples/libDaisy//src/hid/disp/display.h ****             }
 1597              		.loc 8 246 20 view .LVU352
 1598 00ae 5144     		add	r1, r1, r10
 1599              	.LVL118:
 1600              	.L119:
 249:../../DaisyExamples/libDaisy//src/hid/disp/display.h ****             {
 1601              		.loc 8 249 13 view .LVU353
ARM GAS  /var/folders/hp/45mn71hd0ps5f5pnytxy5bt00000gn/T//ccdvmoSj.s 			page 56


 1602 00b0 AC42     		cmp	r4, r5
 1603 00b2 02DD     		ble	.L120
 252:../../DaisyExamples/libDaisy//src/hid/disp/display.h ****             }
 1604              		.loc 8 252 20 view .LVU354
 1605 00b4 019D     		ldr	r5, [sp, #4]
 1606              	.LVL119:
 251:../../DaisyExamples/libDaisy//src/hid/disp/display.h ****                 y1 += signY;
 1607              		.loc 8 251 23 view .LVU355
 1608 00b6 A444     		add	ip, ip, r4
 1609              	.LVL120:
 252:../../DaisyExamples/libDaisy//src/hid/disp/display.h ****             }
 1610              		.loc 8 252 20 view .LVU356
 1611 00b8 2A44     		add	r2, r2, r5
 1612              	.LVL121:
 1613              	.L120:
 239:../../DaisyExamples/libDaisy//src/hid/disp/display.h ****         {
 1614              		.loc 8 239 26 is_stmt 1 view .LVU357
 1615 00ba 9942     		cmp	r1, r3
 1616 00bc D9D1     		bne	.L116
 239:../../DaisyExamples/libDaisy//src/hid/disp/display.h ****         {
 1617              		.loc 8 239 26 is_stmt 0 view .LVU358
 1618 00be 9642     		cmp	r6, r2
 1619 00c0 D7D1     		bne	.L116
 1620              	.L107:
 255:../../DaisyExamples/libDaisy//src/hid/disp/display.h **** 
 1621              		.loc 8 255 5 view .LVU359
 1622 00c2 03B0     		add	sp, sp, #12
 1623              		.cfi_remember_state
 1624              		.cfi_def_cfa_offset 36
 1625              		@ sp needed
 1626 00c4 BDE8F08F 		pop	{r4, r5, r6, r7, r8, r9, r10, fp, pc}
 1627              	.LVL122:
 1628              	.L118:
 1629              		.cfi_restore_state
 1630              	.LBB570:
 1631              	.LBB569:
 1632              	.LBB568:
 1633              	.LBB566:
 1634              	.LBI566:
 352:../../DaisyExamples/libDaisy//src/dev/oled_ssd130x.h ****     {
 1635              		.loc 7 352 10 is_stmt 1 view .LVU360
 1636              	.LBB567:
 359:../../DaisyExamples/libDaisy//src/dev/oled_ssd130x.h ****     }
 1637              		.loc 7 359 49 is_stmt 0 view .LVU361
 1638 00c8 0EFA0BFB 		lsl	fp, lr, fp
 359:../../DaisyExamples/libDaisy//src/dev/oled_ssd130x.h ****     }
 1639              		.loc 7 359 42 view .LVU362
 1640 00cc 95F810E0 		ldrb	lr, [r5, #16]	@ zero_extendqisi2
 1641 00d0 2EEA0B0E 		bic	lr, lr, fp
 1642 00d4 85F810E0 		strb	lr, [r5, #16]
 1643 00d8 E2E7     		b	.L117
 1644              	.LVL123:
 1645              	.L109:
 359:../../DaisyExamples/libDaisy//src/dev/oled_ssd130x.h ****     }
 1646              		.loc 7 359 42 view .LVU363
 1647              	.LBE567:
 1648              	.LBE566:
ARM GAS  /var/folders/hp/45mn71hd0ps5f5pnytxy5bt00000gn/T//ccdvmoSj.s 			page 57


 1649              	.LBE568:
 1650              	.LBE569:
 1651              	.LBE570:
 1652              	.LBB571:
  42:../../DaisyExamples/libDaisy//src/hid/disp/oled_display.h ****     {
 1653              		.loc 6 42 10 is_stmt 1 view .LVU364
 1654              	.LBB557:
 352:../../DaisyExamples/libDaisy//src/dev/oled_ssd130x.h ****     {
 1655              		.loc 7 352 10 view .LVU365
 1656              	.LBE557:
 1657              	.LBE571:
 230:../../DaisyExamples/libDaisy//src/hid/disp/display.h ****         int_fast16_t error  = deltaX - deltaY;
 1658              		.loc 8 230 42 is_stmt 0 view .LVU366
 1659 00da 0125     		movs	r5, #1
 1660              	.LBB572:
 1661              	.LBB558:
 1662              	.LBB552:
 354:../../DaisyExamples/libDaisy//src/dev/oled_ssd130x.h ****             return;
 1663              		.loc 7 354 9 view .LVU367
 1664 00dc 7F2B     		cmp	r3, #127
 1665              	.LBE552:
 1666              	.LBE558:
 1667              	.LBE572:
 230:../../DaisyExamples/libDaisy//src/hid/disp/display.h ****         int_fast16_t error  = deltaX - deltaY;
 1668              		.loc 8 230 42 view .LVU368
 1669 00de 0195     		str	r5, [sp, #4]
 1670              	.LBB573:
 1671              	.LBB559:
 1672              	.LBB553:
 354:../../DaisyExamples/libDaisy//src/dev/oled_ssd130x.h ****             return;
 1673              		.loc 7 354 9 view .LVU369
 1674 00e0 C5D8     		bhi	.L114
 1675 00e2 1F2E     		cmp	r6, #31
 1676 00e4 AED9     		bls	.L121
 1677 00e6 C2E7     		b	.L114
 1678              	.LVL124:
 1679              	.L111:
 1680              	.LBB547:
 1681              	.LBI547:
 352:../../DaisyExamples/libDaisy//src/dev/oled_ssd130x.h ****     {
 1682              		.loc 7 352 10 is_stmt 1 view .LVU370
 1683              	.LBB548:
 359:../../DaisyExamples/libDaisy//src/dev/oled_ssd130x.h ****     }
 1684              		.loc 7 359 49 is_stmt 0 view .LVU371
 1685 00e8 07FA0EFE 		lsl	lr, r7, lr
 359:../../DaisyExamples/libDaisy//src/dev/oled_ssd130x.h ****     }
 1686              		.loc 7 359 42 view .LVU372
 1687 00ec 2F7C     		ldrb	r7, [r5, #16]	@ zero_extendqisi2
 1688              	.LBE548:
 1689              	.LBE547:
 1690              	.LBE553:
 1691              	.LBE559:
 1692              	.LBE573:
 239:../../DaisyExamples/libDaisy//src/hid/disp/display.h ****         {
 1693              		.loc 8 239 26 view .LVU373
 1694 00ee 9642     		cmp	r6, r2
 1695              	.LBB574:
ARM GAS  /var/folders/hp/45mn71hd0ps5f5pnytxy5bt00000gn/T//ccdvmoSj.s 			page 58


 1696              	.LBB560:
 1697              	.LBB554:
 1698              	.LBB550:
 1699              	.LBB549:
 359:../../DaisyExamples/libDaisy//src/dev/oled_ssd130x.h ****     }
 1700              		.loc 7 359 42 view .LVU374
 1701 00f0 27EA0E07 		bic	r7, r7, lr
 1702 00f4 2F74     		strb	r7, [r5, #16]
 1703              	.LVL125:
 359:../../DaisyExamples/libDaisy//src/dev/oled_ssd130x.h ****     }
 1704              		.loc 7 359 42 view .LVU375
 1705              	.LBE549:
 1706              	.LBE550:
 1707              	.LBE554:
 1708              	.LBE560:
 1709              	.LBE574:
 239:../../DaisyExamples/libDaisy//src/hid/disp/display.h ****         {
 1710              		.loc 8 239 26 is_stmt 1 view .LVU376
 1711 00f6 B8D0     		beq	.L133
 1712 00f8 B9E7     		b	.L114
 1713              		.cfi_endproc
 1714              	.LFE2674:
 1716 00fa 00BF     		.section	.text._ZN5daisy25OneBitGraphicsDisplayImplINS_11OledDisplayINS_13SSD130xDriverILj128ELj32
 1717              		.align	1
 1718              		.p2align 2,,3
 1719              		.weak	_ZN5daisy25OneBitGraphicsDisplayImplINS_11OledDisplayINS_13SSD130xDriverILj128ELj32ENS_19SSD
 1720              		.syntax unified
 1721              		.thumb
 1722              		.thumb_func
 1724              	_ZN5daisy25OneBitGraphicsDisplayImplINS_11OledDisplayINS_13SSD130xDriverILj128ELj32ENS_19SSD130xI2C
 1725              	.LVL126:
 1726              	.LFB2676:
 283:../../DaisyExamples/libDaisy//src/hid/disp/display.h ****                  uint_fast8_t y,
 1727              		.loc 8 283 10 view -0
 1728              		.cfi_startproc
 1729              		@ args = 12, pretend = 0, frame = 8
 1730              		@ frame_needed = 0, uses_anonymous_args = 0
 283:../../DaisyExamples/libDaisy//src/hid/disp/display.h ****                  uint_fast8_t y,
 1731              		.loc 8 283 10 is_stmt 0 view .LVU378
 1732 0000 2DE9F04F 		push	{r4, r5, r6, r7, r8, r9, r10, fp, lr}
 1733              		.cfi_def_cfa_offset 36
 1734              		.cfi_offset 4, -36
 1735              		.cfi_offset 5, -32
 1736              		.cfi_offset 6, -28
 1737              		.cfi_offset 7, -24
 1738              		.cfi_offset 8, -20
 1739              		.cfi_offset 9, -16
 1740              		.cfi_offset 10, -12
 1741              		.cfi_offset 11, -8
 1742              		.cfi_offset 14, -4
 1743 0004 2DED068B 		vpush.64	{d8, d9, d10}
 1744              		.cfi_def_cfa_offset 60
 1745              		.cfi_offset 80, -60
 1746              		.cfi_offset 81, -56
 1747              		.cfi_offset 82, -52
 1748              		.cfi_offset 83, -48
 1749              		.cfi_offset 84, -44
ARM GAS  /var/folders/hp/45mn71hd0ps5f5pnytxy5bt00000gn/T//ccdvmoSj.s 			page 59


 1750              		.cfi_offset 85, -40
 1751 0008 83B0     		sub	sp, sp, #12
 1752              		.cfi_def_cfa_offset 72
 283:../../DaisyExamples/libDaisy//src/hid/disp/display.h ****                  uint_fast8_t y,
 1753              		.loc 8 283 10 view .LVU379
 1754 000a 1F46     		mov	r7, r3
 1755 000c 8046     		mov	r8, r0
 1756 000e 0D46     		mov	r5, r1
 1757 0010 9DF85030 		ldrb	r3, [sp, #80]	@ zero_extendqisi2
 1758              	.LVL127:
 283:../../DaisyExamples/libDaisy//src/hid/disp/display.h ****                  uint_fast8_t y,
 1759              		.loc 8 283 10 view .LVU380
 1760 0014 1646     		mov	r6, r2
 1761 0016 0193     		str	r3, [sp, #4]
 306:../../DaisyExamples/libDaisy//src/hid/disp/display.h ****         {
 1762              		.loc 8 306 9 view .LVU381
 1763 0018 139B     		ldr	r3, [sp, #76]
 1764 001a 002B     		cmp	r3, #0
 1765 001c C0F22182 		blt	.L135
 313:../../DaisyExamples/libDaisy//src/hid/disp/display.h **** 
 1766              		.loc 8 313 27 view .LVU382
 1767 0020 129A     		ldr	r2, [sp, #72]
 1768              	.LVL128:
 313:../../DaisyExamples/libDaisy//src/hid/disp/display.h **** 
 1769              		.loc 8 313 27 view .LVU383
 1770 0022 1344     		add	r3, r3, r2
 1771 0024 06EE103A 		vmov	s12, r3	@ int
 1772              	.LVL129:
 1773              	.L136:
 312:../../DaisyExamples/libDaisy//src/hid/disp/display.h ****         end_angle_rad   = deg2rad(start_angle + sweep);
 1774              		.loc 8 312 27 view .LVU384
 1775 0028 DDED127A 		vldr.32	s15, [sp, #72]	@ int
 313:../../DaisyExamples/libDaisy//src/hid/disp/display.h **** 
 1776              		.loc 8 313 27 view .LVU385
 1777 002c B8EEC66B 		vcvt.f64.s32	d6, s12
 312:../../DaisyExamples/libDaisy//src/hid/disp/display.h ****         end_angle_rad   = deg2rad(start_angle + sweep);
 1778              		.loc 8 312 27 view .LVU386
 1779 0030 9FEDCD4B 		vldr.64	d4, .L211
 1780 0034 B8EEE77B 		vcvt.f64.s32	d7, s15
 1781 0038 9FEDCD5B 		vldr.64	d5, .L211+8
 1782 003c 27EE047B 		vmul.f64	d7, d7, d4
 313:../../DaisyExamples/libDaisy//src/hid/disp/display.h **** 
 1783              		.loc 8 313 27 view .LVU387
 1784 0040 26EE046B 		vmul.f64	d6, d6, d4
 312:../../DaisyExamples/libDaisy//src/hid/disp/display.h ****         end_angle_rad   = deg2rad(start_angle + sweep);
 1785              		.loc 8 312 27 view .LVU388
 1786 0044 87EE050B 		vdiv.f64	d0, d7, d5
 313:../../DaisyExamples/libDaisy//src/hid/disp/display.h **** 
 1787              		.loc 8 313 27 view .LVU389
 1788 0048 86EE05AB 		vdiv.f64	d10, d6, d5
 312:../../DaisyExamples/libDaisy//src/hid/disp/display.h ****         end_angle_rad   = deg2rad(start_angle + sweep);
 1789              		.loc 8 312 25 view .LVU390
 1790 004c F7EEC08B 		vcvt.f32.f64	s17, d0
 1791              	.LVL130:
 1792              	.LBB607:
 1793              	.LBB608:
 1794              		.file 9 "/Library/DaisyToolchain/0.2.0/arm/arm-none-eabi/include/c++/10.3.1/cmath"
ARM GAS  /var/folders/hp/45mn71hd0ps5f5pnytxy5bt00000gn/T//ccdvmoSj.s 			page 60


   1:/Library/DaisyToolchain/0.2.0/arm/arm-none-eabi/include/c++/10.3.1/cmath **** // -*- C++ -*- C forwarding header.
   2:/Library/DaisyToolchain/0.2.0/arm/arm-none-eabi/include/c++/10.3.1/cmath **** 
   3:/Library/DaisyToolchain/0.2.0/arm/arm-none-eabi/include/c++/10.3.1/cmath **** // Copyright (C) 1997-2020 Free Software Foundation, Inc.
   4:/Library/DaisyToolchain/0.2.0/arm/arm-none-eabi/include/c++/10.3.1/cmath **** //
   5:/Library/DaisyToolchain/0.2.0/arm/arm-none-eabi/include/c++/10.3.1/cmath **** // This file is part of the GNU ISO C++ Library.  This library is free
   6:/Library/DaisyToolchain/0.2.0/arm/arm-none-eabi/include/c++/10.3.1/cmath **** // software; you can redistribute it and/or modify it under the
   7:/Library/DaisyToolchain/0.2.0/arm/arm-none-eabi/include/c++/10.3.1/cmath **** // terms of the GNU General Public License as published by the
   8:/Library/DaisyToolchain/0.2.0/arm/arm-none-eabi/include/c++/10.3.1/cmath **** // Free Software Foundation; either version 3, or (at your option)
   9:/Library/DaisyToolchain/0.2.0/arm/arm-none-eabi/include/c++/10.3.1/cmath **** // any later version.
  10:/Library/DaisyToolchain/0.2.0/arm/arm-none-eabi/include/c++/10.3.1/cmath **** 
  11:/Library/DaisyToolchain/0.2.0/arm/arm-none-eabi/include/c++/10.3.1/cmath **** // This library is distributed in the hope that it will be useful,
  12:/Library/DaisyToolchain/0.2.0/arm/arm-none-eabi/include/c++/10.3.1/cmath **** // but WITHOUT ANY WARRANTY; without even the implied warranty of
  13:/Library/DaisyToolchain/0.2.0/arm/arm-none-eabi/include/c++/10.3.1/cmath **** // MERCHANTABILITY or FITNESS FOR A PARTICULAR PURPOSE.  See the
  14:/Library/DaisyToolchain/0.2.0/arm/arm-none-eabi/include/c++/10.3.1/cmath **** // GNU General Public License for more details.
  15:/Library/DaisyToolchain/0.2.0/arm/arm-none-eabi/include/c++/10.3.1/cmath **** 
  16:/Library/DaisyToolchain/0.2.0/arm/arm-none-eabi/include/c++/10.3.1/cmath **** // Under Section 7 of GPL version 3, you are granted additional
  17:/Library/DaisyToolchain/0.2.0/arm/arm-none-eabi/include/c++/10.3.1/cmath **** // permissions described in the GCC Runtime Library Exception, version
  18:/Library/DaisyToolchain/0.2.0/arm/arm-none-eabi/include/c++/10.3.1/cmath **** // 3.1, as published by the Free Software Foundation.
  19:/Library/DaisyToolchain/0.2.0/arm/arm-none-eabi/include/c++/10.3.1/cmath **** 
  20:/Library/DaisyToolchain/0.2.0/arm/arm-none-eabi/include/c++/10.3.1/cmath **** // You should have received a copy of the GNU General Public License and
  21:/Library/DaisyToolchain/0.2.0/arm/arm-none-eabi/include/c++/10.3.1/cmath **** // a copy of the GCC Runtime Library Exception along with this program;
  22:/Library/DaisyToolchain/0.2.0/arm/arm-none-eabi/include/c++/10.3.1/cmath **** // see the files COPYING3 and COPYING.RUNTIME respectively.  If not, see
  23:/Library/DaisyToolchain/0.2.0/arm/arm-none-eabi/include/c++/10.3.1/cmath **** // <http://www.gnu.org/licenses/>.
  24:/Library/DaisyToolchain/0.2.0/arm/arm-none-eabi/include/c++/10.3.1/cmath **** 
  25:/Library/DaisyToolchain/0.2.0/arm/arm-none-eabi/include/c++/10.3.1/cmath **** /** @file include/cmath
  26:/Library/DaisyToolchain/0.2.0/arm/arm-none-eabi/include/c++/10.3.1/cmath ****  *  This is a Standard C++ Library file.  You should @c \#include this file
  27:/Library/DaisyToolchain/0.2.0/arm/arm-none-eabi/include/c++/10.3.1/cmath ****  *  in your programs, rather than any of the @a *.h implementation files.
  28:/Library/DaisyToolchain/0.2.0/arm/arm-none-eabi/include/c++/10.3.1/cmath ****  *
  29:/Library/DaisyToolchain/0.2.0/arm/arm-none-eabi/include/c++/10.3.1/cmath ****  *  This is the C++ version of the Standard C Library header @c math.h,
  30:/Library/DaisyToolchain/0.2.0/arm/arm-none-eabi/include/c++/10.3.1/cmath ****  *  and its contents are (mostly) the same as that header, but are all
  31:/Library/DaisyToolchain/0.2.0/arm/arm-none-eabi/include/c++/10.3.1/cmath ****  *  contained in the namespace @c std (except for names which are defined
  32:/Library/DaisyToolchain/0.2.0/arm/arm-none-eabi/include/c++/10.3.1/cmath ****  *  as macros in C).
  33:/Library/DaisyToolchain/0.2.0/arm/arm-none-eabi/include/c++/10.3.1/cmath ****  */
  34:/Library/DaisyToolchain/0.2.0/arm/arm-none-eabi/include/c++/10.3.1/cmath **** 
  35:/Library/DaisyToolchain/0.2.0/arm/arm-none-eabi/include/c++/10.3.1/cmath **** //
  36:/Library/DaisyToolchain/0.2.0/arm/arm-none-eabi/include/c++/10.3.1/cmath **** // ISO C++ 14882: 26.5  C library
  37:/Library/DaisyToolchain/0.2.0/arm/arm-none-eabi/include/c++/10.3.1/cmath **** //
  38:/Library/DaisyToolchain/0.2.0/arm/arm-none-eabi/include/c++/10.3.1/cmath **** 
  39:/Library/DaisyToolchain/0.2.0/arm/arm-none-eabi/include/c++/10.3.1/cmath **** #pragma GCC system_header
  40:/Library/DaisyToolchain/0.2.0/arm/arm-none-eabi/include/c++/10.3.1/cmath **** 
  41:/Library/DaisyToolchain/0.2.0/arm/arm-none-eabi/include/c++/10.3.1/cmath **** #include <bits/c++config.h>
  42:/Library/DaisyToolchain/0.2.0/arm/arm-none-eabi/include/c++/10.3.1/cmath **** #include <bits/cpp_type_traits.h>
  43:/Library/DaisyToolchain/0.2.0/arm/arm-none-eabi/include/c++/10.3.1/cmath **** #include <ext/type_traits.h>
  44:/Library/DaisyToolchain/0.2.0/arm/arm-none-eabi/include/c++/10.3.1/cmath **** #define _GLIBCXX_INCLUDE_NEXT_C_HEADERS
  45:/Library/DaisyToolchain/0.2.0/arm/arm-none-eabi/include/c++/10.3.1/cmath **** #include_next <math.h>
  46:/Library/DaisyToolchain/0.2.0/arm/arm-none-eabi/include/c++/10.3.1/cmath **** #undef _GLIBCXX_INCLUDE_NEXT_C_HEADERS
  47:/Library/DaisyToolchain/0.2.0/arm/arm-none-eabi/include/c++/10.3.1/cmath **** #include <bits/std_abs.h>
  48:/Library/DaisyToolchain/0.2.0/arm/arm-none-eabi/include/c++/10.3.1/cmath **** 
  49:/Library/DaisyToolchain/0.2.0/arm/arm-none-eabi/include/c++/10.3.1/cmath **** #ifndef _GLIBCXX_CMATH
  50:/Library/DaisyToolchain/0.2.0/arm/arm-none-eabi/include/c++/10.3.1/cmath **** #define _GLIBCXX_CMATH 1
  51:/Library/DaisyToolchain/0.2.0/arm/arm-none-eabi/include/c++/10.3.1/cmath **** 
  52:/Library/DaisyToolchain/0.2.0/arm/arm-none-eabi/include/c++/10.3.1/cmath **** // Get rid of those macros defined in <math.h> in lieu of real functions.
  53:/Library/DaisyToolchain/0.2.0/arm/arm-none-eabi/include/c++/10.3.1/cmath **** #undef div
  54:/Library/DaisyToolchain/0.2.0/arm/arm-none-eabi/include/c++/10.3.1/cmath **** #undef acos
  55:/Library/DaisyToolchain/0.2.0/arm/arm-none-eabi/include/c++/10.3.1/cmath **** #undef asin
  56:/Library/DaisyToolchain/0.2.0/arm/arm-none-eabi/include/c++/10.3.1/cmath **** #undef atan
  57:/Library/DaisyToolchain/0.2.0/arm/arm-none-eabi/include/c++/10.3.1/cmath **** #undef atan2
ARM GAS  /var/folders/hp/45mn71hd0ps5f5pnytxy5bt00000gn/T//ccdvmoSj.s 			page 61


  58:/Library/DaisyToolchain/0.2.0/arm/arm-none-eabi/include/c++/10.3.1/cmath **** #undef ceil
  59:/Library/DaisyToolchain/0.2.0/arm/arm-none-eabi/include/c++/10.3.1/cmath **** #undef cos
  60:/Library/DaisyToolchain/0.2.0/arm/arm-none-eabi/include/c++/10.3.1/cmath **** #undef cosh
  61:/Library/DaisyToolchain/0.2.0/arm/arm-none-eabi/include/c++/10.3.1/cmath **** #undef exp
  62:/Library/DaisyToolchain/0.2.0/arm/arm-none-eabi/include/c++/10.3.1/cmath **** #undef fabs
  63:/Library/DaisyToolchain/0.2.0/arm/arm-none-eabi/include/c++/10.3.1/cmath **** #undef floor
  64:/Library/DaisyToolchain/0.2.0/arm/arm-none-eabi/include/c++/10.3.1/cmath **** #undef fmod
  65:/Library/DaisyToolchain/0.2.0/arm/arm-none-eabi/include/c++/10.3.1/cmath **** #undef frexp
  66:/Library/DaisyToolchain/0.2.0/arm/arm-none-eabi/include/c++/10.3.1/cmath **** #undef ldexp
  67:/Library/DaisyToolchain/0.2.0/arm/arm-none-eabi/include/c++/10.3.1/cmath **** #undef log
  68:/Library/DaisyToolchain/0.2.0/arm/arm-none-eabi/include/c++/10.3.1/cmath **** #undef log10
  69:/Library/DaisyToolchain/0.2.0/arm/arm-none-eabi/include/c++/10.3.1/cmath **** #undef modf
  70:/Library/DaisyToolchain/0.2.0/arm/arm-none-eabi/include/c++/10.3.1/cmath **** #undef pow
  71:/Library/DaisyToolchain/0.2.0/arm/arm-none-eabi/include/c++/10.3.1/cmath **** #undef sin
  72:/Library/DaisyToolchain/0.2.0/arm/arm-none-eabi/include/c++/10.3.1/cmath **** #undef sinh
  73:/Library/DaisyToolchain/0.2.0/arm/arm-none-eabi/include/c++/10.3.1/cmath **** #undef sqrt
  74:/Library/DaisyToolchain/0.2.0/arm/arm-none-eabi/include/c++/10.3.1/cmath **** #undef tan
  75:/Library/DaisyToolchain/0.2.0/arm/arm-none-eabi/include/c++/10.3.1/cmath **** #undef tanh
  76:/Library/DaisyToolchain/0.2.0/arm/arm-none-eabi/include/c++/10.3.1/cmath **** 
  77:/Library/DaisyToolchain/0.2.0/arm/arm-none-eabi/include/c++/10.3.1/cmath **** extern "C++"
  78:/Library/DaisyToolchain/0.2.0/arm/arm-none-eabi/include/c++/10.3.1/cmath **** {
  79:/Library/DaisyToolchain/0.2.0/arm/arm-none-eabi/include/c++/10.3.1/cmath **** namespace std _GLIBCXX_VISIBILITY(default)
  80:/Library/DaisyToolchain/0.2.0/arm/arm-none-eabi/include/c++/10.3.1/cmath **** {
  81:/Library/DaisyToolchain/0.2.0/arm/arm-none-eabi/include/c++/10.3.1/cmath **** _GLIBCXX_BEGIN_NAMESPACE_VERSION
  82:/Library/DaisyToolchain/0.2.0/arm/arm-none-eabi/include/c++/10.3.1/cmath **** 
  83:/Library/DaisyToolchain/0.2.0/arm/arm-none-eabi/include/c++/10.3.1/cmath ****   using ::acos;
  84:/Library/DaisyToolchain/0.2.0/arm/arm-none-eabi/include/c++/10.3.1/cmath **** 
  85:/Library/DaisyToolchain/0.2.0/arm/arm-none-eabi/include/c++/10.3.1/cmath **** #ifndef __CORRECT_ISO_CPP_MATH_H_PROTO
  86:/Library/DaisyToolchain/0.2.0/arm/arm-none-eabi/include/c++/10.3.1/cmath ****   inline _GLIBCXX_CONSTEXPR float
  87:/Library/DaisyToolchain/0.2.0/arm/arm-none-eabi/include/c++/10.3.1/cmath ****   acos(float __x)
  88:/Library/DaisyToolchain/0.2.0/arm/arm-none-eabi/include/c++/10.3.1/cmath ****   { return __builtin_acosf(__x); }
  89:/Library/DaisyToolchain/0.2.0/arm/arm-none-eabi/include/c++/10.3.1/cmath **** 
  90:/Library/DaisyToolchain/0.2.0/arm/arm-none-eabi/include/c++/10.3.1/cmath ****   inline _GLIBCXX_CONSTEXPR long double
  91:/Library/DaisyToolchain/0.2.0/arm/arm-none-eabi/include/c++/10.3.1/cmath ****   acos(long double __x)
  92:/Library/DaisyToolchain/0.2.0/arm/arm-none-eabi/include/c++/10.3.1/cmath ****   { return __builtin_acosl(__x); }
  93:/Library/DaisyToolchain/0.2.0/arm/arm-none-eabi/include/c++/10.3.1/cmath **** #endif
  94:/Library/DaisyToolchain/0.2.0/arm/arm-none-eabi/include/c++/10.3.1/cmath **** 
  95:/Library/DaisyToolchain/0.2.0/arm/arm-none-eabi/include/c++/10.3.1/cmath ****   template<typename _Tp>
  96:/Library/DaisyToolchain/0.2.0/arm/arm-none-eabi/include/c++/10.3.1/cmath ****     inline _GLIBCXX_CONSTEXPR
  97:/Library/DaisyToolchain/0.2.0/arm/arm-none-eabi/include/c++/10.3.1/cmath ****     typename __gnu_cxx::__enable_if<__is_integer<_Tp>::__value, 
  98:/Library/DaisyToolchain/0.2.0/arm/arm-none-eabi/include/c++/10.3.1/cmath ****                                     double>::__type
  99:/Library/DaisyToolchain/0.2.0/arm/arm-none-eabi/include/c++/10.3.1/cmath ****     acos(_Tp __x)
 100:/Library/DaisyToolchain/0.2.0/arm/arm-none-eabi/include/c++/10.3.1/cmath ****     { return __builtin_acos(__x); }
 101:/Library/DaisyToolchain/0.2.0/arm/arm-none-eabi/include/c++/10.3.1/cmath **** 
 102:/Library/DaisyToolchain/0.2.0/arm/arm-none-eabi/include/c++/10.3.1/cmath ****   using ::asin;
 103:/Library/DaisyToolchain/0.2.0/arm/arm-none-eabi/include/c++/10.3.1/cmath **** 
 104:/Library/DaisyToolchain/0.2.0/arm/arm-none-eabi/include/c++/10.3.1/cmath **** #ifndef __CORRECT_ISO_CPP_MATH_H_PROTO
 105:/Library/DaisyToolchain/0.2.0/arm/arm-none-eabi/include/c++/10.3.1/cmath ****   inline _GLIBCXX_CONSTEXPR float
 106:/Library/DaisyToolchain/0.2.0/arm/arm-none-eabi/include/c++/10.3.1/cmath ****   asin(float __x)
 107:/Library/DaisyToolchain/0.2.0/arm/arm-none-eabi/include/c++/10.3.1/cmath ****   { return __builtin_asinf(__x); }
 108:/Library/DaisyToolchain/0.2.0/arm/arm-none-eabi/include/c++/10.3.1/cmath **** 
 109:/Library/DaisyToolchain/0.2.0/arm/arm-none-eabi/include/c++/10.3.1/cmath ****   inline _GLIBCXX_CONSTEXPR long double
 110:/Library/DaisyToolchain/0.2.0/arm/arm-none-eabi/include/c++/10.3.1/cmath ****   asin(long double __x)
 111:/Library/DaisyToolchain/0.2.0/arm/arm-none-eabi/include/c++/10.3.1/cmath ****   { return __builtin_asinl(__x); }
 112:/Library/DaisyToolchain/0.2.0/arm/arm-none-eabi/include/c++/10.3.1/cmath **** #endif
 113:/Library/DaisyToolchain/0.2.0/arm/arm-none-eabi/include/c++/10.3.1/cmath **** 
 114:/Library/DaisyToolchain/0.2.0/arm/arm-none-eabi/include/c++/10.3.1/cmath ****   template<typename _Tp>
ARM GAS  /var/folders/hp/45mn71hd0ps5f5pnytxy5bt00000gn/T//ccdvmoSj.s 			page 62


 115:/Library/DaisyToolchain/0.2.0/arm/arm-none-eabi/include/c++/10.3.1/cmath ****     inline _GLIBCXX_CONSTEXPR
 116:/Library/DaisyToolchain/0.2.0/arm/arm-none-eabi/include/c++/10.3.1/cmath ****     typename __gnu_cxx::__enable_if<__is_integer<_Tp>::__value,
 117:/Library/DaisyToolchain/0.2.0/arm/arm-none-eabi/include/c++/10.3.1/cmath ****                                     double>::__type
 118:/Library/DaisyToolchain/0.2.0/arm/arm-none-eabi/include/c++/10.3.1/cmath ****     asin(_Tp __x)
 119:/Library/DaisyToolchain/0.2.0/arm/arm-none-eabi/include/c++/10.3.1/cmath ****     { return __builtin_asin(__x); }
 120:/Library/DaisyToolchain/0.2.0/arm/arm-none-eabi/include/c++/10.3.1/cmath **** 
 121:/Library/DaisyToolchain/0.2.0/arm/arm-none-eabi/include/c++/10.3.1/cmath ****   using ::atan;
 122:/Library/DaisyToolchain/0.2.0/arm/arm-none-eabi/include/c++/10.3.1/cmath **** 
 123:/Library/DaisyToolchain/0.2.0/arm/arm-none-eabi/include/c++/10.3.1/cmath **** #ifndef __CORRECT_ISO_CPP_MATH_H_PROTO
 124:/Library/DaisyToolchain/0.2.0/arm/arm-none-eabi/include/c++/10.3.1/cmath ****   inline _GLIBCXX_CONSTEXPR float
 125:/Library/DaisyToolchain/0.2.0/arm/arm-none-eabi/include/c++/10.3.1/cmath ****   atan(float __x)
 126:/Library/DaisyToolchain/0.2.0/arm/arm-none-eabi/include/c++/10.3.1/cmath ****   { return __builtin_atanf(__x); }
 127:/Library/DaisyToolchain/0.2.0/arm/arm-none-eabi/include/c++/10.3.1/cmath **** 
 128:/Library/DaisyToolchain/0.2.0/arm/arm-none-eabi/include/c++/10.3.1/cmath ****   inline _GLIBCXX_CONSTEXPR long double
 129:/Library/DaisyToolchain/0.2.0/arm/arm-none-eabi/include/c++/10.3.1/cmath ****   atan(long double __x)
 130:/Library/DaisyToolchain/0.2.0/arm/arm-none-eabi/include/c++/10.3.1/cmath ****   { return __builtin_atanl(__x); }
 131:/Library/DaisyToolchain/0.2.0/arm/arm-none-eabi/include/c++/10.3.1/cmath **** #endif
 132:/Library/DaisyToolchain/0.2.0/arm/arm-none-eabi/include/c++/10.3.1/cmath **** 
 133:/Library/DaisyToolchain/0.2.0/arm/arm-none-eabi/include/c++/10.3.1/cmath ****   template<typename _Tp>
 134:/Library/DaisyToolchain/0.2.0/arm/arm-none-eabi/include/c++/10.3.1/cmath ****     inline _GLIBCXX_CONSTEXPR
 135:/Library/DaisyToolchain/0.2.0/arm/arm-none-eabi/include/c++/10.3.1/cmath ****     typename __gnu_cxx::__enable_if<__is_integer<_Tp>::__value,
 136:/Library/DaisyToolchain/0.2.0/arm/arm-none-eabi/include/c++/10.3.1/cmath ****                                     double>::__type
 137:/Library/DaisyToolchain/0.2.0/arm/arm-none-eabi/include/c++/10.3.1/cmath ****     atan(_Tp __x)
 138:/Library/DaisyToolchain/0.2.0/arm/arm-none-eabi/include/c++/10.3.1/cmath ****     { return __builtin_atan(__x); }
 139:/Library/DaisyToolchain/0.2.0/arm/arm-none-eabi/include/c++/10.3.1/cmath **** 
 140:/Library/DaisyToolchain/0.2.0/arm/arm-none-eabi/include/c++/10.3.1/cmath ****   using ::atan2;
 141:/Library/DaisyToolchain/0.2.0/arm/arm-none-eabi/include/c++/10.3.1/cmath **** 
 142:/Library/DaisyToolchain/0.2.0/arm/arm-none-eabi/include/c++/10.3.1/cmath **** #ifndef __CORRECT_ISO_CPP_MATH_H_PROTO
 143:/Library/DaisyToolchain/0.2.0/arm/arm-none-eabi/include/c++/10.3.1/cmath ****   inline _GLIBCXX_CONSTEXPR float
 144:/Library/DaisyToolchain/0.2.0/arm/arm-none-eabi/include/c++/10.3.1/cmath ****   atan2(float __y, float __x)
 145:/Library/DaisyToolchain/0.2.0/arm/arm-none-eabi/include/c++/10.3.1/cmath ****   { return __builtin_atan2f(__y, __x); }
 146:/Library/DaisyToolchain/0.2.0/arm/arm-none-eabi/include/c++/10.3.1/cmath **** 
 147:/Library/DaisyToolchain/0.2.0/arm/arm-none-eabi/include/c++/10.3.1/cmath ****   inline _GLIBCXX_CONSTEXPR long double
 148:/Library/DaisyToolchain/0.2.0/arm/arm-none-eabi/include/c++/10.3.1/cmath ****   atan2(long double __y, long double __x)
 149:/Library/DaisyToolchain/0.2.0/arm/arm-none-eabi/include/c++/10.3.1/cmath ****   { return __builtin_atan2l(__y, __x); }
 150:/Library/DaisyToolchain/0.2.0/arm/arm-none-eabi/include/c++/10.3.1/cmath **** #endif
 151:/Library/DaisyToolchain/0.2.0/arm/arm-none-eabi/include/c++/10.3.1/cmath **** 
 152:/Library/DaisyToolchain/0.2.0/arm/arm-none-eabi/include/c++/10.3.1/cmath ****   template<typename _Tp, typename _Up>
 153:/Library/DaisyToolchain/0.2.0/arm/arm-none-eabi/include/c++/10.3.1/cmath ****     inline _GLIBCXX_CONSTEXPR
 154:/Library/DaisyToolchain/0.2.0/arm/arm-none-eabi/include/c++/10.3.1/cmath ****     typename __gnu_cxx::__promote_2<_Tp, _Up>::__type
 155:/Library/DaisyToolchain/0.2.0/arm/arm-none-eabi/include/c++/10.3.1/cmath ****     atan2(_Tp __y, _Up __x)
 156:/Library/DaisyToolchain/0.2.0/arm/arm-none-eabi/include/c++/10.3.1/cmath ****     {
 157:/Library/DaisyToolchain/0.2.0/arm/arm-none-eabi/include/c++/10.3.1/cmath ****       typedef typename __gnu_cxx::__promote_2<_Tp, _Up>::__type __type;
 158:/Library/DaisyToolchain/0.2.0/arm/arm-none-eabi/include/c++/10.3.1/cmath ****       return atan2(__type(__y), __type(__x));
 159:/Library/DaisyToolchain/0.2.0/arm/arm-none-eabi/include/c++/10.3.1/cmath ****     }
 160:/Library/DaisyToolchain/0.2.0/arm/arm-none-eabi/include/c++/10.3.1/cmath **** 
 161:/Library/DaisyToolchain/0.2.0/arm/arm-none-eabi/include/c++/10.3.1/cmath ****   using ::ceil;
 162:/Library/DaisyToolchain/0.2.0/arm/arm-none-eabi/include/c++/10.3.1/cmath **** 
 163:/Library/DaisyToolchain/0.2.0/arm/arm-none-eabi/include/c++/10.3.1/cmath **** #ifndef __CORRECT_ISO_CPP_MATH_H_PROTO
 164:/Library/DaisyToolchain/0.2.0/arm/arm-none-eabi/include/c++/10.3.1/cmath ****   inline _GLIBCXX_CONSTEXPR float
 165:/Library/DaisyToolchain/0.2.0/arm/arm-none-eabi/include/c++/10.3.1/cmath ****   ceil(float __x)
 166:/Library/DaisyToolchain/0.2.0/arm/arm-none-eabi/include/c++/10.3.1/cmath ****   { return __builtin_ceilf(__x); }
 167:/Library/DaisyToolchain/0.2.0/arm/arm-none-eabi/include/c++/10.3.1/cmath **** 
 168:/Library/DaisyToolchain/0.2.0/arm/arm-none-eabi/include/c++/10.3.1/cmath ****   inline _GLIBCXX_CONSTEXPR long double
 169:/Library/DaisyToolchain/0.2.0/arm/arm-none-eabi/include/c++/10.3.1/cmath ****   ceil(long double __x)
 170:/Library/DaisyToolchain/0.2.0/arm/arm-none-eabi/include/c++/10.3.1/cmath ****   { return __builtin_ceill(__x); }
 171:/Library/DaisyToolchain/0.2.0/arm/arm-none-eabi/include/c++/10.3.1/cmath **** #endif
ARM GAS  /var/folders/hp/45mn71hd0ps5f5pnytxy5bt00000gn/T//ccdvmoSj.s 			page 63


 172:/Library/DaisyToolchain/0.2.0/arm/arm-none-eabi/include/c++/10.3.1/cmath **** 
 173:/Library/DaisyToolchain/0.2.0/arm/arm-none-eabi/include/c++/10.3.1/cmath ****   template<typename _Tp>
 174:/Library/DaisyToolchain/0.2.0/arm/arm-none-eabi/include/c++/10.3.1/cmath ****     inline _GLIBCXX_CONSTEXPR
 175:/Library/DaisyToolchain/0.2.0/arm/arm-none-eabi/include/c++/10.3.1/cmath ****     typename __gnu_cxx::__enable_if<__is_integer<_Tp>::__value, 
 176:/Library/DaisyToolchain/0.2.0/arm/arm-none-eabi/include/c++/10.3.1/cmath ****                                     double>::__type
 177:/Library/DaisyToolchain/0.2.0/arm/arm-none-eabi/include/c++/10.3.1/cmath ****     ceil(_Tp __x)
 178:/Library/DaisyToolchain/0.2.0/arm/arm-none-eabi/include/c++/10.3.1/cmath ****     { return __builtin_ceil(__x); }
 179:/Library/DaisyToolchain/0.2.0/arm/arm-none-eabi/include/c++/10.3.1/cmath **** 
 180:/Library/DaisyToolchain/0.2.0/arm/arm-none-eabi/include/c++/10.3.1/cmath ****   using ::cos;
 181:/Library/DaisyToolchain/0.2.0/arm/arm-none-eabi/include/c++/10.3.1/cmath **** 
 182:/Library/DaisyToolchain/0.2.0/arm/arm-none-eabi/include/c++/10.3.1/cmath **** #ifndef __CORRECT_ISO_CPP_MATH_H_PROTO
 183:/Library/DaisyToolchain/0.2.0/arm/arm-none-eabi/include/c++/10.3.1/cmath ****   inline _GLIBCXX_CONSTEXPR float
 184:/Library/DaisyToolchain/0.2.0/arm/arm-none-eabi/include/c++/10.3.1/cmath ****   cos(float __x)
 185:/Library/DaisyToolchain/0.2.0/arm/arm-none-eabi/include/c++/10.3.1/cmath ****   { return __builtin_cosf(__x); }
 1795              		.loc 9 185 26 view .LVU391
 1796 0050 B0EE680A 		vmov.f32	s0, s17
 1797 0054 FFF7FEFF 		bl	cosf
 1798              	.LVL131:
 1799              		.loc 9 185 26 view .LVU392
 1800              	.LBE608:
 1801              	.LBE607:
 315:../../DaisyExamples/libDaisy//src/hid/disp/display.h ****         start_y = -sin(start_angle_rad) * radius;
 1802              		.loc 8 315 17 view .LVU393
 1803 0058 07EE907A 		vmov	s15, r7	@ int
 313:../../DaisyExamples/libDaisy//src/hid/disp/display.h **** 
 1804              		.loc 8 313 25 view .LVU394
 1805 005c B7EECAAB 		vcvt.f32.f64	s20, d10
 1806              	.LVL132:
 1807              	.LBB611:
 1808              	.LBI607:
 184:/Library/DaisyToolchain/0.2.0/arm/arm-none-eabi/include/c++/10.3.1/cmath ****   { return __builtin_cosf(__x); }
 1809              		.loc 9 184 3 is_stmt 1 view .LVU395
 1810              	.LBB609:
 1811              		.loc 9 185 5 view .LVU396
 1812              		.loc 9 185 5 is_stmt 0 view .LVU397
 1813              	.LBE609:
 1814              	.LBE611:
 315:../../DaisyExamples/libDaisy//src/hid/disp/display.h ****         start_y = -sin(start_angle_rad) * radius;
 1815              		.loc 8 315 17 view .LVU398
 1816 0060 F8EE679A 		vcvt.f32.u32	s19, s15
 1817              	.LBB612:
 1818              	.LBB610:
 1819              		.loc 9 185 26 view .LVU399
 1820 0064 B0EE408A 		vmov.f32	s16, s0
 1821              	.LBE610:
 1822              	.LBE612:
 1823              	.LBB613:
 1824              	.LBB614:
 186:/Library/DaisyToolchain/0.2.0/arm/arm-none-eabi/include/c++/10.3.1/cmath **** 
 187:/Library/DaisyToolchain/0.2.0/arm/arm-none-eabi/include/c++/10.3.1/cmath ****   inline _GLIBCXX_CONSTEXPR long double
 188:/Library/DaisyToolchain/0.2.0/arm/arm-none-eabi/include/c++/10.3.1/cmath ****   cos(long double __x)
 189:/Library/DaisyToolchain/0.2.0/arm/arm-none-eabi/include/c++/10.3.1/cmath ****   { return __builtin_cosl(__x); }
 190:/Library/DaisyToolchain/0.2.0/arm/arm-none-eabi/include/c++/10.3.1/cmath **** #endif
 191:/Library/DaisyToolchain/0.2.0/arm/arm-none-eabi/include/c++/10.3.1/cmath **** 
 192:/Library/DaisyToolchain/0.2.0/arm/arm-none-eabi/include/c++/10.3.1/cmath ****   template<typename _Tp>
 193:/Library/DaisyToolchain/0.2.0/arm/arm-none-eabi/include/c++/10.3.1/cmath ****     inline _GLIBCXX_CONSTEXPR
 194:/Library/DaisyToolchain/0.2.0/arm/arm-none-eabi/include/c++/10.3.1/cmath ****     typename __gnu_cxx::__enable_if<__is_integer<_Tp>::__value,
ARM GAS  /var/folders/hp/45mn71hd0ps5f5pnytxy5bt00000gn/T//ccdvmoSj.s 			page 64


 195:/Library/DaisyToolchain/0.2.0/arm/arm-none-eabi/include/c++/10.3.1/cmath ****                                     double>::__type
 196:/Library/DaisyToolchain/0.2.0/arm/arm-none-eabi/include/c++/10.3.1/cmath ****     cos(_Tp __x)
 197:/Library/DaisyToolchain/0.2.0/arm/arm-none-eabi/include/c++/10.3.1/cmath ****     { return __builtin_cos(__x); }
 198:/Library/DaisyToolchain/0.2.0/arm/arm-none-eabi/include/c++/10.3.1/cmath **** 
 199:/Library/DaisyToolchain/0.2.0/arm/arm-none-eabi/include/c++/10.3.1/cmath ****   using ::cosh;
 200:/Library/DaisyToolchain/0.2.0/arm/arm-none-eabi/include/c++/10.3.1/cmath **** 
 201:/Library/DaisyToolchain/0.2.0/arm/arm-none-eabi/include/c++/10.3.1/cmath **** #ifndef __CORRECT_ISO_CPP_MATH_H_PROTO
 202:/Library/DaisyToolchain/0.2.0/arm/arm-none-eabi/include/c++/10.3.1/cmath ****   inline _GLIBCXX_CONSTEXPR float
 203:/Library/DaisyToolchain/0.2.0/arm/arm-none-eabi/include/c++/10.3.1/cmath ****   cosh(float __x)
 204:/Library/DaisyToolchain/0.2.0/arm/arm-none-eabi/include/c++/10.3.1/cmath ****   { return __builtin_coshf(__x); }
 205:/Library/DaisyToolchain/0.2.0/arm/arm-none-eabi/include/c++/10.3.1/cmath **** 
 206:/Library/DaisyToolchain/0.2.0/arm/arm-none-eabi/include/c++/10.3.1/cmath ****   inline _GLIBCXX_CONSTEXPR long double
 207:/Library/DaisyToolchain/0.2.0/arm/arm-none-eabi/include/c++/10.3.1/cmath ****   cosh(long double __x)
 208:/Library/DaisyToolchain/0.2.0/arm/arm-none-eabi/include/c++/10.3.1/cmath ****   { return __builtin_coshl(__x); }
 209:/Library/DaisyToolchain/0.2.0/arm/arm-none-eabi/include/c++/10.3.1/cmath **** #endif
 210:/Library/DaisyToolchain/0.2.0/arm/arm-none-eabi/include/c++/10.3.1/cmath **** 
 211:/Library/DaisyToolchain/0.2.0/arm/arm-none-eabi/include/c++/10.3.1/cmath ****   template<typename _Tp>
 212:/Library/DaisyToolchain/0.2.0/arm/arm-none-eabi/include/c++/10.3.1/cmath ****     inline _GLIBCXX_CONSTEXPR
 213:/Library/DaisyToolchain/0.2.0/arm/arm-none-eabi/include/c++/10.3.1/cmath ****     typename __gnu_cxx::__enable_if<__is_integer<_Tp>::__value,
 214:/Library/DaisyToolchain/0.2.0/arm/arm-none-eabi/include/c++/10.3.1/cmath ****                                     double>::__type
 215:/Library/DaisyToolchain/0.2.0/arm/arm-none-eabi/include/c++/10.3.1/cmath ****     cosh(_Tp __x)
 216:/Library/DaisyToolchain/0.2.0/arm/arm-none-eabi/include/c++/10.3.1/cmath ****     { return __builtin_cosh(__x); }
 217:/Library/DaisyToolchain/0.2.0/arm/arm-none-eabi/include/c++/10.3.1/cmath **** 
 218:/Library/DaisyToolchain/0.2.0/arm/arm-none-eabi/include/c++/10.3.1/cmath ****   using ::exp;
 219:/Library/DaisyToolchain/0.2.0/arm/arm-none-eabi/include/c++/10.3.1/cmath **** 
 220:/Library/DaisyToolchain/0.2.0/arm/arm-none-eabi/include/c++/10.3.1/cmath **** #ifndef __CORRECT_ISO_CPP_MATH_H_PROTO
 221:/Library/DaisyToolchain/0.2.0/arm/arm-none-eabi/include/c++/10.3.1/cmath ****   inline _GLIBCXX_CONSTEXPR float
 222:/Library/DaisyToolchain/0.2.0/arm/arm-none-eabi/include/c++/10.3.1/cmath ****   exp(float __x)
 223:/Library/DaisyToolchain/0.2.0/arm/arm-none-eabi/include/c++/10.3.1/cmath ****   { return __builtin_expf(__x); }
 224:/Library/DaisyToolchain/0.2.0/arm/arm-none-eabi/include/c++/10.3.1/cmath **** 
 225:/Library/DaisyToolchain/0.2.0/arm/arm-none-eabi/include/c++/10.3.1/cmath ****   inline _GLIBCXX_CONSTEXPR long double
 226:/Library/DaisyToolchain/0.2.0/arm/arm-none-eabi/include/c++/10.3.1/cmath ****   exp(long double __x)
 227:/Library/DaisyToolchain/0.2.0/arm/arm-none-eabi/include/c++/10.3.1/cmath ****   { return __builtin_expl(__x); }
 228:/Library/DaisyToolchain/0.2.0/arm/arm-none-eabi/include/c++/10.3.1/cmath **** #endif
 229:/Library/DaisyToolchain/0.2.0/arm/arm-none-eabi/include/c++/10.3.1/cmath **** 
 230:/Library/DaisyToolchain/0.2.0/arm/arm-none-eabi/include/c++/10.3.1/cmath ****   template<typename _Tp>
 231:/Library/DaisyToolchain/0.2.0/arm/arm-none-eabi/include/c++/10.3.1/cmath ****     inline _GLIBCXX_CONSTEXPR
 232:/Library/DaisyToolchain/0.2.0/arm/arm-none-eabi/include/c++/10.3.1/cmath ****     typename __gnu_cxx::__enable_if<__is_integer<_Tp>::__value,
 233:/Library/DaisyToolchain/0.2.0/arm/arm-none-eabi/include/c++/10.3.1/cmath ****                                     double>::__type
 234:/Library/DaisyToolchain/0.2.0/arm/arm-none-eabi/include/c++/10.3.1/cmath ****     exp(_Tp __x)
 235:/Library/DaisyToolchain/0.2.0/arm/arm-none-eabi/include/c++/10.3.1/cmath ****     { return __builtin_exp(__x); }
 236:/Library/DaisyToolchain/0.2.0/arm/arm-none-eabi/include/c++/10.3.1/cmath **** 
 237:/Library/DaisyToolchain/0.2.0/arm/arm-none-eabi/include/c++/10.3.1/cmath ****   using ::fabs;
 238:/Library/DaisyToolchain/0.2.0/arm/arm-none-eabi/include/c++/10.3.1/cmath **** 
 239:/Library/DaisyToolchain/0.2.0/arm/arm-none-eabi/include/c++/10.3.1/cmath **** #ifndef __CORRECT_ISO_CPP_MATH_H_PROTO
 240:/Library/DaisyToolchain/0.2.0/arm/arm-none-eabi/include/c++/10.3.1/cmath ****   inline _GLIBCXX_CONSTEXPR float
 241:/Library/DaisyToolchain/0.2.0/arm/arm-none-eabi/include/c++/10.3.1/cmath ****   fabs(float __x)
 242:/Library/DaisyToolchain/0.2.0/arm/arm-none-eabi/include/c++/10.3.1/cmath ****   { return __builtin_fabsf(__x); }
 243:/Library/DaisyToolchain/0.2.0/arm/arm-none-eabi/include/c++/10.3.1/cmath **** 
 244:/Library/DaisyToolchain/0.2.0/arm/arm-none-eabi/include/c++/10.3.1/cmath ****   inline _GLIBCXX_CONSTEXPR long double
 245:/Library/DaisyToolchain/0.2.0/arm/arm-none-eabi/include/c++/10.3.1/cmath ****   fabs(long double __x)
 246:/Library/DaisyToolchain/0.2.0/arm/arm-none-eabi/include/c++/10.3.1/cmath ****   { return __builtin_fabsl(__x); }
 247:/Library/DaisyToolchain/0.2.0/arm/arm-none-eabi/include/c++/10.3.1/cmath **** #endif
 248:/Library/DaisyToolchain/0.2.0/arm/arm-none-eabi/include/c++/10.3.1/cmath **** 
 249:/Library/DaisyToolchain/0.2.0/arm/arm-none-eabi/include/c++/10.3.1/cmath ****   template<typename _Tp>
 250:/Library/DaisyToolchain/0.2.0/arm/arm-none-eabi/include/c++/10.3.1/cmath ****     inline _GLIBCXX_CONSTEXPR
 251:/Library/DaisyToolchain/0.2.0/arm/arm-none-eabi/include/c++/10.3.1/cmath ****     typename __gnu_cxx::__enable_if<__is_integer<_Tp>::__value,
ARM GAS  /var/folders/hp/45mn71hd0ps5f5pnytxy5bt00000gn/T//ccdvmoSj.s 			page 65


 252:/Library/DaisyToolchain/0.2.0/arm/arm-none-eabi/include/c++/10.3.1/cmath ****                                     double>::__type
 253:/Library/DaisyToolchain/0.2.0/arm/arm-none-eabi/include/c++/10.3.1/cmath ****     fabs(_Tp __x)
 254:/Library/DaisyToolchain/0.2.0/arm/arm-none-eabi/include/c++/10.3.1/cmath ****     { return __builtin_fabs(__x); }
 255:/Library/DaisyToolchain/0.2.0/arm/arm-none-eabi/include/c++/10.3.1/cmath **** 
 256:/Library/DaisyToolchain/0.2.0/arm/arm-none-eabi/include/c++/10.3.1/cmath ****   using ::floor;
 257:/Library/DaisyToolchain/0.2.0/arm/arm-none-eabi/include/c++/10.3.1/cmath **** 
 258:/Library/DaisyToolchain/0.2.0/arm/arm-none-eabi/include/c++/10.3.1/cmath **** #ifndef __CORRECT_ISO_CPP_MATH_H_PROTO
 259:/Library/DaisyToolchain/0.2.0/arm/arm-none-eabi/include/c++/10.3.1/cmath ****   inline _GLIBCXX_CONSTEXPR float
 260:/Library/DaisyToolchain/0.2.0/arm/arm-none-eabi/include/c++/10.3.1/cmath ****   floor(float __x)
 261:/Library/DaisyToolchain/0.2.0/arm/arm-none-eabi/include/c++/10.3.1/cmath ****   { return __builtin_floorf(__x); }
 262:/Library/DaisyToolchain/0.2.0/arm/arm-none-eabi/include/c++/10.3.1/cmath **** 
 263:/Library/DaisyToolchain/0.2.0/arm/arm-none-eabi/include/c++/10.3.1/cmath ****   inline _GLIBCXX_CONSTEXPR long double
 264:/Library/DaisyToolchain/0.2.0/arm/arm-none-eabi/include/c++/10.3.1/cmath ****   floor(long double __x)
 265:/Library/DaisyToolchain/0.2.0/arm/arm-none-eabi/include/c++/10.3.1/cmath ****   { return __builtin_floorl(__x); }
 266:/Library/DaisyToolchain/0.2.0/arm/arm-none-eabi/include/c++/10.3.1/cmath **** #endif
 267:/Library/DaisyToolchain/0.2.0/arm/arm-none-eabi/include/c++/10.3.1/cmath **** 
 268:/Library/DaisyToolchain/0.2.0/arm/arm-none-eabi/include/c++/10.3.1/cmath ****   template<typename _Tp>
 269:/Library/DaisyToolchain/0.2.0/arm/arm-none-eabi/include/c++/10.3.1/cmath ****     inline _GLIBCXX_CONSTEXPR
 270:/Library/DaisyToolchain/0.2.0/arm/arm-none-eabi/include/c++/10.3.1/cmath ****     typename __gnu_cxx::__enable_if<__is_integer<_Tp>::__value,
 271:/Library/DaisyToolchain/0.2.0/arm/arm-none-eabi/include/c++/10.3.1/cmath ****                                     double>::__type
 272:/Library/DaisyToolchain/0.2.0/arm/arm-none-eabi/include/c++/10.3.1/cmath ****     floor(_Tp __x)
 273:/Library/DaisyToolchain/0.2.0/arm/arm-none-eabi/include/c++/10.3.1/cmath ****     { return __builtin_floor(__x); }
 274:/Library/DaisyToolchain/0.2.0/arm/arm-none-eabi/include/c++/10.3.1/cmath **** 
 275:/Library/DaisyToolchain/0.2.0/arm/arm-none-eabi/include/c++/10.3.1/cmath ****   using ::fmod;
 276:/Library/DaisyToolchain/0.2.0/arm/arm-none-eabi/include/c++/10.3.1/cmath **** 
 277:/Library/DaisyToolchain/0.2.0/arm/arm-none-eabi/include/c++/10.3.1/cmath **** #ifndef __CORRECT_ISO_CPP_MATH_H_PROTO
 278:/Library/DaisyToolchain/0.2.0/arm/arm-none-eabi/include/c++/10.3.1/cmath ****   inline _GLIBCXX_CONSTEXPR float
 279:/Library/DaisyToolchain/0.2.0/arm/arm-none-eabi/include/c++/10.3.1/cmath ****   fmod(float __x, float __y)
 280:/Library/DaisyToolchain/0.2.0/arm/arm-none-eabi/include/c++/10.3.1/cmath ****   { return __builtin_fmodf(__x, __y); }
 281:/Library/DaisyToolchain/0.2.0/arm/arm-none-eabi/include/c++/10.3.1/cmath **** 
 282:/Library/DaisyToolchain/0.2.0/arm/arm-none-eabi/include/c++/10.3.1/cmath ****   inline _GLIBCXX_CONSTEXPR long double
 283:/Library/DaisyToolchain/0.2.0/arm/arm-none-eabi/include/c++/10.3.1/cmath ****   fmod(long double __x, long double __y)
 284:/Library/DaisyToolchain/0.2.0/arm/arm-none-eabi/include/c++/10.3.1/cmath ****   { return __builtin_fmodl(__x, __y); }
 285:/Library/DaisyToolchain/0.2.0/arm/arm-none-eabi/include/c++/10.3.1/cmath **** #endif
 286:/Library/DaisyToolchain/0.2.0/arm/arm-none-eabi/include/c++/10.3.1/cmath **** 
 287:/Library/DaisyToolchain/0.2.0/arm/arm-none-eabi/include/c++/10.3.1/cmath ****   template<typename _Tp, typename _Up>
 288:/Library/DaisyToolchain/0.2.0/arm/arm-none-eabi/include/c++/10.3.1/cmath ****     inline _GLIBCXX_CONSTEXPR
 289:/Library/DaisyToolchain/0.2.0/arm/arm-none-eabi/include/c++/10.3.1/cmath ****     typename __gnu_cxx::__promote_2<_Tp, _Up>::__type
 290:/Library/DaisyToolchain/0.2.0/arm/arm-none-eabi/include/c++/10.3.1/cmath ****     fmod(_Tp __x, _Up __y)
 291:/Library/DaisyToolchain/0.2.0/arm/arm-none-eabi/include/c++/10.3.1/cmath ****     {
 292:/Library/DaisyToolchain/0.2.0/arm/arm-none-eabi/include/c++/10.3.1/cmath ****       typedef typename __gnu_cxx::__promote_2<_Tp, _Up>::__type __type;
 293:/Library/DaisyToolchain/0.2.0/arm/arm-none-eabi/include/c++/10.3.1/cmath ****       return fmod(__type(__x), __type(__y));
 294:/Library/DaisyToolchain/0.2.0/arm/arm-none-eabi/include/c++/10.3.1/cmath ****     }
 295:/Library/DaisyToolchain/0.2.0/arm/arm-none-eabi/include/c++/10.3.1/cmath **** 
 296:/Library/DaisyToolchain/0.2.0/arm/arm-none-eabi/include/c++/10.3.1/cmath ****   using ::frexp;
 297:/Library/DaisyToolchain/0.2.0/arm/arm-none-eabi/include/c++/10.3.1/cmath **** 
 298:/Library/DaisyToolchain/0.2.0/arm/arm-none-eabi/include/c++/10.3.1/cmath **** #ifndef __CORRECT_ISO_CPP_MATH_H_PROTO
 299:/Library/DaisyToolchain/0.2.0/arm/arm-none-eabi/include/c++/10.3.1/cmath ****   inline float
 300:/Library/DaisyToolchain/0.2.0/arm/arm-none-eabi/include/c++/10.3.1/cmath ****   frexp(float __x, int* __exp)
 301:/Library/DaisyToolchain/0.2.0/arm/arm-none-eabi/include/c++/10.3.1/cmath ****   { return __builtin_frexpf(__x, __exp); }
 302:/Library/DaisyToolchain/0.2.0/arm/arm-none-eabi/include/c++/10.3.1/cmath **** 
 303:/Library/DaisyToolchain/0.2.0/arm/arm-none-eabi/include/c++/10.3.1/cmath ****   inline long double
 304:/Library/DaisyToolchain/0.2.0/arm/arm-none-eabi/include/c++/10.3.1/cmath ****   frexp(long double __x, int* __exp)
 305:/Library/DaisyToolchain/0.2.0/arm/arm-none-eabi/include/c++/10.3.1/cmath ****   { return __builtin_frexpl(__x, __exp); }
 306:/Library/DaisyToolchain/0.2.0/arm/arm-none-eabi/include/c++/10.3.1/cmath **** #endif
 307:/Library/DaisyToolchain/0.2.0/arm/arm-none-eabi/include/c++/10.3.1/cmath **** 
 308:/Library/DaisyToolchain/0.2.0/arm/arm-none-eabi/include/c++/10.3.1/cmath ****   template<typename _Tp>
ARM GAS  /var/folders/hp/45mn71hd0ps5f5pnytxy5bt00000gn/T//ccdvmoSj.s 			page 66


 309:/Library/DaisyToolchain/0.2.0/arm/arm-none-eabi/include/c++/10.3.1/cmath ****     inline _GLIBCXX_CONSTEXPR
 310:/Library/DaisyToolchain/0.2.0/arm/arm-none-eabi/include/c++/10.3.1/cmath ****     typename __gnu_cxx::__enable_if<__is_integer<_Tp>::__value, 
 311:/Library/DaisyToolchain/0.2.0/arm/arm-none-eabi/include/c++/10.3.1/cmath ****                                     double>::__type
 312:/Library/DaisyToolchain/0.2.0/arm/arm-none-eabi/include/c++/10.3.1/cmath ****     frexp(_Tp __x, int* __exp)
 313:/Library/DaisyToolchain/0.2.0/arm/arm-none-eabi/include/c++/10.3.1/cmath ****     { return __builtin_frexp(__x, __exp); }
 314:/Library/DaisyToolchain/0.2.0/arm/arm-none-eabi/include/c++/10.3.1/cmath **** 
 315:/Library/DaisyToolchain/0.2.0/arm/arm-none-eabi/include/c++/10.3.1/cmath ****   using ::ldexp;
 316:/Library/DaisyToolchain/0.2.0/arm/arm-none-eabi/include/c++/10.3.1/cmath **** 
 317:/Library/DaisyToolchain/0.2.0/arm/arm-none-eabi/include/c++/10.3.1/cmath **** #ifndef __CORRECT_ISO_CPP_MATH_H_PROTO
 318:/Library/DaisyToolchain/0.2.0/arm/arm-none-eabi/include/c++/10.3.1/cmath ****   inline _GLIBCXX_CONSTEXPR float
 319:/Library/DaisyToolchain/0.2.0/arm/arm-none-eabi/include/c++/10.3.1/cmath ****   ldexp(float __x, int __exp)
 320:/Library/DaisyToolchain/0.2.0/arm/arm-none-eabi/include/c++/10.3.1/cmath ****   { return __builtin_ldexpf(__x, __exp); }
 321:/Library/DaisyToolchain/0.2.0/arm/arm-none-eabi/include/c++/10.3.1/cmath **** 
 322:/Library/DaisyToolchain/0.2.0/arm/arm-none-eabi/include/c++/10.3.1/cmath ****   inline _GLIBCXX_CONSTEXPR long double
 323:/Library/DaisyToolchain/0.2.0/arm/arm-none-eabi/include/c++/10.3.1/cmath ****   ldexp(long double __x, int __exp)
 324:/Library/DaisyToolchain/0.2.0/arm/arm-none-eabi/include/c++/10.3.1/cmath ****   { return __builtin_ldexpl(__x, __exp); }
 325:/Library/DaisyToolchain/0.2.0/arm/arm-none-eabi/include/c++/10.3.1/cmath **** #endif
 326:/Library/DaisyToolchain/0.2.0/arm/arm-none-eabi/include/c++/10.3.1/cmath **** 
 327:/Library/DaisyToolchain/0.2.0/arm/arm-none-eabi/include/c++/10.3.1/cmath ****   template<typename _Tp>
 328:/Library/DaisyToolchain/0.2.0/arm/arm-none-eabi/include/c++/10.3.1/cmath ****     inline _GLIBCXX_CONSTEXPR
 329:/Library/DaisyToolchain/0.2.0/arm/arm-none-eabi/include/c++/10.3.1/cmath ****     typename __gnu_cxx::__enable_if<__is_integer<_Tp>::__value, 
 330:/Library/DaisyToolchain/0.2.0/arm/arm-none-eabi/include/c++/10.3.1/cmath ****                                     double>::__type
 331:/Library/DaisyToolchain/0.2.0/arm/arm-none-eabi/include/c++/10.3.1/cmath ****     ldexp(_Tp __x, int __exp)
 332:/Library/DaisyToolchain/0.2.0/arm/arm-none-eabi/include/c++/10.3.1/cmath ****     { return __builtin_ldexp(__x, __exp); }
 333:/Library/DaisyToolchain/0.2.0/arm/arm-none-eabi/include/c++/10.3.1/cmath **** 
 334:/Library/DaisyToolchain/0.2.0/arm/arm-none-eabi/include/c++/10.3.1/cmath ****   using ::log;
 335:/Library/DaisyToolchain/0.2.0/arm/arm-none-eabi/include/c++/10.3.1/cmath **** 
 336:/Library/DaisyToolchain/0.2.0/arm/arm-none-eabi/include/c++/10.3.1/cmath **** #ifndef __CORRECT_ISO_CPP_MATH_H_PROTO
 337:/Library/DaisyToolchain/0.2.0/arm/arm-none-eabi/include/c++/10.3.1/cmath ****   inline _GLIBCXX_CONSTEXPR float
 338:/Library/DaisyToolchain/0.2.0/arm/arm-none-eabi/include/c++/10.3.1/cmath ****   log(float __x)
 339:/Library/DaisyToolchain/0.2.0/arm/arm-none-eabi/include/c++/10.3.1/cmath ****   { return __builtin_logf(__x); }
 340:/Library/DaisyToolchain/0.2.0/arm/arm-none-eabi/include/c++/10.3.1/cmath **** 
 341:/Library/DaisyToolchain/0.2.0/arm/arm-none-eabi/include/c++/10.3.1/cmath ****   inline _GLIBCXX_CONSTEXPR long double
 342:/Library/DaisyToolchain/0.2.0/arm/arm-none-eabi/include/c++/10.3.1/cmath ****   log(long double __x)
 343:/Library/DaisyToolchain/0.2.0/arm/arm-none-eabi/include/c++/10.3.1/cmath ****   { return __builtin_logl(__x); }
 344:/Library/DaisyToolchain/0.2.0/arm/arm-none-eabi/include/c++/10.3.1/cmath **** #endif
 345:/Library/DaisyToolchain/0.2.0/arm/arm-none-eabi/include/c++/10.3.1/cmath **** 
 346:/Library/DaisyToolchain/0.2.0/arm/arm-none-eabi/include/c++/10.3.1/cmath ****   template<typename _Tp>
 347:/Library/DaisyToolchain/0.2.0/arm/arm-none-eabi/include/c++/10.3.1/cmath ****     inline _GLIBCXX_CONSTEXPR
 348:/Library/DaisyToolchain/0.2.0/arm/arm-none-eabi/include/c++/10.3.1/cmath ****     typename __gnu_cxx::__enable_if<__is_integer<_Tp>::__value, 
 349:/Library/DaisyToolchain/0.2.0/arm/arm-none-eabi/include/c++/10.3.1/cmath ****                                     double>::__type
 350:/Library/DaisyToolchain/0.2.0/arm/arm-none-eabi/include/c++/10.3.1/cmath ****     log(_Tp __x)
 351:/Library/DaisyToolchain/0.2.0/arm/arm-none-eabi/include/c++/10.3.1/cmath ****     { return __builtin_log(__x); }
 352:/Library/DaisyToolchain/0.2.0/arm/arm-none-eabi/include/c++/10.3.1/cmath **** 
 353:/Library/DaisyToolchain/0.2.0/arm/arm-none-eabi/include/c++/10.3.1/cmath ****   using ::log10;
 354:/Library/DaisyToolchain/0.2.0/arm/arm-none-eabi/include/c++/10.3.1/cmath **** 
 355:/Library/DaisyToolchain/0.2.0/arm/arm-none-eabi/include/c++/10.3.1/cmath **** #ifndef __CORRECT_ISO_CPP_MATH_H_PROTO
 356:/Library/DaisyToolchain/0.2.0/arm/arm-none-eabi/include/c++/10.3.1/cmath ****   inline _GLIBCXX_CONSTEXPR float
 357:/Library/DaisyToolchain/0.2.0/arm/arm-none-eabi/include/c++/10.3.1/cmath ****   log10(float __x)
 358:/Library/DaisyToolchain/0.2.0/arm/arm-none-eabi/include/c++/10.3.1/cmath ****   { return __builtin_log10f(__x); }
 359:/Library/DaisyToolchain/0.2.0/arm/arm-none-eabi/include/c++/10.3.1/cmath **** 
 360:/Library/DaisyToolchain/0.2.0/arm/arm-none-eabi/include/c++/10.3.1/cmath ****   inline _GLIBCXX_CONSTEXPR long double
 361:/Library/DaisyToolchain/0.2.0/arm/arm-none-eabi/include/c++/10.3.1/cmath ****   log10(long double __x)
 362:/Library/DaisyToolchain/0.2.0/arm/arm-none-eabi/include/c++/10.3.1/cmath ****   { return __builtin_log10l(__x); }
 363:/Library/DaisyToolchain/0.2.0/arm/arm-none-eabi/include/c++/10.3.1/cmath **** #endif
 364:/Library/DaisyToolchain/0.2.0/arm/arm-none-eabi/include/c++/10.3.1/cmath **** 
 365:/Library/DaisyToolchain/0.2.0/arm/arm-none-eabi/include/c++/10.3.1/cmath ****   template<typename _Tp>
ARM GAS  /var/folders/hp/45mn71hd0ps5f5pnytxy5bt00000gn/T//ccdvmoSj.s 			page 67


 366:/Library/DaisyToolchain/0.2.0/arm/arm-none-eabi/include/c++/10.3.1/cmath ****     inline _GLIBCXX_CONSTEXPR
 367:/Library/DaisyToolchain/0.2.0/arm/arm-none-eabi/include/c++/10.3.1/cmath ****     typename __gnu_cxx::__enable_if<__is_integer<_Tp>::__value,
 368:/Library/DaisyToolchain/0.2.0/arm/arm-none-eabi/include/c++/10.3.1/cmath ****                                     double>::__type
 369:/Library/DaisyToolchain/0.2.0/arm/arm-none-eabi/include/c++/10.3.1/cmath ****     log10(_Tp __x)
 370:/Library/DaisyToolchain/0.2.0/arm/arm-none-eabi/include/c++/10.3.1/cmath ****     { return __builtin_log10(__x); }
 371:/Library/DaisyToolchain/0.2.0/arm/arm-none-eabi/include/c++/10.3.1/cmath **** 
 372:/Library/DaisyToolchain/0.2.0/arm/arm-none-eabi/include/c++/10.3.1/cmath ****   using ::modf;
 373:/Library/DaisyToolchain/0.2.0/arm/arm-none-eabi/include/c++/10.3.1/cmath **** 
 374:/Library/DaisyToolchain/0.2.0/arm/arm-none-eabi/include/c++/10.3.1/cmath **** #ifndef __CORRECT_ISO_CPP_MATH_H_PROTO
 375:/Library/DaisyToolchain/0.2.0/arm/arm-none-eabi/include/c++/10.3.1/cmath ****   inline float
 376:/Library/DaisyToolchain/0.2.0/arm/arm-none-eabi/include/c++/10.3.1/cmath ****   modf(float __x, float* __iptr)
 377:/Library/DaisyToolchain/0.2.0/arm/arm-none-eabi/include/c++/10.3.1/cmath ****   { return __builtin_modff(__x, __iptr); }
 378:/Library/DaisyToolchain/0.2.0/arm/arm-none-eabi/include/c++/10.3.1/cmath **** 
 379:/Library/DaisyToolchain/0.2.0/arm/arm-none-eabi/include/c++/10.3.1/cmath ****   inline long double
 380:/Library/DaisyToolchain/0.2.0/arm/arm-none-eabi/include/c++/10.3.1/cmath ****   modf(long double __x, long double* __iptr)
 381:/Library/DaisyToolchain/0.2.0/arm/arm-none-eabi/include/c++/10.3.1/cmath ****   { return __builtin_modfl(__x, __iptr); }
 382:/Library/DaisyToolchain/0.2.0/arm/arm-none-eabi/include/c++/10.3.1/cmath **** #endif
 383:/Library/DaisyToolchain/0.2.0/arm/arm-none-eabi/include/c++/10.3.1/cmath **** 
 384:/Library/DaisyToolchain/0.2.0/arm/arm-none-eabi/include/c++/10.3.1/cmath ****   using ::pow;
 385:/Library/DaisyToolchain/0.2.0/arm/arm-none-eabi/include/c++/10.3.1/cmath **** 
 386:/Library/DaisyToolchain/0.2.0/arm/arm-none-eabi/include/c++/10.3.1/cmath **** #ifndef __CORRECT_ISO_CPP_MATH_H_PROTO
 387:/Library/DaisyToolchain/0.2.0/arm/arm-none-eabi/include/c++/10.3.1/cmath ****   inline _GLIBCXX_CONSTEXPR float
 388:/Library/DaisyToolchain/0.2.0/arm/arm-none-eabi/include/c++/10.3.1/cmath ****   pow(float __x, float __y)
 389:/Library/DaisyToolchain/0.2.0/arm/arm-none-eabi/include/c++/10.3.1/cmath ****   { return __builtin_powf(__x, __y); }
 390:/Library/DaisyToolchain/0.2.0/arm/arm-none-eabi/include/c++/10.3.1/cmath **** 
 391:/Library/DaisyToolchain/0.2.0/arm/arm-none-eabi/include/c++/10.3.1/cmath ****   inline _GLIBCXX_CONSTEXPR long double
 392:/Library/DaisyToolchain/0.2.0/arm/arm-none-eabi/include/c++/10.3.1/cmath ****   pow(long double __x, long double __y)
 393:/Library/DaisyToolchain/0.2.0/arm/arm-none-eabi/include/c++/10.3.1/cmath ****   { return __builtin_powl(__x, __y); }
 394:/Library/DaisyToolchain/0.2.0/arm/arm-none-eabi/include/c++/10.3.1/cmath **** 
 395:/Library/DaisyToolchain/0.2.0/arm/arm-none-eabi/include/c++/10.3.1/cmath **** #if __cplusplus < 201103L
 396:/Library/DaisyToolchain/0.2.0/arm/arm-none-eabi/include/c++/10.3.1/cmath ****   // _GLIBCXX_RESOLVE_LIB_DEFECTS
 397:/Library/DaisyToolchain/0.2.0/arm/arm-none-eabi/include/c++/10.3.1/cmath ****   // DR 550. What should the return type of pow(float,int) be?
 398:/Library/DaisyToolchain/0.2.0/arm/arm-none-eabi/include/c++/10.3.1/cmath ****   inline double
 399:/Library/DaisyToolchain/0.2.0/arm/arm-none-eabi/include/c++/10.3.1/cmath ****   pow(double __x, int __i)
 400:/Library/DaisyToolchain/0.2.0/arm/arm-none-eabi/include/c++/10.3.1/cmath ****   { return __builtin_powi(__x, __i); }
 401:/Library/DaisyToolchain/0.2.0/arm/arm-none-eabi/include/c++/10.3.1/cmath **** 
 402:/Library/DaisyToolchain/0.2.0/arm/arm-none-eabi/include/c++/10.3.1/cmath ****   inline float
 403:/Library/DaisyToolchain/0.2.0/arm/arm-none-eabi/include/c++/10.3.1/cmath ****   pow(float __x, int __n)
 404:/Library/DaisyToolchain/0.2.0/arm/arm-none-eabi/include/c++/10.3.1/cmath ****   { return __builtin_powif(__x, __n); }
 405:/Library/DaisyToolchain/0.2.0/arm/arm-none-eabi/include/c++/10.3.1/cmath **** 
 406:/Library/DaisyToolchain/0.2.0/arm/arm-none-eabi/include/c++/10.3.1/cmath ****   inline long double
 407:/Library/DaisyToolchain/0.2.0/arm/arm-none-eabi/include/c++/10.3.1/cmath ****   pow(long double __x, int __n)
 408:/Library/DaisyToolchain/0.2.0/arm/arm-none-eabi/include/c++/10.3.1/cmath ****   { return __builtin_powil(__x, __n); }
 409:/Library/DaisyToolchain/0.2.0/arm/arm-none-eabi/include/c++/10.3.1/cmath **** #endif
 410:/Library/DaisyToolchain/0.2.0/arm/arm-none-eabi/include/c++/10.3.1/cmath **** #endif
 411:/Library/DaisyToolchain/0.2.0/arm/arm-none-eabi/include/c++/10.3.1/cmath **** 
 412:/Library/DaisyToolchain/0.2.0/arm/arm-none-eabi/include/c++/10.3.1/cmath ****   template<typename _Tp, typename _Up>
 413:/Library/DaisyToolchain/0.2.0/arm/arm-none-eabi/include/c++/10.3.1/cmath ****     inline _GLIBCXX_CONSTEXPR
 414:/Library/DaisyToolchain/0.2.0/arm/arm-none-eabi/include/c++/10.3.1/cmath ****     typename __gnu_cxx::__promote_2<_Tp, _Up>::__type
 415:/Library/DaisyToolchain/0.2.0/arm/arm-none-eabi/include/c++/10.3.1/cmath ****     pow(_Tp __x, _Up __y)
 416:/Library/DaisyToolchain/0.2.0/arm/arm-none-eabi/include/c++/10.3.1/cmath ****     {
 417:/Library/DaisyToolchain/0.2.0/arm/arm-none-eabi/include/c++/10.3.1/cmath ****       typedef typename __gnu_cxx::__promote_2<_Tp, _Up>::__type __type;
 418:/Library/DaisyToolchain/0.2.0/arm/arm-none-eabi/include/c++/10.3.1/cmath ****       return pow(__type(__x), __type(__y));
 419:/Library/DaisyToolchain/0.2.0/arm/arm-none-eabi/include/c++/10.3.1/cmath ****     }
 420:/Library/DaisyToolchain/0.2.0/arm/arm-none-eabi/include/c++/10.3.1/cmath **** 
 421:/Library/DaisyToolchain/0.2.0/arm/arm-none-eabi/include/c++/10.3.1/cmath ****   using ::sin;
 422:/Library/DaisyToolchain/0.2.0/arm/arm-none-eabi/include/c++/10.3.1/cmath **** 
ARM GAS  /var/folders/hp/45mn71hd0ps5f5pnytxy5bt00000gn/T//ccdvmoSj.s 			page 68


 423:/Library/DaisyToolchain/0.2.0/arm/arm-none-eabi/include/c++/10.3.1/cmath **** #ifndef __CORRECT_ISO_CPP_MATH_H_PROTO
 424:/Library/DaisyToolchain/0.2.0/arm/arm-none-eabi/include/c++/10.3.1/cmath ****   inline _GLIBCXX_CONSTEXPR float
 425:/Library/DaisyToolchain/0.2.0/arm/arm-none-eabi/include/c++/10.3.1/cmath ****   sin(float __x)
 426:/Library/DaisyToolchain/0.2.0/arm/arm-none-eabi/include/c++/10.3.1/cmath ****   { return __builtin_sinf(__x); }
 1825              		.loc 9 426 26 view .LVU400
 1826 0068 B0EE680A 		vmov.f32	s0, s17
 1827 006c FFF7FEFF 		bl	sinf
 1828              	.LVL133:
 1829              	.LBE614:
 1830              	.LBE613:
 316:../../DaisyExamples/libDaisy//src/hid/disp/display.h ****         end_x   = cos(end_angle_rad) * radius;
 1831              		.loc 8 316 17 view .LVU401
 1832 0070 60EE698A 		vnmul.f32	s17, s0, s19
 1833              	.LVL134:
 1834              	.LBB616:
 1835              	.LBB617:
 185:/Library/DaisyToolchain/0.2.0/arm/arm-none-eabi/include/c++/10.3.1/cmath **** 
 1836              		.loc 9 185 26 view .LVU402
 1837 0074 B0EE4A0A 		vmov.f32	s0, s20
 1838 0078 FFF7FEFF 		bl	cosf
 1839              	.LVL135:
 1840 007c B0EE409A 		vmov.f32	s18, s0
 1841              	.LBE617:
 1842              	.LBE616:
 1843              	.LBB619:
 1844              	.LBB620:
 1845              		.loc 9 426 26 view .LVU403
 1846 0080 B0EE4A0A 		vmov.f32	s0, s20
 1847 0084 FFF7FEFF 		bl	sinf
 1848              	.LVL136:
 1849              	.LBE620:
 1850              	.LBE619:
 318:../../DaisyExamples/libDaisy//src/hid/disp/display.h **** 
 1851              		.loc 8 318 17 view .LVU404
 1852 0088 20EE690A 		vnmul.f32	s0, s0, s19
 315:../../DaisyExamples/libDaisy//src/hid/disp/display.h ****         start_y = -sin(start_angle_rad) * radius;
 1853              		.loc 8 315 17 view .LVU405
 1854 008c 29EE888A 		vmul.f32	s16, s19, s16
 1855              	.LVL137:
 1856              	.LBB622:
 1857              	.LBI613:
 425:/Library/DaisyToolchain/0.2.0/arm/arm-none-eabi/include/c++/10.3.1/cmath ****   { return __builtin_sinf(__x); }
 1858              		.loc 9 425 3 is_stmt 1 view .LVU406
 1859              	.LBB615:
 1860              		.loc 9 426 5 view .LVU407
 1861              		.loc 9 426 5 is_stmt 0 view .LVU408
 1862              	.LBE615:
 1863              	.LBE622:
 1864              	.LBB623:
 1865              	.LBI616:
 184:/Library/DaisyToolchain/0.2.0/arm/arm-none-eabi/include/c++/10.3.1/cmath ****   { return __builtin_cosf(__x); }
 1866              		.loc 9 184 3 is_stmt 1 view .LVU409
 1867              	.LBB618:
 185:/Library/DaisyToolchain/0.2.0/arm/arm-none-eabi/include/c++/10.3.1/cmath **** 
 1868              		.loc 9 185 5 view .LVU410
 185:/Library/DaisyToolchain/0.2.0/arm/arm-none-eabi/include/c++/10.3.1/cmath **** 
 1869              		.loc 9 185 5 is_stmt 0 view .LVU411
ARM GAS  /var/folders/hp/45mn71hd0ps5f5pnytxy5bt00000gn/T//ccdvmoSj.s 			page 69


 1870              	.LBE618:
 1871              	.LBE623:
 317:../../DaisyExamples/libDaisy//src/hid/disp/display.h ****         end_y   = -sin(end_angle_rad) * radius;
 1872              		.loc 8 317 17 view .LVU412
 1873 0090 29EE899A 		vmul.f32	s18, s19, s18
 1874              	.LVL138:
 1875              	.LBB624:
 1876              	.LBI619:
 425:/Library/DaisyToolchain/0.2.0/arm/arm-none-eabi/include/c++/10.3.1/cmath ****   { return __builtin_sinf(__x); }
 1877              		.loc 9 425 3 is_stmt 1 view .LVU413
 1878              	.LBB621:
 1879              		.loc 9 426 5 view .LVU414
 1880              		.loc 9 426 5 is_stmt 0 view .LVU415
 1881              	.LBE621:
 1882              	.LBE624:
 322:../../DaisyExamples/libDaisy//src/hid/disp/display.h ****            < 2.0f)
 1883              		.loc 8 322 25 view .LVU416
 1884 0094 70EE687A 		vsub.f32	s15, s0, s17
 321:../../DaisyExamples/libDaisy//src/hid/disp/display.h ****                + (end_y - start_y) * (end_y - start_y)
 1885              		.loc 8 321 9 view .LVU417
 1886 0098 F0EE006A 		vmov.f32	s13, #2.0e+0
 321:../../DaisyExamples/libDaisy//src/hid/disp/display.h ****                + (end_y - start_y) * (end_y - start_y)
 1887              		.loc 8 321 19 view .LVU418
 1888 009c 39EE487A 		vsub.f32	s14, s18, s16
 322:../../DaisyExamples/libDaisy//src/hid/disp/display.h ****            < 2.0f)
 1889              		.loc 8 322 36 view .LVU419
 1890 00a0 67EEA77A 		vmul.f32	s15, s15, s15
 322:../../DaisyExamples/libDaisy//src/hid/disp/display.h ****            < 2.0f)
 1891              		.loc 8 322 16 view .LVU420
 1892 00a4 E7EE077A 		vfma.f32	s15, s14, s14
 321:../../DaisyExamples/libDaisy//src/hid/disp/display.h ****                + (end_y - start_y) * (end_y - start_y)
 1893              		.loc 8 321 9 view .LVU421
 1894 00a8 F4EEE67A 		vcmpe.f32	s15, s13
 1895 00ac F1EE10FA 		vmrs	APSR_nzcv, FPSCR
 1896 00b0 06D5     		bpl	.L193
 325:../../DaisyExamples/libDaisy//src/hid/disp/display.h ****                 circle = true;
 1897              		.loc 8 325 13 view .LVU422
 1898 00b2 139B     		ldr	r3, [sp, #76]
 1899 00b4 B42B     		cmp	r3, #180
 1900 00b6 40F39680 		ble	.L134
 326:../../DaisyExamples/libDaisy//src/hid/disp/display.h ****             else
 1901              		.loc 8 326 24 view .LVU423
 1902 00ba 4FF00109 		mov	r9, #1
 1903 00be 01E0     		b	.L137
 1904              	.L193:
 304:../../DaisyExamples/libDaisy//src/hid/disp/display.h **** 
 1905              		.loc 8 304 14 view .LVU424
 1906 00c0 4FF00009 		mov	r9, #0
 1907              	.L137:
 1908              	.LVL139:
 302:../../DaisyExamples/libDaisy//src/hid/disp/display.h **** 
 1909              		.loc 8 302 27 view .LVU425
 1910 00c4 0124     		movs	r4, #1
 332:../../DaisyExamples/libDaisy//src/hid/disp/display.h ****         t_y = 0;
 1911              		.loc 8 332 13 view .LVU426
 1912 00c6 7842     		rsbs	r0, r7, #0
 1913              	.LVL140:
ARM GAS  /var/folders/hp/45mn71hd0ps5f5pnytxy5bt00000gn/T//ccdvmoSj.s 			page 70


 333:../../DaisyExamples/libDaisy//src/hid/disp/display.h ****         err = 2 - 2 * radius;
 1914              		.loc 8 333 13 view .LVU427
 1915 00c8 4FF0000C 		mov	ip, #0
 1916 00cc 0095     		str	r5, [sp]
 334:../../DaisyExamples/libDaisy//src/hid/disp/display.h **** 
 1917              		.loc 8 334 17 view .LVU428
 1918 00ce E31B     		subs	r3, r4, r7
 302:../../DaisyExamples/libDaisy//src/hid/disp/display.h **** 
 1919              		.loc 8 302 17 view .LVU429
 1920 00d0 2146     		mov	r1, r4
 302:../../DaisyExamples/libDaisy//src/hid/disp/display.h **** 
 1921              		.loc 8 302 22 view .LVU430
 1922 00d2 2746     		mov	r7, r4
 1923              	.LVL141:
 302:../../DaisyExamples/libDaisy//src/hid/disp/display.h **** 
 1924              		.loc 8 302 12 view .LVU431
 1925 00d4 2246     		mov	r2, r4
 334:../../DaisyExamples/libDaisy//src/hid/disp/display.h **** 
 1926              		.loc 8 334 17 view .LVU432
 1927 00d6 A340     		lsls	r3, r3, r4
 1928              	.LVL142:
 1929              	.L163:
 338:../../DaisyExamples/libDaisy//src/hid/disp/display.h ****             {
 1930              		.loc 8 338 13 view .LVU433
 1931 00d8 B9F1000F 		cmp	r9, #0
 1932 00dc 6AD1     		bne	.L139
 343:../../DaisyExamples/libDaisy//src/hid/disp/display.h ****                 t_exy  = end_x * t_y;
 1933              		.loc 8 343 34 view .LVU434
 1934 00de 4242     		rsbs	r2, r0, #0
 1935              	.LVL143:
 340:../../DaisyExamples/libDaisy//src/hid/disp/display.h ****                 t_syx  = start_y * t_x;
 1936              		.loc 8 340 24 view .LVU435
 1937 00e0 06EE90CA 		vmov	s13, ip	@ int
 342:../../DaisyExamples/libDaisy//src/hid/disp/display.h ****                 t_synx = start_y * -t_x;
 1938              		.loc 8 342 34 view .LVU436
 1939 00e4 CCF10001 		rsb	r1, ip, #0
 1940              	.LVL144:
 343:../../DaisyExamples/libDaisy//src/hid/disp/display.h ****                 t_exy  = end_x * t_y;
 1941              		.loc 8 343 34 view .LVU437
 1942 00e8 07EE102A 		vmov	s14, r2	@ int
 340:../../DaisyExamples/libDaisy//src/hid/disp/display.h ****                 t_syx  = start_y * t_x;
 1943              		.loc 8 340 24 view .LVU438
 1944 00ec B8EEE66A 		vcvt.f32.s32	s12, s13
 342:../../DaisyExamples/libDaisy//src/hid/disp/display.h ****                 t_synx = start_y * -t_x;
 1945              		.loc 8 342 34 view .LVU439
 1946 00f0 07EE901A 		vmov	s15, r1	@ int
 341:../../DaisyExamples/libDaisy//src/hid/disp/display.h ****                 t_sxny = start_x * -t_y;
 1947              		.loc 8 341 24 view .LVU440
 1948 00f4 06EE900A 		vmov	s13, r0	@ int
 343:../../DaisyExamples/libDaisy//src/hid/disp/display.h ****                 t_exy  = end_x * t_y;
 1949              		.loc 8 343 34 view .LVU441
 1950 00f8 B8EEC77A 		vcvt.f32.s32	s14, s14
 349:../../DaisyExamples/libDaisy//src/hid/disp/display.h ****                 {
 1951              		.loc 8 349 17 view .LVU442
 1952 00fc 139A     		ldr	r2, [sp, #76]
 340:../../DaisyExamples/libDaisy//src/hid/disp/display.h ****                 t_syx  = start_y * t_x;
 1953              		.loc 8 340 24 view .LVU443
ARM GAS  /var/folders/hp/45mn71hd0ps5f5pnytxy5bt00000gn/T//ccdvmoSj.s 			page 71


 1954 00fe 66EE084A 		vmul.f32	s9, s12, s16
 1955              	.LVL145:
 342:../../DaisyExamples/libDaisy//src/hid/disp/display.h ****                 t_synx = start_y * -t_x;
 1956              		.loc 8 342 34 view .LVU444
 1957 0102 F8EEE77A 		vcvt.f32.s32	s15, s15
 349:../../DaisyExamples/libDaisy//src/hid/disp/display.h ****                 {
 1958              		.loc 8 349 17 view .LVU445
 1959 0106 B42A     		cmp	r2, #180
 343:../../DaisyExamples/libDaisy//src/hid/disp/display.h ****                 t_exy  = end_x * t_y;
 1960              		.loc 8 343 24 view .LVU446
 1961 0108 27EE284A 		vmul.f32	s8, s14, s17
 341:../../DaisyExamples/libDaisy//src/hid/disp/display.h ****                 t_sxny = start_x * -t_y;
 1962              		.loc 8 341 24 view .LVU447
 1963 010c F8EEE66A 		vcvt.f32.s32	s13, s13
 342:../../DaisyExamples/libDaisy//src/hid/disp/display.h ****                 t_synx = start_y * -t_x;
 1964              		.loc 8 342 24 view .LVU448
 1965 0110 67EE885A 		vmul.f32	s11, s15, s16
 351:../../DaisyExamples/libDaisy//src/hid/disp/display.h ****                     d2 = (t_sxy - t_syx < 0 || t_exy - t_eyx > 0);
 1966              		.loc 8 351 33 view .LVU449
 1967 0114 74EEC43A 		vsub.f32	s7, s9, s8
 341:../../DaisyExamples/libDaisy//src/hid/disp/display.h ****                 t_sxny = start_x * -t_y;
 1968              		.loc 8 341 24 view .LVU450
 1969 0118 26EEA85A 		vmul.f32	s10, s13, s17
 1970              	.LVL146:
 344:../../DaisyExamples/libDaisy//src/hid/disp/display.h ****                 t_eyx  = end_y * t_x;
 1971              		.loc 8 344 24 view .LVU451
 1972 011c 26EE096A 		vmul.f32	s12, s12, s18
 1973              	.LVL147:
 345:../../DaisyExamples/libDaisy//src/hid/disp/display.h ****                 t_exny = end_x * -t_y;
 1974              		.loc 8 345 24 view .LVU452
 1975 0120 66EE806A 		vmul.f32	s13, s13, s0
 1976              	.LVL148:
 346:../../DaisyExamples/libDaisy//src/hid/disp/display.h ****                 t_eynx = end_y * -t_x;
 1977              		.loc 8 346 24 view .LVU453
 1978 0124 67EE897A 		vmul.f32	s15, s15, s18
 1979              	.LVL149:
 347:../../DaisyExamples/libDaisy//src/hid/disp/display.h **** 
 1980              		.loc 8 347 24 view .LVU454
 1981 0128 27EE007A 		vmul.f32	s14, s14, s0
 1982              	.LVL150:
 351:../../DaisyExamples/libDaisy//src/hid/disp/display.h ****                     d2 = (t_sxy - t_syx < 0 || t_exy - t_eyx > 0);
 1983              		.loc 8 351 46 view .LVU455
 1984 012c F5EEC03A 		vcmpe.f32	s7, #0
 349:../../DaisyExamples/libDaisy//src/hid/disp/display.h ****                 {
 1985              		.loc 8 349 17 view .LVU456
 1986 0130 40F3F280 		ble	.L140
 351:../../DaisyExamples/libDaisy//src/hid/disp/display.h ****                     d2 = (t_sxy - t_syx < 0 || t_exy - t_eyx > 0);
 1987              		.loc 8 351 46 view .LVU457
 1988 0134 F1EE10FA 		vmrs	APSR_nzcv, FPSCR
 1989 0138 00F17F81 		bmi	.L166
 351:../../DaisyExamples/libDaisy//src/hid/disp/display.h ****                     d2 = (t_sxy - t_syx < 0 || t_exy - t_eyx > 0);
 1990              		.loc 8 351 55 discriminator 2 view .LVU458
 1991 013c 76EE473A 		vsub.f32	s7, s12, s14
 352:../../DaisyExamples/libDaisy//src/hid/disp/display.h ****                     d3 = (t_sxny - t_syx < 0 || t_exny - t_eyx > 0);
 1992              		.loc 8 352 33 discriminator 2 view .LVU459
 1993 0140 74EEC54A 		vsub.f32	s9, s9, s10
 1994              	.LVL151:
ARM GAS  /var/folders/hp/45mn71hd0ps5f5pnytxy5bt00000gn/T//ccdvmoSj.s 			page 72


 351:../../DaisyExamples/libDaisy//src/hid/disp/display.h ****                     d2 = (t_sxy - t_syx < 0 || t_exy - t_eyx > 0);
 1995              		.loc 8 351 46 discriminator 2 view .LVU460
 1996 0144 F5EEC03A 		vcmpe.f32	s7, #0
 1997 0148 F1EE10FA 		vmrs	APSR_nzcv, FPSCR
 352:../../DaisyExamples/libDaisy//src/hid/disp/display.h ****                     d3 = (t_sxny - t_syx < 0 || t_exny - t_eyx > 0);
 1998              		.loc 8 352 45 discriminator 2 view .LVU461
 1999 014c F5EEC04A 		vcmpe.f32	s9, #0
 351:../../DaisyExamples/libDaisy//src/hid/disp/display.h ****                     d2 = (t_sxy - t_syx < 0 || t_exy - t_eyx > 0);
 2000              		.loc 8 351 46 discriminator 2 view .LVU462
 2001 0150 CCBF     		ite	gt
 2002 0152 0122     		movgt	r2, #1
 2003 0154 0022     		movle	r2, #0
 2004              	.LVL152:
 352:../../DaisyExamples/libDaisy//src/hid/disp/display.h ****                     d3 = (t_sxny - t_syx < 0 || t_exny - t_eyx > 0);
 2005              		.loc 8 352 45 discriminator 2 view .LVU463
 2006 0156 F1EE10FA 		vmrs	APSR_nzcv, FPSCR
 2007 015a 00F17781 		bmi	.L167
 2008              	.L209:
 352:../../DaisyExamples/libDaisy//src/hid/disp/display.h ****                     d3 = (t_sxny - t_syx < 0 || t_exny - t_eyx > 0);
 2009              		.loc 8 352 54 discriminator 2 view .LVU464
 2010 015e 36EE666A 		vsub.f32	s12, s12, s13
 2011              	.LVL153:
 353:../../DaisyExamples/libDaisy//src/hid/disp/display.h ****                     d4 = (t_sxny - t_synx < 0 || t_exny - t_eynx > 0);
 2012              		.loc 8 353 34 discriminator 2 view .LVU465
 2013 0162 35EEC55A 		vsub.f32	s10, s11, s10
 2014              	.LVL154:
 352:../../DaisyExamples/libDaisy//src/hid/disp/display.h ****                     d3 = (t_sxny - t_syx < 0 || t_exny - t_eyx > 0);
 2015              		.loc 8 352 45 discriminator 2 view .LVU466
 2016 0166 B5EEC06A 		vcmpe.f32	s12, #0
 2017 016a F1EE10FA 		vmrs	APSR_nzcv, FPSCR
 353:../../DaisyExamples/libDaisy//src/hid/disp/display.h ****                     d4 = (t_sxny - t_synx < 0 || t_exny - t_eynx > 0);
 2018              		.loc 8 353 46 discriminator 2 view .LVU467
 2019 016e B5EEC05A 		vcmpe.f32	s10, #0
 352:../../DaisyExamples/libDaisy//src/hid/disp/display.h ****                     d3 = (t_sxny - t_syx < 0 || t_exny - t_eyx > 0);
 2020              		.loc 8 352 45 discriminator 2 view .LVU468
 2021 0172 CCBF     		ite	gt
 2022 0174 0121     		movgt	r1, #1
 2023 0176 0021     		movle	r1, #0
 2024              	.LVL155:
 353:../../DaisyExamples/libDaisy//src/hid/disp/display.h ****                     d4 = (t_sxny - t_synx < 0 || t_exny - t_eynx > 0);
 2025              		.loc 8 353 46 discriminator 2 view .LVU469
 2026 0178 F1EE10FA 		vmrs	APSR_nzcv, FPSCR
 2027 017c 00F16F81 		bmi	.L168
 2028              	.L210:
 353:../../DaisyExamples/libDaisy//src/hid/disp/display.h ****                     d4 = (t_sxny - t_synx < 0 || t_exny - t_eynx > 0);
 2029              		.loc 8 353 56 discriminator 2 view .LVU470
 2030 0180 77EEE66A 		vsub.f32	s13, s15, s13
 2031              	.LVL156:
 353:../../DaisyExamples/libDaisy//src/hid/disp/display.h ****                     d4 = (t_sxny - t_synx < 0 || t_exny - t_eynx > 0);
 2032              		.loc 8 353 46 discriminator 2 view .LVU471
 2033 0184 F5EEC06A 		vcmpe.f32	s13, #0
 2034 0188 F1EE10FA 		vmrs	APSR_nzcv, FPSCR
 2035 018c CCBF     		ite	gt
 2036 018e 0127     		movgt	r7, #1
 2037              	.LVL157:
 353:../../DaisyExamples/libDaisy//src/hid/disp/display.h ****                     d4 = (t_sxny - t_synx < 0 || t_exny - t_eynx > 0);
 2038              		.loc 8 353 46 discriminator 2 view .LVU472
ARM GAS  /var/folders/hp/45mn71hd0ps5f5pnytxy5bt00000gn/T//ccdvmoSj.s 			page 73


 2039 0190 0027     		movle	r7, #0
 2040              	.L143:
 2041              	.LVL158:
 354:../../DaisyExamples/libDaisy//src/hid/disp/display.h ****                 }
 2042              		.loc 8 354 34 discriminator 6 view .LVU473
 2043 0192 75EEC45A 		vsub.f32	s11, s11, s8
 2044              	.LVL159:
 354:../../DaisyExamples/libDaisy//src/hid/disp/display.h ****                 }
 2045              		.loc 8 354 47 discriminator 6 view .LVU474
 2046 0196 F5EEC05A 		vcmpe.f32	s11, #0
 2047 019a F1EE10FA 		vmrs	APSR_nzcv, FPSCR
 2048 019e 00F14781 		bmi	.L169
 2049              	.L199:
 361:../../DaisyExamples/libDaisy//src/hid/disp/display.h ****                 }
 2050              		.loc 8 361 57 discriminator 1 view .LVU475
 2051 01a2 77EEC77A 		vsub.f32	s15, s15, s14
 2052              	.LVL160:
 361:../../DaisyExamples/libDaisy//src/hid/disp/display.h ****                 }
 2053              		.loc 8 361 47 discriminator 1 view .LVU476
 2054 01a6 F5EEC07A 		vcmpe.f32	s15, #0
 2055 01aa F1EE10FA 		vmrs	APSR_nzcv, FPSCR
 2056 01ae CCBF     		ite	gt
 2057 01b0 0124     		movgt	r4, #1
 2058              	.LVL161:
 361:../../DaisyExamples/libDaisy//src/hid/disp/display.h ****                 }
 2059              		.loc 8 361 47 discriminator 1 view .LVU477
 2060 01b2 0024     		movle	r4, #0
 2061              	.LVL162:
 2062              	.L139:
 365:../../DaisyExamples/libDaisy//src/hid/disp/display.h ****                 ((ChildType*)(this))
 2063              		.loc 8 365 13 view .LVU478
 2064 01b4 002A     		cmp	r2, #0
 2065 01b6 40F08A80 		bne	.L200
 2066              	.L151:
 368:../../DaisyExamples/libDaisy//src/hid/disp/display.h ****                 ((ChildType*)(this))
 2067              		.loc 8 368 13 view .LVU479
 2068 01ba 0029     		cmp	r1, #0
 2069 01bc 64D1     		bne	.L201
 2070              	.L153:
 371:../../DaisyExamples/libDaisy//src/hid/disp/display.h ****                 ((ChildType*)(this))
 2071              		.loc 8 371 13 view .LVU480
 2072 01be BFB9     		cbnz	r7, .L202
 2073              	.L155:
 374:../../DaisyExamples/libDaisy//src/hid/disp/display.h ****                 ((ChildType*)(this))
 2074              		.loc 8 374 13 view .LVU481
 2075 01c0 C4BB     		cbnz	r4, .L203
 2076              	.L157:
 2077              	.LVL163:
 379:../../DaisyExamples/libDaisy//src/hid/disp/display.h ****             {
 2078              		.loc 8 379 13 view .LVU482
 2079 01c2 9C45     		cmp	ip, r3
 2080 01c4 58DB     		blt	.L174
 2081              	.L205:
 381:../../DaisyExamples/libDaisy//src/hid/disp/display.h ****                 err = err + (t_y * 2 + 1);
 2082              		.loc 8 381 17 view .LVU483
 2083 01c6 0CF1010C 		add	ip, ip, #1
 2084              	.LVL164:
ARM GAS  /var/folders/hp/45mn71hd0ps5f5pnytxy5bt00000gn/T//ccdvmoSj.s 			page 74


 382:../../DaisyExamples/libDaisy//src/hid/disp/display.h ****                 if(-t_x == t_y && e2 <= t_x)
 2085              		.loc 8 382 38 view .LVU484
 2086 01ca 03EB4C0E 		add	lr, r3, ip, lsl #1
 383:../../DaisyExamples/libDaisy//src/hid/disp/display.h ****                 {
 2087              		.loc 8 383 17 view .LVU485
 2088 01ce 1CEB000F 		cmn	ip, r0
 382:../../DaisyExamples/libDaisy//src/hid/disp/display.h ****                 if(-t_x == t_y && e2 <= t_x)
 2089              		.loc 8 382 21 view .LVU486
 2090 01d2 0EF1010E 		add	lr, lr, #1
 2091              	.LVL165:
 383:../../DaisyExamples/libDaisy//src/hid/disp/display.h ****                 {
 2092              		.loc 8 383 17 view .LVU487
 2093 01d6 00F0C080 		beq	.L204
 2094              	.LVL166:
 2095              	.L159:
 388:../../DaisyExamples/libDaisy//src/hid/disp/display.h ****             {
 2096              		.loc 8 388 13 view .LVU488
 2097 01da 9842     		cmp	r0, r3
 2098 01dc 4FDB     		blt	.L160
 2099              	.L175:
 388:../../DaisyExamples/libDaisy//src/hid/disp/display.h ****             {
 2100              		.loc 8 388 13 view .LVU489
 2101 01de 7346     		mov	r3, lr
 2102              	.LVL167:
 2103              	.L161:
 393:../../DaisyExamples/libDaisy//src/hid/disp/display.h ****     }
 2104              		.loc 8 393 21 is_stmt 1 view .LVU490
 2105 01e0 0028     		cmp	r0, #0
 2106 01e2 7FF779AF 		ble	.L163
 2107              	.LVL168:
 2108              	.L134:
 394:../../DaisyExamples/libDaisy//src/hid/disp/display.h **** 
 2109              		.loc 8 394 5 is_stmt 0 view .LVU491
 2110 01e6 03B0     		add	sp, sp, #12
 2111              		.cfi_remember_state
 2112              		.cfi_def_cfa_offset 60
 2113              		@ sp needed
 2114 01e8 BDEC068B 		vldm	sp!, {d8-d10}
 2115              		.cfi_restore 84
 2116              		.cfi_restore 85
 2117              		.cfi_restore 82
 2118              		.cfi_restore 83
 2119              		.cfi_restore 80
 2120              		.cfi_restore 81
 2121              		.cfi_def_cfa_offset 36
 2122              	.LVL169:
 394:../../DaisyExamples/libDaisy//src/hid/disp/display.h **** 
 2123              		.loc 8 394 5 view .LVU492
 2124 01ec BDE8F08F 		pop	{r4, r5, r6, r7, r8, r9, r10, fp, pc}
 2125              	.LVL170:
 2126              	.L202:
 2127              		.cfi_restore_state
 373:../../DaisyExamples/libDaisy//src/hid/disp/display.h ****             if(d4)
 2128              		.loc 8 373 43 view .LVU493
 2129 01f0 009D     		ldr	r5, [sp]
 2130 01f2 A6EB0C0E 		sub	lr, r6, ip
 2131 01f6 00EB050A 		add	r10, r0, r5
ARM GAS  /var/folders/hp/45mn71hd0ps5f5pnytxy5bt00000gn/T//ccdvmoSj.s 			page 75


 2132              	.LVL171:
 2133              	.LBB625:
 2134              	.LBI625:
  42:../../DaisyExamples/libDaisy//src/hid/disp/oled_display.h ****     {
 2135              		.loc 6 42 10 is_stmt 1 view .LVU494
 2136              	.LBB626:
 2137              	.LBI626:
 352:../../DaisyExamples/libDaisy//src/dev/oled_ssd130x.h ****     {
 2138              		.loc 7 352 10 view .LVU495
 2139              	.LBB627:
 354:../../DaisyExamples/libDaisy//src/dev/oled_ssd130x.h ****             return;
 2140              		.loc 7 354 9 is_stmt 0 view .LVU496
 2141 01fa BAF17F0F 		cmp	r10, #127
 2142 01fe DFD8     		bhi	.L155
 2143 0200 BEF11F0F 		cmp	lr, #31
 2144 0204 DCD8     		bhi	.L155
 357:../../DaisyExamples/libDaisy//src/dev/oled_ssd130x.h ****         else
 2145              		.loc 7 357 28 view .LVU497
 2146 0206 4FEADE0B 		lsr	fp, lr, #3
 356:../../DaisyExamples/libDaisy//src/dev/oled_ssd130x.h ****             buffer_[x + (y / 8) * width] |= (1 << (y % 8));
 2147              		.loc 7 356 9 view .LVU498
 2148 020a 019D     		ldr	r5, [sp, #4]
 357:../../DaisyExamples/libDaisy//src/dev/oled_ssd130x.h ****         else
 2149              		.loc 7 357 42 view .LVU499
 2150 020c 0AEBCB1A 		add	r10, r10, fp, lsl #7
 2151              	.LVL172:
 356:../../DaisyExamples/libDaisy//src/dev/oled_ssd130x.h ****             buffer_[x + (y / 8) * width] |= (1 << (y % 8));
 2152              		.loc 7 356 9 view .LVU500
 2153 0210 002D     		cmp	r5, #0
 2154 0212 00F0B180 		beq	.L156
 357:../../DaisyExamples/libDaisy//src/dev/oled_ssd130x.h ****         else
 2155              		.loc 7 357 54 view .LVU501
 2156 0216 0EF0070B 		and	fp, lr, #7
 357:../../DaisyExamples/libDaisy//src/dev/oled_ssd130x.h ****         else
 2157              		.loc 7 357 42 view .LVU502
 2158 021a C244     		add	r10, r10, r8
 357:../../DaisyExamples/libDaisy//src/dev/oled_ssd130x.h ****         else
 2159              		.loc 7 357 48 view .LVU503
 2160 021c 4FF0010E 		mov	lr, #1
 2161              	.LVL173:
 357:../../DaisyExamples/libDaisy//src/dev/oled_ssd130x.h ****         else
 2162              		.loc 7 357 48 view .LVU504
 2163 0220 0EFA0BFE 		lsl	lr, lr, fp
 357:../../DaisyExamples/libDaisy//src/dev/oled_ssd130x.h ****         else
 2164              		.loc 7 357 42 view .LVU505
 2165 0224 9AF810B0 		ldrb	fp, [r10, #16]	@ zero_extendqisi2
 2166 0228 4EEA0B0E 		orr	lr, lr, fp
 2167 022c 8AF810E0 		strb	lr, [r10, #16]
 2168              	.LVL174:
 357:../../DaisyExamples/libDaisy//src/dev/oled_ssd130x.h ****         else
 2169              		.loc 7 357 42 view .LVU506
 2170              	.LBE627:
 2171              	.LBE626:
 2172              	.LBE625:
 374:../../DaisyExamples/libDaisy//src/hid/disp/display.h ****                 ((ChildType*)(this))
 2173              		.loc 8 374 13 view .LVU507
 2174 0230 002C     		cmp	r4, #0
ARM GAS  /var/folders/hp/45mn71hd0ps5f5pnytxy5bt00000gn/T//ccdvmoSj.s 			page 76


 2175 0232 C6D0     		beq	.L157
 2176              	.L203:
 376:../../DaisyExamples/libDaisy//src/hid/disp/display.h **** 
 2177              		.loc 8 376 43 view .LVU508
 2178 0234 009D     		ldr	r5, [sp]
 2179 0236 A6EB0C0E 		sub	lr, r6, ip
 2180 023a A5EB000A 		sub	r10, r5, r0
 2181              	.LVL175:
 2182              	.LBB632:
 2183              	.LBI632:
  42:../../DaisyExamples/libDaisy//src/hid/disp/oled_display.h ****     {
 2184              		.loc 6 42 10 is_stmt 1 view .LVU509
 2185              	.LBB633:
 2186              	.LBI633:
 352:../../DaisyExamples/libDaisy//src/dev/oled_ssd130x.h ****     {
 2187              		.loc 7 352 10 view .LVU510
 2188              	.LBB634:
 354:../../DaisyExamples/libDaisy//src/dev/oled_ssd130x.h ****             return;
 2189              		.loc 7 354 9 is_stmt 0 view .LVU511
 2190 023e BAF17F0F 		cmp	r10, #127
 2191 0242 BED8     		bhi	.L157
 2192 0244 BEF11F0F 		cmp	lr, #31
 2193 0248 BBD8     		bhi	.L157
 357:../../DaisyExamples/libDaisy//src/dev/oled_ssd130x.h ****         else
 2194              		.loc 7 357 28 view .LVU512
 2195 024a 4FEADE0B 		lsr	fp, lr, #3
 356:../../DaisyExamples/libDaisy//src/dev/oled_ssd130x.h ****             buffer_[x + (y / 8) * width] |= (1 << (y % 8));
 2196              		.loc 7 356 9 view .LVU513
 2197 024e 019D     		ldr	r5, [sp, #4]
 357:../../DaisyExamples/libDaisy//src/dev/oled_ssd130x.h ****         else
 2198              		.loc 7 357 42 view .LVU514
 2199 0250 0AEBCB1A 		add	r10, r10, fp, lsl #7
 2200              	.LVL176:
 356:../../DaisyExamples/libDaisy//src/dev/oled_ssd130x.h ****             buffer_[x + (y / 8) * width] |= (1 << (y % 8));
 2201              		.loc 7 356 9 view .LVU515
 2202 0254 002D     		cmp	r5, #0
 2203 0256 00F0AE80 		beq	.L158
 357:../../DaisyExamples/libDaisy//src/dev/oled_ssd130x.h ****         else
 2204              		.loc 7 357 54 view .LVU516
 2205 025a 0EF0070B 		and	fp, lr, #7
 357:../../DaisyExamples/libDaisy//src/dev/oled_ssd130x.h ****         else
 2206              		.loc 7 357 42 view .LVU517
 2207 025e C244     		add	r10, r10, r8
 357:../../DaisyExamples/libDaisy//src/dev/oled_ssd130x.h ****         else
 2208              		.loc 7 357 48 view .LVU518
 2209 0260 4FF0010E 		mov	lr, #1
 2210              	.LVL177:
 357:../../DaisyExamples/libDaisy//src/dev/oled_ssd130x.h ****         else
 2211              		.loc 7 357 48 view .LVU519
 2212              	.LBE634:
 2213              	.LBE633:
 2214              	.LBE632:
 379:../../DaisyExamples/libDaisy//src/hid/disp/display.h ****             {
 2215              		.loc 8 379 13 view .LVU520
 2216 0264 9C45     		cmp	ip, r3
 2217              	.LBB641:
 2218              	.LBB639:
ARM GAS  /var/folders/hp/45mn71hd0ps5f5pnytxy5bt00000gn/T//ccdvmoSj.s 			page 77


 2219              	.LBB637:
 357:../../DaisyExamples/libDaisy//src/dev/oled_ssd130x.h ****         else
 2220              		.loc 7 357 48 view .LVU521
 2221 0266 0EFA0BFE 		lsl	lr, lr, fp
 357:../../DaisyExamples/libDaisy//src/dev/oled_ssd130x.h ****         else
 2222              		.loc 7 357 42 view .LVU522
 2223 026a 9AF810B0 		ldrb	fp, [r10, #16]	@ zero_extendqisi2
 2224 026e 4EEA0B0E 		orr	lr, lr, fp
 2225 0272 8AF810E0 		strb	lr, [r10, #16]
 2226              	.LVL178:
 357:../../DaisyExamples/libDaisy//src/dev/oled_ssd130x.h ****         else
 2227              		.loc 7 357 42 view .LVU523
 2228              	.LBE637:
 2229              	.LBE639:
 2230              	.LBE641:
 379:../../DaisyExamples/libDaisy//src/hid/disp/display.h ****             {
 2231              		.loc 8 379 13 view .LVU524
 2232 0276 A6DA     		bge	.L205
 2233              	.L174:
 388:../../DaisyExamples/libDaisy//src/hid/disp/display.h ****             {
 2234              		.loc 8 388 13 view .LVU525
 2235 0278 9842     		cmp	r0, r3
 2236 027a 9E46     		mov	lr, r3
 2237              	.LVL179:
 388:../../DaisyExamples/libDaisy//src/hid/disp/display.h ****             {
 2238              		.loc 8 388 13 view .LVU526
 2239 027c AFDA     		bge	.L175
 2240              	.LVL180:
 2241              	.L160:
 390:../../DaisyExamples/libDaisy//src/hid/disp/display.h ****                 err = err + (t_x * 2 + 1);
 2242              		.loc 8 390 17 view .LVU527
 2243 027e 0130     		adds	r0, r0, #1
 2244              	.LVL181:
 391:../../DaisyExamples/libDaisy//src/hid/disp/display.h ****             }
 2245              		.loc 8 391 38 view .LVU528
 2246 0280 0EEB4003 		add	r3, lr, r0, lsl #1
 391:../../DaisyExamples/libDaisy//src/hid/disp/display.h ****             }
 2247              		.loc 8 391 21 view .LVU529
 2248 0284 0133     		adds	r3, r3, #1
 2249              	.LVL182:
 391:../../DaisyExamples/libDaisy//src/hid/disp/display.h ****             }
 2250              		.loc 8 391 21 view .LVU530
 2251 0286 ABE7     		b	.L161
 2252              	.L201:
 370:../../DaisyExamples/libDaisy//src/hid/disp/display.h ****             if(d3)
 2253              		.loc 8 370 43 view .LVU531
 2254 0288 009D     		ldr	r5, [sp]
 2255 028a 0CEB060E 		add	lr, ip, r6
 2256 028e 00EB050A 		add	r10, r0, r5
 2257              	.LVL183:
 2258              	.LBB642:
 2259              	.LBI642:
  42:../../DaisyExamples/libDaisy//src/hid/disp/oled_display.h ****     {
 2260              		.loc 6 42 10 is_stmt 1 view .LVU532
 2261              	.LBB643:
 2262              	.LBI643:
 352:../../DaisyExamples/libDaisy//src/dev/oled_ssd130x.h ****     {
ARM GAS  /var/folders/hp/45mn71hd0ps5f5pnytxy5bt00000gn/T//ccdvmoSj.s 			page 78


 2263              		.loc 7 352 10 view .LVU533
 2264              	.LBB644:
 354:../../DaisyExamples/libDaisy//src/dev/oled_ssd130x.h ****             return;
 2265              		.loc 7 354 9 is_stmt 0 view .LVU534
 2266 0292 BAF17F0F 		cmp	r10, #127
 2267 0296 92D8     		bhi	.L153
 2268 0298 BEF11F0F 		cmp	lr, #31
 2269 029c 8FD8     		bhi	.L153
 357:../../DaisyExamples/libDaisy//src/dev/oled_ssd130x.h ****         else
 2270              		.loc 7 357 28 view .LVU535
 2271 029e 4FEADE0B 		lsr	fp, lr, #3
 356:../../DaisyExamples/libDaisy//src/dev/oled_ssd130x.h ****             buffer_[x + (y / 8) * width] |= (1 << (y % 8));
 2272              		.loc 7 356 9 view .LVU536
 2273 02a2 019D     		ldr	r5, [sp, #4]
 357:../../DaisyExamples/libDaisy//src/dev/oled_ssd130x.h ****         else
 2274              		.loc 7 357 42 view .LVU537
 2275 02a4 0AEBCB1A 		add	r10, r10, fp, lsl #7
 2276              	.LVL184:
 356:../../DaisyExamples/libDaisy//src/dev/oled_ssd130x.h ****             buffer_[x + (y / 8) * width] |= (1 << (y % 8));
 2277              		.loc 7 356 9 view .LVU538
 2278 02a8 002D     		cmp	r5, #0
 2279 02aa 73D0     		beq	.L154
 357:../../DaisyExamples/libDaisy//src/dev/oled_ssd130x.h ****         else
 2280              		.loc 7 357 54 view .LVU539
 2281 02ac 0EF0070B 		and	fp, lr, #7
 357:../../DaisyExamples/libDaisy//src/dev/oled_ssd130x.h ****         else
 2282              		.loc 7 357 42 view .LVU540
 2283 02b0 C244     		add	r10, r10, r8
 357:../../DaisyExamples/libDaisy//src/dev/oled_ssd130x.h ****         else
 2284              		.loc 7 357 48 view .LVU541
 2285 02b2 4FF0010E 		mov	lr, #1
 2286              	.LVL185:
 357:../../DaisyExamples/libDaisy//src/dev/oled_ssd130x.h ****         else
 2287              		.loc 7 357 48 view .LVU542
 2288 02b6 0EFA0BFE 		lsl	lr, lr, fp
 357:../../DaisyExamples/libDaisy//src/dev/oled_ssd130x.h ****         else
 2289              		.loc 7 357 42 view .LVU543
 2290 02ba 9AF810B0 		ldrb	fp, [r10, #16]	@ zero_extendqisi2
 2291 02be 4EEA0B0E 		orr	lr, lr, fp
 2292 02c2 8AF810E0 		strb	lr, [r10, #16]
 2293              	.LVL186:
 357:../../DaisyExamples/libDaisy//src/dev/oled_ssd130x.h ****         else
 2294              		.loc 7 357 42 view .LVU544
 2295              	.LBE644:
 2296              	.LBE643:
 2297              	.LBE642:
 371:../../DaisyExamples/libDaisy//src/hid/disp/display.h ****                 ((ChildType*)(this))
 2298              		.loc 8 371 13 view .LVU545
 2299 02c6 002F     		cmp	r7, #0
 2300 02c8 3FF47AAF 		beq	.L155
 2301 02cc 90E7     		b	.L202
 2302              	.L200:
 367:../../DaisyExamples/libDaisy//src/hid/disp/display.h ****             if(d2)
 2303              		.loc 8 367 43 view .LVU546
 2304 02ce 009D     		ldr	r5, [sp]
 2305 02d0 0CEB060E 		add	lr, ip, r6
 2306 02d4 A5EB000A 		sub	r10, r5, r0
ARM GAS  /var/folders/hp/45mn71hd0ps5f5pnytxy5bt00000gn/T//ccdvmoSj.s 			page 79


 2307              	.LVL187:
 2308              	.LBB649:
 2309              	.LBI649:
  42:../../DaisyExamples/libDaisy//src/hid/disp/oled_display.h ****     {
 2310              		.loc 6 42 10 is_stmt 1 view .LVU547
 2311              	.LBB650:
 2312              	.LBI650:
 352:../../DaisyExamples/libDaisy//src/dev/oled_ssd130x.h ****     {
 2313              		.loc 7 352 10 view .LVU548
 2314              	.LBB651:
 354:../../DaisyExamples/libDaisy//src/dev/oled_ssd130x.h ****             return;
 2315              		.loc 7 354 9 is_stmt 0 view .LVU549
 2316 02d8 BAF17F0F 		cmp	r10, #127
 2317 02dc 3FF66DAF 		bhi	.L151
 2318 02e0 BEF11F0F 		cmp	lr, #31
 2319 02e4 3FF669AF 		bhi	.L151
 357:../../DaisyExamples/libDaisy//src/dev/oled_ssd130x.h ****         else
 2320              		.loc 7 357 28 view .LVU550
 2321 02e8 4FEADE0B 		lsr	fp, lr, #3
 356:../../DaisyExamples/libDaisy//src/dev/oled_ssd130x.h ****             buffer_[x + (y / 8) * width] |= (1 << (y % 8));
 2322              		.loc 7 356 9 view .LVU551
 2323 02ec 019D     		ldr	r5, [sp, #4]
 357:../../DaisyExamples/libDaisy//src/dev/oled_ssd130x.h ****         else
 2324              		.loc 7 357 42 view .LVU552
 2325 02ee 0AEBCB1A 		add	r10, r10, fp, lsl #7
 2326              	.LVL188:
 356:../../DaisyExamples/libDaisy//src/dev/oled_ssd130x.h ****             buffer_[x + (y / 8) * width] |= (1 << (y % 8));
 2327              		.loc 7 356 9 view .LVU553
 2328 02f2 002D     		cmp	r5, #0
 2329 02f4 6DD0     		beq	.L152
 357:../../DaisyExamples/libDaisy//src/dev/oled_ssd130x.h ****         else
 2330              		.loc 7 357 54 view .LVU554
 2331 02f6 0EF0070B 		and	fp, lr, #7
 357:../../DaisyExamples/libDaisy//src/dev/oled_ssd130x.h ****         else
 2332              		.loc 7 357 42 view .LVU555
 2333 02fa C244     		add	r10, r10, r8
 357:../../DaisyExamples/libDaisy//src/dev/oled_ssd130x.h ****         else
 2334              		.loc 7 357 48 view .LVU556
 2335 02fc 4FF0010E 		mov	lr, #1
 2336              	.LVL189:
 357:../../DaisyExamples/libDaisy//src/dev/oled_ssd130x.h ****         else
 2337              		.loc 7 357 48 view .LVU557
 2338 0300 0EFA0BFE 		lsl	lr, lr, fp
 357:../../DaisyExamples/libDaisy//src/dev/oled_ssd130x.h ****         else
 2339              		.loc 7 357 42 view .LVU558
 2340 0304 9AF810B0 		ldrb	fp, [r10, #16]	@ zero_extendqisi2
 2341 0308 4EEA0B0E 		orr	lr, lr, fp
 2342 030c 8AF810E0 		strb	lr, [r10, #16]
 2343              	.LVL190:
 357:../../DaisyExamples/libDaisy//src/dev/oled_ssd130x.h ****         else
 2344              		.loc 7 357 42 view .LVU559
 2345              	.LBE651:
 2346              	.LBE650:
 2347              	.LBE649:
 368:../../DaisyExamples/libDaisy//src/hid/disp/display.h ****                 ((ChildType*)(this))
 2348              		.loc 8 368 13 view .LVU560
 2349 0310 0029     		cmp	r1, #0
ARM GAS  /var/folders/hp/45mn71hd0ps5f5pnytxy5bt00000gn/T//ccdvmoSj.s 			page 80


 2350 0312 3FF454AF 		beq	.L153
 2351 0316 B7E7     		b	.L201
 2352              	.LVL191:
 2353              	.L140:
 358:../../DaisyExamples/libDaisy//src/hid/disp/display.h ****                     d2 = (t_sxy - t_syx < 0 && t_exy - t_eyx > 0);
 2354              		.loc 8 358 46 view .LVU561
 2355 0318 F1EE10FA 		vmrs	APSR_nzcv, FPSCR
 2356 031c 7ED4     		bmi	.L206
 2357 031e 4A46     		mov	r2, r9
 2358              	.L144:
 2359              	.LVL192:
 359:../../DaisyExamples/libDaisy//src/hid/disp/display.h ****                     d3 = (t_sxny - t_syx < 0 && t_exny - t_eyx > 0);
 2360              		.loc 8 359 33 discriminator 6 view .LVU562
 2361 0320 74EEC54A 		vsub.f32	s9, s9, s10
 2362              	.LVL193:
 359:../../DaisyExamples/libDaisy//src/hid/disp/display.h ****                     d3 = (t_sxny - t_syx < 0 && t_exny - t_eyx > 0);
 2363              		.loc 8 359 45 discriminator 6 view .LVU563
 2364 0324 F5EEC04A 		vcmpe.f32	s9, #0
 2365 0328 F1EE10FA 		vmrs	APSR_nzcv, FPSCR
 2366 032c 6CD4     		bmi	.L207
 359:../../DaisyExamples/libDaisy//src/hid/disp/display.h ****                     d3 = (t_sxny - t_syx < 0 && t_exny - t_eyx > 0);
 2367              		.loc 8 359 45 view .LVU564
 2368 032e 0021     		movs	r1, #0
 2369              	.LVL194:
 2370              	.L146:
 360:../../DaisyExamples/libDaisy//src/hid/disp/display.h ****                     d4 = (t_sxny - t_synx < 0 && t_exny - t_eynx > 0);
 2371              		.loc 8 360 34 discriminator 6 view .LVU565
 2372 0330 35EEC55A 		vsub.f32	s10, s11, s10
 2373              	.LVL195:
 360:../../DaisyExamples/libDaisy//src/hid/disp/display.h ****                     d4 = (t_sxny - t_synx < 0 && t_exny - t_eynx > 0);
 2374              		.loc 8 360 46 discriminator 6 view .LVU566
 2375 0334 B5EEC05A 		vcmpe.f32	s10, #0
 2376 0338 F1EE10FA 		vmrs	APSR_nzcv, FPSCR
 2377 033c 5AD4     		bmi	.L208
 360:../../DaisyExamples/libDaisy//src/hid/disp/display.h ****                     d4 = (t_sxny - t_synx < 0 && t_exny - t_eynx > 0);
 2378              		.loc 8 360 46 view .LVU567
 2379 033e 0027     		movs	r7, #0
 2380              	.LVL196:
 2381              	.L148:
 361:../../DaisyExamples/libDaisy//src/hid/disp/display.h ****                 }
 2382              		.loc 8 361 34 discriminator 6 view .LVU568
 2383 0340 75EEC45A 		vsub.f32	s11, s11, s8
 2384              	.LVL197:
 361:../../DaisyExamples/libDaisy//src/hid/disp/display.h ****                 }
 2385              		.loc 8 361 47 discriminator 6 view .LVU569
 2386 0344 F5EEC05A 		vcmpe.f32	s11, #0
 2387 0348 F1EE10FA 		vmrs	APSR_nzcv, FPSCR
 2388 034c 3FF529AF 		bmi	.L199
 361:../../DaisyExamples/libDaisy//src/hid/disp/display.h ****                 }
 2389              		.loc 8 361 47 view .LVU570
 2390 0350 0024     		movs	r4, #0
 2391              	.LVL198:
 365:../../DaisyExamples/libDaisy//src/hid/disp/display.h ****                 ((ChildType*)(this))
 2392              		.loc 8 365 13 view .LVU571
 2393 0352 002A     		cmp	r2, #0
 2394 0354 3FF431AF 		beq	.L151
 2395 0358 B9E7     		b	.L200
ARM GAS  /var/folders/hp/45mn71hd0ps5f5pnytxy5bt00000gn/T//ccdvmoSj.s 			page 81


 2396              	.LVL199:
 2397              	.L204:
 383:../../DaisyExamples/libDaisy//src/hid/disp/display.h ****                 {
 2398              		.loc 8 383 32 discriminator 1 view .LVU572
 2399 035a 9842     		cmp	r0, r3
 2400 035c 8FDB     		blt	.L160
 385:../../DaisyExamples/libDaisy//src/hid/disp/display.h ****                 }
 2401              		.loc 8 385 24 view .LVU573
 2402 035e 0023     		movs	r3, #0
 2403              	.LVL200:
 385:../../DaisyExamples/libDaisy//src/hid/disp/display.h ****                 }
 2404              		.loc 8 385 24 view .LVU574
 2405 0360 3BE7     		b	.L159
 2406              	.L212:
 2407 0362 00BFAFF3 		.align	3
 2407      0080
 2408              	.L211:
 2409 0368 7A008BFC 		.word	-57999238
 2410 036c FA210940 		.word	1074340346
 2411 0370 00000000 		.word	0
 2412 0374 00806640 		.word	1080459264
 2413              	.LVL201:
 2414              	.L156:
 2415              	.LBB656:
 2416              	.LBB631:
 2417              	.LBB630:
 2418              	.LBB628:
 2419              	.LBI628:
 352:../../DaisyExamples/libDaisy//src/dev/oled_ssd130x.h ****     {
 2420              		.loc 7 352 10 is_stmt 1 view .LVU575
 2421              	.LBB629:
 359:../../DaisyExamples/libDaisy//src/dev/oled_ssd130x.h ****     }
 2422              		.loc 7 359 42 is_stmt 0 view .LVU576
 2423 0378 C244     		add	r10, r10, r8
 2424              	.LVL202:
 359:../../DaisyExamples/libDaisy//src/dev/oled_ssd130x.h ****     }
 2425              		.loc 7 359 49 view .LVU577
 2426 037a 4FF0010B 		mov	fp, #1
 2427              	.LVL203:
 359:../../DaisyExamples/libDaisy//src/dev/oled_ssd130x.h ****     }
 2428              		.loc 7 359 55 view .LVU578
 2429 037e 0EF0070E 		and	lr, lr, #7
 2430              	.LVL204:
 359:../../DaisyExamples/libDaisy//src/dev/oled_ssd130x.h ****     }
 2431              		.loc 7 359 49 view .LVU579
 2432 0382 0BFA0EFE 		lsl	lr, fp, lr
 359:../../DaisyExamples/libDaisy//src/dev/oled_ssd130x.h ****     }
 2433              		.loc 7 359 42 view .LVU580
 2434 0386 9AF810B0 		ldrb	fp, [r10, #16]	@ zero_extendqisi2
 2435 038a 2BEA0E0E 		bic	lr, fp, lr
 2436 038e 8AF810E0 		strb	lr, [r10, #16]
 2437              	.LVL205:
 359:../../DaisyExamples/libDaisy//src/dev/oled_ssd130x.h ****     }
 2438              		.loc 7 359 42 view .LVU581
 2439 0392 15E7     		b	.L155
 2440              	.LVL206:
 2441              	.L154:
ARM GAS  /var/folders/hp/45mn71hd0ps5f5pnytxy5bt00000gn/T//ccdvmoSj.s 			page 82


 359:../../DaisyExamples/libDaisy//src/dev/oled_ssd130x.h ****     }
 2442              		.loc 7 359 42 view .LVU582
 2443              	.LBE629:
 2444              	.LBE628:
 2445              	.LBE630:
 2446              	.LBE631:
 2447              	.LBE656:
 2448              	.LBB657:
 2449              	.LBB648:
 2450              	.LBB647:
 2451              	.LBB645:
 2452              	.LBI645:
 352:../../DaisyExamples/libDaisy//src/dev/oled_ssd130x.h ****     {
 2453              		.loc 7 352 10 is_stmt 1 view .LVU583
 2454              	.LBB646:
 359:../../DaisyExamples/libDaisy//src/dev/oled_ssd130x.h ****     }
 2455              		.loc 7 359 42 is_stmt 0 view .LVU584
 2456 0394 C244     		add	r10, r10, r8
 2457              	.LVL207:
 359:../../DaisyExamples/libDaisy//src/dev/oled_ssd130x.h ****     }
 2458              		.loc 7 359 49 view .LVU585
 2459 0396 4FF0010B 		mov	fp, #1
 2460              	.LVL208:
 359:../../DaisyExamples/libDaisy//src/dev/oled_ssd130x.h ****     }
 2461              		.loc 7 359 55 view .LVU586
 2462 039a 0EF0070E 		and	lr, lr, #7
 2463              	.LVL209:
 359:../../DaisyExamples/libDaisy//src/dev/oled_ssd130x.h ****     }
 2464              		.loc 7 359 49 view .LVU587
 2465 039e 0BFA0EFE 		lsl	lr, fp, lr
 359:../../DaisyExamples/libDaisy//src/dev/oled_ssd130x.h ****     }
 2466              		.loc 7 359 42 view .LVU588
 2467 03a2 9AF810B0 		ldrb	fp, [r10, #16]	@ zero_extendqisi2
 2468 03a6 2BEA0E0E 		bic	lr, fp, lr
 2469 03aa 8AF810E0 		strb	lr, [r10, #16]
 2470              	.LVL210:
 359:../../DaisyExamples/libDaisy//src/dev/oled_ssd130x.h ****     }
 2471              		.loc 7 359 42 view .LVU589
 2472              	.LBE646:
 2473              	.LBE645:
 2474              	.LBE647:
 2475              	.LBE648:
 2476              	.LBE657:
 371:../../DaisyExamples/libDaisy//src/hid/disp/display.h ****                 ((ChildType*)(this))
 2477              		.loc 8 371 13 view .LVU590
 2478 03ae 002F     		cmp	r7, #0
 2479 03b0 3FF406AF 		beq	.L155
 2480 03b4 1CE7     		b	.L202
 2481              	.LVL211:
 2482              	.L158:
 2483              	.LBB658:
 2484              	.LBB640:
 2485              	.LBB638:
 2486              	.LBB635:
 2487              	.LBI635:
 352:../../DaisyExamples/libDaisy//src/dev/oled_ssd130x.h ****     {
 2488              		.loc 7 352 10 is_stmt 1 view .LVU591
ARM GAS  /var/folders/hp/45mn71hd0ps5f5pnytxy5bt00000gn/T//ccdvmoSj.s 			page 83


 2489              	.LBB636:
 359:../../DaisyExamples/libDaisy//src/dev/oled_ssd130x.h ****     }
 2490              		.loc 7 359 42 is_stmt 0 view .LVU592
 2491 03b6 C244     		add	r10, r10, r8
 2492              	.LVL212:
 359:../../DaisyExamples/libDaisy//src/dev/oled_ssd130x.h ****     }
 2493              		.loc 7 359 49 view .LVU593
 2494 03b8 4FF0010B 		mov	fp, #1
 2495              	.LVL213:
 359:../../DaisyExamples/libDaisy//src/dev/oled_ssd130x.h ****     }
 2496              		.loc 7 359 55 view .LVU594
 2497 03bc 0EF0070E 		and	lr, lr, #7
 2498              	.LVL214:
 359:../../DaisyExamples/libDaisy//src/dev/oled_ssd130x.h ****     }
 2499              		.loc 7 359 49 view .LVU595
 2500 03c0 0BFA0EFE 		lsl	lr, fp, lr
 359:../../DaisyExamples/libDaisy//src/dev/oled_ssd130x.h ****     }
 2501              		.loc 7 359 42 view .LVU596
 2502 03c4 9AF810B0 		ldrb	fp, [r10, #16]	@ zero_extendqisi2
 2503 03c8 2BEA0E0E 		bic	lr, fp, lr
 2504 03cc 8AF810E0 		strb	lr, [r10, #16]
 2505              	.LVL215:
 359:../../DaisyExamples/libDaisy//src/dev/oled_ssd130x.h ****     }
 2506              		.loc 7 359 42 view .LVU597
 2507 03d0 F7E6     		b	.L157
 2508              	.LVL216:
 2509              	.L152:
 359:../../DaisyExamples/libDaisy//src/dev/oled_ssd130x.h ****     }
 2510              		.loc 7 359 42 view .LVU598
 2511              	.LBE636:
 2512              	.LBE635:
 2513              	.LBE638:
 2514              	.LBE640:
 2515              	.LBE658:
 2516              	.LBB659:
 2517              	.LBB655:
 2518              	.LBB654:
 2519              	.LBB652:
 2520              	.LBI652:
 352:../../DaisyExamples/libDaisy//src/dev/oled_ssd130x.h ****     {
 2521              		.loc 7 352 10 is_stmt 1 view .LVU599
 2522              	.LBB653:
 359:../../DaisyExamples/libDaisy//src/dev/oled_ssd130x.h ****     }
 2523              		.loc 7 359 42 is_stmt 0 view .LVU600
 2524 03d2 C244     		add	r10, r10, r8
 2525              	.LVL217:
 359:../../DaisyExamples/libDaisy//src/dev/oled_ssd130x.h ****     }
 2526              		.loc 7 359 49 view .LVU601
 2527 03d4 4FF0010B 		mov	fp, #1
 2528              	.LVL218:
 359:../../DaisyExamples/libDaisy//src/dev/oled_ssd130x.h ****     }
 2529              		.loc 7 359 55 view .LVU602
 2530 03d8 0EF0070E 		and	lr, lr, #7
 2531              	.LVL219:
 359:../../DaisyExamples/libDaisy//src/dev/oled_ssd130x.h ****     }
 2532              		.loc 7 359 49 view .LVU603
 2533 03dc 0BFA0EFE 		lsl	lr, fp, lr
ARM GAS  /var/folders/hp/45mn71hd0ps5f5pnytxy5bt00000gn/T//ccdvmoSj.s 			page 84


 359:../../DaisyExamples/libDaisy//src/dev/oled_ssd130x.h ****     }
 2534              		.loc 7 359 42 view .LVU604
 2535 03e0 9AF810B0 		ldrb	fp, [r10, #16]	@ zero_extendqisi2
 2536 03e4 2BEA0E0E 		bic	lr, fp, lr
 2537 03e8 8AF810E0 		strb	lr, [r10, #16]
 2538              	.LVL220:
 359:../../DaisyExamples/libDaisy//src/dev/oled_ssd130x.h ****     }
 2539              		.loc 7 359 42 view .LVU605
 2540              	.LBE653:
 2541              	.LBE652:
 2542              	.LBE654:
 2543              	.LBE655:
 2544              	.LBE659:
 368:../../DaisyExamples/libDaisy//src/hid/disp/display.h ****                 ((ChildType*)(this))
 2545              		.loc 8 368 13 view .LVU606
 2546 03ec 0029     		cmp	r1, #0
 2547 03ee 3FF4E6AE 		beq	.L153
 2548 03f2 49E7     		b	.L201
 2549              	.LVL221:
 2550              	.L208:
 360:../../DaisyExamples/libDaisy//src/hid/disp/display.h ****                     d4 = (t_sxny - t_synx < 0 && t_exny - t_eynx > 0);
 2551              		.loc 8 360 56 discriminator 1 view .LVU607
 2552 03f4 77EEE66A 		vsub.f32	s13, s15, s13
 2553              	.LVL222:
 360:../../DaisyExamples/libDaisy//src/hid/disp/display.h ****                     d4 = (t_sxny - t_synx < 0 && t_exny - t_eynx > 0);
 2554              		.loc 8 360 46 discriminator 1 view .LVU608
 2555 03f8 F5EEC06A 		vcmpe.f32	s13, #0
 2556 03fc F1EE10FA 		vmrs	APSR_nzcv, FPSCR
 2557 0400 CCBF     		ite	gt
 2558 0402 0127     		movgt	r7, #1
 2559              	.LVL223:
 360:../../DaisyExamples/libDaisy//src/hid/disp/display.h ****                     d4 = (t_sxny - t_synx < 0 && t_exny - t_eynx > 0);
 2560              		.loc 8 360 46 discriminator 1 view .LVU609
 2561 0404 0027     		movle	r7, #0
 2562 0406 9BE7     		b	.L148
 2563              	.LVL224:
 2564              	.L207:
 359:../../DaisyExamples/libDaisy//src/hid/disp/display.h ****                     d3 = (t_sxny - t_syx < 0 && t_exny - t_eyx > 0);
 2565              		.loc 8 359 54 discriminator 1 view .LVU610
 2566 0408 36EE666A 		vsub.f32	s12, s12, s13
 2567              	.LVL225:
 359:../../DaisyExamples/libDaisy//src/hid/disp/display.h ****                     d3 = (t_sxny - t_syx < 0 && t_exny - t_eyx > 0);
 2568              		.loc 8 359 45 discriminator 1 view .LVU611
 2569 040c B5EEC06A 		vcmpe.f32	s12, #0
 2570 0410 F1EE10FA 		vmrs	APSR_nzcv, FPSCR
 2571 0414 CCBF     		ite	gt
 2572 0416 0121     		movgt	r1, #1
 2573 0418 0021     		movle	r1, #0
 2574 041a 89E7     		b	.L146
 2575              	.LVL226:
 2576              	.L206:
 358:../../DaisyExamples/libDaisy//src/hid/disp/display.h ****                     d2 = (t_sxy - t_syx < 0 && t_exy - t_eyx > 0);
 2577              		.loc 8 358 55 discriminator 1 view .LVU612
 2578 041c 76EE473A 		vsub.f32	s7, s12, s14
 358:../../DaisyExamples/libDaisy//src/hid/disp/display.h ****                     d2 = (t_sxy - t_syx < 0 && t_exy - t_eyx > 0);
 2579              		.loc 8 358 46 discriminator 1 view .LVU613
 2580 0420 F5EEC03A 		vcmpe.f32	s7, #0
ARM GAS  /var/folders/hp/45mn71hd0ps5f5pnytxy5bt00000gn/T//ccdvmoSj.s 			page 85


 2581 0424 F1EE10FA 		vmrs	APSR_nzcv, FPSCR
 2582 0428 CCBF     		ite	gt
 2583 042a 0122     		movgt	r2, #1
 2584 042c 0022     		movle	r2, #0
 2585 042e 77E7     		b	.L144
 2586              	.LVL227:
 2587              	.L169:
 354:../../DaisyExamples/libDaisy//src/hid/disp/display.h ****                 }
 2588              		.loc 8 354 47 view .LVU614
 2589 0430 0124     		movs	r4, #1
 2590              	.LVL228:
 365:../../DaisyExamples/libDaisy//src/hid/disp/display.h ****                 ((ChildType*)(this))
 2591              		.loc 8 365 13 view .LVU615
 2592 0432 002A     		cmp	r2, #0
 2593 0434 3FF4C1AE 		beq	.L151
 365:../../DaisyExamples/libDaisy//src/hid/disp/display.h ****                 ((ChildType*)(this))
 2594              		.loc 8 365 13 view .LVU616
 2595 0438 49E7     		b	.L200
 2596              	.LVL229:
 2597              	.L166:
 352:../../DaisyExamples/libDaisy//src/hid/disp/display.h ****                     d3 = (t_sxny - t_syx < 0 || t_exny - t_eyx > 0);
 2598              		.loc 8 352 33 view .LVU617
 2599 043a 74EEC54A 		vsub.f32	s9, s9, s10
 2600              	.LVL230:
 351:../../DaisyExamples/libDaisy//src/hid/disp/display.h ****                     d2 = (t_sxy - t_syx < 0 || t_exy - t_eyx > 0);
 2601              		.loc 8 351 46 view .LVU618
 2602 043e 0122     		movs	r2, #1
 2603              	.LVL231:
 352:../../DaisyExamples/libDaisy//src/hid/disp/display.h ****                     d3 = (t_sxny - t_syx < 0 || t_exny - t_eyx > 0);
 2604              		.loc 8 352 45 view .LVU619
 2605 0440 F5EEC04A 		vcmpe.f32	s9, #0
 2606 0444 F1EE10FA 		vmrs	APSR_nzcv, FPSCR
 2607 0448 7FF589AE 		bpl	.L209
 2608              	.L167:
 353:../../DaisyExamples/libDaisy//src/hid/disp/display.h ****                     d4 = (t_sxny - t_synx < 0 || t_exny - t_eynx > 0);
 2609              		.loc 8 353 34 view .LVU620
 2610 044c 35EEC55A 		vsub.f32	s10, s11, s10
 2611              	.LVL232:
 352:../../DaisyExamples/libDaisy//src/hid/disp/display.h ****                     d3 = (t_sxny - t_syx < 0 || t_exny - t_eyx > 0);
 2612              		.loc 8 352 45 view .LVU621
 2613 0450 0121     		movs	r1, #1
 2614              	.LVL233:
 353:../../DaisyExamples/libDaisy//src/hid/disp/display.h ****                     d4 = (t_sxny - t_synx < 0 || t_exny - t_eynx > 0);
 2615              		.loc 8 353 46 view .LVU622
 2616 0452 B5EEC05A 		vcmpe.f32	s10, #0
 2617 0456 F1EE10FA 		vmrs	APSR_nzcv, FPSCR
 2618 045a 7FF591AE 		bpl	.L210
 2619              	.LVL234:
 2620              	.L168:
 353:../../DaisyExamples/libDaisy//src/hid/disp/display.h ****                     d4 = (t_sxny - t_synx < 0 || t_exny - t_eynx > 0);
 2621              		.loc 8 353 46 view .LVU623
 2622 045e 0127     		movs	r7, #1
 2623              	.LVL235:
 353:../../DaisyExamples/libDaisy//src/hid/disp/display.h ****                     d4 = (t_sxny - t_synx < 0 || t_exny - t_eynx > 0);
 2624              		.loc 8 353 46 view .LVU624
 2625 0460 97E6     		b	.L143
 2626              	.LVL236:
ARM GAS  /var/folders/hp/45mn71hd0ps5f5pnytxy5bt00000gn/T//ccdvmoSj.s 			page 86


 2627              	.L135:
 308:../../DaisyExamples/libDaisy//src/hid/disp/display.h ****             sweep = -sweep;
 2628              		.loc 8 308 25 view .LVU625
 2629 0462 DDE91223 		ldrd	r2, r3, [sp, #72]
 2630              	.LVL237:
 308:../../DaisyExamples/libDaisy//src/hid/disp/display.h ****             sweep = -sweep;
 2631              		.loc 8 308 25 view .LVU626
 2632 0466 1344     		add	r3, r3, r2
 2633              	.LVL238:
 308:../../DaisyExamples/libDaisy//src/hid/disp/display.h ****             sweep = -sweep;
 2634              		.loc 8 308 25 view .LVU627
 2635 0468 06EE102A 		vmov	s12, r2	@ int
 2636 046c 1293     		str	r3, [sp, #72]
 2637 046e 139B     		ldr	r3, [sp, #76]
 2638              	.LVL239:
 308:../../DaisyExamples/libDaisy//src/hid/disp/display.h ****             sweep = -sweep;
 2639              		.loc 8 308 25 view .LVU628
 2640 0470 5B42     		rsbs	r3, r3, #0
 2641 0472 1393     		str	r3, [sp, #76]
 2642              	.LVL240:
 308:../../DaisyExamples/libDaisy//src/hid/disp/display.h ****             sweep = -sweep;
 2643              		.loc 8 308 25 view .LVU629
 2644 0474 D8E5     		b	.L136
 2645              		.cfi_endproc
 2646              	.LFE2676:
 2648 0476 00BF     		.section	.text._ZN5daisy25OneBitGraphicsDisplayImplINS_11OledDisplayINS_13SSD130xDriverILj128ELj32
 2649              		.align	1
 2650              		.p2align 2,,3
 2651              		.weak	_ZN5daisy25OneBitGraphicsDisplayImplINS_11OledDisplayINS_13SSD130xDriverILj128ELj32ENS_19SSD
 2652              		.syntax unified
 2653              		.thumb
 2654              		.thumb_func
 2656              	_ZN5daisy25OneBitGraphicsDisplayImplINS_11OledDisplayINS_13SSD130xDriverILj128ELj32ENS_19SSD130xI2C
 2657              	.LVL241:
 2658              	.LFB2677:
 459:../../DaisyExamples/libDaisy//src/hid/disp/display.h **** 
 460:../../DaisyExamples/libDaisy//src/hid/disp/display.h ****     Rectangle WriteStringAligned(const char*    str,
 2659              		.loc 8 460 15 is_stmt 1 view -0
 2660              		.cfi_startproc
 2661              		@ args = 12, pretend = 0, frame = 32
 2662              		@ frame_needed = 0, uses_anonymous_args = 0
 2663              		.loc 8 460 15 is_stmt 0 view .LVU631
 2664 0000 2DE9F04F 		push	{r4, r5, r6, r7, r8, r9, r10, fp, lr}
 2665              		.cfi_def_cfa_offset 36
 2666              		.cfi_offset 4, -36
 2667              		.cfi_offset 5, -32
 2668              		.cfi_offset 6, -28
 2669              		.cfi_offset 7, -24
 2670              		.cfi_offset 8, -20
 2671              		.cfi_offset 9, -16
 2672              		.cfi_offset 10, -12
 2673              		.cfi_offset 11, -8
 2674              		.cfi_offset 14, -4
 2675 0004 89B0     		sub	sp, sp, #36
 2676              		.cfi_def_cfa_offset 72
 2677              		.loc 8 460 15 view .LVU632
 2678 0006 1D46     		mov	r5, r3
ARM GAS  /var/folders/hp/45mn71hd0ps5f5pnytxy5bt00000gn/T//ccdvmoSj.s 			page 87


 2679 0008 8846     		mov	r8, r1
 2680              	.LVL242:
 2681              	.LBB798:
 2682              	.LBI798:
 461:../../DaisyExamples/libDaisy//src/hid/disp/display.h ****                                  const FontDef& font,
 462:../../DaisyExamples/libDaisy//src/hid/disp/display.h ****                                  Rectangle      boundingBox,
 463:../../DaisyExamples/libDaisy//src/hid/disp/display.h ****                                  Alignment      alignment,
 464:../../DaisyExamples/libDaisy//src/hid/disp/display.h ****                                  bool           on) override
 465:../../DaisyExamples/libDaisy//src/hid/disp/display.h ****     {
 466:../../DaisyExamples/libDaisy//src/hid/disp/display.h ****         const auto alignedRect
 467:../../DaisyExamples/libDaisy//src/hid/disp/display.h ****             = GetTextRect(str, font).AlignedWithin(boundingBox, alignment);
 468:../../DaisyExamples/libDaisy//src/hid/disp/display.h ****         SetCursor(alignedRect.GetX(), alignedRect.GetY());
 469:../../DaisyExamples/libDaisy//src/hid/disp/display.h ****         ((ChildType*)(this))->ChildType::WriteString(str, font, on);
 470:../../DaisyExamples/libDaisy//src/hid/disp/display.h ****         return alignedRect;
 471:../../DaisyExamples/libDaisy//src/hid/disp/display.h ****     }
 472:../../DaisyExamples/libDaisy//src/hid/disp/display.h **** 
 473:../../DaisyExamples/libDaisy//src/hid/disp/display.h ****   private:
 474:../../DaisyExamples/libDaisy//src/hid/disp/display.h ****     uint32_t strlen(const char* string)
 475:../../DaisyExamples/libDaisy//src/hid/disp/display.h ****     {
 476:../../DaisyExamples/libDaisy//src/hid/disp/display.h ****         uint32_t result = 0;
 477:../../DaisyExamples/libDaisy//src/hid/disp/display.h ****         while(*string++ != '\0')
 478:../../DaisyExamples/libDaisy//src/hid/disp/display.h ****             result++;
 479:../../DaisyExamples/libDaisy//src/hid/disp/display.h ****         return result;
 480:../../DaisyExamples/libDaisy//src/hid/disp/display.h ****     }
 481:../../DaisyExamples/libDaisy//src/hid/disp/display.h **** 
 482:../../DaisyExamples/libDaisy//src/hid/disp/display.h ****     Rectangle GetTextRect(const char* text, const FontDef& font)
 2683              		.loc 8 482 15 is_stmt 1 view .LVU633
 2684              	.LBB799:
 2685              	.LBB800:
 2686              	.LBI800:
 474:../../DaisyExamples/libDaisy//src/hid/disp/display.h ****     {
 2687              		.loc 8 474 14 view .LVU634
 2688              	.LBB801:
 477:../../DaisyExamples/libDaisy//src/hid/disp/display.h ****             result++;
 2689              		.loc 8 477 25 view .LVU635
 2690              	.LBE801:
 2691              	.LBE800:
 2692              	.LBE799:
 2693              	.LBE798:
 460:../../DaisyExamples/libDaisy//src/hid/disp/display.h ****                                  const FontDef& font,
 2694              		.loc 8 460 15 is_stmt 0 view .LVU636
 2695 000a 0690     		str	r0, [sp, #24]
 2696              	.LBB816:
 2697              	.LBB812:
 2698              	.LBB805:
 2699              	.LBB802:
 477:../../DaisyExamples/libDaisy//src/hid/disp/display.h ****             result++;
 2700              		.loc 8 477 25 view .LVU637
 2701 000c 1046     		mov	r0, r2
 2702              	.LVL243:
 477:../../DaisyExamples/libDaisy//src/hid/disp/display.h ****             result++;
 2703              		.loc 8 477 25 view .LVU638
 2704              	.LBE802:
 2705              	.LBE805:
 2706              	.LBE812:
 2707              	.LBE816:
 460:../../DaisyExamples/libDaisy//src/hid/disp/display.h ****                                  const FontDef& font,
ARM GAS  /var/folders/hp/45mn71hd0ps5f5pnytxy5bt00000gn/T//ccdvmoSj.s 			page 88


 2708              		.loc 8 460 15 view .LVU639
 2709 000e 129C     		ldr	r4, [sp, #72]
 2710              	.LBB817:
 2711              	.LBB813:
 2712              	.LBB806:
 2713              	.LBB803:
 477:../../DaisyExamples/libDaisy//src/hid/disp/display.h ****             result++;
 2714              		.loc 8 477 25 view .LVU640
 2715 0010 10F8013B 		ldrb	r3, [r0], #1	@ zero_extendqisi2
 2716              	.LVL244:
 477:../../DaisyExamples/libDaisy//src/hid/disp/display.h ****             result++;
 2717              		.loc 8 477 25 view .LVU641
 2718              	.LBE803:
 2719              	.LBE806:
 2720              	.LBE813:
 2721              	.LBE817:
 460:../../DaisyExamples/libDaisy//src/hid/disp/display.h ****                                  const FontDef& font,
 2722              		.loc 8 460 15 view .LVU642
 2723 0014 1399     		ldr	r1, [sp, #76]
 2724              	.LVL245:
 460:../../DaisyExamples/libDaisy//src/hid/disp/display.h ****                                  const FontDef& font,
 2725              		.loc 8 460 15 view .LVU643
 2726 0016 9DF85060 		ldrb	r6, [sp, #80]	@ zero_extendqisi2
 2727 001a 0092     		str	r2, [sp]
 2728              	.LBB818:
 2729              	.LBB814:
 2730              	.LBB807:
 2731              	.LBB804:
 477:../../DaisyExamples/libDaisy//src/hid/disp/display.h ****             result++;
 2732              		.loc 8 477 25 view .LVU644
 2733 001c 33B1     		cbz	r3, .L214
 476:../../DaisyExamples/libDaisy//src/hid/disp/display.h ****         while(*string++ != '\0')
 2734              		.loc 8 476 18 view .LVU645
 2735 001e 0022     		movs	r2, #0
 2736              	.LVL246:
 2737              	.L215:
 477:../../DaisyExamples/libDaisy//src/hid/disp/display.h ****             result++;
 2738              		.loc 8 477 25 view .LVU646
 2739 0020 10F8013B 		ldrb	r3, [r0], #1	@ zero_extendqisi2
 2740              	.LVL247:
 478:../../DaisyExamples/libDaisy//src/hid/disp/display.h ****         return result;
 2741              		.loc 8 478 13 view .LVU647
 2742 0024 0132     		adds	r2, r2, #1
 2743              	.LVL248:
 477:../../DaisyExamples/libDaisy//src/hid/disp/display.h ****             result++;
 2744              		.loc 8 477 25 is_stmt 1 view .LVU648
 2745 0026 002B     		cmp	r3, #0
 2746 0028 FAD1     		bne	.L215
 2747              	.LBE804:
 2748              	.LBE807:
 483:../../DaisyExamples/libDaisy//src/hid/disp/display.h ****     {
 484:../../DaisyExamples/libDaisy//src/hid/disp/display.h ****         const auto numChars = strlen(text);
 485:../../DaisyExamples/libDaisy//src/hid/disp/display.h ****         return {int16_t(numChars * font.FontWidth), font.FontHeight};
 2749              		.loc 8 485 68 is_stmt 0 view .LVU649
 2750 002a 93B2     		uxth	r3, r2
 2751              	.LVL249:
 2752              	.L214:
ARM GAS  /var/folders/hp/45mn71hd0ps5f5pnytxy5bt00000gn/T//ccdvmoSj.s 			page 89


 2753              		.loc 8 485 68 view .LVU650
 2754 002c 2A78     		ldrb	r2, [r5]	@ zero_extendqisi2
 2755              		.loc 8 485 58 view .LVU651
 2756 002e 6878     		ldrb	r0, [r5, #1]	@ zero_extendqisi2
 2757              		.loc 8 485 68 view .LVU652
 2758 0030 12FB03F3 		smulbb	r3, r2, r3
 2759 0034 02B2     		sxth	r2, r0
 2760              	.LVL250:
 2761              	.LBB808:
 2762              	.LBI808:
 2763              		.file 10 "../../DaisyExamples/libDaisy//src/hid/disp/graphics_common.h"
   1:../../DaisyExamples/libDaisy//src/hid/disp/graphics_common.h **** #pragma once
   2:../../DaisyExamples/libDaisy//src/hid/disp/graphics_common.h **** 
   3:../../DaisyExamples/libDaisy//src/hid/disp/graphics_common.h **** #include <cstdint>
   4:../../DaisyExamples/libDaisy//src/hid/disp/graphics_common.h **** 
   5:../../DaisyExamples/libDaisy//src/hid/disp/graphics_common.h **** namespace daisy
   6:../../DaisyExamples/libDaisy//src/hid/disp/graphics_common.h **** {
   7:../../DaisyExamples/libDaisy//src/hid/disp/graphics_common.h **** /** Justifications */
   8:../../DaisyExamples/libDaisy//src/hid/disp/graphics_common.h **** enum class Alignment
   9:../../DaisyExamples/libDaisy//src/hid/disp/graphics_common.h **** {
  10:../../DaisyExamples/libDaisy//src/hid/disp/graphics_common.h ****     centered,
  11:../../DaisyExamples/libDaisy//src/hid/disp/graphics_common.h ****     topLeft,
  12:../../DaisyExamples/libDaisy//src/hid/disp/graphics_common.h ****     topCentered,
  13:../../DaisyExamples/libDaisy//src/hid/disp/graphics_common.h ****     topRight,
  14:../../DaisyExamples/libDaisy//src/hid/disp/graphics_common.h ****     bottomLeft,
  15:../../DaisyExamples/libDaisy//src/hid/disp/graphics_common.h ****     bottomCentered,
  16:../../DaisyExamples/libDaisy//src/hid/disp/graphics_common.h ****     bottomRight,
  17:../../DaisyExamples/libDaisy//src/hid/disp/graphics_common.h ****     centeredLeft,
  18:../../DaisyExamples/libDaisy//src/hid/disp/graphics_common.h ****     centeredRight
  19:../../DaisyExamples/libDaisy//src/hid/disp/graphics_common.h **** };
  20:../../DaisyExamples/libDaisy//src/hid/disp/graphics_common.h **** 
  21:../../DaisyExamples/libDaisy//src/hid/disp/graphics_common.h **** class Rectangle
  22:../../DaisyExamples/libDaisy//src/hid/disp/graphics_common.h **** {
  23:../../DaisyExamples/libDaisy//src/hid/disp/graphics_common.h ****   public:
  24:../../DaisyExamples/libDaisy//src/hid/disp/graphics_common.h ****     Rectangle() : x_(0), y_(0), width_(0), height_(0) {}
  25:../../DaisyExamples/libDaisy//src/hid/disp/graphics_common.h **** 
  26:../../DaisyExamples/libDaisy//src/hid/disp/graphics_common.h ****     Rectangle(int16_t width, int16_t height)
 2764              		.loc 10 26 5 is_stmt 1 view .LVU653
 2765              	.LBB809:
 2766              	.LBI809:
  27:../../DaisyExamples/libDaisy//src/hid/disp/graphics_common.h ****     : x_(0), y_(0), width_(max(0, width)), height_(max(0, height))
  28:../../DaisyExamples/libDaisy//src/hid/disp/graphics_common.h ****     {
  29:../../DaisyExamples/libDaisy//src/hid/disp/graphics_common.h ****     }
  30:../../DaisyExamples/libDaisy//src/hid/disp/graphics_common.h **** 
  31:../../DaisyExamples/libDaisy//src/hid/disp/graphics_common.h ****     Rectangle(int16_t x, int16_t y, int16_t width, int16_t height)
  32:../../DaisyExamples/libDaisy//src/hid/disp/graphics_common.h ****     : x_(x), y_(y), width_(max(0, width)), height_(max(0, height))
  33:../../DaisyExamples/libDaisy//src/hid/disp/graphics_common.h ****     {
  34:../../DaisyExamples/libDaisy//src/hid/disp/graphics_common.h ****     }
  35:../../DaisyExamples/libDaisy//src/hid/disp/graphics_common.h **** 
  36:../../DaisyExamples/libDaisy//src/hid/disp/graphics_common.h ****     Rectangle(const Rectangle& other) { *this = other; }
  37:../../DaisyExamples/libDaisy//src/hid/disp/graphics_common.h **** 
  38:../../DaisyExamples/libDaisy//src/hid/disp/graphics_common.h ****     Rectangle& operator=(const Rectangle& other)
  39:../../DaisyExamples/libDaisy//src/hid/disp/graphics_common.h ****     {
  40:../../DaisyExamples/libDaisy//src/hid/disp/graphics_common.h ****         x_      = other.x_;
  41:../../DaisyExamples/libDaisy//src/hid/disp/graphics_common.h ****         y_      = other.y_;
  42:../../DaisyExamples/libDaisy//src/hid/disp/graphics_common.h ****         width_  = other.width_;
  43:../../DaisyExamples/libDaisy//src/hid/disp/graphics_common.h ****         height_ = other.height_;
ARM GAS  /var/folders/hp/45mn71hd0ps5f5pnytxy5bt00000gn/T//ccdvmoSj.s 			page 90


  44:../../DaisyExamples/libDaisy//src/hid/disp/graphics_common.h ****         return *this;
  45:../../DaisyExamples/libDaisy//src/hid/disp/graphics_common.h ****     }
  46:../../DaisyExamples/libDaisy//src/hid/disp/graphics_common.h **** 
  47:../../DaisyExamples/libDaisy//src/hid/disp/graphics_common.h ****     bool operator==(const Rectangle& other) const
  48:../../DaisyExamples/libDaisy//src/hid/disp/graphics_common.h ****     {
  49:../../DaisyExamples/libDaisy//src/hid/disp/graphics_common.h ****         return (x_ == other.x_) && (y_ == other.y_) && (width_ == other.width_)
  50:../../DaisyExamples/libDaisy//src/hid/disp/graphics_common.h ****                && (height_ == other.height_);
  51:../../DaisyExamples/libDaisy//src/hid/disp/graphics_common.h ****     }
  52:../../DaisyExamples/libDaisy//src/hid/disp/graphics_common.h ****     bool operator!=(const Rectangle& other) const { return !(*this == other); }
  53:../../DaisyExamples/libDaisy//src/hid/disp/graphics_common.h **** 
  54:../../DaisyExamples/libDaisy//src/hid/disp/graphics_common.h ****     bool IsEmpty() const { return (width_ <= 0) || (height_ <= 0); }
  55:../../DaisyExamples/libDaisy//src/hid/disp/graphics_common.h **** 
  56:../../DaisyExamples/libDaisy//src/hid/disp/graphics_common.h ****     int16_t GetX() const { return x_; }
  57:../../DaisyExamples/libDaisy//src/hid/disp/graphics_common.h ****     int16_t GetY() const { return y_; }
  58:../../DaisyExamples/libDaisy//src/hid/disp/graphics_common.h ****     int16_t GetWidth() const { return width_; }
  59:../../DaisyExamples/libDaisy//src/hid/disp/graphics_common.h ****     int16_t GetHeight() const { return height_; }
  60:../../DaisyExamples/libDaisy//src/hid/disp/graphics_common.h ****     int16_t GetRight() const { return x_ + width_; }
  61:../../DaisyExamples/libDaisy//src/hid/disp/graphics_common.h ****     int16_t GetBottom() const { return y_ + height_; }
  62:../../DaisyExamples/libDaisy//src/hid/disp/graphics_common.h ****     int16_t GetCenterX() const { return x_ + width_ / 2; }
  63:../../DaisyExamples/libDaisy//src/hid/disp/graphics_common.h ****     int16_t GetCenterY() const { return y_ + height_ / 2; }
  64:../../DaisyExamples/libDaisy//src/hid/disp/graphics_common.h **** 
  65:../../DaisyExamples/libDaisy//src/hid/disp/graphics_common.h ****     Rectangle WithX(int16_t x) const { return {x, y_, width_, height_}; }
  66:../../DaisyExamples/libDaisy//src/hid/disp/graphics_common.h ****     Rectangle WithY(int16_t y) const { return {x_, y, width_, height_}; }
  67:../../DaisyExamples/libDaisy//src/hid/disp/graphics_common.h ****     Rectangle WithWidth(int16_t width) const
  68:../../DaisyExamples/libDaisy//src/hid/disp/graphics_common.h ****     {
  69:../../DaisyExamples/libDaisy//src/hid/disp/graphics_common.h ****         return {x_, y_, width, height_};
  70:../../DaisyExamples/libDaisy//src/hid/disp/graphics_common.h ****     }
  71:../../DaisyExamples/libDaisy//src/hid/disp/graphics_common.h ****     Rectangle WithHeight(int16_t height) const
  72:../../DaisyExamples/libDaisy//src/hid/disp/graphics_common.h ****     {
  73:../../DaisyExamples/libDaisy//src/hid/disp/graphics_common.h ****         return {x_, y_, width_, height};
  74:../../DaisyExamples/libDaisy//src/hid/disp/graphics_common.h ****     }
  75:../../DaisyExamples/libDaisy//src/hid/disp/graphics_common.h ****     Rectangle WithSize(int16_t width, int16_t height) const
  76:../../DaisyExamples/libDaisy//src/hid/disp/graphics_common.h ****     {
  77:../../DaisyExamples/libDaisy//src/hid/disp/graphics_common.h ****         return {x_, y_, width, height};
  78:../../DaisyExamples/libDaisy//src/hid/disp/graphics_common.h ****     }
  79:../../DaisyExamples/libDaisy//src/hid/disp/graphics_common.h ****     Rectangle WithWidthKeepingCenter(int16_t width) const
  80:../../DaisyExamples/libDaisy//src/hid/disp/graphics_common.h ****     {
  81:../../DaisyExamples/libDaisy//src/hid/disp/graphics_common.h ****         return Rectangle(x_, y_, width, height_)
  82:../../DaisyExamples/libDaisy//src/hid/disp/graphics_common.h ****             .WithCenter(GetCenterX(), GetCenterY());
  83:../../DaisyExamples/libDaisy//src/hid/disp/graphics_common.h ****     }
  84:../../DaisyExamples/libDaisy//src/hid/disp/graphics_common.h ****     Rectangle WithHeightKeepingCenter(int16_t height) const
  85:../../DaisyExamples/libDaisy//src/hid/disp/graphics_common.h ****     {
  86:../../DaisyExamples/libDaisy//src/hid/disp/graphics_common.h ****         return Rectangle(x_, y_, width_, height)
  87:../../DaisyExamples/libDaisy//src/hid/disp/graphics_common.h ****             .WithCenter(GetCenterX(), GetCenterY());
  88:../../DaisyExamples/libDaisy//src/hid/disp/graphics_common.h ****     }
  89:../../DaisyExamples/libDaisy//src/hid/disp/graphics_common.h ****     Rectangle WithSizeKeepingCenter(int16_t width, int16_t height) const
  90:../../DaisyExamples/libDaisy//src/hid/disp/graphics_common.h ****     {
  91:../../DaisyExamples/libDaisy//src/hid/disp/graphics_common.h ****         return Rectangle(x_, y_, width, height)
  92:../../DaisyExamples/libDaisy//src/hid/disp/graphics_common.h ****             .WithCenter(GetCenterX(), GetCenterY());
  93:../../DaisyExamples/libDaisy//src/hid/disp/graphics_common.h ****     }
  94:../../DaisyExamples/libDaisy//src/hid/disp/graphics_common.h **** 
  95:../../DaisyExamples/libDaisy//src/hid/disp/graphics_common.h ****     Rectangle Reduced(int16_t sizeToReduce) const
  96:../../DaisyExamples/libDaisy//src/hid/disp/graphics_common.h ****     {
  97:../../DaisyExamples/libDaisy//src/hid/disp/graphics_common.h ****         return {int16_t(x_ + sizeToReduce),
  98:../../DaisyExamples/libDaisy//src/hid/disp/graphics_common.h ****                 int16_t(y_ + sizeToReduce),
  99:../../DaisyExamples/libDaisy//src/hid/disp/graphics_common.h ****                 int16_t(width_ - 2 * sizeToReduce),
 100:../../DaisyExamples/libDaisy//src/hid/disp/graphics_common.h ****                 int16_t(height_ - 2 * sizeToReduce)};
ARM GAS  /var/folders/hp/45mn71hd0ps5f5pnytxy5bt00000gn/T//ccdvmoSj.s 			page 91


 101:../../DaisyExamples/libDaisy//src/hid/disp/graphics_common.h ****     }
 102:../../DaisyExamples/libDaisy//src/hid/disp/graphics_common.h ****     Rectangle Reduced(int16_t xToReduce, int16_t yToReduce) const
 103:../../DaisyExamples/libDaisy//src/hid/disp/graphics_common.h ****     {
 104:../../DaisyExamples/libDaisy//src/hid/disp/graphics_common.h ****         return {int16_t(x_ + xToReduce),
 105:../../DaisyExamples/libDaisy//src/hid/disp/graphics_common.h ****                 int16_t(y_ + yToReduce),
 106:../../DaisyExamples/libDaisy//src/hid/disp/graphics_common.h ****                 int16_t(width_ - 2 * xToReduce),
 107:../../DaisyExamples/libDaisy//src/hid/disp/graphics_common.h ****                 int16_t(height_ - 2 * yToReduce)};
 108:../../DaisyExamples/libDaisy//src/hid/disp/graphics_common.h ****     }
 109:../../DaisyExamples/libDaisy//src/hid/disp/graphics_common.h **** 
 110:../../DaisyExamples/libDaisy//src/hid/disp/graphics_common.h ****     Rectangle Translated(int16_t x, int16_t y) const
 111:../../DaisyExamples/libDaisy//src/hid/disp/graphics_common.h ****     {
 112:../../DaisyExamples/libDaisy//src/hid/disp/graphics_common.h ****         return {int16_t(x_ + x), int16_t(y_ + y), width_, height_};
 113:../../DaisyExamples/libDaisy//src/hid/disp/graphics_common.h ****     }
 114:../../DaisyExamples/libDaisy//src/hid/disp/graphics_common.h **** 
 115:../../DaisyExamples/libDaisy//src/hid/disp/graphics_common.h ****     Rectangle WithLeft(int16_t left) const
 116:../../DaisyExamples/libDaisy//src/hid/disp/graphics_common.h ****     {
 117:../../DaisyExamples/libDaisy//src/hid/disp/graphics_common.h ****         const auto newWidth = int16_t((x_ - left) + width_);
 118:../../DaisyExamples/libDaisy//src/hid/disp/graphics_common.h ****         return {left, y_, newWidth, height_};
 119:../../DaisyExamples/libDaisy//src/hid/disp/graphics_common.h ****     }
 120:../../DaisyExamples/libDaisy//src/hid/disp/graphics_common.h **** 
 121:../../DaisyExamples/libDaisy//src/hid/disp/graphics_common.h ****     Rectangle WithRight(int16_t right) const
 122:../../DaisyExamples/libDaisy//src/hid/disp/graphics_common.h ****     {
 123:../../DaisyExamples/libDaisy//src/hid/disp/graphics_common.h ****         const auto newWidth = int16_t(right - x_);
 124:../../DaisyExamples/libDaisy//src/hid/disp/graphics_common.h ****         return {x_, y_, newWidth, height_};
 125:../../DaisyExamples/libDaisy//src/hid/disp/graphics_common.h ****     }
 126:../../DaisyExamples/libDaisy//src/hid/disp/graphics_common.h **** 
 127:../../DaisyExamples/libDaisy//src/hid/disp/graphics_common.h ****     Rectangle WithTop(int16_t top) const
 128:../../DaisyExamples/libDaisy//src/hid/disp/graphics_common.h ****     {
 129:../../DaisyExamples/libDaisy//src/hid/disp/graphics_common.h ****         const auto newHeight = int16_t((y_ - top) + height_);
 130:../../DaisyExamples/libDaisy//src/hid/disp/graphics_common.h ****         return {x_, top, width_, newHeight};
 131:../../DaisyExamples/libDaisy//src/hid/disp/graphics_common.h ****     }
 132:../../DaisyExamples/libDaisy//src/hid/disp/graphics_common.h **** 
 133:../../DaisyExamples/libDaisy//src/hid/disp/graphics_common.h ****     Rectangle WithBottom(int16_t bottom) const
 134:../../DaisyExamples/libDaisy//src/hid/disp/graphics_common.h ****     {
 135:../../DaisyExamples/libDaisy//src/hid/disp/graphics_common.h ****         const auto newHeight = int16_t(bottom - y_);
 136:../../DaisyExamples/libDaisy//src/hid/disp/graphics_common.h ****         return {x_, y_, width_, newHeight};
 137:../../DaisyExamples/libDaisy//src/hid/disp/graphics_common.h ****     }
 138:../../DaisyExamples/libDaisy//src/hid/disp/graphics_common.h **** 
 139:../../DaisyExamples/libDaisy//src/hid/disp/graphics_common.h ****     Rectangle WithTrimmedLeft(int16_t pxToTrim) const
 140:../../DaisyExamples/libDaisy//src/hid/disp/graphics_common.h ****     {
 141:../../DaisyExamples/libDaisy//src/hid/disp/graphics_common.h ****         return {
 142:../../DaisyExamples/libDaisy//src/hid/disp/graphics_common.h ****             int16_t(x_ + pxToTrim), y_, int16_t(width_ - pxToTrim), height_};
 143:../../DaisyExamples/libDaisy//src/hid/disp/graphics_common.h ****     }
 144:../../DaisyExamples/libDaisy//src/hid/disp/graphics_common.h **** 
 145:../../DaisyExamples/libDaisy//src/hid/disp/graphics_common.h ****     Rectangle WithTrimmedRight(int16_t pxToTrim) const
 146:../../DaisyExamples/libDaisy//src/hid/disp/graphics_common.h ****     {
 147:../../DaisyExamples/libDaisy//src/hid/disp/graphics_common.h ****         return {x_, y_, int16_t(width_ - pxToTrim), height_};
 148:../../DaisyExamples/libDaisy//src/hid/disp/graphics_common.h ****     }
 149:../../DaisyExamples/libDaisy//src/hid/disp/graphics_common.h **** 
 150:../../DaisyExamples/libDaisy//src/hid/disp/graphics_common.h ****     Rectangle WithTrimmedTop(int16_t pxToTrim) const
 151:../../DaisyExamples/libDaisy//src/hid/disp/graphics_common.h ****     {
 152:../../DaisyExamples/libDaisy//src/hid/disp/graphics_common.h ****         return {
 153:../../DaisyExamples/libDaisy//src/hid/disp/graphics_common.h ****             x_, int16_t(y_ + pxToTrim), width_, int16_t(height_ - pxToTrim)};
 154:../../DaisyExamples/libDaisy//src/hid/disp/graphics_common.h ****     }
 155:../../DaisyExamples/libDaisy//src/hid/disp/graphics_common.h **** 
 156:../../DaisyExamples/libDaisy//src/hid/disp/graphics_common.h ****     Rectangle WithTrimmedBottom(int16_t pxToTrim) const
 157:../../DaisyExamples/libDaisy//src/hid/disp/graphics_common.h ****     {
ARM GAS  /var/folders/hp/45mn71hd0ps5f5pnytxy5bt00000gn/T//ccdvmoSj.s 			page 92


 158:../../DaisyExamples/libDaisy//src/hid/disp/graphics_common.h ****         return {x_, y_, width_, int16_t(height_ - pxToTrim)};
 159:../../DaisyExamples/libDaisy//src/hid/disp/graphics_common.h ****     }
 160:../../DaisyExamples/libDaisy//src/hid/disp/graphics_common.h **** 
 161:../../DaisyExamples/libDaisy//src/hid/disp/graphics_common.h ****     Rectangle WithCenterX(int16_t centerX) const
 162:../../DaisyExamples/libDaisy//src/hid/disp/graphics_common.h ****     {
 163:../../DaisyExamples/libDaisy//src/hid/disp/graphics_common.h ****         return {int16_t(x_ + centerX - GetCenterX()), y_, width_, height_};
 164:../../DaisyExamples/libDaisy//src/hid/disp/graphics_common.h ****     }
 165:../../DaisyExamples/libDaisy//src/hid/disp/graphics_common.h **** 
 166:../../DaisyExamples/libDaisy//src/hid/disp/graphics_common.h ****     Rectangle WithCenterY(int16_t centerY) const
 167:../../DaisyExamples/libDaisy//src/hid/disp/graphics_common.h ****     {
 168:../../DaisyExamples/libDaisy//src/hid/disp/graphics_common.h ****         return {x_, int16_t(y_ + centerY - GetCenterY()), width_, height_};
 169:../../DaisyExamples/libDaisy//src/hid/disp/graphics_common.h ****     }
 170:../../DaisyExamples/libDaisy//src/hid/disp/graphics_common.h **** 
 171:../../DaisyExamples/libDaisy//src/hid/disp/graphics_common.h ****     Rectangle WithCenter(int16_t centerX, int16_t centerY) const
 172:../../DaisyExamples/libDaisy//src/hid/disp/graphics_common.h ****     {
 173:../../DaisyExamples/libDaisy//src/hid/disp/graphics_common.h ****         return {int16_t(x_ + centerX - GetCenterX()),
 174:../../DaisyExamples/libDaisy//src/hid/disp/graphics_common.h ****                 int16_t(y_ + centerY - GetCenterY()),
 175:../../DaisyExamples/libDaisy//src/hid/disp/graphics_common.h ****                 width_,
 176:../../DaisyExamples/libDaisy//src/hid/disp/graphics_common.h ****                 height_};
 177:../../DaisyExamples/libDaisy//src/hid/disp/graphics_common.h ****     }
 178:../../DaisyExamples/libDaisy//src/hid/disp/graphics_common.h **** 
 179:../../DaisyExamples/libDaisy//src/hid/disp/graphics_common.h ****     Rectangle RemoveFromLeft(int16_t pxToRemove)
 180:../../DaisyExamples/libDaisy//src/hid/disp/graphics_common.h ****     {
 181:../../DaisyExamples/libDaisy//src/hid/disp/graphics_common.h ****         const auto result = this->WithWidth(min(pxToRemove, width_));
 182:../../DaisyExamples/libDaisy//src/hid/disp/graphics_common.h ****         x_ += min(pxToRemove, width_);
 183:../../DaisyExamples/libDaisy//src/hid/disp/graphics_common.h ****         width_ = max(int16_t(width_ - pxToRemove), 0);
 184:../../DaisyExamples/libDaisy//src/hid/disp/graphics_common.h ****         return result;
 185:../../DaisyExamples/libDaisy//src/hid/disp/graphics_common.h ****     }
 186:../../DaisyExamples/libDaisy//src/hid/disp/graphics_common.h **** 
 187:../../DaisyExamples/libDaisy//src/hid/disp/graphics_common.h ****     Rectangle RemoveFromRight(int16_t pxToRemove)
 188:../../DaisyExamples/libDaisy//src/hid/disp/graphics_common.h ****     {
 189:../../DaisyExamples/libDaisy//src/hid/disp/graphics_common.h ****         const auto canRemove = min(pxToRemove, width_);
 190:../../DaisyExamples/libDaisy//src/hid/disp/graphics_common.h ****         width_ -= canRemove;
 191:../../DaisyExamples/libDaisy//src/hid/disp/graphics_common.h ****         return {int16_t(x_ + width_), y_, canRemove, height_};
 192:../../DaisyExamples/libDaisy//src/hid/disp/graphics_common.h ****     }
 193:../../DaisyExamples/libDaisy//src/hid/disp/graphics_common.h **** 
 194:../../DaisyExamples/libDaisy//src/hid/disp/graphics_common.h ****     Rectangle RemoveFromTop(int16_t pxToRemove)
 195:../../DaisyExamples/libDaisy//src/hid/disp/graphics_common.h ****     {
 196:../../DaisyExamples/libDaisy//src/hid/disp/graphics_common.h ****         const auto result = this->WithHeight(min(pxToRemove, height_));
 197:../../DaisyExamples/libDaisy//src/hid/disp/graphics_common.h ****         y_ += min(pxToRemove, height_);
 198:../../DaisyExamples/libDaisy//src/hid/disp/graphics_common.h ****         height_ = max(height_ - pxToRemove, 0);
 199:../../DaisyExamples/libDaisy//src/hid/disp/graphics_common.h ****         return result;
 200:../../DaisyExamples/libDaisy//src/hid/disp/graphics_common.h ****     }
 201:../../DaisyExamples/libDaisy//src/hid/disp/graphics_common.h **** 
 202:../../DaisyExamples/libDaisy//src/hid/disp/graphics_common.h ****     Rectangle RemoveFromBottom(int16_t pxToRemove)
 203:../../DaisyExamples/libDaisy//src/hid/disp/graphics_common.h ****     {
 204:../../DaisyExamples/libDaisy//src/hid/disp/graphics_common.h ****         const auto canRemove = min(pxToRemove, height_);
 205:../../DaisyExamples/libDaisy//src/hid/disp/graphics_common.h ****         height_ -= canRemove;
 206:../../DaisyExamples/libDaisy//src/hid/disp/graphics_common.h ****         return {x_, int16_t(y_ + height_), width_, canRemove};
 207:../../DaisyExamples/libDaisy//src/hid/disp/graphics_common.h ****     }
 208:../../DaisyExamples/libDaisy//src/hid/disp/graphics_common.h **** 
 209:../../DaisyExamples/libDaisy//src/hid/disp/graphics_common.h ****     Rectangle AlignedWithin(const Rectangle& other, Alignment alignment) const
 210:../../DaisyExamples/libDaisy//src/hid/disp/graphics_common.h ****     {
 211:../../DaisyExamples/libDaisy//src/hid/disp/graphics_common.h ****         switch(alignment)
 212:../../DaisyExamples/libDaisy//src/hid/disp/graphics_common.h ****         {
 213:../../DaisyExamples/libDaisy//src/hid/disp/graphics_common.h ****             case Alignment::topLeft:
 214:../../DaisyExamples/libDaisy//src/hid/disp/graphics_common.h ****                 return {other.x_, other.y_, width_, height_};
ARM GAS  /var/folders/hp/45mn71hd0ps5f5pnytxy5bt00000gn/T//ccdvmoSj.s 			page 93


 215:../../DaisyExamples/libDaisy//src/hid/disp/graphics_common.h ****             case Alignment::topRight:
 216:../../DaisyExamples/libDaisy//src/hid/disp/graphics_common.h ****                 return {int16_t(other.GetRight() - width_),
 217:../../DaisyExamples/libDaisy//src/hid/disp/graphics_common.h ****                         other.y_,
 218:../../DaisyExamples/libDaisy//src/hid/disp/graphics_common.h ****                         width_,
 219:../../DaisyExamples/libDaisy//src/hid/disp/graphics_common.h ****                         height_};
 220:../../DaisyExamples/libDaisy//src/hid/disp/graphics_common.h ****             case Alignment::topCentered:
 221:../../DaisyExamples/libDaisy//src/hid/disp/graphics_common.h ****                 return {int16_t(x_ + (other.GetCenterX() - GetCenterX())),
 222:../../DaisyExamples/libDaisy//src/hid/disp/graphics_common.h ****                         other.y_,
 223:../../DaisyExamples/libDaisy//src/hid/disp/graphics_common.h ****                         width_,
 224:../../DaisyExamples/libDaisy//src/hid/disp/graphics_common.h ****                         height_};
 225:../../DaisyExamples/libDaisy//src/hid/disp/graphics_common.h ****             case Alignment::bottomLeft:
 226:../../DaisyExamples/libDaisy//src/hid/disp/graphics_common.h ****                 return {other.x_,
 227:../../DaisyExamples/libDaisy//src/hid/disp/graphics_common.h ****                         int16_t(other.GetBottom() - height_),
 228:../../DaisyExamples/libDaisy//src/hid/disp/graphics_common.h ****                         width_,
 229:../../DaisyExamples/libDaisy//src/hid/disp/graphics_common.h ****                         height_};
 230:../../DaisyExamples/libDaisy//src/hid/disp/graphics_common.h ****             case Alignment::bottomRight:
 231:../../DaisyExamples/libDaisy//src/hid/disp/graphics_common.h ****                 return {int16_t(other.GetRight() - width_),
 232:../../DaisyExamples/libDaisy//src/hid/disp/graphics_common.h ****                         int16_t(other.GetBottom() - height_),
 233:../../DaisyExamples/libDaisy//src/hid/disp/graphics_common.h ****                         width_,
 234:../../DaisyExamples/libDaisy//src/hid/disp/graphics_common.h ****                         height_};
 235:../../DaisyExamples/libDaisy//src/hid/disp/graphics_common.h ****             case Alignment::bottomCentered:
 236:../../DaisyExamples/libDaisy//src/hid/disp/graphics_common.h ****                 return {int16_t(x_ + (other.GetCenterX() - GetCenterX())),
 237:../../DaisyExamples/libDaisy//src/hid/disp/graphics_common.h ****                         int16_t(other.GetBottom() - height_),
 238:../../DaisyExamples/libDaisy//src/hid/disp/graphics_common.h ****                         width_,
 239:../../DaisyExamples/libDaisy//src/hid/disp/graphics_common.h ****                         height_};
 240:../../DaisyExamples/libDaisy//src/hid/disp/graphics_common.h ****             case Alignment::centeredLeft:
 241:../../DaisyExamples/libDaisy//src/hid/disp/graphics_common.h ****                 return {other.x_,
 242:../../DaisyExamples/libDaisy//src/hid/disp/graphics_common.h ****                         int16_t(y_ + (other.GetCenterY() - GetCenterY())),
 243:../../DaisyExamples/libDaisy//src/hid/disp/graphics_common.h ****                         width_,
 244:../../DaisyExamples/libDaisy//src/hid/disp/graphics_common.h ****                         height_};
 245:../../DaisyExamples/libDaisy//src/hid/disp/graphics_common.h ****             case Alignment::centeredRight:
 246:../../DaisyExamples/libDaisy//src/hid/disp/graphics_common.h ****                 return {int16_t(other.GetRight() - width_),
 247:../../DaisyExamples/libDaisy//src/hid/disp/graphics_common.h ****                         int16_t(y_ + (other.GetCenterY() - GetCenterY())),
 248:../../DaisyExamples/libDaisy//src/hid/disp/graphics_common.h ****                         width_,
 249:../../DaisyExamples/libDaisy//src/hid/disp/graphics_common.h ****                         height_};
 250:../../DaisyExamples/libDaisy//src/hid/disp/graphics_common.h ****             case Alignment::centered:
 251:../../DaisyExamples/libDaisy//src/hid/disp/graphics_common.h ****                 return {int16_t(x_ + (other.GetCenterX() - GetCenterX())),
 252:../../DaisyExamples/libDaisy//src/hid/disp/graphics_common.h ****                         int16_t(y_ + (other.GetCenterY() - GetCenterY())),
 253:../../DaisyExamples/libDaisy//src/hid/disp/graphics_common.h ****                         width_,
 254:../../DaisyExamples/libDaisy//src/hid/disp/graphics_common.h ****                         height_};
 255:../../DaisyExamples/libDaisy//src/hid/disp/graphics_common.h ****             default: return {};
 256:../../DaisyExamples/libDaisy//src/hid/disp/graphics_common.h ****         }
 257:../../DaisyExamples/libDaisy//src/hid/disp/graphics_common.h ****     }
 258:../../DaisyExamples/libDaisy//src/hid/disp/graphics_common.h **** 
 259:../../DaisyExamples/libDaisy//src/hid/disp/graphics_common.h ****   private:
 260:../../DaisyExamples/libDaisy//src/hid/disp/graphics_common.h ****     int16_t x_, y_, width_, height_;
 261:../../DaisyExamples/libDaisy//src/hid/disp/graphics_common.h ****     int16_t max(int16_t a, int16_t b) { return (a > b) ? a : b; }
 2767              		.loc 10 261 13 view .LVU654
 2768              	.LBE809:
 2769              	.LBE808:
 2770              	.LBE814:
 2771              	.LBE818:
 2772              		.loc 10 261 41 view .LVU655
 2773              	.LBB819:
 2774              	.LBB815:
 2775              	.LBB811:
 2776              	.LBB810:
ARM GAS  /var/folders/hp/45mn71hd0ps5f5pnytxy5bt00000gn/T//ccdvmoSj.s 			page 94


 2777              	.LBI810:
 2778              		.loc 10 261 13 view .LVU656
 2779              	.LBE810:
 2780              	.LBE811:
 2781              	.LBE815:
 2782              	.LBE819:
 2783              		.loc 10 261 41 view .LVU657
 2784              	.LBB820:
 2785              	.LBI820:
 209:../../DaisyExamples/libDaisy//src/hid/disp/graphics_common.h ****     {
 2786              		.loc 10 209 15 view .LVU658
 2787              	.LBB821:
 211:../../DaisyExamples/libDaisy//src/hid/disp/graphics_common.h ****         {
 2788              		.loc 10 211 9 view .LVU659
 2789 0036 1BB2     		sxth	r3, r3
 2790 0038 23EAE373 		bic	r3, r3, r3, asr #31
 2791 003c 0829     		cmp	r1, #8
 2792 003e 00F2A681 		bhi	.L216
 2793 0042 DFE811F0 		tbh	[pc, r1, lsl #1]
 2794              	.L218:
 2795 0046 0101     		.2byte	(.L226-.L218)/2
 2796 0048 1301     		.2byte	(.L225-.L218)/2
 2797 004a 1F01     		.2byte	(.L224-.L218)/2
 2798 004c 3301     		.2byte	(.L223-.L218)/2
 2799 004e 4101     		.2byte	(.L222-.L218)/2
 2800 0050 4F01     		.2byte	(.L221-.L218)/2
 2801 0052 6601     		.2byte	(.L220-.L218)/2
 2802 0054 6F01     		.2byte	(.L219-.L218)/2
 2803 0056 0900     		.2byte	(.L217-.L218)/2
 2804              		.p2align 1
 2805              	.L217:
 245:../../DaisyExamples/libDaisy//src/hid/disp/graphics_common.h ****                 return {int16_t(other.GetRight() - width_),
 2806              		.loc 10 245 13 view .LVU660
 246:../../DaisyExamples/libDaisy//src/hid/disp/graphics_common.h ****                         int16_t(y_ + (other.GetCenterY() - GetCenterY())),
 2807              		.loc 10 246 17 view .LVU661
 2808              	.LVL251:
 2809              	.LBB822:
 2810              	.LBI822:
  60:../../DaisyExamples/libDaisy//src/hid/disp/graphics_common.h ****     int16_t GetBottom() const { return y_ + height_; }
 2811              		.loc 10 60 13 view .LVU662
 2812              	.LBB823:
  60:../../DaisyExamples/libDaisy//src/hid/disp/graphics_common.h ****     int16_t GetBottom() const { return y_ + height_; }
 2813              		.loc 10 60 32 view .LVU663
  60:../../DaisyExamples/libDaisy//src/hid/disp/graphics_common.h ****     int16_t GetBottom() const { return y_ + height_; }
 2814              		.loc 10 60 42 is_stmt 0 view .LVU664
 2815 0058 A188     		ldrh	r1, [r4, #4]
 2816              	.LVL252:
  60:../../DaisyExamples/libDaisy//src/hid/disp/graphics_common.h ****     int16_t GetBottom() const { return y_ + height_; }
 2817              		.loc 10 60 42 view .LVU665
 2818 005a 2788     		ldrh	r7, [r4]
 2819 005c 0F44     		add	r7, r7, r1
 2820              	.LBE823:
 2821              	.LBE822:
 2822              	.LBB824:
 2823              	.LBB825:
  63:../../DaisyExamples/libDaisy//src/hid/disp/graphics_common.h **** 
 2824              		.loc 10 63 54 view .LVU666
ARM GAS  /var/folders/hp/45mn71hd0ps5f5pnytxy5bt00000gn/T//ccdvmoSj.s 			page 95


 2825 005e B4F90610 		ldrsh	r1, [r4, #6]
 2826              	.LBE825:
 2827              	.LBE824:
 246:../../DaisyExamples/libDaisy//src/hid/disp/graphics_common.h ****                         int16_t(y_ + (other.GetCenterY() - GetCenterY())),
 2828              		.loc 10 246 50 view .LVU667
 2829 0062 FF1A     		subs	r7, r7, r3
 2830              	.LBB829:
 2831              	.LBB826:
  63:../../DaisyExamples/libDaisy//src/hid/disp/graphics_common.h **** 
 2832              		.loc 10 63 54 view .LVU668
 2833 0064 0029     		cmp	r1, #0
 2834              	.LBE826:
 2835              	.LBE829:
 246:../../DaisyExamples/libDaisy//src/hid/disp/graphics_common.h ****                         int16_t(y_ + (other.GetCenterY() - GetCenterY())),
 2836              		.loc 10 246 50 view .LVU669
 2837 0066 BFB2     		uxth	r7, r7
 2838              	.LVL253:
 2839              	.LBB830:
 2840              	.LBI824:
  63:../../DaisyExamples/libDaisy//src/hid/disp/graphics_common.h **** 
 2841              		.loc 10 63 13 is_stmt 1 view .LVU670
 2842              	.LBB827:
  63:../../DaisyExamples/libDaisy//src/hid/disp/graphics_common.h **** 
 2843              		.loc 10 63 34 view .LVU671
  63:../../DaisyExamples/libDaisy//src/hid/disp/graphics_common.h **** 
 2844              		.loc 10 63 34 is_stmt 0 view .LVU672
 2845              	.LBE827:
 2846              	.LBE830:
 2847              	.LBB831:
 2848              	.LBI831:
  63:../../DaisyExamples/libDaisy//src/hid/disp/graphics_common.h **** 
 2849              		.loc 10 63 13 is_stmt 1 view .LVU673
 2850              	.LBB832:
  63:../../DaisyExamples/libDaisy//src/hid/disp/graphics_common.h **** 
 2851              		.loc 10 63 34 view .LVU674
  63:../../DaisyExamples/libDaisy//src/hid/disp/graphics_common.h **** 
 2852              		.loc 10 63 34 is_stmt 0 view .LVU675
 2853              	.LBE832:
 2854              	.LBE831:
 2855              	.LBB833:
 2856              	.LBB828:
  63:../../DaisyExamples/libDaisy//src/hid/disp/graphics_common.h **** 
 2857              		.loc 10 63 54 view .LVU676
 2858 0068 C0F2FE80 		blt	.L289
 2859              	.L233:
  63:../../DaisyExamples/libDaisy//src/hid/disp/graphics_common.h **** 
 2860              		.loc 10 63 54 view .LVU677
 2861              	.LBE828:
 2862              	.LBE833:
 2863              	.LBB834:
 2864              	.LBB835:
  63:../../DaisyExamples/libDaisy//src/hid/disp/graphics_common.h **** 
 2865              		.loc 10 63 44 view .LVU678
 2866 006c 6488     		ldrh	r4, [r4, #2]
 2867              	.LVL254:
  63:../../DaisyExamples/libDaisy//src/hid/disp/graphics_common.h **** 
 2868              		.loc 10 63 44 view .LVU679
ARM GAS  /var/folders/hp/45mn71hd0ps5f5pnytxy5bt00000gn/T//ccdvmoSj.s 			page 96


 2869              	.LBE835:
 2870              	.LBE834:
 2871              	.LBB841:
 2872              	.LBB842:
 2873              	.LBB843:
  32:../../DaisyExamples/libDaisy//src/hid/disp/graphics_common.h ****     {
 2874              		.loc 10 32 66 view .LVU680
 2875 006e 0698     		ldr	r0, [sp, #24]
 2876              	.LBE843:
 2877              	.LBE842:
 2878              	.LBE841:
 2879              	.LBB854:
 2880              	.LBB836:
  63:../../DaisyExamples/libDaisy//src/hid/disp/graphics_common.h **** 
 2881              		.loc 10 63 44 view .LVU681
 2882 0070 04EB6104 		add	r4, r4, r1, asr #1
 2883              	.LBE836:
 2884              	.LBE854:
 2885              	.LBB855:
 2886              	.LBB850:
 2887              	.LBB846:
  32:../../DaisyExamples/libDaisy//src/hid/disp/graphics_common.h ****     {
 2888              		.loc 10 32 66 view .LVU682
 2889 0074 C280     		strh	r2, [r0, #6]	@ movhi
 2890              	.LBE846:
 2891              	.LBE850:
 2892              	.LBE855:
 252:../../DaisyExamples/libDaisy//src/hid/disp/graphics_common.h ****                         width_,
 2893              		.loc 10 252 58 view .LVU683
 2894 0076 A4EB5202 		sub	r2, r4, r2, lsr #1
 2895              	.LBB856:
 2896              	.LBB851:
 2897              	.LBB847:
  32:../../DaisyExamples/libDaisy//src/hid/disp/graphics_common.h ****     {
 2898              		.loc 10 32 66 view .LVU684
 2899 007a 8380     		strh	r3, [r0, #4]	@ movhi
 2900 007c 0780     		strh	r7, [r0]	@ movhi
 2901              	.LBE847:
 2902              	.LBE851:
 2903              	.LBE856:
 252:../../DaisyExamples/libDaisy//src/hid/disp/graphics_common.h ****                         width_,
 2904              		.loc 10 252 58 view .LVU685
 2905 007e 94B2     		uxth	r4, r2
 2906              	.LVL255:
 2907              	.LBB857:
 2908              	.LBI841:
  31:../../DaisyExamples/libDaisy//src/hid/disp/graphics_common.h ****     : x_(x), y_(y), width_(max(0, width)), height_(max(0, height))
 2909              		.loc 10 31 5 is_stmt 1 view .LVU686
 2910              	.LBB852:
 2911              	.LBB848:
  32:../../DaisyExamples/libDaisy//src/hid/disp/graphics_common.h ****     {
 2912              		.loc 10 32 66 is_stmt 0 view .LVU687
 2913 0080 4480     		strh	r4, [r0, #2]	@ movhi
 2914              	.LVL256:
 2915              	.LBB844:
 2916              	.LBI844:
 2917              		.loc 10 261 13 is_stmt 1 view .LVU688
ARM GAS  /var/folders/hp/45mn71hd0ps5f5pnytxy5bt00000gn/T//ccdvmoSj.s 			page 97


 2918              	.LBE844:
 2919              	.LBE848:
 2920              	.LBE852:
 2921              	.LBE857:
 2922              	.LBE821:
 2923              	.LBE820:
 2924              		.loc 10 261 41 view .LVU689
 2925              	.LBB1046:
 2926              	.LBB1024:
 2927              	.LBB858:
 2928              	.LBB853:
 2929              	.LBB849:
 2930              	.LBB845:
 2931              	.LBI845:
 2932              		.loc 10 261 13 view .LVU690
 2933              	.LBE845:
 2934              	.LBE849:
 2935              	.LBE853:
 2936              	.LBE858:
 2937              	.LBE1024:
 2938              	.LBE1046:
 2939              		.loc 10 261 41 view .LVU691
 2940              	.L227:
  56:../../DaisyExamples/libDaisy//src/hid/disp/graphics_common.h ****     int16_t GetY() const { return y_; }
 2941              		.loc 10 56 28 view .LVU692
  57:../../DaisyExamples/libDaisy//src/hid/disp/graphics_common.h ****     int16_t GetWidth() const { return width_; }
 2942              		.loc 10 57 28 view .LVU693
 2943              	.LBB1047:
 2944              	.LBI1047:
 171:../../DaisyExamples/libDaisy//src/hid/disp/display.h ****     {
 2945              		.loc 8 171 10 view .LVU694
 2946              	.LBB1048:
 173:../../DaisyExamples/libDaisy//src/hid/disp/display.h ****         currentY_ = (y >= Height()) ? Height() - 1 : y;
 2947              		.loc 8 173 9 view .LVU695
 2948 0082 A64A     		ldr	r2, .L299
 173:../../DaisyExamples/libDaisy//src/hid/disp/display.h ****         currentY_ = (y >= Height()) ? Height() - 1 : y;
 2949              		.loc 8 173 33 is_stmt 0 view .LVU696
 2950 0084 D8F80030 		ldr	r3, [r8]
 2951 0088 1146     		mov	r1, r2
 2952 008a 0192     		str	r2, [sp, #4]
 2953 008c DA68     		ldr	r2, [r3, #12]
 2954 008e 8A42     		cmp	r2, r1
 2955 0090 40F08B81 		bne	.L235
 2956 0094 8020     		movs	r0, #128
 2957              	.LVL257:
 2958              	.L236:
 173:../../DaisyExamples/libDaisy//src/hid/disp/display.h ****         currentY_ = (y >= Height()) ? Height() - 1 : y;
 2959              		.loc 8 173 19 view .LVU697
 2960 0096 B842     		cmp	r0, r7
 2961 0098 05D8     		bhi	.L237
 173:../../DaisyExamples/libDaisy//src/hid/disp/display.h ****         currentY_ = (y >= Height()) ? Height() - 1 : y;
 2962              		.loc 8 173 44 view .LVU698
 2963 009a DA68     		ldr	r2, [r3, #12]
 2964 009c 0199     		ldr	r1, [sp, #4]
 2965 009e 8A42     		cmp	r2, r1
 2966 00a0 40F09881 		bne	.L290
 2967 00a4 7F27     		movs	r7, #127
ARM GAS  /var/folders/hp/45mn71hd0ps5f5pnytxy5bt00000gn/T//ccdvmoSj.s 			page 98


 2968              	.L237:
 2969 00a6 9E4A     		ldr	r2, .L299+4
 174:../../DaisyExamples/libDaisy//src/hid/disp/display.h ****     }
 2970              		.loc 8 174 34 view .LVU699
 2971 00a8 9B68     		ldr	r3, [r3, #8]
 173:../../DaisyExamples/libDaisy//src/hid/disp/display.h ****         currentY_ = (y >= Height()) ? Height() - 1 : y;
 2972              		.loc 8 173 19 view .LVU700
 2973 00aa A8F80470 		strh	r7, [r8, #4]	@ movhi
 174:../../DaisyExamples/libDaisy//src/hid/disp/display.h ****     }
 2974              		.loc 8 174 9 is_stmt 1 view .LVU701
 2975 00ae 9342     		cmp	r3, r2
 2976 00b0 0392     		str	r2, [sp, #12]
 2977 00b2 40F08781 		bne	.L267
 174:../../DaisyExamples/libDaisy//src/hid/disp/display.h ****     }
 2978              		.loc 8 174 34 is_stmt 0 view .LVU702
 2979 00b6 2020     		movs	r0, #32
 2980              	.L239:
 174:../../DaisyExamples/libDaisy//src/hid/disp/display.h ****     }
 2981              		.loc 8 174 19 view .LVU703
 2982 00b8 A042     		cmp	r0, r4
 2983 00ba 07D8     		bhi	.L241
 174:../../DaisyExamples/libDaisy//src/hid/disp/display.h ****     }
 2984              		.loc 8 174 46 view .LVU704
 2985 00bc D8F80030 		ldr	r3, [r8]
 2986 00c0 039A     		ldr	r2, [sp, #12]
 2987 00c2 9B68     		ldr	r3, [r3, #8]
 2988 00c4 9342     		cmp	r3, r2
 2989 00c6 40F08081 		bne	.L291
 2990 00ca 1F24     		movs	r4, #31
 2991              	.L241:
 174:../../DaisyExamples/libDaisy//src/hid/disp/display.h ****     }
 2992              		.loc 8 174 46 view .LVU705
 2993              	.LBE1048:
 2994              	.LBE1047:
 2995              	.LBB1052:
 2996              	.LBB1053:
 443:../../DaisyExamples/libDaisy//src/hid/disp/display.h ****         {
 2997              		.loc 8 443 9 view .LVU706
 2998 00cc 009B     		ldr	r3, [sp]
 2999              	.LBE1053:
 3000              	.LBE1052:
 3001              	.LBB1101:
 3002              	.LBB1049:
 174:../../DaisyExamples/libDaisy//src/hid/disp/display.h ****     }
 3003              		.loc 8 174 19 view .LVU707
 3004 00ce A8F80640 		strh	r4, [r8, #6]	@ movhi
 3005              	.LVL258:
 174:../../DaisyExamples/libDaisy//src/hid/disp/display.h ****     }
 3006              		.loc 8 174 19 view .LVU708
 3007              	.LBE1049:
 3008              	.LBE1101:
 3009              	.LBB1102:
 3010              	.LBB1098:
 443:../../DaisyExamples/libDaisy//src/hid/disp/display.h ****         {
 3011              		.loc 8 443 9 view .LVU709
 3012 00d2 93F800B0 		ldrb	fp, [r3]	@ zero_extendqisi2
 3013 00d6 6B78     		ldrb	r3, [r5, #1]	@ zero_extendqisi2
ARM GAS  /var/folders/hp/45mn71hd0ps5f5pnytxy5bt00000gn/T//ccdvmoSj.s 			page 99


 3014              	.LVL259:
 443:../../DaisyExamples/libDaisy//src/hid/disp/display.h ****         {
 3015              		.loc 8 443 9 view .LVU710
 3016 00d8 2C78     		ldrb	r4, [r5]	@ zero_extendqisi2
 3017              	.LVL260:
 443:../../DaisyExamples/libDaisy//src/hid/disp/display.h ****         {
 3018              		.loc 8 443 9 view .LVU711
 3019 00da 0493     		str	r3, [sp, #16]
 3020              	.LVL261:
 443:../../DaisyExamples/libDaisy//src/hid/disp/display.h ****         {
 3021              		.loc 8 443 9 view .LVU712
 3022 00dc 6B68     		ldr	r3, [r5, #4]
 3023 00de 0793     		str	r3, [sp, #28]
 3024              	.LVL262:
 443:../../DaisyExamples/libDaisy//src/hid/disp/display.h ****         {
 3025              		.loc 8 443 9 view .LVU713
 3026              	.LBE1098:
 3027              	.LBI1052:
 440:../../DaisyExamples/libDaisy//src/hid/disp/display.h ****     {
 3028              		.loc 8 440 10 is_stmt 1 view .LVU714
 3029              	.LBB1099:
 443:../../DaisyExamples/libDaisy//src/hid/disp/display.h ****         {
 3030              		.loc 8 443 9 view .LVU715
 3031 00e0 BBF1000F 		cmp	fp, #0
 3032 00e4 00F0AC80 		beq	.L213
 3033              	.LVL263:
 3034              	.L243:
 3035              	.LBB1054:
 3036              	.LBI1054:
 396:../../DaisyExamples/libDaisy//src/hid/disp/display.h ****     {
 3037              		.loc 8 396 10 view .LVU716
 3038              	.LBB1055:
 401:../../DaisyExamples/libDaisy//src/hid/disp/display.h ****             return 0;
 3039              		.loc 8 401 20 is_stmt 0 view .LVU717
 3040 00e8 ABF12005 		sub	r5, fp, #32
 401:../../DaisyExamples/libDaisy//src/hid/disp/display.h ****             return 0;
 3041              		.loc 8 401 9 view .LVU718
 3042 00ec EBB2     		uxtb	r3, r5
 3043 00ee 5E2B     		cmp	r3, #94
 3044 00f0 00F22C81 		bhi	.L247
 405:../../DaisyExamples/libDaisy//src/hid/disp/display.h ****            || Height() < (currentY_ + font.FontHeight))
 3045              		.loc 8 405 17 view .LVU719
 3046 00f4 D8F80030 		ldr	r3, [r8]
 3047 00f8 019A     		ldr	r2, [sp, #4]
 3048 00fa DB68     		ldr	r3, [r3, #12]
 3049 00fc 9342     		cmp	r3, r2
 3050 00fe 40F02881 		bne	.L292
 3051 0102 8020     		movs	r0, #128
 3052              	.L246:
 405:../../DaisyExamples/libDaisy//src/hid/disp/display.h ****            || Height() < (currentY_ + font.FontHeight))
 3053              		.loc 8 405 23 view .LVU720
 3054 0104 B8F80430 		ldrh	r3, [r8, #4]
 405:../../DaisyExamples/libDaisy//src/hid/disp/display.h ****            || Height() < (currentY_ + font.FontHeight))
 3055              		.loc 8 405 33 view .LVU721
 3056 0108 2344     		add	r3, r3, r4
 406:../../DaisyExamples/libDaisy//src/hid/disp/display.h ****         {
 3057              		.loc 8 406 12 view .LVU722
ARM GAS  /var/folders/hp/45mn71hd0ps5f5pnytxy5bt00000gn/T//ccdvmoSj.s 			page 100


 3058 010a 9842     		cmp	r0, r3
 3059 010c C0F21E81 		blt	.L247
 406:../../DaisyExamples/libDaisy//src/hid/disp/display.h ****         {
 3060              		.loc 8 406 21 view .LVU723
 3061 0110 D8F80030 		ldr	r3, [r8]
 3062 0114 039A     		ldr	r2, [sp, #12]
 3063 0116 9B68     		ldr	r3, [r3, #8]
 3064 0118 9342     		cmp	r3, r2
 3065 011a 40F01D81 		bne	.L293
 3066 011e 2020     		movs	r0, #32
 3067              	.L248:
 406:../../DaisyExamples/libDaisy//src/hid/disp/display.h ****         {
 3068              		.loc 8 406 27 view .LVU724
 3069 0120 B8F80610 		ldrh	r1, [r8, #6]
 406:../../DaisyExamples/libDaisy//src/hid/disp/display.h ****         {
 3070              		.loc 8 406 37 view .LVU725
 3071 0124 049A     		ldr	r2, [sp, #16]
 406:../../DaisyExamples/libDaisy//src/hid/disp/display.h ****         {
 3072              		.loc 8 406 27 view .LVU726
 3073 0126 0291     		str	r1, [sp, #8]
 406:../../DaisyExamples/libDaisy//src/hid/disp/display.h ****         {
 3074              		.loc 8 406 37 view .LVU727
 3075 0128 8B18     		adds	r3, r1, r2
 406:../../DaisyExamples/libDaisy//src/hid/disp/display.h ****         {
 3076              		.loc 8 406 12 view .LVU728
 3077 012a 9842     		cmp	r0, r3
 3078 012c C0F20E81 		blt	.L247
 3079              	.LVL264:
 413:../../DaisyExamples/libDaisy//src/hid/disp/display.h ****         {
 3080              		.loc 8 413 22 is_stmt 1 view .LVU729
 3081 0130 002A     		cmp	r2, #0
 3082 0132 00F01C81 		beq	.L249
 415:../../DaisyExamples/libDaisy//src/hid/disp/display.h ****             for(j = 0; j < font.FontWidth; j++)
 3083              		.loc 8 415 37 is_stmt 0 view .LVU730
 3084 0136 02FB05F5 		mul	r5, r2, r5
 3085 013a 6FF0004E 		mvn	lr, #-2147483648
 3086 013e 079B     		ldr	r3, [sp, #28]
 3087 0140 AE44     		add	lr, lr, r5
 3088 0142 1544     		add	r5, r5, r2
 3089 0144 CDF814B0 		str	fp, [sp, #20]
 3090 0148 03EB4E0E 		add	lr, r3, lr, lsl #1
 3091 014c 023B     		subs	r3, r3, #2
 434:../../DaisyExamples/libDaisy//src/hid/disp/display.h **** 
 3092              		.loc 8 434 19 view .LVU731
 3093 014e B8F804A0 		ldrh	r10, [r8, #4]
 3094 0152 03EB4503 		add	r3, r3, r5, lsl #1
 3095 0156 0D46     		mov	r5, r1
 3096 0158 9B46     		mov	fp, r3
 3097              	.LVL265:
 3098              	.L252:
 415:../../DaisyExamples/libDaisy//src/hid/disp/display.h ****             for(j = 0; j < font.FontWidth; j++)
 3099              		.loc 8 415 15 view .LVU732
 3100 015a 3EF8027F 		ldrh	r7, [lr, #2]!
 3101              	.LVL266:
 416:../../DaisyExamples/libDaisy//src/hid/disp/display.h ****             {
 3102              		.loc 8 416 26 is_stmt 1 view .LVU733
 3103 015e A4B3     		cbz	r4, .L257
ARM GAS  /var/folders/hp/45mn71hd0ps5f5pnytxy5bt00000gn/T//ccdvmoSj.s 			page 101


 3104              	.LBB1056:
 3105              	.LBB1057:
 3106              	.LBB1058:
 3107              	.LBB1059:
 3108              	.LBB1060:
 359:../../DaisyExamples/libDaisy//src/dev/oled_ssd130x.h ****     }
 3109              		.loc 7 359 55 is_stmt 0 view .LVU734
 3110 0160 05F00703 		and	r3, r5, #7
 359:../../DaisyExamples/libDaisy//src/dev/oled_ssd130x.h ****     }
 3111              		.loc 7 359 49 view .LVU735
 3112 0164 4FF0010C 		mov	ip, #1
 359:../../DaisyExamples/libDaisy//src/dev/oled_ssd130x.h ****     }
 3113              		.loc 7 359 28 view .LVU736
 3114 0168 EA08     		lsrs	r2, r5, #3
 3115 016a 5146     		mov	r1, r10
 359:../../DaisyExamples/libDaisy//src/dev/oled_ssd130x.h ****     }
 3116              		.loc 7 359 49 view .LVU737
 3117 016c 0CFA03FC 		lsl	ip, ip, r3
 3118 0170 0AF11003 		add	r3, r10, #16
 359:../../DaisyExamples/libDaisy//src/dev/oled_ssd130x.h ****     }
 3119              		.loc 7 359 42 view .LVU738
 3120 0174 4FFA8CFC 		sxtb	ip, ip
 3121 0178 03EBC212 		add	r2, r3, r2, lsl #7
 3122              	.LBE1060:
 3123              	.LBE1059:
 3124              	.LBE1058:
 3125              	.LBE1057:
 3126              	.LBE1056:
 416:../../DaisyExamples/libDaisy//src/hid/disp/display.h ****             {
 3127              		.loc 8 416 19 view .LVU739
 3128 017c 0023     		movs	r3, #0
 3129              	.LBB1078:
 3130              	.LBB1073:
 3131              	.LBB1068:
 3132              	.LBB1064:
 3133              	.LBB1061:
 359:../../DaisyExamples/libDaisy//src/dev/oled_ssd130x.h ****     }
 3134              		.loc 7 359 42 view .LVU740
 3135 017e 6FEA0C09 		mvn	r9, ip
 3136 0182 4244     		add	r2, r2, r8
 3137 0184 0DE0     		b	.L258
 3138              	.LVL267:
 3139              	.L294:
 359:../../DaisyExamples/libDaisy//src/dev/oled_ssd130x.h ****     }
 3140              		.loc 7 359 42 view .LVU741
 3141              	.LBE1061:
 3142              	.LBE1064:
 3143              	.LBE1068:
 3144              	.LBE1073:
 3145              	.LBE1078:
 3146              	.LBB1079:
 3147              	.LBI1079:
  42:../../DaisyExamples/libDaisy//src/hid/disp/oled_display.h ****     {
 3148              		.loc 6 42 10 is_stmt 1 view .LVU742
 3149              	.LBB1080:
 3150              	.LBI1080:
 352:../../DaisyExamples/libDaisy//src/dev/oled_ssd130x.h ****     {
ARM GAS  /var/folders/hp/45mn71hd0ps5f5pnytxy5bt00000gn/T//ccdvmoSj.s 			page 102


 3151              		.loc 7 352 10 view .LVU743
 3152              	.LBB1081:
 354:../../DaisyExamples/libDaisy//src/dev/oled_ssd130x.h ****             return;
 3153              		.loc 7 354 9 is_stmt 0 view .LVU744
 3154 0186 7F29     		cmp	r1, #127
 3155 0188 06D8     		bhi	.L254
 3156 018a 1F2D     		cmp	r5, #31
 3157 018c 04D8     		bhi	.L254
 357:../../DaisyExamples/libDaisy//src/dev/oled_ssd130x.h ****         else
 3158              		.loc 7 357 42 view .LVU745
 3159 018e 1078     		ldrb	r0, [r2]	@ zero_extendqisi2
 356:../../DaisyExamples/libDaisy//src/dev/oled_ssd130x.h ****             buffer_[x + (y / 8) * width] |= (1 << (y % 8));
 3160              		.loc 7 356 9 view .LVU746
 3161 0190 96B1     		cbz	r6, .L256
 3162              	.L288:
 356:../../DaisyExamples/libDaisy//src/dev/oled_ssd130x.h ****             buffer_[x + (y / 8) * width] |= (1 << (y % 8));
 3163              		.loc 7 356 9 view .LVU747
 3164              	.LBE1081:
 3165              	.LBE1080:
 3166              	.LBE1079:
 3167              	.LBB1082:
 3168              	.LBB1074:
 3169              	.LBB1069:
 357:../../DaisyExamples/libDaisy//src/dev/oled_ssd130x.h ****         else
 3170              		.loc 7 357 42 view .LVU748
 3171 0192 4CEA0000 		orr	r0, ip, r0
 3172 0196 1070     		strb	r0, [r2]
 3173              	.L254:
 3174              	.LBE1069:
 3175              	.LBE1074:
 3176              	.LBE1082:
 416:../../DaisyExamples/libDaisy//src/hid/disp/display.h ****             {
 3177              		.loc 8 416 13 is_stmt 1 view .LVU749
 3178 0198 0133     		adds	r3, r3, #1
 3179              	.LVL268:
 416:../../DaisyExamples/libDaisy//src/hid/disp/display.h ****             {
 3180              		.loc 8 416 26 view .LVU750
 3181 019a 0132     		adds	r2, r2, #1
 3182 019c 0131     		adds	r1, r1, #1
 3183 019e 9C42     		cmp	r4, r3
 3184 01a0 13D0     		beq	.L257
 3185              	.LVL269:
 3186              	.L258:
 418:../../DaisyExamples/libDaisy//src/hid/disp/display.h ****                 {
 3187              		.loc 8 418 23 is_stmt 0 view .LVU751
 3188 01a2 07FA03F0 		lsl	r0, r7, r3
 418:../../DaisyExamples/libDaisy//src/hid/disp/display.h ****                 {
 3189              		.loc 8 418 17 view .LVU752
 3190 01a6 0004     		lsls	r0, r0, #16
 3191 01a8 EDD4     		bmi	.L294
 3192              	.LVL270:
 3193              	.LBB1083:
 3194              	.LBI1056:
  42:../../DaisyExamples/libDaisy//src/hid/disp/oled_display.h ****     {
 3195              		.loc 6 42 10 is_stmt 1 view .LVU753
 3196              	.LBB1075:
 3197              	.LBI1057:
ARM GAS  /var/folders/hp/45mn71hd0ps5f5pnytxy5bt00000gn/T//ccdvmoSj.s 			page 103


 352:../../DaisyExamples/libDaisy//src/dev/oled_ssd130x.h ****     {
 3198              		.loc 7 352 10 view .LVU754
 3199              	.LBB1070:
 354:../../DaisyExamples/libDaisy//src/dev/oled_ssd130x.h ****             return;
 3200              		.loc 7 354 9 is_stmt 0 view .LVU755
 3201 01aa 7F29     		cmp	r1, #127
 3202 01ac F4D8     		bhi	.L254
 3203 01ae 1F2D     		cmp	r5, #31
 3204 01b0 F2D8     		bhi	.L254
 357:../../DaisyExamples/libDaisy//src/dev/oled_ssd130x.h ****         else
 3205              		.loc 7 357 42 view .LVU756
 3206 01b2 1078     		ldrb	r0, [r2]	@ zero_extendqisi2
 356:../../DaisyExamples/libDaisy//src/dev/oled_ssd130x.h ****             buffer_[x + (y / 8) * width] |= (1 << (y % 8));
 3207              		.loc 7 356 9 view .LVU757
 3208 01b4 002E     		cmp	r6, #0
 3209 01b6 ECD0     		beq	.L288
 3210              	.L256:
 3211              	.LVL271:
 3212              	.LBB1065:
 3213              	.LBI1059:
 352:../../DaisyExamples/libDaisy//src/dev/oled_ssd130x.h ****     {
 3214              		.loc 7 352 10 is_stmt 1 view .LVU758
 352:../../DaisyExamples/libDaisy//src/dev/oled_ssd130x.h ****     {
 3215              		.loc 7 352 10 is_stmt 0 view .LVU759
 3216              	.LBE1065:
 3217              	.LBE1070:
 3218              	.LBE1075:
 3219              	.LBE1083:
 416:../../DaisyExamples/libDaisy//src/hid/disp/display.h ****             {
 3220              		.loc 8 416 13 view .LVU760
 3221 01b8 0133     		adds	r3, r3, #1
 3222              	.LVL272:
 3223              	.LBB1084:
 3224              	.LBB1076:
 3225              	.LBB1071:
 3226              	.LBB1066:
 3227              	.LBB1062:
 359:../../DaisyExamples/libDaisy//src/dev/oled_ssd130x.h ****     }
 3228              		.loc 7 359 42 view .LVU761
 3229 01ba 09EA0000 		and	r0, r9, r0
 3230              	.LBE1062:
 3231              	.LBE1066:
 3232              	.LBE1071:
 3233              	.LBE1076:
 3234              	.LBE1084:
 416:../../DaisyExamples/libDaisy//src/hid/disp/display.h ****             {
 3235              		.loc 8 416 26 view .LVU762
 3236 01be 0132     		adds	r2, r2, #1
 3237 01c0 0131     		adds	r1, r1, #1
 3238 01c2 9C42     		cmp	r4, r3
 3239              	.LBB1085:
 3240              	.LBB1077:
 3241              	.LBB1072:
 3242              	.LBB1067:
 3243              	.LBB1063:
 359:../../DaisyExamples/libDaisy//src/dev/oled_ssd130x.h ****     }
 3244              		.loc 7 359 42 view .LVU763
ARM GAS  /var/folders/hp/45mn71hd0ps5f5pnytxy5bt00000gn/T//ccdvmoSj.s 			page 104


 3245 01c4 02F8010C 		strb	r0, [r2, #-1]
 359:../../DaisyExamples/libDaisy//src/dev/oled_ssd130x.h ****     }
 3246              		.loc 7 359 42 view .LVU764
 3247              	.LBE1063:
 3248              	.LBE1067:
 3249              	.LBE1072:
 3250              	.LBE1077:
 3251              	.LBE1085:
 416:../../DaisyExamples/libDaisy//src/hid/disp/display.h ****             {
 3252              		.loc 8 416 13 is_stmt 1 view .LVU765
 3253              	.LVL273:
 416:../../DaisyExamples/libDaisy//src/hid/disp/display.h ****             {
 3254              		.loc 8 416 26 view .LVU766
 3255 01c8 EBD1     		bne	.L258
 3256              	.LVL274:
 3257              	.L257:
 413:../../DaisyExamples/libDaisy//src/hid/disp/display.h ****         {
 3258              		.loc 8 413 9 view .LVU767
 413:../../DaisyExamples/libDaisy//src/hid/disp/display.h ****         {
 3259              		.loc 8 413 22 view .LVU768
 3260 01ca F345     		cmp	fp, lr
 3261 01cc 05F10105 		add	r5, r5, #1
 3262 01d0 C3D1     		bne	.L252
 3263 01d2 DDF814B0 		ldr	fp, [sp, #20]
 3264              	.LVL275:
 3265              	.L251:
 3266              	.LBB1086:
 3267              	.LBB1087:
 173:../../DaisyExamples/libDaisy//src/hid/disp/display.h ****         currentY_ = (y >= Height()) ? Height() - 1 : y;
 3268              		.loc 8 173 33 is_stmt 0 view .LVU769
 3269 01d6 D8F80020 		ldr	r2, [r8]
 3270              	.LBE1087:
 3271              	.LBE1086:
 434:../../DaisyExamples/libDaisy//src/hid/disp/display.h **** 
 3272              		.loc 8 434 18 view .LVU770
 3273 01da 0AEB0405 		add	r5, r10, r4
 3274 01de 0199     		ldr	r1, [sp, #4]
 3275              	.LBB1092:
 3276              	.LBB1088:
 173:../../DaisyExamples/libDaisy//src/hid/disp/display.h ****         currentY_ = (y >= Height()) ? Height() - 1 : y;
 3277              		.loc 8 173 33 view .LVU771
 3278 01e0 D368     		ldr	r3, [r2, #12]
 3279              	.LBE1088:
 3280              	.LBE1092:
 434:../../DaisyExamples/libDaisy//src/hid/disp/display.h **** 
 3281              		.loc 8 434 18 view .LVU772
 3282 01e2 ADB2     		uxth	r5, r5
 3283              	.LVL276:
 3284              	.LBB1093:
 3285              	.LBI1086:
 171:../../DaisyExamples/libDaisy//src/hid/disp/display.h ****     {
 3286              		.loc 8 171 10 is_stmt 1 view .LVU773
 3287              	.LBB1089:
 173:../../DaisyExamples/libDaisy//src/hid/disp/display.h ****         currentY_ = (y >= Height()) ? Height() - 1 : y;
 3288              		.loc 8 173 9 view .LVU774
 3289 01e4 8B42     		cmp	r3, r1
 3290 01e6 40F0BD80 		bne	.L295
ARM GAS  /var/folders/hp/45mn71hd0ps5f5pnytxy5bt00000gn/T//ccdvmoSj.s 			page 105


 173:../../DaisyExamples/libDaisy//src/hid/disp/display.h ****         currentY_ = (y >= Height()) ? Height() - 1 : y;
 3291              		.loc 8 173 33 is_stmt 0 view .LVU775
 3292 01ea 8020     		movs	r0, #128
 3293              	.L259:
 173:../../DaisyExamples/libDaisy//src/hid/disp/display.h ****         currentY_ = (y >= Height()) ? Height() - 1 : y;
 3294              		.loc 8 173 19 view .LVU776
 3295 01ec 8542     		cmp	r5, r0
 3296 01ee 05D3     		bcc	.L260
 173:../../DaisyExamples/libDaisy//src/hid/disp/display.h ****         currentY_ = (y >= Height()) ? Height() - 1 : y;
 3297              		.loc 8 173 44 view .LVU777
 3298 01f0 D368     		ldr	r3, [r2, #12]
 3299 01f2 0199     		ldr	r1, [sp, #4]
 3300 01f4 8B42     		cmp	r3, r1
 3301 01f6 40F0C380 		bne	.L296
 3302 01fa 7F25     		movs	r5, #127
 3303              	.LVL277:
 3304              	.L260:
 174:../../DaisyExamples/libDaisy//src/hid/disp/display.h ****     }
 3305              		.loc 8 174 34 view .LVU778
 3306 01fc 9368     		ldr	r3, [r2, #8]
 3307 01fe 039A     		ldr	r2, [sp, #12]
 173:../../DaisyExamples/libDaisy//src/hid/disp/display.h ****         currentY_ = (y >= Height()) ? Height() - 1 : y;
 3308              		.loc 8 173 19 view .LVU779
 3309 0200 A8F80450 		strh	r5, [r8, #4]	@ movhi
 174:../../DaisyExamples/libDaisy//src/hid/disp/display.h ****     }
 3310              		.loc 8 174 9 is_stmt 1 view .LVU780
 3311 0204 9342     		cmp	r3, r2
 3312 0206 40F0AA80 		bne	.L297
 174:../../DaisyExamples/libDaisy//src/hid/disp/display.h ****     }
 3313              		.loc 8 174 34 is_stmt 0 view .LVU781
 3314 020a 2020     		movs	r0, #32
 3315              	.L262:
 174:../../DaisyExamples/libDaisy//src/hid/disp/display.h ****     }
 3316              		.loc 8 174 19 view .LVU782
 3317 020c 029B     		ldr	r3, [sp, #8]
 3318 020e 8342     		cmp	r3, r0
 3319 0210 08D3     		bcc	.L263
 174:../../DaisyExamples/libDaisy//src/hid/disp/display.h ****     }
 3320              		.loc 8 174 46 view .LVU783
 3321 0212 D8F80030 		ldr	r3, [r8]
 3322 0216 039A     		ldr	r2, [sp, #12]
 3323 0218 9B68     		ldr	r3, [r3, #8]
 3324 021a 9342     		cmp	r3, r2
 3325 021c 40F0AA80 		bne	.L298
 3326 0220 1F23     		movs	r3, #31
 3327 0222 0293     		str	r3, [sp, #8]
 3328              	.LVL278:
 3329              	.L263:
 174:../../DaisyExamples/libDaisy//src/hid/disp/display.h ****     }
 3330              		.loc 8 174 19 view .LVU784
 3331 0224 029B     		ldr	r3, [sp, #8]
 3332 0226 A8F80630 		strh	r3, [r8, #6]	@ movhi
 3333              	.LVL279:
 3334              	.L245:
 174:../../DaisyExamples/libDaisy//src/hid/disp/display.h ****     }
 3335              		.loc 8 174 19 view .LVU785
 3336              	.LBE1089:
ARM GAS  /var/folders/hp/45mn71hd0ps5f5pnytxy5bt00000gn/T//ccdvmoSj.s 			page 106


 3337              	.LBE1093:
 3338              	.LBE1055:
 3339              	.LBE1054:
 445:../../DaisyExamples/libDaisy//src/hid/disp/display.h ****                != *str)
 3340              		.loc 8 445 13 view .LVU786
 3341 022a 009A     		ldr	r2, [sp]
 3342 022c 1378     		ldrb	r3, [r2]	@ zero_extendqisi2
 3343 022e 5B45     		cmp	r3, fp
 3344 0230 06D1     		bne	.L213
 3345              	.LVL280:
 443:../../DaisyExamples/libDaisy//src/hid/disp/display.h ****         {
 3346              		.loc 8 443 9 is_stmt 1 view .LVU787
 3347 0232 12F801BF 		ldrb	fp, [r2, #1]!	@ zero_extendqisi2
 3348              	.LVL281:
 443:../../DaisyExamples/libDaisy//src/hid/disp/display.h ****         {
 3349              		.loc 8 443 9 is_stmt 0 view .LVU788
 3350 0236 0092     		str	r2, [sp]
 3351 0238 BBF1000F 		cmp	fp, #0
 3352 023c 7FF454AF 		bne	.L243
 3353              	.LVL282:
 3354              	.L213:
 443:../../DaisyExamples/libDaisy//src/hid/disp/display.h ****         {
 3355              		.loc 8 443 9 view .LVU789
 3356              	.LBE1099:
 3357              	.LBE1102:
 471:../../DaisyExamples/libDaisy//src/hid/disp/display.h **** 
 3358              		.loc 8 471 5 view .LVU790
 3359 0240 0698     		ldr	r0, [sp, #24]
 3360 0242 09B0     		add	sp, sp, #36
 3361              		.cfi_remember_state
 3362              		.cfi_def_cfa_offset 36
 3363              		@ sp needed
 3364 0244 BDE8F08F 		pop	{r4, r5, r6, r7, r8, r9, r10, fp, pc}
 3365              	.LVL283:
 3366              	.L226:
 3367              		.cfi_restore_state
 3368              	.LBB1103:
 3369              	.LBB1025:
 250:../../DaisyExamples/libDaisy//src/hid/disp/graphics_common.h ****                 return {int16_t(x_ + (other.GetCenterX() - GetCenterX())),
 3370              		.loc 10 250 13 is_stmt 1 view .LVU791
 251:../../DaisyExamples/libDaisy//src/hid/disp/graphics_common.h ****                         int16_t(y_ + (other.GetCenterY() - GetCenterY())),
 3371              		.loc 10 251 17 view .LVU792
 3372              	.LBB859:
 3373              	.LBI859:
  62:../../DaisyExamples/libDaisy//src/hid/disp/graphics_common.h ****     int16_t GetCenterY() const { return y_ + height_ / 2; }
 3374              		.loc 10 62 13 view .LVU793
 3375              	.LBB860:
  62:../../DaisyExamples/libDaisy//src/hid/disp/graphics_common.h ****     int16_t GetCenterY() const { return y_ + height_ / 2; }
 3376              		.loc 10 62 34 view .LVU794
  62:../../DaisyExamples/libDaisy//src/hid/disp/graphics_common.h ****     int16_t GetCenterY() const { return y_ + height_ / 2; }
 3377              		.loc 10 62 34 is_stmt 0 view .LVU795
 3378              	.LBE860:
 3379              	.LBE859:
 3380              	.LBB862:
 3381              	.LBI862:
  62:../../DaisyExamples/libDaisy//src/hid/disp/graphics_common.h ****     int16_t GetCenterY() const { return y_ + height_ / 2; }
 3382              		.loc 10 62 13 is_stmt 1 view .LVU796
ARM GAS  /var/folders/hp/45mn71hd0ps5f5pnytxy5bt00000gn/T//ccdvmoSj.s 			page 107


 3383              	.LBB863:
  62:../../DaisyExamples/libDaisy//src/hid/disp/graphics_common.h ****     int16_t GetCenterY() const { return y_ + height_ / 2; }
 3384              		.loc 10 62 34 view .LVU797
  62:../../DaisyExamples/libDaisy//src/hid/disp/graphics_common.h ****     int16_t GetCenterY() const { return y_ + height_ / 2; }
 3385              		.loc 10 62 34 is_stmt 0 view .LVU798
 3386              	.LBE863:
 3387              	.LBE862:
 3388              	.LBB864:
 3389              	.LBB861:
  62:../../DaisyExamples/libDaisy//src/hid/disp/graphics_common.h ****     int16_t GetCenterY() const { return y_ + height_ / 2; }
 3390              		.loc 10 62 53 view .LVU799
 3391 0248 B4F90410 		ldrsh	r1, [r4, #4]
 3392              	.LVL284:
  62:../../DaisyExamples/libDaisy//src/hid/disp/graphics_common.h ****     int16_t GetCenterY() const { return y_ + height_ / 2; }
 3393              		.loc 10 62 44 view .LVU800
 3394 024c 2788     		ldrh	r7, [r4]
  62:../../DaisyExamples/libDaisy//src/hid/disp/graphics_common.h ****     int16_t GetCenterY() const { return y_ + height_ / 2; }
 3395              		.loc 10 62 53 view .LVU801
 3396 024e 0029     		cmp	r1, #0
 3397 0250 B8BF     		it	lt
 3398 0252 0131     		addlt	r1, r1, #1
  62:../../DaisyExamples/libDaisy//src/hid/disp/graphics_common.h ****     int16_t GetCenterY() const { return y_ + height_ / 2; }
 3399              		.loc 10 62 44 view .LVU802
 3400 0254 07EB6107 		add	r7, r7, r1, asr #1
 3401              	.LBE861:
 3402              	.LBE864:
 3403              	.LBB865:
 3404              	.LBB837:
  63:../../DaisyExamples/libDaisy//src/hid/disp/graphics_common.h **** 
 3405              		.loc 10 63 54 view .LVU803
 3406 0258 B4F90610 		ldrsh	r1, [r4, #6]
 3407              	.LBE837:
 3408              	.LBE865:
 251:../../DaisyExamples/libDaisy//src/hid/disp/graphics_common.h ****                         int16_t(y_ + (other.GetCenterY() - GetCenterY())),
 3409              		.loc 10 251 58 view .LVU804
 3410 025c A7EB6307 		sub	r7, r7, r3, asr #1
 3411              	.LBB866:
 3412              	.LBB838:
  63:../../DaisyExamples/libDaisy//src/hid/disp/graphics_common.h **** 
 3413              		.loc 10 63 54 view .LVU805
 3414 0260 0029     		cmp	r1, #0
 3415              	.LBE838:
 3416              	.LBE866:
 251:../../DaisyExamples/libDaisy//src/hid/disp/graphics_common.h ****                         int16_t(y_ + (other.GetCenterY() - GetCenterY())),
 3417              		.loc 10 251 58 view .LVU806
 3418 0262 BFB2     		uxth	r7, r7
 3419              	.LVL285:
 3420              	.LBB867:
 3421              	.LBI834:
  63:../../DaisyExamples/libDaisy//src/hid/disp/graphics_common.h **** 
 3422              		.loc 10 63 13 is_stmt 1 view .LVU807
 3423              	.LBB839:
  63:../../DaisyExamples/libDaisy//src/hid/disp/graphics_common.h **** 
 3424              		.loc 10 63 34 view .LVU808
  63:../../DaisyExamples/libDaisy//src/hid/disp/graphics_common.h **** 
 3425              		.loc 10 63 34 is_stmt 0 view .LVU809
 3426              	.LBE839:
ARM GAS  /var/folders/hp/45mn71hd0ps5f5pnytxy5bt00000gn/T//ccdvmoSj.s 			page 108


 3427              	.LBE867:
 3428              	.LBB868:
 3429              	.LBI868:
  63:../../DaisyExamples/libDaisy//src/hid/disp/graphics_common.h **** 
 3430              		.loc 10 63 13 is_stmt 1 view .LVU810
 3431              	.LBB869:
  63:../../DaisyExamples/libDaisy//src/hid/disp/graphics_common.h **** 
 3432              		.loc 10 63 34 view .LVU811
  63:../../DaisyExamples/libDaisy//src/hid/disp/graphics_common.h **** 
 3433              		.loc 10 63 34 is_stmt 0 view .LVU812
 3434              	.LBE869:
 3435              	.LBE868:
 3436              	.LBB870:
 3437              	.LBB840:
  63:../../DaisyExamples/libDaisy//src/hid/disp/graphics_common.h **** 
 3438              		.loc 10 63 54 view .LVU813
 3439 0264 BFF602AF 		bge	.L233
 3440              	.L289:
  63:../../DaisyExamples/libDaisy//src/hid/disp/graphics_common.h **** 
 3441              		.loc 10 63 54 view .LVU814
 3442 0268 0131     		adds	r1, r1, #1
 3443 026a FFE6     		b	.L233
 3444              	.LVL286:
 3445              	.L225:
  63:../../DaisyExamples/libDaisy//src/hid/disp/graphics_common.h **** 
 3446              		.loc 10 63 54 view .LVU815
 3447              	.LBE840:
 3448              	.LBE870:
 213:../../DaisyExamples/libDaisy//src/hid/disp/graphics_common.h ****                 return {other.x_, other.y_, width_, height_};
 3449              		.loc 10 213 13 is_stmt 1 view .LVU816
 214:../../DaisyExamples/libDaisy//src/hid/disp/graphics_common.h ****             case Alignment::topRight:
 3450              		.loc 10 214 17 view .LVU817
 214:../../DaisyExamples/libDaisy//src/hid/disp/graphics_common.h ****             case Alignment::topRight:
 3451              		.loc 10 214 31 is_stmt 0 view .LVU818
 3452 026c B4F90070 		ldrsh	r7, [r4]
 3453              	.LBB871:
 3454              	.LBB872:
 3455              	.LBB873:
  32:../../DaisyExamples/libDaisy//src/hid/disp/graphics_common.h ****     {
 3456              		.loc 10 32 66 view .LVU819
 3457 0270 0699     		ldr	r1, [sp, #24]
 3458              	.LVL287:
  32:../../DaisyExamples/libDaisy//src/hid/disp/graphics_common.h ****     {
 3459              		.loc 10 32 66 view .LVU820
 3460              	.LBE873:
 3461              	.LBE872:
 3462              	.LBE871:
 214:../../DaisyExamples/libDaisy//src/hid/disp/graphics_common.h ****             case Alignment::topRight:
 3463              		.loc 10 214 41 view .LVU821
 3464 0272 B4F90240 		ldrsh	r4, [r4, #2]
 3465              	.LVL288:
 3466              	.LBB886:
 3467              	.LBI871:
  31:../../DaisyExamples/libDaisy//src/hid/disp/graphics_common.h ****     : x_(x), y_(y), width_(max(0, width)), height_(max(0, height))
 3468              		.loc 10 31 5 is_stmt 1 view .LVU822
 3469              	.LBB881:
 3470              	.LBB876:
ARM GAS  /var/folders/hp/45mn71hd0ps5f5pnytxy5bt00000gn/T//ccdvmoSj.s 			page 109


  32:../../DaisyExamples/libDaisy//src/hid/disp/graphics_common.h ****     {
 3471              		.loc 10 32 66 is_stmt 0 view .LVU823
 3472 0276 0F80     		strh	r7, [r1]	@ movhi
 3473              	.LBE876:
 3474              	.LBE881:
 3475              	.LBE886:
 3476              	.LBE1025:
 3477              	.LBE1103:
 468:../../DaisyExamples/libDaisy//src/hid/disp/display.h ****         ((ChildType*)(this))->ChildType::WriteString(str, font, on);
 3478              		.loc 8 468 18 view .LVU824
 3479 0278 BFB2     		uxth	r7, r7
 3480              	.LVL289:
 3481              	.LBB1104:
 3482              	.LBB1026:
 3483              	.LBB887:
 3484              	.LBB882:
 3485              	.LBB877:
  32:../../DaisyExamples/libDaisy//src/hid/disp/graphics_common.h ****     {
 3486              		.loc 10 32 66 view .LVU825
 3487 027a 4C80     		strh	r4, [r1, #2]	@ movhi
 3488              	.LBE877:
 3489              	.LBE882:
 3490              	.LBE887:
 3491              	.LBE1026:
 3492              	.LBE1104:
 468:../../DaisyExamples/libDaisy//src/hid/disp/display.h ****         ((ChildType*)(this))->ChildType::WriteString(str, font, on);
 3493              		.loc 8 468 18 view .LVU826
 3494 027c A4B2     		uxth	r4, r4
 3495              	.LVL290:
 3496              	.LBB1105:
 3497              	.LBB1027:
 3498              	.LBB888:
 3499              	.LBB883:
 3500              	.LBB878:
  32:../../DaisyExamples/libDaisy//src/hid/disp/graphics_common.h ****     {
 3501              		.loc 10 32 66 view .LVU827
 3502 027e 8B80     		strh	r3, [r1, #4]	@ movhi
 3503              	.LVL291:
 3504              	.LBB874:
 3505              	.LBI874:
 3506              		.loc 10 261 13 is_stmt 1 view .LVU828
 3507              	.LBE874:
 3508              	.LBE878:
 3509              	.LBE883:
 3510              	.LBE888:
 3511              	.LBE1027:
 3512              	.LBE1105:
 3513              		.loc 10 261 41 view .LVU829
 3514              	.LBB1106:
 3515              	.LBB1028:
 3516              	.LBB889:
 3517              	.LBB884:
 3518              	.LBB879:
 3519              	.LBB875:
 3520              	.LBI875:
 3521              		.loc 10 261 13 view .LVU830
 3522              	.LBE875:
ARM GAS  /var/folders/hp/45mn71hd0ps5f5pnytxy5bt00000gn/T//ccdvmoSj.s 			page 110


 3523              	.LBE879:
 3524              	.LBE884:
 3525              	.LBE889:
 3526              	.LBE1028:
 3527              	.LBE1106:
 3528              		.loc 10 261 41 view .LVU831
 3529              	.LBB1107:
 3530              	.LBB1029:
 3531              	.LBB890:
 3532              	.LBB885:
 3533              	.LBB880:
  32:../../DaisyExamples/libDaisy//src/hid/disp/graphics_common.h ****     {
 3534              		.loc 10 32 66 is_stmt 0 view .LVU832
 3535 0280 CA80     		strh	r2, [r1, #6]	@ movhi
 3536              	.LBE880:
  34:../../DaisyExamples/libDaisy//src/hid/disp/graphics_common.h **** 
 3537              		.loc 10 34 5 view .LVU833
 3538 0282 FEE6     		b	.L227
 3539              	.LVL292:
 3540              	.L224:
  34:../../DaisyExamples/libDaisy//src/hid/disp/graphics_common.h **** 
 3541              		.loc 10 34 5 view .LVU834
 3542              	.LBE885:
 3543              	.LBE890:
 220:../../DaisyExamples/libDaisy//src/hid/disp/graphics_common.h ****                 return {int16_t(x_ + (other.GetCenterX() - GetCenterX())),
 3544              		.loc 10 220 13 is_stmt 1 view .LVU835
 221:../../DaisyExamples/libDaisy//src/hid/disp/graphics_common.h ****                         other.y_,
 3545              		.loc 10 221 17 view .LVU836
 3546              	.LBB891:
 3547              	.LBI891:
  62:../../DaisyExamples/libDaisy//src/hid/disp/graphics_common.h ****     int16_t GetCenterY() const { return y_ + height_ / 2; }
 3548              		.loc 10 62 13 view .LVU837
 3549              	.LBB892:
  62:../../DaisyExamples/libDaisy//src/hid/disp/graphics_common.h ****     int16_t GetCenterY() const { return y_ + height_ / 2; }
 3550              		.loc 10 62 34 view .LVU838
  62:../../DaisyExamples/libDaisy//src/hid/disp/graphics_common.h ****     int16_t GetCenterY() const { return y_ + height_ / 2; }
 3551              		.loc 10 62 34 is_stmt 0 view .LVU839
 3552              	.LBE892:
 3553              	.LBE891:
 3554              	.LBB895:
 3555              	.LBI895:
  62:../../DaisyExamples/libDaisy//src/hid/disp/graphics_common.h ****     int16_t GetCenterY() const { return y_ + height_ / 2; }
 3556              		.loc 10 62 13 is_stmt 1 view .LVU840
 3557              	.LBB896:
  62:../../DaisyExamples/libDaisy//src/hid/disp/graphics_common.h ****     int16_t GetCenterY() const { return y_ + height_ / 2; }
 3558              		.loc 10 62 34 view .LVU841
  62:../../DaisyExamples/libDaisy//src/hid/disp/graphics_common.h ****     int16_t GetCenterY() const { return y_ + height_ / 2; }
 3559              		.loc 10 62 34 is_stmt 0 view .LVU842
 3560              	.LBE896:
 3561              	.LBE895:
 3562              	.LBB897:
 3563              	.LBB893:
  62:../../DaisyExamples/libDaisy//src/hid/disp/graphics_common.h ****     int16_t GetCenterY() const { return y_ + height_ / 2; }
 3564              		.loc 10 62 53 view .LVU843
 3565 0284 B4F90410 		ldrsh	r1, [r4, #4]
 3566              	.LVL293:
  62:../../DaisyExamples/libDaisy//src/hid/disp/graphics_common.h ****     int16_t GetCenterY() const { return y_ + height_ / 2; }
ARM GAS  /var/folders/hp/45mn71hd0ps5f5pnytxy5bt00000gn/T//ccdvmoSj.s 			page 111


 3567              		.loc 10 62 44 view .LVU844
 3568 0288 2788     		ldrh	r7, [r4]
  62:../../DaisyExamples/libDaisy//src/hid/disp/graphics_common.h ****     int16_t GetCenterY() const { return y_ + height_ / 2; }
 3569              		.loc 10 62 53 view .LVU845
 3570 028a 0029     		cmp	r1, #0
 3571              	.LBE893:
 3572              	.LBE897:
 222:../../DaisyExamples/libDaisy//src/hid/disp/graphics_common.h ****                         width_,
 3573              		.loc 10 222 31 view .LVU846
 3574 028c B4F90240 		ldrsh	r4, [r4, #2]
 3575              	.LVL294:
 3576              	.LBB898:
 3577              	.LBB894:
  62:../../DaisyExamples/libDaisy//src/hid/disp/graphics_common.h ****     int16_t GetCenterY() const { return y_ + height_ / 2; }
 3578              		.loc 10 62 53 view .LVU847
 3579 0290 B8BF     		it	lt
 3580 0292 0131     		addlt	r1, r1, #1
  62:../../DaisyExamples/libDaisy//src/hid/disp/graphics_common.h ****     int16_t GetCenterY() const { return y_ + height_ / 2; }
 3581              		.loc 10 62 44 view .LVU848
 3582 0294 07EB6107 		add	r7, r7, r1, asr #1
 3583              	.LBE894:
 3584              	.LBE898:
 3585              	.LBB899:
 3586              	.LBB900:
 3587              	.LBB901:
  32:../../DaisyExamples/libDaisy//src/hid/disp/graphics_common.h ****     {
 3588              		.loc 10 32 66 view .LVU849
 3589 0298 0699     		ldr	r1, [sp, #24]
 3590 029a 8B80     		strh	r3, [r1, #4]	@ movhi
 3591              	.LBE901:
 3592              	.LBE900:
 3593              	.LBE899:
 221:../../DaisyExamples/libDaisy//src/hid/disp/graphics_common.h ****                         other.y_,
 3594              		.loc 10 221 58 view .LVU850
 3595 029c A7EB6303 		sub	r3, r7, r3, asr #1
 3596              	.LBB912:
 3597              	.LBB908:
 3598              	.LBB904:
  32:../../DaisyExamples/libDaisy//src/hid/disp/graphics_common.h ****     {
 3599              		.loc 10 32 66 view .LVU851
 3600 02a0 4C80     		strh	r4, [r1, #2]	@ movhi
 3601              	.LBE904:
 3602              	.LBE908:
 3603              	.LBE912:
 3604              	.LBE1029:
 3605              	.LBE1107:
 468:../../DaisyExamples/libDaisy//src/hid/disp/display.h ****         ((ChildType*)(this))->ChildType::WriteString(str, font, on);
 3606              		.loc 8 468 18 view .LVU852
 3607 02a2 A4B2     		uxth	r4, r4
 3608              	.LBB1108:
 3609              	.LBB1030:
 221:../../DaisyExamples/libDaisy//src/hid/disp/graphics_common.h ****                         other.y_,
 3610              		.loc 10 221 58 view .LVU853
 3611 02a4 9FB2     		uxth	r7, r3
 3612              	.LVL295:
 3613              	.LBB913:
 3614              	.LBI899:
ARM GAS  /var/folders/hp/45mn71hd0ps5f5pnytxy5bt00000gn/T//ccdvmoSj.s 			page 112


  31:../../DaisyExamples/libDaisy//src/hid/disp/graphics_common.h ****     : x_(x), y_(y), width_(max(0, width)), height_(max(0, height))
 3615              		.loc 10 31 5 is_stmt 1 view .LVU854
 3616              	.LBB909:
 3617              	.LBB905:
 3618              	.LBB902:
 3619              	.LBI902:
 3620              		.loc 10 261 13 view .LVU855
 3621              	.LBE902:
 3622              	.LBE905:
 3623              	.LBE909:
 3624              	.LBE913:
 3625              	.LBE1030:
 3626              	.LBE1108:
 3627              		.loc 10 261 41 view .LVU856
 3628              	.LBB1109:
 3629              	.LBB1031:
 3630              	.LBB914:
 3631              	.LBB910:
 3632              	.LBB906:
 3633              	.LBB903:
 3634              	.LBI903:
 3635              		.loc 10 261 13 view .LVU857
 3636              	.LBE903:
 3637              	.LBE906:
 3638              	.LBE910:
 3639              	.LBE914:
 3640              	.LBE1031:
 3641              	.LBE1109:
 3642              		.loc 10 261 41 view .LVU858
 3643              	.LBB1110:
 3644              	.LBB1032:
 3645              	.LBB915:
 3646              	.LBB911:
 3647              	.LBB907:
  32:../../DaisyExamples/libDaisy//src/hid/disp/graphics_common.h ****     {
 3648              		.loc 10 32 66 is_stmt 0 view .LVU859
 3649 02a6 CA80     		strh	r2, [r1, #6]	@ movhi
 3650 02a8 0F80     		strh	r7, [r1]	@ movhi
 3651              	.LBE907:
  34:../../DaisyExamples/libDaisy//src/hid/disp/graphics_common.h **** 
 3652              		.loc 10 34 5 view .LVU860
 3653 02aa EAE6     		b	.L227
 3654              	.LVL296:
 3655              	.L223:
  34:../../DaisyExamples/libDaisy//src/hid/disp/graphics_common.h **** 
 3656              		.loc 10 34 5 view .LVU861
 3657              	.LBE911:
 3658              	.LBE915:
 215:../../DaisyExamples/libDaisy//src/hid/disp/graphics_common.h ****                 return {int16_t(other.GetRight() - width_),
 3659              		.loc 10 215 13 is_stmt 1 view .LVU862
 216:../../DaisyExamples/libDaisy//src/hid/disp/graphics_common.h ****                         other.y_,
 3660              		.loc 10 216 17 view .LVU863
 3661              	.LBB916:
 3662              	.LBI916:
  60:../../DaisyExamples/libDaisy//src/hid/disp/graphics_common.h ****     int16_t GetBottom() const { return y_ + height_; }
 3663              		.loc 10 60 13 view .LVU864
 3664              	.LBB917:
ARM GAS  /var/folders/hp/45mn71hd0ps5f5pnytxy5bt00000gn/T//ccdvmoSj.s 			page 113


  60:../../DaisyExamples/libDaisy//src/hid/disp/graphics_common.h ****     int16_t GetBottom() const { return y_ + height_; }
 3665              		.loc 10 60 32 view .LVU865
  60:../../DaisyExamples/libDaisy//src/hid/disp/graphics_common.h ****     int16_t GetBottom() const { return y_ + height_; }
 3666              		.loc 10 60 42 is_stmt 0 view .LVU866
 3667 02ac A188     		ldrh	r1, [r4, #4]
 3668              	.LVL297:
  60:../../DaisyExamples/libDaisy//src/hid/disp/graphics_common.h ****     int16_t GetBottom() const { return y_ + height_; }
 3669              		.loc 10 60 42 view .LVU867
 3670 02ae 2788     		ldrh	r7, [r4]
 3671              	.LBE917:
 3672              	.LBE916:
 217:../../DaisyExamples/libDaisy//src/hid/disp/graphics_common.h ****                         width_,
 3673              		.loc 10 217 31 view .LVU868
 3674 02b0 B4F90240 		ldrsh	r4, [r4, #2]
 3675              	.LVL298:
 3676              	.LBB919:
 3677              	.LBB918:
  60:../../DaisyExamples/libDaisy//src/hid/disp/graphics_common.h ****     int16_t GetBottom() const { return y_ + height_; }
 3678              		.loc 10 60 42 view .LVU869
 3679 02b4 0F44     		add	r7, r7, r1
 3680              	.LBE918:
 3681              	.LBE919:
 3682              	.LBB920:
 3683              	.LBB921:
 3684              	.LBB922:
  32:../../DaisyExamples/libDaisy//src/hid/disp/graphics_common.h ****     {
 3685              		.loc 10 32 66 view .LVU870
 3686 02b6 0699     		ldr	r1, [sp, #24]
 3687 02b8 8B80     		strh	r3, [r1, #4]	@ movhi
 3688              	.LBE922:
 3689              	.LBE921:
 3690              	.LBE920:
 216:../../DaisyExamples/libDaisy//src/hid/disp/graphics_common.h ****                         other.y_,
 3691              		.loc 10 216 50 view .LVU871
 3692 02ba FB1A     		subs	r3, r7, r3
 3693              	.LBB933:
 3694              	.LBB929:
 3695              	.LBB925:
  32:../../DaisyExamples/libDaisy//src/hid/disp/graphics_common.h ****     {
 3696              		.loc 10 32 66 view .LVU872
 3697 02bc 4C80     		strh	r4, [r1, #2]	@ movhi
 3698              	.LBE925:
 3699              	.LBE929:
 3700              	.LBE933:
 3701              	.LBE1032:
 3702              	.LBE1110:
 468:../../DaisyExamples/libDaisy//src/hid/disp/display.h ****         ((ChildType*)(this))->ChildType::WriteString(str, font, on);
 3703              		.loc 8 468 18 view .LVU873
 3704 02be A4B2     		uxth	r4, r4
 3705              	.LBB1111:
 3706              	.LBB1033:
 216:../../DaisyExamples/libDaisy//src/hid/disp/graphics_common.h ****                         other.y_,
 3707              		.loc 10 216 50 view .LVU874
 3708 02c0 9FB2     		uxth	r7, r3
 3709              	.LVL299:
 3710              	.LBB934:
 3711              	.LBI920:
ARM GAS  /var/folders/hp/45mn71hd0ps5f5pnytxy5bt00000gn/T//ccdvmoSj.s 			page 114


  31:../../DaisyExamples/libDaisy//src/hid/disp/graphics_common.h ****     : x_(x), y_(y), width_(max(0, width)), height_(max(0, height))
 3712              		.loc 10 31 5 is_stmt 1 view .LVU875
 3713              	.LBB930:
 3714              	.LBB926:
 3715              	.LBB923:
 3716              	.LBI923:
 3717              		.loc 10 261 13 view .LVU876
 3718              	.LBE923:
 3719              	.LBE926:
 3720              	.LBE930:
 3721              	.LBE934:
 3722              	.LBE1033:
 3723              	.LBE1111:
 3724              		.loc 10 261 41 view .LVU877
 3725              	.LBB1112:
 3726              	.LBB1034:
 3727              	.LBB935:
 3728              	.LBB931:
 3729              	.LBB927:
 3730              	.LBB924:
 3731              	.LBI924:
 3732              		.loc 10 261 13 view .LVU878
 3733              	.LBE924:
 3734              	.LBE927:
 3735              	.LBE931:
 3736              	.LBE935:
 3737              	.LBE1034:
 3738              	.LBE1112:
 3739              		.loc 10 261 41 view .LVU879
 3740              	.LBB1113:
 3741              	.LBB1035:
 3742              	.LBB936:
 3743              	.LBB932:
 3744              	.LBB928:
  32:../../DaisyExamples/libDaisy//src/hid/disp/graphics_common.h ****     {
 3745              		.loc 10 32 66 is_stmt 0 view .LVU880
 3746 02c2 CA80     		strh	r2, [r1, #6]	@ movhi
 3747 02c4 0F80     		strh	r7, [r1]	@ movhi
 3748              	.LBE928:
  34:../../DaisyExamples/libDaisy//src/hid/disp/graphics_common.h **** 
 3749              		.loc 10 34 5 view .LVU881
 3750 02c6 DCE6     		b	.L227
 3751              	.LVL300:
 3752              	.L222:
  34:../../DaisyExamples/libDaisy//src/hid/disp/graphics_common.h **** 
 3753              		.loc 10 34 5 view .LVU882
 3754              	.LBE932:
 3755              	.LBE936:
 225:../../DaisyExamples/libDaisy//src/hid/disp/graphics_common.h ****                 return {other.x_,
 3756              		.loc 10 225 13 is_stmt 1 view .LVU883
 226:../../DaisyExamples/libDaisy//src/hid/disp/graphics_common.h ****                         int16_t(other.GetBottom() - height_),
 3757              		.loc 10 226 17 view .LVU884
 3758              	.LBB937:
 3759              	.LBB938:
  61:../../DaisyExamples/libDaisy//src/hid/disp/graphics_common.h ****     int16_t GetCenterX() const { return x_ + width_ / 2; }
 3760              		.loc 10 61 43 is_stmt 0 view .LVU885
 3761 02c8 E788     		ldrh	r7, [r4, #6]
ARM GAS  /var/folders/hp/45mn71hd0ps5f5pnytxy5bt00000gn/T//ccdvmoSj.s 			page 115


 3762 02ca 6188     		ldrh	r1, [r4, #2]
 3763              	.LVL301:
  61:../../DaisyExamples/libDaisy//src/hid/disp/graphics_common.h ****     int16_t GetCenterX() const { return x_ + width_ / 2; }
 3764              		.loc 10 61 43 view .LVU886
 3765 02cc 3944     		add	r1, r1, r7
 3766              	.LBE938:
 3767              	.LBE937:
 226:../../DaisyExamples/libDaisy//src/hid/disp/graphics_common.h ****                         int16_t(other.GetBottom() - height_),
 3768              		.loc 10 226 31 view .LVU887
 3769 02ce B4F90070 		ldrsh	r7, [r4]
 227:../../DaisyExamples/libDaisy//src/hid/disp/graphics_common.h ****                         width_,
 3770              		.loc 10 227 51 view .LVU888
 3771 02d2 081A     		subs	r0, r1, r0
 3772              	.LVL302:
 3773              	.LBB940:
 3774              	.LBI937:
  61:../../DaisyExamples/libDaisy//src/hid/disp/graphics_common.h ****     int16_t GetCenterX() const { return x_ + width_ / 2; }
 3775              		.loc 10 61 13 is_stmt 1 view .LVU889
 3776              	.LBB939:
  61:../../DaisyExamples/libDaisy//src/hid/disp/graphics_common.h ****     int16_t GetCenterX() const { return x_ + width_ / 2; }
 3777              		.loc 10 61 33 view .LVU890
  61:../../DaisyExamples/libDaisy//src/hid/disp/graphics_common.h ****     int16_t GetCenterX() const { return x_ + width_ / 2; }
 3778              		.loc 10 61 33 is_stmt 0 view .LVU891
 3779              	.LBE939:
 3780              	.LBE940:
 3781              	.LBB941:
 3782              	.LBB942:
 3783              	.LBB943:
  32:../../DaisyExamples/libDaisy//src/hid/disp/graphics_common.h ****     {
 3784              		.loc 10 32 66 view .LVU892
 3785 02d4 0699     		ldr	r1, [sp, #24]
 3786              	.LBE943:
 3787              	.LBE942:
 3788              	.LBE941:
 227:../../DaisyExamples/libDaisy//src/hid/disp/graphics_common.h ****                         width_,
 3789              		.loc 10 227 51 view .LVU893
 3790 02d6 84B2     		uxth	r4, r0
 3791              	.LVL303:
 3792              	.LBB953:
 3793              	.LBB949:
 3794              	.LBB946:
  32:../../DaisyExamples/libDaisy//src/hid/disp/graphics_common.h ****     {
 3795              		.loc 10 32 66 view .LVU894
 3796 02d8 0F80     		strh	r7, [r1]	@ movhi
 3797 02da 8B80     		strh	r3, [r1, #4]	@ movhi
 3798              	.LVL304:
  32:../../DaisyExamples/libDaisy//src/hid/disp/graphics_common.h ****     {
 3799              		.loc 10 32 66 view .LVU895
 3800              	.LBE946:
 3801              	.LBE949:
 3802              	.LBI941:
  31:../../DaisyExamples/libDaisy//src/hid/disp/graphics_common.h ****     : x_(x), y_(y), width_(max(0, width)), height_(max(0, height))
 3803              		.loc 10 31 5 is_stmt 1 view .LVU896
 3804              	.LBE953:
 3805              	.LBE1035:
 3806              	.LBE1113:
 468:../../DaisyExamples/libDaisy//src/hid/disp/display.h ****         ((ChildType*)(this))->ChildType::WriteString(str, font, on);
ARM GAS  /var/folders/hp/45mn71hd0ps5f5pnytxy5bt00000gn/T//ccdvmoSj.s 			page 116


 3807              		.loc 8 468 18 is_stmt 0 view .LVU897
 3808 02dc BFB2     		uxth	r7, r7
 3809              	.LVL305:
 3810              	.LBB1114:
 3811              	.LBB1036:
 3812              	.LBB954:
 3813              	.LBB950:
 3814              	.LBB947:
  32:../../DaisyExamples/libDaisy//src/hid/disp/graphics_common.h ****     {
 3815              		.loc 10 32 66 view .LVU898
 3816 02de CA80     		strh	r2, [r1, #6]	@ movhi
 3817 02e0 4C80     		strh	r4, [r1, #2]	@ movhi
 3818              	.LVL306:
 3819              	.LBB944:
 3820              	.LBI944:
 3821              		.loc 10 261 13 is_stmt 1 view .LVU899
 3822              	.LBE944:
 3823              	.LBE947:
 3824              	.LBE950:
 3825              	.LBE954:
 3826              	.LBE1036:
 3827              	.LBE1114:
 3828              		.loc 10 261 41 view .LVU900
 3829              	.LBB1115:
 3830              	.LBB1037:
 3831              	.LBB955:
 3832              	.LBB951:
 3833              	.LBB948:
 3834              	.LBB945:
 3835              	.LBI945:
 3836              		.loc 10 261 13 view .LVU901
 3837              	.LBE945:
 3838              	.LBE948:
 3839              	.LBE951:
 3840              	.LBE955:
 3841              	.LBE1037:
 3842              	.LBE1115:
 3843              		.loc 10 261 41 view .LVU902
 3844              	.LBB1116:
 3845              	.LBB1038:
 3846              	.LBB956:
 3847              	.LBB952:
  34:../../DaisyExamples/libDaisy//src/hid/disp/graphics_common.h **** 
 3848              		.loc 10 34 5 is_stmt 0 view .LVU903
 3849 02e2 CEE6     		b	.L227
 3850              	.LVL307:
 3851              	.L221:
  34:../../DaisyExamples/libDaisy//src/hid/disp/graphics_common.h **** 
 3852              		.loc 10 34 5 view .LVU904
 3853              	.LBE952:
 3854              	.LBE956:
 235:../../DaisyExamples/libDaisy//src/hid/disp/graphics_common.h ****                 return {int16_t(x_ + (other.GetCenterX() - GetCenterX())),
 3855              		.loc 10 235 13 is_stmt 1 view .LVU905
 236:../../DaisyExamples/libDaisy//src/hid/disp/graphics_common.h ****                         int16_t(other.GetBottom() - height_),
 3856              		.loc 10 236 17 view .LVU906
 3857              	.LBB957:
 3858              	.LBI957:
ARM GAS  /var/folders/hp/45mn71hd0ps5f5pnytxy5bt00000gn/T//ccdvmoSj.s 			page 117


  62:../../DaisyExamples/libDaisy//src/hid/disp/graphics_common.h ****     int16_t GetCenterY() const { return y_ + height_ / 2; }
 3859              		.loc 10 62 13 view .LVU907
 3860              	.LBB958:
  62:../../DaisyExamples/libDaisy//src/hid/disp/graphics_common.h ****     int16_t GetCenterY() const { return y_ + height_ / 2; }
 3861              		.loc 10 62 34 view .LVU908
  62:../../DaisyExamples/libDaisy//src/hid/disp/graphics_common.h ****     int16_t GetCenterY() const { return y_ + height_ / 2; }
 3862              		.loc 10 62 34 is_stmt 0 view .LVU909
 3863              	.LBE958:
 3864              	.LBE957:
 3865              	.LBB960:
 3866              	.LBI960:
  62:../../DaisyExamples/libDaisy//src/hid/disp/graphics_common.h ****     int16_t GetCenterY() const { return y_ + height_ / 2; }
 3867              		.loc 10 62 13 is_stmt 1 view .LVU910
 3868              	.LBB961:
  62:../../DaisyExamples/libDaisy//src/hid/disp/graphics_common.h ****     int16_t GetCenterY() const { return y_ + height_ / 2; }
 3869              		.loc 10 62 34 view .LVU911
  62:../../DaisyExamples/libDaisy//src/hid/disp/graphics_common.h ****     int16_t GetCenterY() const { return y_ + height_ / 2; }
 3870              		.loc 10 62 34 is_stmt 0 view .LVU912
 3871              	.LBE961:
 3872              	.LBE960:
 3873              	.LBB962:
 3874              	.LBB959:
  62:../../DaisyExamples/libDaisy//src/hid/disp/graphics_common.h ****     int16_t GetCenterY() const { return y_ + height_ / 2; }
 3875              		.loc 10 62 53 view .LVU913
 3876 02e4 B4F90410 		ldrsh	r1, [r4, #4]
 3877              	.LVL308:
  62:../../DaisyExamples/libDaisy//src/hid/disp/graphics_common.h ****     int16_t GetCenterY() const { return y_ + height_ / 2; }
 3878              		.loc 10 62 44 view .LVU914
 3879 02e8 2788     		ldrh	r7, [r4]
  62:../../DaisyExamples/libDaisy//src/hid/disp/graphics_common.h ****     int16_t GetCenterY() const { return y_ + height_ / 2; }
 3880              		.loc 10 62 53 view .LVU915
 3881 02ea 0029     		cmp	r1, #0
 3882 02ec B8BF     		it	lt
 3883 02ee 0131     		addlt	r1, r1, #1
  62:../../DaisyExamples/libDaisy//src/hid/disp/graphics_common.h ****     int16_t GetCenterY() const { return y_ + height_ / 2; }
 3884              		.loc 10 62 44 view .LVU916
 3885 02f0 07EB6107 		add	r7, r7, r1, asr #1
 3886              	.LBE959:
 3887              	.LBE962:
 236:../../DaisyExamples/libDaisy//src/hid/disp/graphics_common.h ****                         int16_t(other.GetBottom() - height_),
 3888              		.loc 10 236 58 view .LVU917
 3889 02f4 A7EB6307 		sub	r7, r7, r3, asr #1
 3890              	.L287:
 3891              	.LBB963:
 3892              	.LBB964:
  61:../../DaisyExamples/libDaisy//src/hid/disp/graphics_common.h ****     int16_t GetCenterX() const { return x_ + width_ / 2; }
 3893              		.loc 10 61 43 view .LVU918
 3894 02f8 B4F802C0 		ldrh	ip, [r4, #2]
 3895              	.LBE964:
 3896              	.LBE963:
 236:../../DaisyExamples/libDaisy//src/hid/disp/graphics_common.h ****                         int16_t(other.GetBottom() - height_),
 3897              		.loc 10 236 58 view .LVU919
 3898 02fc BFB2     		uxth	r7, r7
 3899              	.LVL309:
 3900              	.LBB967:
 3901              	.LBI963:
  61:../../DaisyExamples/libDaisy//src/hid/disp/graphics_common.h ****     int16_t GetCenterX() const { return x_ + width_ / 2; }
ARM GAS  /var/folders/hp/45mn71hd0ps5f5pnytxy5bt00000gn/T//ccdvmoSj.s 			page 118


 3902              		.loc 10 61 13 is_stmt 1 view .LVU920
 3903              	.LBB965:
  61:../../DaisyExamples/libDaisy//src/hid/disp/graphics_common.h ****     int16_t GetCenterX() const { return x_ + width_ / 2; }
 3904              		.loc 10 61 33 view .LVU921
  61:../../DaisyExamples/libDaisy//src/hid/disp/graphics_common.h ****     int16_t GetCenterX() const { return x_ + width_ / 2; }
 3905              		.loc 10 61 43 is_stmt 0 view .LVU922
 3906 02fe E488     		ldrh	r4, [r4, #6]
 3907              	.LVL310:
  61:../../DaisyExamples/libDaisy//src/hid/disp/graphics_common.h ****     int16_t GetCenterX() const { return x_ + width_ / 2; }
 3908              		.loc 10 61 43 view .LVU923
 3909              	.LBE965:
 3910              	.LBE967:
 3911              	.LBB968:
 3912              	.LBB969:
 3913              	.LBB970:
  32:../../DaisyExamples/libDaisy//src/hid/disp/graphics_common.h ****     {
 3914              		.loc 10 32 66 view .LVU924
 3915 0300 0699     		ldr	r1, [sp, #24]
 3916              	.LBE970:
 3917              	.LBE969:
 3918              	.LBE968:
 3919              	.LBB982:
 3920              	.LBB966:
  61:../../DaisyExamples/libDaisy//src/hid/disp/graphics_common.h ****     int16_t GetCenterX() const { return x_ + width_ / 2; }
 3921              		.loc 10 61 43 view .LVU925
 3922 0302 6444     		add	r4, r4, ip
 3923              	.LBE966:
 3924              	.LBE982:
 3925              	.LBB983:
 3926              	.LBB977:
 3927              	.LBB973:
  32:../../DaisyExamples/libDaisy//src/hid/disp/graphics_common.h ****     {
 3928              		.loc 10 32 66 view .LVU926
 3929 0304 8B80     		strh	r3, [r1, #4]	@ movhi
 3930              	.LBE973:
 3931              	.LBE977:
 3932              	.LBE983:
 237:../../DaisyExamples/libDaisy//src/hid/disp/graphics_common.h ****                         width_,
 3933              		.loc 10 237 51 view .LVU927
 3934 0306 201A     		subs	r0, r4, r0
 3935              	.LBB984:
 3936              	.LBB978:
 3937              	.LBB974:
  32:../../DaisyExamples/libDaisy//src/hid/disp/graphics_common.h ****     {
 3938              		.loc 10 32 66 view .LVU928
 3939 0308 CA80     		strh	r2, [r1, #6]	@ movhi
 3940 030a 0F80     		strh	r7, [r1]	@ movhi
 3941              	.LBE974:
 3942              	.LBE978:
 3943              	.LBE984:
 237:../../DaisyExamples/libDaisy//src/hid/disp/graphics_common.h ****                         width_,
 3944              		.loc 10 237 51 view .LVU929
 3945 030c 84B2     		uxth	r4, r0
 3946              	.LVL311:
 3947              	.LBB985:
 3948              	.LBI968:
  31:../../DaisyExamples/libDaisy//src/hid/disp/graphics_common.h ****     : x_(x), y_(y), width_(max(0, width)), height_(max(0, height))
ARM GAS  /var/folders/hp/45mn71hd0ps5f5pnytxy5bt00000gn/T//ccdvmoSj.s 			page 119


 3949              		.loc 10 31 5 is_stmt 1 view .LVU930
 3950              	.LBB979:
 3951              	.LBB975:
  32:../../DaisyExamples/libDaisy//src/hid/disp/graphics_common.h ****     {
 3952              		.loc 10 32 66 is_stmt 0 view .LVU931
 3953 030e 4C80     		strh	r4, [r1, #2]	@ movhi
 3954              	.LVL312:
 3955              	.LBB971:
 3956              	.LBI971:
 3957              		.loc 10 261 13 is_stmt 1 view .LVU932
 3958              	.LBE971:
 3959              	.LBE975:
 3960              	.LBE979:
 3961              	.LBE985:
 3962              	.LBE1038:
 3963              	.LBE1116:
 3964              		.loc 10 261 41 view .LVU933
 3965              	.LBB1117:
 3966              	.LBB1039:
 3967              	.LBB986:
 3968              	.LBB980:
 3969              	.LBB976:
 3970              	.LBB972:
 3971              	.LBI972:
 3972              		.loc 10 261 13 view .LVU934
 3973              	.LBE972:
 3974              	.LBE976:
 3975              	.LBE980:
 3976              	.LBE986:
 3977              	.LBE1039:
 3978              	.LBE1117:
 3979              		.loc 10 261 41 view .LVU935
 3980              	.LBB1118:
 3981              	.LBB1040:
 3982              	.LBB987:
 3983              	.LBB981:
  34:../../DaisyExamples/libDaisy//src/hid/disp/graphics_common.h **** 
 3984              		.loc 10 34 5 is_stmt 0 view .LVU936
 3985 0310 B7E6     		b	.L227
 3986              	.LVL313:
 3987              	.L220:
  34:../../DaisyExamples/libDaisy//src/hid/disp/graphics_common.h **** 
 3988              		.loc 10 34 5 view .LVU937
 3989              	.LBE981:
 3990              	.LBE987:
 230:../../DaisyExamples/libDaisy//src/hid/disp/graphics_common.h ****                 return {int16_t(other.GetRight() - width_),
 3991              		.loc 10 230 13 is_stmt 1 view .LVU938
 231:../../DaisyExamples/libDaisy//src/hid/disp/graphics_common.h ****                         int16_t(other.GetBottom() - height_),
 3992              		.loc 10 231 17 view .LVU939
 3993              	.LBB988:
 3994              	.LBI988:
  60:../../DaisyExamples/libDaisy//src/hid/disp/graphics_common.h ****     int16_t GetBottom() const { return y_ + height_; }
 3995              		.loc 10 60 13 view .LVU940
 3996              	.LBB989:
  60:../../DaisyExamples/libDaisy//src/hid/disp/graphics_common.h ****     int16_t GetBottom() const { return y_ + height_; }
 3997              		.loc 10 60 32 view .LVU941
  60:../../DaisyExamples/libDaisy//src/hid/disp/graphics_common.h ****     int16_t GetBottom() const { return y_ + height_; }
ARM GAS  /var/folders/hp/45mn71hd0ps5f5pnytxy5bt00000gn/T//ccdvmoSj.s 			page 120


 3998              		.loc 10 60 42 is_stmt 0 view .LVU942
 3999 0312 2788     		ldrh	r7, [r4]
 4000 0314 A188     		ldrh	r1, [r4, #4]
 4001              	.LVL314:
  60:../../DaisyExamples/libDaisy//src/hid/disp/graphics_common.h ****     int16_t GetBottom() const { return y_ + height_; }
 4002              		.loc 10 60 42 view .LVU943
 4003 0316 0F44     		add	r7, r7, r1
 4004              	.LBE989:
 4005              	.LBE988:
 231:../../DaisyExamples/libDaisy//src/hid/disp/graphics_common.h ****                         int16_t(other.GetBottom() - height_),
 4006              		.loc 10 231 50 view .LVU944
 4007 0318 FF1A     		subs	r7, r7, r3
 4008 031a EDE7     		b	.L287
 4009              	.L300:
 4010              		.align	2
 4011              	.L299:
 4012 031c 00000000 		.word	_ZNK5daisy11OledDisplayINS_13SSD130xDriverILj128ELj32ENS_19SSD130xI2CTransportEEEE5WidthEv
 4013 0320 00000000 		.word	_ZNK5daisy11OledDisplayINS_13SSD130xDriverILj128ELj32ENS_19SSD130xI2CTransportEEEE6HeightEv
 4014              	.LVL315:
 4015              	.L219:
 240:../../DaisyExamples/libDaisy//src/hid/disp/graphics_common.h ****                 return {other.x_,
 4016              		.loc 10 240 13 is_stmt 1 view .LVU945
 241:../../DaisyExamples/libDaisy//src/hid/disp/graphics_common.h ****                         int16_t(y_ + (other.GetCenterY() - GetCenterY())),
 4017              		.loc 10 241 17 view .LVU946
 4018              	.LBB990:
 4019              	.LBB991:
  63:../../DaisyExamples/libDaisy//src/hid/disp/graphics_common.h **** 
 4020              		.loc 10 63 54 is_stmt 0 view .LVU947
 4021 0324 B4F90610 		ldrsh	r1, [r4, #6]
 4022              	.LVL316:
  63:../../DaisyExamples/libDaisy//src/hid/disp/graphics_common.h **** 
 4023              		.loc 10 63 54 view .LVU948
 4024              	.LBE991:
 4025              	.LBE990:
 241:../../DaisyExamples/libDaisy//src/hid/disp/graphics_common.h ****                         int16_t(y_ + (other.GetCenterY() - GetCenterY())),
 4026              		.loc 10 241 31 view .LVU949
 4027 0328 B4F90070 		ldrsh	r7, [r4]
 4028              	.LVL317:
 4029              	.LBB996:
 4030              	.LBI990:
  63:../../DaisyExamples/libDaisy//src/hid/disp/graphics_common.h **** 
 4031              		.loc 10 63 13 is_stmt 1 view .LVU950
 4032              	.LBB992:
  63:../../DaisyExamples/libDaisy//src/hid/disp/graphics_common.h **** 
 4033              		.loc 10 63 34 view .LVU951
  63:../../DaisyExamples/libDaisy//src/hid/disp/graphics_common.h **** 
 4034              		.loc 10 63 34 is_stmt 0 view .LVU952
 4035              	.LBE992:
 4036              	.LBE996:
 4037              	.LBB997:
 4038              	.LBI997:
  63:../../DaisyExamples/libDaisy//src/hid/disp/graphics_common.h **** 
 4039              		.loc 10 63 13 is_stmt 1 view .LVU953
 4040              	.LBB998:
  63:../../DaisyExamples/libDaisy//src/hid/disp/graphics_common.h **** 
 4041              		.loc 10 63 34 view .LVU954
  63:../../DaisyExamples/libDaisy//src/hid/disp/graphics_common.h **** 
ARM GAS  /var/folders/hp/45mn71hd0ps5f5pnytxy5bt00000gn/T//ccdvmoSj.s 			page 121


 4042              		.loc 10 63 34 is_stmt 0 view .LVU955
 4043              	.LBE998:
 4044              	.LBE997:
 4045              	.LBB999:
 4046              	.LBB993:
  63:../../DaisyExamples/libDaisy//src/hid/disp/graphics_common.h **** 
 4047              		.loc 10 63 54 view .LVU956
 4048 032c 0029     		cmp	r1, #0
  63:../../DaisyExamples/libDaisy//src/hid/disp/graphics_common.h **** 
 4049              		.loc 10 63 44 view .LVU957
 4050 032e 6488     		ldrh	r4, [r4, #2]
 4051              	.LVL318:
  63:../../DaisyExamples/libDaisy//src/hid/disp/graphics_common.h **** 
 4052              		.loc 10 63 44 view .LVU958
 4053              	.LBE993:
 4054              	.LBE999:
 4055              	.LBB1000:
 4056              	.LBB1001:
 4057              	.LBB1002:
  32:../../DaisyExamples/libDaisy//src/hid/disp/graphics_common.h ****     {
 4058              		.loc 10 32 66 view .LVU959
 4059 0330 0698     		ldr	r0, [sp, #24]
 4060              	.LBE1002:
 4061              	.LBE1001:
 4062              	.LBE1000:
 4063              	.LBB1014:
 4064              	.LBB994:
  63:../../DaisyExamples/libDaisy//src/hid/disp/graphics_common.h **** 
 4065              		.loc 10 63 54 view .LVU960
 4066 0332 B8BF     		it	lt
 4067 0334 0131     		addlt	r1, r1, #1
 4068              	.LBE994:
 4069              	.LBE1014:
 4070              	.LBB1015:
 4071              	.LBB1009:
 4072              	.LBB1005:
  32:../../DaisyExamples/libDaisy//src/hid/disp/graphics_common.h ****     {
 4073              		.loc 10 32 66 view .LVU961
 4074 0336 C280     		strh	r2, [r0, #6]	@ movhi
 4075              	.LBE1005:
 4076              	.LBE1009:
 4077              	.LBE1015:
 4078              	.LBB1016:
 4079              	.LBB995:
  63:../../DaisyExamples/libDaisy//src/hid/disp/graphics_common.h **** 
 4080              		.loc 10 63 44 view .LVU962
 4081 0338 04EB6104 		add	r4, r4, r1, asr #1
 4082              	.LBE995:
 4083              	.LBE1016:
 4084              	.LBB1017:
 4085              	.LBB1010:
 4086              	.LBB1006:
  32:../../DaisyExamples/libDaisy//src/hid/disp/graphics_common.h ****     {
 4087              		.loc 10 32 66 view .LVU963
 4088 033c 0780     		strh	r7, [r0]	@ movhi
 4089 033e 8380     		strh	r3, [r0, #4]	@ movhi
 4090              	.LBE1006:
ARM GAS  /var/folders/hp/45mn71hd0ps5f5pnytxy5bt00000gn/T//ccdvmoSj.s 			page 122


 4091              	.LBE1010:
 4092              	.LBE1017:
 4093              	.LBE1040:
 4094              	.LBE1118:
 468:../../DaisyExamples/libDaisy//src/hid/disp/display.h ****         ((ChildType*)(this))->ChildType::WriteString(str, font, on);
 4095              		.loc 8 468 18 view .LVU964
 4096 0340 BFB2     		uxth	r7, r7
 4097              	.LBB1119:
 4098              	.LBB1041:
 242:../../DaisyExamples/libDaisy//src/hid/disp/graphics_common.h ****                         width_,
 4099              		.loc 10 242 58 view .LVU965
 4100 0342 A4EB5202 		sub	r2, r4, r2, lsr #1
 4101 0346 94B2     		uxth	r4, r2
 4102              	.LVL319:
 4103              	.LBB1018:
 4104              	.LBI1000:
  31:../../DaisyExamples/libDaisy//src/hid/disp/graphics_common.h ****     : x_(x), y_(y), width_(max(0, width)), height_(max(0, height))
 4105              		.loc 10 31 5 is_stmt 1 view .LVU966
 4106              	.LBB1011:
 4107              	.LBB1007:
  32:../../DaisyExamples/libDaisy//src/hid/disp/graphics_common.h ****     {
 4108              		.loc 10 32 66 is_stmt 0 view .LVU967
 4109 0348 4480     		strh	r4, [r0, #2]	@ movhi
 4110              	.LVL320:
 4111              	.LBB1003:
 4112              	.LBI1003:
 4113              		.loc 10 261 13 is_stmt 1 view .LVU968
 4114              	.LBE1003:
 4115              	.LBE1007:
 4116              	.LBE1011:
 4117              	.LBE1018:
 4118              	.LBE1041:
 4119              	.LBE1119:
 4120              		.loc 10 261 41 view .LVU969
 4121              	.LBB1120:
 4122              	.LBB1042:
 4123              	.LBB1019:
 4124              	.LBB1012:
 4125              	.LBB1008:
 4126              	.LBB1004:
 4127              	.LBI1004:
 4128              		.loc 10 261 13 view .LVU970
 4129              	.LBE1004:
 4130              	.LBE1008:
 4131              	.LBE1012:
 4132              	.LBE1019:
 4133              	.LBE1042:
 4134              	.LBE1120:
 4135              		.loc 10 261 41 view .LVU971
 4136              	.LBB1121:
 4137              	.LBB1043:
 4138              	.LBB1020:
 4139              	.LBB1013:
  34:../../DaisyExamples/libDaisy//src/hid/disp/graphics_common.h **** 
 4140              		.loc 10 34 5 is_stmt 0 view .LVU972
 4141 034a 9AE6     		b	.L227
 4142              	.LVL321:
ARM GAS  /var/folders/hp/45mn71hd0ps5f5pnytxy5bt00000gn/T//ccdvmoSj.s 			page 123


 4143              	.L247:
  34:../../DaisyExamples/libDaisy//src/hid/disp/graphics_common.h **** 
 4144              		.loc 10 34 5 view .LVU973
 4145              	.LBE1013:
 4146              	.LBE1020:
 4147              	.LBE1043:
 4148              	.LBE1121:
 4149              	.LBB1122:
 4150              	.LBB1100:
 4151              	.LBB1097:
 4152              	.LBB1096:
 402:../../DaisyExamples/libDaisy//src/hid/disp/display.h **** 
 4153              		.loc 8 402 20 view .LVU974
 4154 034c 4FF0000B 		mov	fp, #0
 4155              	.LVL322:
 402:../../DaisyExamples/libDaisy//src/hid/disp/display.h **** 
 4156              		.loc 8 402 20 view .LVU975
 4157 0350 6BE7     		b	.L245
 4158              	.LVL323:
 4159              	.L292:
 405:../../DaisyExamples/libDaisy//src/hid/disp/display.h ****            || Height() < (currentY_ + font.FontHeight))
 4160              		.loc 8 405 17 view .LVU976
 4161 0352 4046     		mov	r0, r8
 4162 0354 9847     		blx	r3
 4163              	.LVL324:
 4164 0356 D5E6     		b	.L246
 4165              	.L293:
 406:../../DaisyExamples/libDaisy//src/hid/disp/display.h ****         {
 4166              		.loc 8 406 21 view .LVU977
 4167 0358 4046     		mov	r0, r8
 4168 035a 9847     		blx	r3
 4169              	.LVL325:
 4170 035c E0E6     		b	.L248
 4171              	.LVL326:
 4172              	.L297:
 4173              	.LBB1094:
 4174              	.LBB1090:
 174:../../DaisyExamples/libDaisy//src/hid/disp/display.h ****     }
 4175              		.loc 8 174 33 view .LVU978
 4176 035e 4046     		mov	r0, r8
 4177 0360 9847     		blx	r3
 4178              	.LVL327:
 4179 0362 53E7     		b	.L262
 4180              	.LVL328:
 4181              	.L295:
 173:../../DaisyExamples/libDaisy//src/hid/disp/display.h ****         currentY_ = (y >= Height()) ? Height() - 1 : y;
 4182              		.loc 8 173 32 view .LVU979
 4183 0364 4046     		mov	r0, r8
 4184 0366 9847     		blx	r3
 4185              	.LVL329:
 173:../../DaisyExamples/libDaisy//src/hid/disp/display.h ****         currentY_ = (y >= Height()) ? Height() - 1 : y;
 4186              		.loc 8 173 44 view .LVU980
 4187 0368 D8F80020 		ldr	r2, [r8]
 4188 036c 3EE7     		b	.L259
 4189              	.LVL330:
 4190              	.L249:
 173:../../DaisyExamples/libDaisy//src/hid/disp/display.h ****         currentY_ = (y >= Height()) ? Height() - 1 : y;
ARM GAS  /var/folders/hp/45mn71hd0ps5f5pnytxy5bt00000gn/T//ccdvmoSj.s 			page 124


 4191              		.loc 8 173 44 view .LVU981
 4192              	.LBE1090:
 4193              	.LBE1094:
 434:../../DaisyExamples/libDaisy//src/hid/disp/display.h **** 
 4194              		.loc 8 434 19 view .LVU982
 4195 036e B8F804A0 		ldrh	r10, [r8, #4]
 4196 0372 30E7     		b	.L251
 4197              	.LVL331:
 4198              	.L298:
 4199              	.LBB1095:
 4200              	.LBB1091:
 174:../../DaisyExamples/libDaisy//src/hid/disp/display.h ****     }
 4201              		.loc 8 174 45 view .LVU983
 4202 0374 4046     		mov	r0, r8
 4203 0376 9847     		blx	r3
 4204              	.LVL332:
 174:../../DaisyExamples/libDaisy//src/hid/disp/display.h ****     }
 4205              		.loc 8 174 19 view .LVU984
 4206 0378 0138     		subs	r0, r0, #1
 4207 037a 83B2     		uxth	r3, r0
 4208 037c 0293     		str	r3, [sp, #8]
 4209              	.LVL333:
 174:../../DaisyExamples/libDaisy//src/hid/disp/display.h ****     }
 4210              		.loc 8 174 19 view .LVU985
 4211 037e 51E7     		b	.L263
 4212              	.LVL334:
 4213              	.L296:
 173:../../DaisyExamples/libDaisy//src/hid/disp/display.h ****         currentY_ = (y >= Height()) ? Height() - 1 : y;
 4214              		.loc 8 173 43 view .LVU986
 4215 0380 4046     		mov	r0, r8
 4216 0382 9847     		blx	r3
 4217              	.LVL335:
 173:../../DaisyExamples/libDaisy//src/hid/disp/display.h ****         currentY_ = (y >= Height()) ? Height() - 1 : y;
 4218              		.loc 8 173 19 view .LVU987
 4219 0384 0138     		subs	r0, r0, #1
 174:../../DaisyExamples/libDaisy//src/hid/disp/display.h ****     }
 4220              		.loc 8 174 34 view .LVU988
 4221 0386 D8F80020 		ldr	r2, [r8]
 173:../../DaisyExamples/libDaisy//src/hid/disp/display.h ****         currentY_ = (y >= Height()) ? Height() - 1 : y;
 4222              		.loc 8 173 19 view .LVU989
 4223 038a 85B2     		uxth	r5, r0
 4224              	.LVL336:
 173:../../DaisyExamples/libDaisy//src/hid/disp/display.h ****         currentY_ = (y >= Height()) ? Height() - 1 : y;
 4225              		.loc 8 173 19 view .LVU990
 4226 038c 36E7     		b	.L260
 4227              	.LVL337:
 4228              	.L216:
 173:../../DaisyExamples/libDaisy//src/hid/disp/display.h ****         currentY_ = (y >= Height()) ? Height() - 1 : y;
 4229              		.loc 8 173 19 view .LVU991
 4230              	.LBE1091:
 4231              	.LBE1095:
 4232              	.LBE1096:
 4233              	.LBE1097:
 4234              	.LBE1100:
 4235              	.LBE1122:
 4236              	.LBB1123:
 4237              	.LBB1044:
ARM GAS  /var/folders/hp/45mn71hd0ps5f5pnytxy5bt00000gn/T//ccdvmoSj.s 			page 125


 255:../../DaisyExamples/libDaisy//src/hid/disp/graphics_common.h ****         }
 4238              		.loc 10 255 13 is_stmt 1 view .LVU992
 255:../../DaisyExamples/libDaisy//src/hid/disp/graphics_common.h ****         }
 4239              		.loc 10 255 22 view .LVU993
 4240              	.LBB1021:
 4241              	.LBI1021:
  24:../../DaisyExamples/libDaisy//src/hid/disp/graphics_common.h **** 
 4242              		.loc 10 24 5 view .LVU994
 4243              	.LBE1021:
 4244              	.LBE1044:
 4245              	.LBE1123:
 4246              	.LBB1124:
 4247              	.LBB1050:
 173:../../DaisyExamples/libDaisy//src/hid/disp/display.h ****         currentY_ = (y >= Height()) ? Height() - 1 : y;
 4248              		.loc 8 173 33 is_stmt 0 view .LVU995
 4249 038e D8F80030 		ldr	r3, [r8]
 4250              	.LBE1050:
 4251              	.LBE1124:
 4252              	.LBB1125:
 4253              	.LBB1045:
 4254              	.LBB1023:
 4255              	.LBB1022:
  24:../../DaisyExamples/libDaisy//src/hid/disp/graphics_common.h **** 
 4256              		.loc 10 24 53 view .LVU996
 4257 0392 0024     		movs	r4, #0
 4258              	.LVL338:
  24:../../DaisyExamples/libDaisy//src/hid/disp/graphics_common.h **** 
 4259              		.loc 10 24 53 view .LVU997
 4260 0394 069A     		ldr	r2, [sp, #24]
 4261 0396 1349     		ldr	r1, .L301
 4262              	.LVL339:
  24:../../DaisyExamples/libDaisy//src/hid/disp/graphics_common.h **** 
 4263              		.loc 10 24 53 view .LVU998
 4264 0398 1480     		strh	r4, [r2]	@ movhi
 4265 039a 5480     		strh	r4, [r2, #2]	@ movhi
 4266 039c 9480     		strh	r4, [r2, #4]	@ movhi
 4267 039e D480     		strh	r4, [r2, #6]	@ movhi
 4268              	.LVL340:
  24:../../DaisyExamples/libDaisy//src/hid/disp/graphics_common.h **** 
 4269              		.loc 10 24 53 view .LVU999
 4270              	.LBE1022:
 4271              	.LBE1023:
 4272              	.LBE1045:
 4273              	.LBE1125:
  56:../../DaisyExamples/libDaisy//src/hid/disp/graphics_common.h ****     int16_t GetY() const { return y_; }
 4274              		.loc 10 56 28 is_stmt 1 view .LVU1000
  57:../../DaisyExamples/libDaisy//src/hid/disp/graphics_common.h ****     int16_t GetWidth() const { return width_; }
 4275              		.loc 10 57 28 view .LVU1001
 4276              	.LBB1126:
 171:../../DaisyExamples/libDaisy//src/hid/disp/display.h ****     {
 4277              		.loc 8 171 10 view .LVU1002
 4278              	.LBB1051:
 173:../../DaisyExamples/libDaisy//src/hid/disp/display.h ****         currentY_ = (y >= Height()) ? Height() - 1 : y;
 4279              		.loc 8 173 9 view .LVU1003
 173:../../DaisyExamples/libDaisy//src/hid/disp/display.h ****         currentY_ = (y >= Height()) ? Height() - 1 : y;
 4280              		.loc 8 173 33 is_stmt 0 view .LVU1004
 4281 03a0 DA68     		ldr	r2, [r3, #12]
ARM GAS  /var/folders/hp/45mn71hd0ps5f5pnytxy5bt00000gn/T//ccdvmoSj.s 			page 126


 4282 03a2 0191     		str	r1, [sp, #4]
 4283 03a4 8A42     		cmp	r2, r1
 4284 03a6 05D0     		beq	.L234
 4285 03a8 2746     		mov	r7, r4
 4286              	.LVL341:
 4287              	.L235:
 173:../../DaisyExamples/libDaisy//src/hid/disp/display.h ****         currentY_ = (y >= Height()) ? Height() - 1 : y;
 4288              		.loc 8 173 32 view .LVU1005
 4289 03aa 4046     		mov	r0, r8
 4290 03ac 9047     		blx	r2
 4291              	.LVL342:
 173:../../DaisyExamples/libDaisy//src/hid/disp/display.h ****         currentY_ = (y >= Height()) ? Height() - 1 : y;
 4292              		.loc 8 173 44 view .LVU1006
 4293 03ae D8F80030 		ldr	r3, [r8]
 4294 03b2 70E6     		b	.L236
 4295              	.LVL343:
 4296              	.L234:
 174:../../DaisyExamples/libDaisy//src/hid/disp/display.h ****     }
 4297              		.loc 8 174 34 view .LVU1007
 4298 03b4 9B68     		ldr	r3, [r3, #8]
 4299 03b6 0C4A     		ldr	r2, .L301+4
 173:../../DaisyExamples/libDaisy//src/hid/disp/display.h ****         currentY_ = (y >= Height()) ? Height() - 1 : y;
 4300              		.loc 8 173 19 view .LVU1008
 4301 03b8 A8F80440 		strh	r4, [r8, #4]	@ movhi
 174:../../DaisyExamples/libDaisy//src/hid/disp/display.h ****     }
 4302              		.loc 8 174 9 is_stmt 1 view .LVU1009
 4303 03bc 9342     		cmp	r3, r2
 4304 03be 0392     		str	r2, [sp, #12]
 4305 03c0 3FF484AE 		beq	.L241
 4306              	.LVL344:
 4307              	.L267:
 174:../../DaisyExamples/libDaisy//src/hid/disp/display.h ****     }
 4308              		.loc 8 174 33 is_stmt 0 view .LVU1010
 4309 03c4 4046     		mov	r0, r8
 4310 03c6 9847     		blx	r3
 4311              	.LVL345:
 4312 03c8 76E6     		b	.L239
 4313              	.L291:
 174:../../DaisyExamples/libDaisy//src/hid/disp/display.h ****     }
 4314              		.loc 8 174 45 view .LVU1011
 4315 03ca 4046     		mov	r0, r8
 4316 03cc 9847     		blx	r3
 4317              	.LVL346:
 174:../../DaisyExamples/libDaisy//src/hid/disp/display.h ****     }
 4318              		.loc 8 174 19 view .LVU1012
 4319 03ce 0138     		subs	r0, r0, #1
 4320 03d0 84B2     		uxth	r4, r0
 4321 03d2 7BE6     		b	.L241
 4322              	.L290:
 173:../../DaisyExamples/libDaisy//src/hid/disp/display.h ****         currentY_ = (y >= Height()) ? Height() - 1 : y;
 4323              		.loc 8 173 43 view .LVU1013
 4324 03d4 4046     		mov	r0, r8
 4325 03d6 9047     		blx	r2
 4326              	.LVL347:
 173:../../DaisyExamples/libDaisy//src/hid/disp/display.h ****         currentY_ = (y >= Height()) ? Height() - 1 : y;
 4327              		.loc 8 173 19 view .LVU1014
 4328 03d8 0138     		subs	r0, r0, #1
ARM GAS  /var/folders/hp/45mn71hd0ps5f5pnytxy5bt00000gn/T//ccdvmoSj.s 			page 127


 174:../../DaisyExamples/libDaisy//src/hid/disp/display.h ****     }
 4329              		.loc 8 174 34 view .LVU1015
 4330 03da D8F80030 		ldr	r3, [r8]
 173:../../DaisyExamples/libDaisy//src/hid/disp/display.h ****         currentY_ = (y >= Height()) ? Height() - 1 : y;
 4331              		.loc 8 173 19 view .LVU1016
 4332 03de 87B2     		uxth	r7, r0
 4333 03e0 61E6     		b	.L237
 4334              	.L302:
 4335 03e2 00BF     		.align	2
 4336              	.L301:
 4337 03e4 00000000 		.word	_ZNK5daisy11OledDisplayINS_13SSD130xDriverILj128ELj32ENS_19SSD130xI2CTransportEEEE5WidthEv
 4338 03e8 00000000 		.word	_ZNK5daisy11OledDisplayINS_13SSD130xDriverILj128ELj32ENS_19SSD130xI2CTransportEEEE6HeightEv
 4339              	.LBE1051:
 4340              	.LBE1126:
 4341              		.cfi_endproc
 4342              	.LFE2677:
 4344              		.section	.text._ZN5daisy25OneBitGraphicsDisplayImplINS_11OledDisplayINS_13SSD130xDriverILj128ELj32
 4345              		.align	1
 4346              		.p2align 2,,3
 4347              		.weak	_ZN5daisy25OneBitGraphicsDisplayImplINS_11OledDisplayINS_13SSD130xDriverILj128ELj32ENS_19SSD
 4348              		.syntax unified
 4349              		.thumb
 4350              		.thumb_func
 4352              	_ZN5daisy25OneBitGraphicsDisplayImplINS_11OledDisplayINS_13SSD130xDriverILj128ELj32ENS_19SSD130xI2C
 4353              	.LVL348:
 4354              	.LFB2675:
 257:../../DaisyExamples/libDaisy//src/hid/disp/display.h ****                   uint_fast8_t y1,
 4355              		.loc 8 257 10 is_stmt 1 view -0
 4356              		.cfi_startproc
 4357              		@ args = 12, pretend = 0, frame = 24
 4358              		@ frame_needed = 0, uses_anonymous_args = 0
 257:../../DaisyExamples/libDaisy//src/hid/disp/display.h ****                   uint_fast8_t y1,
 4359              		.loc 8 257 10 is_stmt 0 view .LVU1018
 4360 0000 2DE9F04F 		push	{r4, r5, r6, r7, r8, r9, r10, fp, lr}
 4361              		.cfi_def_cfa_offset 36
 4362              		.cfi_offset 4, -36
 4363              		.cfi_offset 5, -32
 4364              		.cfi_offset 6, -28
 4365              		.cfi_offset 7, -24
 4366              		.cfi_offset 8, -20
 4367              		.cfi_offset 9, -16
 4368              		.cfi_offset 10, -12
 4369              		.cfi_offset 11, -8
 4370              		.cfi_offset 14, -4
 4371 0004 87B0     		sub	sp, sp, #28
 4372              		.cfi_def_cfa_offset 64
 257:../../DaisyExamples/libDaisy//src/hid/disp/display.h ****                   uint_fast8_t y1,
 4373              		.loc 8 257 10 view .LVU1019
 4374 0006 9DF84850 		ldrb	r5, [sp, #72]	@ zero_extendqisi2
 4375 000a 109C     		ldr	r4, [sp, #64]
 4376 000c 2E46     		mov	r6, r5
 4377 000e 0195     		str	r5, [sp, #4]
 4378 0010 9DF84450 		ldrb	r5, [sp, #68]	@ zero_extendqisi2
 4379              	.LBB1196:
 264:../../DaisyExamples/libDaisy//src/hid/disp/display.h ****         {
 4380              		.loc 8 264 9 view .LVU1020
 4381 0014 9EB3     		cbz	r6, .L304
ARM GAS  /var/folders/hp/45mn71hd0ps5f5pnytxy5bt00000gn/T//ccdvmoSj.s 			page 128


 4382              	.LVL349:
 264:../../DaisyExamples/libDaisy//src/hid/disp/display.h ****         {
 4383              		.loc 8 264 9 view .LVU1021
 4384              	.LBE1196:
 4385              	.LBB1318:
 4386              	.LBB1319:
 266:../../DaisyExamples/libDaisy//src/hid/disp/display.h ****             {
 4387              		.loc 8 266 40 is_stmt 1 view .LVU1022
 4388 0016 9942     		cmp	r1, r3
 4389 0018 2ED8     		bhi	.L303
 4390 001a 9946     		mov	r9, r3
 4391              	.LVL350:
 4392              	.L307:
 4393              	.LBB1320:
 268:../../DaisyExamples/libDaisy//src/hid/disp/display.h ****                 {
 4394              		.loc 8 268 44 view .LVU1023
 4395 001c A242     		cmp	r2, r4
 4396 001e 28D8     		bhi	.L310
 4397              	.LBB1321:
 4398              	.LBB1322:
 4399              	.LBB1323:
 354:../../DaisyExamples/libDaisy//src/dev/oled_ssd130x.h ****             return;
 4400              		.loc 7 354 14 is_stmt 0 view .LVU1024
 4401 0020 7F29     		cmp	r1, #127
 4402 0022 1646     		mov	r6, r2
 4403 0024 94BF     		ite	ls
 4404 0026 0023     		movls	r3, #0
 4405 0028 0123     		movhi	r3, #1
 4406 002a 08E0     		b	.L311
 4407              	.LVL351:
 4408              	.L394:
 357:../../DaisyExamples/libDaisy//src/dev/oled_ssd130x.h ****         else
 4409              		.loc 7 357 42 view .LVU1025
 4410 002c 9CF81080 		ldrb	r8, [ip, #16]	@ zero_extendqisi2
 4411 0030 4EEA080E 		orr	lr, lr, r8
 4412 0034 8CF810E0 		strb	lr, [ip, #16]
 4413              	.LVL352:
 4414              	.L308:
 357:../../DaisyExamples/libDaisy//src/dev/oled_ssd130x.h ****         else
 4415              		.loc 7 357 42 view .LVU1026
 4416              	.LBE1323:
 4417              	.LBE1322:
 4418              	.LBE1321:
 268:../../DaisyExamples/libDaisy//src/hid/disp/display.h ****                 {
 4419              		.loc 8 268 17 is_stmt 1 view .LVU1027
 4420 0038 0136     		adds	r6, r6, #1
 4421              	.LVL353:
 268:../../DaisyExamples/libDaisy//src/hid/disp/display.h ****                 {
 4422              		.loc 8 268 44 view .LVU1028
 4423 003a B442     		cmp	r4, r6
 4424 003c 19D3     		bcc	.L310
 4425              	.L311:
 4426              	.LVL354:
 4427              	.LBB1337:
 4428              	.LBI1321:
  42:../../DaisyExamples/libDaisy//src/hid/disp/oled_display.h ****     {
 4429              		.loc 6 42 10 view .LVU1029
ARM GAS  /var/folders/hp/45mn71hd0ps5f5pnytxy5bt00000gn/T//ccdvmoSj.s 			page 129


 4430              	.LBB1334:
 4431              	.LBI1322:
 352:../../DaisyExamples/libDaisy//src/dev/oled_ssd130x.h ****     {
 4432              		.loc 7 352 10 view .LVU1030
 4433              	.LBB1331:
 354:../../DaisyExamples/libDaisy//src/dev/oled_ssd130x.h ****             return;
 4434              		.loc 7 354 9 is_stmt 0 view .LVU1031
 4435 003e 1F2E     		cmp	r6, #31
 4436 0040 FAD8     		bhi	.L308
 354:../../DaisyExamples/libDaisy//src/dev/oled_ssd130x.h ****             return;
 4437              		.loc 7 354 9 view .LVU1032
 4438 0042 002B     		cmp	r3, #0
 4439 0044 F8D1     		bne	.L308
 4440              	.LVL355:
 4441              	.LBB1324:
 4442              	.LBI1324:
 352:../../DaisyExamples/libDaisy//src/dev/oled_ssd130x.h ****     {
 4443              		.loc 7 352 10 is_stmt 1 view .LVU1033
 352:../../DaisyExamples/libDaisy//src/dev/oled_ssd130x.h ****     {
 4444              		.loc 7 352 10 is_stmt 0 view .LVU1034
 4445              	.LBE1324:
 357:../../DaisyExamples/libDaisy//src/dev/oled_ssd130x.h ****         else
 4446              		.loc 7 357 28 view .LVU1035
 4447 0046 4FEAD60C 		lsr	ip, r6, #3
 357:../../DaisyExamples/libDaisy//src/dev/oled_ssd130x.h ****         else
 4448              		.loc 7 357 54 view .LVU1036
 4449 004a 06F0070E 		and	lr, r6, #7
 357:../../DaisyExamples/libDaisy//src/dev/oled_ssd130x.h ****         else
 4450              		.loc 7 357 48 view .LVU1037
 4451 004e 4FF00108 		mov	r8, #1
 357:../../DaisyExamples/libDaisy//src/dev/oled_ssd130x.h ****         else
 4452              		.loc 7 357 42 view .LVU1038
 4453 0052 01EBCC1C 		add	ip, r1, ip, lsl #7
 357:../../DaisyExamples/libDaisy//src/dev/oled_ssd130x.h ****         else
 4454              		.loc 7 357 48 view .LVU1039
 4455 0056 08FA0EFE 		lsl	lr, r8, lr
 357:../../DaisyExamples/libDaisy//src/dev/oled_ssd130x.h ****         else
 4456              		.loc 7 357 42 view .LVU1040
 4457 005a 8444     		add	ip, ip, r0
 356:../../DaisyExamples/libDaisy//src/dev/oled_ssd130x.h ****             buffer_[x + (y / 8) * width] |= (1 << (y % 8));
 4458              		.loc 7 356 9 view .LVU1041
 4459 005c 002D     		cmp	r5, #0
 4460 005e E5D1     		bne	.L394
 4461              	.LBB1328:
 4462              	.LBB1325:
 359:../../DaisyExamples/libDaisy//src/dev/oled_ssd130x.h ****     }
 4463              		.loc 7 359 42 view .LVU1042
 4464 0060 9CF810B0 		ldrb	fp, [ip, #16]	@ zero_extendqisi2
 4465              	.LBE1325:
 4466              	.LBE1328:
 4467              	.LBE1331:
 4468              	.LBE1334:
 4469              	.LBE1337:
 268:../../DaisyExamples/libDaisy//src/hid/disp/display.h ****                 {
 4470              		.loc 8 268 17 view .LVU1043
 4471 0064 0136     		adds	r6, r6, #1
 4472              	.LVL356:
ARM GAS  /var/folders/hp/45mn71hd0ps5f5pnytxy5bt00000gn/T//ccdvmoSj.s 			page 130


 4473              	.LBB1338:
 4474              	.LBB1335:
 4475              	.LBB1332:
 4476              	.LBB1329:
 4477              	.LBB1326:
 359:../../DaisyExamples/libDaisy//src/dev/oled_ssd130x.h ****     }
 4478              		.loc 7 359 42 view .LVU1044
 4479 0066 2BEA0E0A 		bic	r10, fp, lr
 4480              	.LBE1326:
 4481              	.LBE1329:
 4482              	.LBE1332:
 4483              	.LBE1335:
 4484              	.LBE1338:
 268:../../DaisyExamples/libDaisy//src/hid/disp/display.h ****                 {
 4485              		.loc 8 268 44 view .LVU1045
 4486 006a B442     		cmp	r4, r6
 4487              	.LBB1339:
 4488              	.LBB1336:
 4489              	.LBB1333:
 4490              	.LBB1330:
 4491              	.LBB1327:
 359:../../DaisyExamples/libDaisy//src/dev/oled_ssd130x.h ****     }
 4492              		.loc 7 359 42 view .LVU1046
 4493 006c 8CF810A0 		strb	r10, [ip, #16]
 4494              	.LVL357:
 359:../../DaisyExamples/libDaisy//src/dev/oled_ssd130x.h ****     }
 4495              		.loc 7 359 42 view .LVU1047
 4496              	.LBE1327:
 4497              	.LBE1330:
 4498              	.LBE1333:
 4499              	.LBE1336:
 4500              	.LBE1339:
 268:../../DaisyExamples/libDaisy//src/hid/disp/display.h ****                 {
 4501              		.loc 8 268 17 is_stmt 1 view .LVU1048
 268:../../DaisyExamples/libDaisy//src/hid/disp/display.h ****                 {
 4502              		.loc 8 268 44 view .LVU1049
 4503 0070 E5D2     		bcs	.L311
 4504              	.LVL358:
 4505              	.L310:
 268:../../DaisyExamples/libDaisy//src/hid/disp/display.h ****                 {
 4506              		.loc 8 268 44 is_stmt 0 view .LVU1050
 4507              	.LBE1320:
 266:../../DaisyExamples/libDaisy//src/hid/disp/display.h ****             {
 4508              		.loc 8 266 13 is_stmt 1 view .LVU1051
 4509 0072 0131     		adds	r1, r1, #1
 4510              	.LVL359:
 266:../../DaisyExamples/libDaisy//src/hid/disp/display.h ****             {
 4511              		.loc 8 266 40 view .LVU1052
 4512 0074 8945     		cmp	r9, r1
 4513 0076 D1D2     		bcs	.L307
 4514              	.LVL360:
 4515              	.L303:
 266:../../DaisyExamples/libDaisy//src/hid/disp/display.h ****             {
 4516              		.loc 8 266 40 is_stmt 0 view .LVU1053
 4517              	.LBE1319:
 4518              	.LBE1318:
 281:../../DaisyExamples/libDaisy//src/hid/disp/display.h **** 
ARM GAS  /var/folders/hp/45mn71hd0ps5f5pnytxy5bt00000gn/T//ccdvmoSj.s 			page 131


 4519              		.loc 8 281 5 view .LVU1054
 4520 0078 07B0     		add	sp, sp, #28
 4521              		.cfi_remember_state
 4522              		.cfi_def_cfa_offset 36
 4523              		@ sp needed
 4524 007a BDE8F08F 		pop	{r4, r5, r6, r7, r8, r9, r10, fp, pc}
 4525              	.LVL361:
 4526              	.L304:
 4527              		.cfi_restore_state
 4528              	.LBB1340:
 4529              	.LBB1197:
 4530              	.LBI1197:
 221:../../DaisyExamples/libDaisy//src/hid/disp/display.h ****                   uint_fast8_t y1,
 4531              		.loc 8 221 10 is_stmt 1 view .LVU1055
 4532              	.LBB1198:
 227:../../DaisyExamples/libDaisy//src/hid/disp/display.h ****         int_fast16_t deltaY = abs((int_fast16_t)y2 - (int_fast16_t)y1);
 4533              		.loc 8 227 52 is_stmt 0 view .LVU1056
 4534 007e A3EB0108 		sub	r8, r3, r1
 227:../../DaisyExamples/libDaisy//src/hid/disp/display.h ****         int_fast16_t deltaY = abs((int_fast16_t)y2 - (int_fast16_t)y1);
 4535              		.loc 8 227 22 view .LVU1057
 4536 0082 B8F1000F 		cmp	r8, #0
 4537 0086 B8BF     		it	lt
 4538 0088 C8F10008 		rsblt	r8, r8, #0
 4539              	.LVL362:
 229:../../DaisyExamples/libDaisy//src/hid/disp/display.h ****         int_fast16_t signY  = ((y1 < y2) ? 1 : -1);
 4540              		.loc 8 229 42 view .LVU1058
 4541 008c 9942     		cmp	r1, r3
 4542 008e C0F04E81 		bcc	.L312
 4543              	.LVL363:
 4544              	.LBB1199:
 4545              	.LBI1199:
  42:../../DaisyExamples/libDaisy//src/hid/disp/oled_display.h ****     {
 4546              		.loc 6 42 10 is_stmt 1 view .LVU1059
 4547              	.LBB1200:
 4548              	.LBI1200:
 352:../../DaisyExamples/libDaisy//src/dev/oled_ssd130x.h ****     {
 4549              		.loc 7 352 10 view .LVU1060
 4550              	.LBB1201:
 354:../../DaisyExamples/libDaisy//src/dev/oled_ssd130x.h ****             return;
 4551              		.loc 7 354 14 is_stmt 0 view .LVU1061
 4552 0092 7F2B     		cmp	r3, #127
 4553              	.LBE1201:
 4554              	.LBE1200:
 4555              	.LBE1199:
 229:../../DaisyExamples/libDaisy//src/hid/disp/display.h ****         int_fast16_t signY  = ((y1 < y2) ? 1 : -1);
 4556              		.loc 8 229 42 view .LVU1062
 4557 0094 4FF0FF3A 		mov	r10, #-1
 4558              	.LBB1212:
 4559              	.LBB1208:
 4560              	.LBB1204:
 354:../../DaisyExamples/libDaisy//src/dev/oled_ssd130x.h ****             return;
 4561              		.loc 7 354 14 view .LVU1063
 4562 0098 94BF     		ite	ls
 4563 009a 0026     		movls	r6, #0
 4564 009c 0126     		movhi	r6, #1
 354:../../DaisyExamples/libDaisy//src/dev/oled_ssd130x.h ****             return;
 4565              		.loc 7 354 28 view .LVU1064
ARM GAS  /var/folders/hp/45mn71hd0ps5f5pnytxy5bt00000gn/T//ccdvmoSj.s 			page 132


 4566 009e 1F2A     		cmp	r2, #31
 354:../../DaisyExamples/libDaisy//src/dev/oled_ssd130x.h ****             return;
 4567              		.loc 7 354 14 view .LVU1065
 4568 00a0 0096     		str	r6, [sp]
 354:../../DaisyExamples/libDaisy//src/dev/oled_ssd130x.h ****             return;
 4569              		.loc 7 354 28 view .LVU1066
 4570 00a2 94BF     		ite	ls
 4571 00a4 0027     		movls	r7, #0
 4572 00a6 0127     		movhi	r7, #1
 4573 00a8 0297     		str	r7, [sp, #8]
 354:../../DaisyExamples/libDaisy//src/dev/oled_ssd130x.h ****             return;
 4574              		.loc 7 354 9 view .LVU1067
 4575 00aa A6B9     		cbnz	r6, .L313
 4576 00ac 9FB9     		cbnz	r7, .L313
 4577              	.LVL364:
 4578              	.L354:
 357:../../DaisyExamples/libDaisy//src/dev/oled_ssd130x.h ****         else
 4579              		.loc 7 357 28 view .LVU1068
 4580 00ae D608     		lsrs	r6, r2, #3
 357:../../DaisyExamples/libDaisy//src/dev/oled_ssd130x.h ****         else
 4581              		.loc 7 357 54 view .LVU1069
 4582 00b0 02F0070C 		and	ip, r2, #7
 357:../../DaisyExamples/libDaisy//src/dev/oled_ssd130x.h ****         else
 4583              		.loc 7 357 48 view .LVU1070
 4584 00b4 0127     		movs	r7, #1
 357:../../DaisyExamples/libDaisy//src/dev/oled_ssd130x.h ****         else
 4585              		.loc 7 357 42 view .LVU1071
 4586 00b6 03EBC616 		add	r6, r3, r6, lsl #7
 4587 00ba 0644     		add	r6, r6, r0
 356:../../DaisyExamples/libDaisy//src/dev/oled_ssd130x.h ****             buffer_[x + (y / 8) * width] |= (1 << (y % 8));
 4588              		.loc 7 356 9 view .LVU1072
 4589 00bc 002D     		cmp	r5, #0
 4590 00be 00F09481 		beq	.L314
 357:../../DaisyExamples/libDaisy//src/dev/oled_ssd130x.h ****         else
 4591              		.loc 7 357 48 view .LVU1073
 4592 00c2 07FA0CF7 		lsl	r7, r7, ip
 357:../../DaisyExamples/libDaisy//src/dev/oled_ssd130x.h ****         else
 4593              		.loc 7 357 42 view .LVU1074
 4594 00c6 96F810C0 		ldrb	ip, [r6, #16]	@ zero_extendqisi2
 4595 00ca 47EA0C07 		orr	r7, r7, ip
 4596 00ce 3774     		strb	r7, [r6, #16]
 4597 00d0 0026     		movs	r6, #0
 4598 00d2 0296     		str	r6, [sp, #8]
 4599 00d4 0096     		str	r6, [sp]
 4600              	.L313:
 4601              	.LVL365:
 357:../../DaisyExamples/libDaisy//src/dev/oled_ssd130x.h ****         else
 4602              		.loc 7 357 42 view .LVU1075
 4603              	.LBE1204:
 4604              	.LBE1208:
 4605              	.LBE1212:
 239:../../DaisyExamples/libDaisy//src/hid/disp/display.h ****         {
 4606              		.loc 8 239 26 is_stmt 1 view .LVU1076
 4607 00d6 9942     		cmp	r1, r3
 4608 00d8 00F09781 		beq	.L395
 4609              	.L316:
 4610              	.LVL366:
ARM GAS  /var/folders/hp/45mn71hd0ps5f5pnytxy5bt00000gn/T//ccdvmoSj.s 			page 133


 227:../../DaisyExamples/libDaisy//src/hid/disp/display.h ****         int_fast16_t deltaY = abs((int_fast16_t)y2 - (int_fast16_t)y1);
 4611              		.loc 8 227 22 is_stmt 0 view .LVU1077
 4612 00dc 4646     		mov	r6, r8
 4613 00de 9446     		mov	ip, r2
 4614 00e0 8E46     		mov	lr, r1
 4615              	.LVL367:
 4616              	.L318:
 4617              	.LBB1213:
 4618              	.LBI1213:
  42:../../DaisyExamples/libDaisy//src/hid/disp/oled_display.h ****     {
 4619              		.loc 6 42 10 is_stmt 1 view .LVU1078
 4620              	.LBB1214:
 4621              	.LBI1214:
 352:../../DaisyExamples/libDaisy//src/dev/oled_ssd130x.h ****     {
 4622              		.loc 7 352 10 view .LVU1079
 4623              	.LBB1215:
 354:../../DaisyExamples/libDaisy//src/dev/oled_ssd130x.h ****             return;
 4624              		.loc 7 354 9 is_stmt 0 view .LVU1080
 4625 00e2 BEF17F0F 		cmp	lr, #127
 4626 00e6 16D8     		bhi	.L319
 4627 00e8 BCF11F0F 		cmp	ip, #31
 4628 00ec 13D8     		bhi	.L319
 357:../../DaisyExamples/libDaisy//src/dev/oled_ssd130x.h ****         else
 4629              		.loc 7 357 28 view .LVU1081
 4630 00ee 4FEADC07 		lsr	r7, ip, #3
 357:../../DaisyExamples/libDaisy//src/dev/oled_ssd130x.h ****         else
 4631              		.loc 7 357 54 view .LVU1082
 4632 00f2 0CF0070B 		and	fp, ip, #7
 357:../../DaisyExamples/libDaisy//src/dev/oled_ssd130x.h ****         else
 4633              		.loc 7 357 48 view .LVU1083
 4634 00f6 4FF00109 		mov	r9, #1
 357:../../DaisyExamples/libDaisy//src/dev/oled_ssd130x.h ****         else
 4635              		.loc 7 357 42 view .LVU1084
 4636 00fa 0EEBC717 		add	r7, lr, r7, lsl #7
 4637 00fe 0744     		add	r7, r7, r0
 356:../../DaisyExamples/libDaisy//src/dev/oled_ssd130x.h ****             buffer_[x + (y / 8) * width] |= (1 << (y % 8));
 4638              		.loc 7 356 9 view .LVU1085
 4639 0100 002D     		cmp	r5, #0
 4640 0102 00F03981 		beq	.L320
 357:../../DaisyExamples/libDaisy//src/dev/oled_ssd130x.h ****         else
 4641              		.loc 7 357 48 view .LVU1086
 4642 0106 09FA0BF9 		lsl	r9, r9, fp
 357:../../DaisyExamples/libDaisy//src/dev/oled_ssd130x.h ****         else
 4643              		.loc 7 357 42 view .LVU1087
 4644 010a 97F810B0 		ldrb	fp, [r7, #16]	@ zero_extendqisi2
 4645 010e 49EA0B09 		orr	r9, r9, fp
 4646 0112 87F81090 		strb	r9, [r7, #16]
 4647              	.L319:
 4648              	.LVL368:
 357:../../DaisyExamples/libDaisy//src/dev/oled_ssd130x.h ****         else
 4649              		.loc 7 357 42 view .LVU1088
 4650              	.LBE1215:
 4651              	.LBE1214:
 4652              	.LBE1213:
 243:../../DaisyExamples/libDaisy//src/hid/disp/display.h ****             {
 4653              		.loc 8 243 13 view .LVU1089
 4654 0116 7700     		lsls	r7, r6, #1
ARM GAS  /var/folders/hp/45mn71hd0ps5f5pnytxy5bt00000gn/T//ccdvmoSj.s 			page 134


 4655              	.LVL369:
 246:../../DaisyExamples/libDaisy//src/hid/disp/display.h ****             }
 4656              		.loc 8 246 20 view .LVU1090
 4657 0118 18BF     		it	ne
 4658 011a D644     		addne	lr, lr, r10
 4659              	.LVL370:
 249:../../DaisyExamples/libDaisy//src/hid/disp/display.h ****             {
 4660              		.loc 8 249 13 view .LVU1091
 4661 011c B845     		cmp	r8, r7
 4662 011e 02DD     		ble	.L322
 251:../../DaisyExamples/libDaisy//src/hid/disp/display.h ****                 y1 += signY;
 4663              		.loc 8 251 23 view .LVU1092
 4664 0120 4644     		add	r6, r6, r8
 4665              	.LVL371:
 252:../../DaisyExamples/libDaisy//src/hid/disp/display.h ****             }
 4666              		.loc 8 252 20 view .LVU1093
 4667 0122 0CF1FF3C 		add	ip, ip, #-1
 4668              	.LVL372:
 4669              	.L322:
 239:../../DaisyExamples/libDaisy//src/hid/disp/display.h ****         {
 4670              		.loc 8 239 26 is_stmt 1 view .LVU1094
 4671 0126 7345     		cmp	r3, lr
 4672 0128 DBD1     		bne	.L318
 239:../../DaisyExamples/libDaisy//src/hid/disp/display.h ****         {
 4673              		.loc 8 239 26 is_stmt 0 view .LVU1095
 4674 012a 6245     		cmp	r2, ip
 4675 012c D9D1     		bne	.L318
 4676 012e 0026     		movs	r6, #0
 4677              	.LVL373:
 239:../../DaisyExamples/libDaisy//src/hid/disp/display.h ****         {
 4678              		.loc 8 239 26 view .LVU1096
 4679 0130 0496     		str	r6, [sp, #16]
 4680              	.LVL374:
 4681              	.L315:
 239:../../DaisyExamples/libDaisy//src/hid/disp/display.h ****         {
 4682              		.loc 8 239 26 view .LVU1097
 4683              	.LBE1198:
 4684              	.LBE1197:
 4685              	.LBB1228:
 4686              	.LBI1228:
 221:../../DaisyExamples/libDaisy//src/hid/disp/display.h ****                   uint_fast8_t y1,
 4687              		.loc 8 221 10 is_stmt 1 view .LVU1098
 4688              	.LBB1229:
 228:../../DaisyExamples/libDaisy//src/hid/disp/display.h ****         int_fast16_t signX  = ((x1 < x2) ? 1 : -1);
 4689              		.loc 8 228 52 is_stmt 0 view .LVU1099
 4690 0132 A4EB0209 		sub	r9, r4, r2
 4691              	.LBB1230:
 4692              	.LBB1231:
 4693              	.LBB1232:
 354:../../DaisyExamples/libDaisy//src/dev/oled_ssd130x.h ****             return;
 4694              		.loc 7 354 9 view .LVU1100
 4695 0136 009F     		ldr	r7, [sp]
 4696              	.LBE1232:
 4697              	.LBE1231:
 4698              	.LBE1230:
 228:../../DaisyExamples/libDaisy//src/hid/disp/display.h ****         int_fast16_t signX  = ((x1 < x2) ? 1 : -1);
 4699              		.loc 8 228 22 view .LVU1101
ARM GAS  /var/folders/hp/45mn71hd0ps5f5pnytxy5bt00000gn/T//ccdvmoSj.s 			page 135


 4700 0138 B9F1000F 		cmp	r9, #0
 4701 013c B8BF     		it	lt
 4702 013e C9F10009 		rsblt	r9, r9, #0
 4703              	.LVL375:
 4704              	.LBB1247:
 4705              	.LBB1241:
 4706              	.LBB1235:
 354:../../DaisyExamples/libDaisy//src/dev/oled_ssd130x.h ****             return;
 4707              		.loc 7 354 28 view .LVU1102
 4708 0142 1F2C     		cmp	r4, #31
 4709 0144 94BF     		ite	ls
 4710 0146 0026     		movls	r6, #0
 4711 0148 0126     		movhi	r6, #1
 4712              	.LBE1235:
 4713              	.LBE1241:
 4714              	.LBE1247:
 230:../../DaisyExamples/libDaisy//src/hid/disp/display.h ****         int_fast16_t error  = deltaX - deltaY;
 4715              		.loc 8 230 42 view .LVU1103
 4716 014a A242     		cmp	r2, r4
 231:../../DaisyExamples/libDaisy//src/hid/disp/display.h ****         int_fast16_t error2;
 4717              		.loc 8 231 22 view .LVU1104
 4718 014c C9F10008 		rsb	r8, r9, #0
 4719              	.LVL376:
 4720              	.LBB1248:
 4721              	.LBI1230:
  42:../../DaisyExamples/libDaisy//src/hid/disp/oled_display.h ****     {
 4722              		.loc 6 42 10 is_stmt 1 view .LVU1105
 4723              	.LBB1242:
 4724              	.LBI1231:
 352:../../DaisyExamples/libDaisy//src/dev/oled_ssd130x.h ****     {
 4725              		.loc 7 352 10 view .LVU1106
 4726              	.LBB1236:
 354:../../DaisyExamples/libDaisy//src/dev/oled_ssd130x.h ****             return;
 4727              		.loc 7 354 28 is_stmt 0 view .LVU1107
 4728 0150 0396     		str	r6, [sp, #12]
 4729              	.LBE1236:
 4730              	.LBE1242:
 4731              	.LBE1248:
 230:../../DaisyExamples/libDaisy//src/hid/disp/display.h ****         int_fast16_t error  = deltaX - deltaY;
 4732              		.loc 8 230 42 view .LVU1108
 4733 0152 C0F02381 		bcc	.L323
 4734              	.LVL377:
 4735              	.LBB1249:
 4736              	.LBB1243:
 4737              	.LBB1237:
 354:../../DaisyExamples/libDaisy//src/dev/oled_ssd130x.h ****             return;
 4738              		.loc 7 354 9 view .LVU1109
 4739 0156 002F     		cmp	r7, #0
 4740 0158 40F05081 		bne	.L358
 4741 015c 002E     		cmp	r6, #0
 4742 015e 40F04D81 		bne	.L358
 4743              	.LBE1237:
 4744              	.LBE1243:
 4745              	.LBE1249:
 230:../../DaisyExamples/libDaisy//src/hid/disp/display.h ****         int_fast16_t error  = deltaX - deltaY;
 4746              		.loc 8 230 42 view .LVU1110
 4747 0162 4FF0FF36 		mov	r6, #-1
ARM GAS  /var/folders/hp/45mn71hd0ps5f5pnytxy5bt00000gn/T//ccdvmoSj.s 			page 136


 4748 0166 0096     		str	r6, [sp]
 4749              	.LBB1250:
 4750              	.LBB1244:
 4751              	.LBB1238:
 357:../../DaisyExamples/libDaisy//src/dev/oled_ssd130x.h ****         else
 4752              		.loc 7 357 28 view .LVU1111
 4753 0168 E608     		lsrs	r6, r4, #3
 357:../../DaisyExamples/libDaisy//src/dev/oled_ssd130x.h ****         else
 4754              		.loc 7 357 42 view .LVU1112
 4755 016a 03EBC616 		add	r6, r3, r6, lsl #7
 4756 016e 0644     		add	r6, r6, r0
 356:../../DaisyExamples/libDaisy//src/dev/oled_ssd130x.h ****             buffer_[x + (y / 8) * width] |= (1 << (y % 8));
 4757              		.loc 7 356 9 view .LVU1113
 4758 0170 002D     		cmp	r5, #0
 4759 0172 00F01E81 		beq	.L325
 4760              	.LVL378:
 4761              	.L397:
 357:../../DaisyExamples/libDaisy//src/dev/oled_ssd130x.h ****         else
 4762              		.loc 7 357 48 view .LVU1114
 4763 0176 4FF0010C 		mov	ip, #1
 357:../../DaisyExamples/libDaisy//src/dev/oled_ssd130x.h ****         else
 4764              		.loc 7 357 54 view .LVU1115
 4765 017a 04F00707 		and	r7, r4, #7
 357:../../DaisyExamples/libDaisy//src/dev/oled_ssd130x.h ****         else
 4766              		.loc 7 357 48 view .LVU1116
 4767 017e 0CFA07F7 		lsl	r7, ip, r7
 357:../../DaisyExamples/libDaisy//src/dev/oled_ssd130x.h ****         else
 4768              		.loc 7 357 42 view .LVU1117
 4769 0182 96F810C0 		ldrb	ip, [r6, #16]	@ zero_extendqisi2
 4770 0186 47EA0C07 		orr	r7, r7, ip
 4771 018a 3774     		strb	r7, [r6, #16]
 4772 018c 0026     		movs	r6, #0
 4773 018e 0396     		str	r6, [sp, #12]
 4774              	.L324:
 4775              	.LVL379:
 357:../../DaisyExamples/libDaisy//src/dev/oled_ssd130x.h ****         else
 4776              		.loc 7 357 42 view .LVU1118
 4777              	.LBE1238:
 4778              	.LBE1244:
 4779              	.LBE1250:
 239:../../DaisyExamples/libDaisy//src/hid/disp/display.h ****         {
 4780              		.loc 8 239 26 is_stmt 1 view .LVU1119
 4781 0190 A242     		cmp	r2, r4
 4782 0192 00F03D81 		beq	.L396
 4783              	.L327:
 4784              	.LVL380:
 230:../../DaisyExamples/libDaisy//src/hid/disp/display.h ****         int_fast16_t error  = deltaX - deltaY;
 4785              		.loc 8 230 42 is_stmt 0 view .LVU1120
 4786 0196 C446     		mov	ip, r8
 4787 0198 1646     		mov	r6, r2
 4788 019a 1F46     		mov	r7, r3
 4789 019c 0592     		str	r2, [sp, #20]
 4790              	.LVL381:
 4791              	.L329:
 4792              	.LBB1251:
 4793              	.LBI1251:
  42:../../DaisyExamples/libDaisy//src/hid/disp/oled_display.h ****     {
ARM GAS  /var/folders/hp/45mn71hd0ps5f5pnytxy5bt00000gn/T//ccdvmoSj.s 			page 137


 4794              		.loc 6 42 10 is_stmt 1 view .LVU1121
 4795              	.LBB1252:
 4796              	.LBI1252:
 352:../../DaisyExamples/libDaisy//src/dev/oled_ssd130x.h ****     {
 4797              		.loc 7 352 10 view .LVU1122
 4798              	.LBB1253:
 354:../../DaisyExamples/libDaisy//src/dev/oled_ssd130x.h ****             return;
 4799              		.loc 7 354 9 is_stmt 0 view .LVU1123
 4800 019e 7F2F     		cmp	r7, #127
 4801 01a0 15D8     		bhi	.L330
 4802 01a2 1F2E     		cmp	r6, #31
 4803 01a4 13D8     		bhi	.L330
 357:../../DaisyExamples/libDaisy//src/dev/oled_ssd130x.h ****         else
 4804              		.loc 7 357 28 view .LVU1124
 4805 01a6 4FEAD60E 		lsr	lr, r6, #3
 357:../../DaisyExamples/libDaisy//src/dev/oled_ssd130x.h ****         else
 4806              		.loc 7 357 54 view .LVU1125
 4807 01aa 06F0070B 		and	fp, r6, #7
 357:../../DaisyExamples/libDaisy//src/dev/oled_ssd130x.h ****         else
 4808              		.loc 7 357 48 view .LVU1126
 4809 01ae 4FF0010A 		mov	r10, #1
 357:../../DaisyExamples/libDaisy//src/dev/oled_ssd130x.h ****         else
 4810              		.loc 7 357 42 view .LVU1127
 4811 01b2 07EBCE1E 		add	lr, r7, lr, lsl #7
 4812 01b6 8644     		add	lr, lr, r0
 356:../../DaisyExamples/libDaisy//src/dev/oled_ssd130x.h ****             buffer_[x + (y / 8) * width] |= (1 << (y % 8));
 4813              		.loc 7 356 9 view .LVU1128
 4814 01b8 002D     		cmp	r5, #0
 4815 01ba 00F0E680 		beq	.L331
 357:../../DaisyExamples/libDaisy//src/dev/oled_ssd130x.h ****         else
 4816              		.loc 7 357 48 view .LVU1129
 4817 01be 0AFA0BFA 		lsl	r10, r10, fp
 357:../../DaisyExamples/libDaisy//src/dev/oled_ssd130x.h ****         else
 4818              		.loc 7 357 42 view .LVU1130
 4819 01c2 9EF810B0 		ldrb	fp, [lr, #16]	@ zero_extendqisi2
 4820 01c6 4AEA0B0A 		orr	r10, r10, fp
 4821 01ca 8EF810A0 		strb	r10, [lr, #16]
 4822              	.L330:
 4823              	.LVL382:
 357:../../DaisyExamples/libDaisy//src/dev/oled_ssd130x.h ****         else
 4824              		.loc 7 357 42 view .LVU1131
 4825              	.LBE1253:
 4826              	.LBE1252:
 4827              	.LBE1251:
 243:../../DaisyExamples/libDaisy//src/hid/disp/display.h ****             {
 4828              		.loc 8 243 13 view .LVU1132
 4829 01ce B8EB4C0F 		cmp	r8, ip, lsl #1
 242:../../DaisyExamples/libDaisy//src/hid/disp/display.h ****             if(error2 > -deltaY)
 4830              		.loc 8 242 20 view .LVU1133
 4831 01d2 4FEA4C0E 		lsl	lr, ip, #1
 4832              	.LVL383:
 243:../../DaisyExamples/libDaisy//src/hid/disp/display.h ****             {
 4833              		.loc 8 243 13 view .LVU1134
 4834 01d6 02DA     		bge	.L332
 245:../../DaisyExamples/libDaisy//src/hid/disp/display.h ****                 x1 += signX;
 4835              		.loc 8 245 23 view .LVU1135
 4836 01d8 ACEB090C 		sub	ip, ip, r9
ARM GAS  /var/folders/hp/45mn71hd0ps5f5pnytxy5bt00000gn/T//ccdvmoSj.s 			page 138


 4837              	.LVL384:
 246:../../DaisyExamples/libDaisy//src/hid/disp/display.h ****             }
 4838              		.loc 8 246 20 view .LVU1136
 4839 01dc 013F     		subs	r7, r7, #1
 4840              	.LVL385:
 4841              	.L332:
 249:../../DaisyExamples/libDaisy//src/hid/disp/display.h ****             {
 4842              		.loc 8 249 13 view .LVU1137
 4843 01de BEF1000F 		cmp	lr, #0
 4844 01e2 01D0     		beq	.L333
 252:../../DaisyExamples/libDaisy//src/hid/disp/display.h ****             }
 4845              		.loc 8 252 20 view .LVU1138
 4846 01e4 009A     		ldr	r2, [sp]
 4847 01e6 1644     		add	r6, r6, r2
 4848              	.LVL386:
 4849              	.L333:
 239:../../DaisyExamples/libDaisy//src/hid/disp/display.h ****         {
 4850              		.loc 8 239 26 is_stmt 1 view .LVU1139
 4851 01e8 BB42     		cmp	r3, r7
 4852 01ea D8D1     		bne	.L329
 239:../../DaisyExamples/libDaisy//src/hid/disp/display.h ****         {
 4853              		.loc 8 239 26 is_stmt 0 view .LVU1140
 4854 01ec B442     		cmp	r4, r6
 4855 01ee D6D1     		bne	.L329
 4856 01f0 059A     		ldr	r2, [sp, #20]
 4857              	.LVL387:
 4858              	.L326:
 239:../../DaisyExamples/libDaisy//src/hid/disp/display.h ****         {
 4859              		.loc 8 239 26 view .LVU1141
 4860              	.LBE1229:
 4861              	.LBE1228:
 4862              	.LBB1264:
 4863              	.LBI1264:
 221:../../DaisyExamples/libDaisy//src/hid/disp/display.h ****                   uint_fast8_t y1,
 4864              		.loc 8 221 10 is_stmt 1 view .LVU1142
 4865              	.LBB1265:
 227:../../DaisyExamples/libDaisy//src/hid/disp/display.h ****         int_fast16_t deltaY = abs((int_fast16_t)y2 - (int_fast16_t)y1);
 4866              		.loc 8 227 52 is_stmt 0 view .LVU1143
 4867 01f2 A1EB030E 		sub	lr, r1, r3
 227:../../DaisyExamples/libDaisy//src/hid/disp/display.h ****         int_fast16_t deltaY = abs((int_fast16_t)y2 - (int_fast16_t)y1);
 4868              		.loc 8 227 22 view .LVU1144
 4869 01f6 BEF1000F 		cmp	lr, #0
 4870 01fa B8BF     		it	lt
 4871 01fc CEF1000E 		rsblt	lr, lr, #0
 4872              	.LVL388:
 4873              	.LBB1266:
 4874              	.LBB1267:
 4875              	.LBB1268:
 354:../../DaisyExamples/libDaisy//src/dev/oled_ssd130x.h ****             return;
 4876              		.loc 7 354 14 view .LVU1145
 4877 0200 7F29     		cmp	r1, #127
 4878 0202 94BF     		ite	ls
 4879 0204 4FF0000A 		movls	r10, #0
 4880 0208 4FF0010A 		movhi	r10, #1
 4881              	.LBE1268:
 4882              	.LBE1267:
 4883              	.LBE1266:
ARM GAS  /var/folders/hp/45mn71hd0ps5f5pnytxy5bt00000gn/T//ccdvmoSj.s 			page 139


 229:../../DaisyExamples/libDaisy//src/hid/disp/display.h ****         int_fast16_t signY  = ((y1 < y2) ? 1 : -1);
 4884              		.loc 8 229 42 view .LVU1146
 4885 020c 9942     		cmp	r1, r3
 4886 020e 8CBF     		ite	hi
 4887 0210 4FF00109 		movhi	r9, #1
 4888 0214 4FF0FF39 		movls	r9, #-1
 4889              	.LVL389:
 4890              	.LBB1275:
 4891              	.LBI1266:
  42:../../DaisyExamples/libDaisy//src/hid/disp/oled_display.h ****     {
 4892              		.loc 6 42 10 is_stmt 1 view .LVU1147
 4893              	.LBB1273:
 4894              	.LBI1267:
 352:../../DaisyExamples/libDaisy//src/dev/oled_ssd130x.h ****     {
 4895              		.loc 7 352 10 view .LVU1148
 4896              	.LBB1271:
 354:../../DaisyExamples/libDaisy//src/dev/oled_ssd130x.h ****             return;
 4897              		.loc 7 354 9 is_stmt 0 view .LVU1149
 4898 0218 BAF1000F 		cmp	r10, #0
 4899 021c 13D1     		bne	.L335
 4900 021e 039E     		ldr	r6, [sp, #12]
 4901 0220 8EB9     		cbnz	r6, .L335
 357:../../DaisyExamples/libDaisy//src/dev/oled_ssd130x.h ****         else
 4902              		.loc 7 357 28 view .LVU1150
 4903 0222 E608     		lsrs	r6, r4, #3
 357:../../DaisyExamples/libDaisy//src/dev/oled_ssd130x.h ****         else
 4904              		.loc 7 357 42 view .LVU1151
 4905 0224 01EBC616 		add	r6, r1, r6, lsl #7
 4906 0228 0644     		add	r6, r6, r0
 356:../../DaisyExamples/libDaisy//src/dev/oled_ssd130x.h ****             buffer_[x + (y / 8) * width] |= (1 << (y % 8));
 4907              		.loc 7 356 9 view .LVU1152
 4908 022a 002D     		cmp	r5, #0
 4909 022c 00F0D380 		beq	.L336
 357:../../DaisyExamples/libDaisy//src/dev/oled_ssd130x.h ****         else
 4910              		.loc 7 357 48 view .LVU1153
 4911 0230 4FF0010C 		mov	ip, #1
 357:../../DaisyExamples/libDaisy//src/dev/oled_ssd130x.h ****         else
 4912              		.loc 7 357 54 view .LVU1154
 4913 0234 04F00707 		and	r7, r4, #7
 357:../../DaisyExamples/libDaisy//src/dev/oled_ssd130x.h ****         else
 4914              		.loc 7 357 48 view .LVU1155
 4915 0238 0CFA07F7 		lsl	r7, ip, r7
 357:../../DaisyExamples/libDaisy//src/dev/oled_ssd130x.h ****         else
 4916              		.loc 7 357 42 view .LVU1156
 4917 023c 96F810C0 		ldrb	ip, [r6, #16]	@ zero_extendqisi2
 4918 0240 47EA0C07 		orr	r7, r7, ip
 4919 0244 3774     		strb	r7, [r6, #16]
 4920              	.L335:
 4921              	.LVL390:
 357:../../DaisyExamples/libDaisy//src/dev/oled_ssd130x.h ****         else
 4922              		.loc 7 357 42 view .LVU1157
 4923              	.LBE1271:
 4924              	.LBE1273:
 4925              	.LBE1275:
 239:../../DaisyExamples/libDaisy//src/hid/disp/display.h ****         {
 4926              		.loc 8 239 26 is_stmt 1 view .LVU1158
 4927 0246 049E     		ldr	r6, [sp, #16]
ARM GAS  /var/folders/hp/45mn71hd0ps5f5pnytxy5bt00000gn/T//ccdvmoSj.s 			page 140


 4928 0248 26BB     		cbnz	r6, .L337
 227:../../DaisyExamples/libDaisy//src/hid/disp/display.h ****         int_fast16_t deltaY = abs((int_fast16_t)y2 - (int_fast16_t)y1);
 4929              		.loc 8 227 22 is_stmt 0 view .LVU1159
 4930 024a 7746     		mov	r7, lr
 239:../../DaisyExamples/libDaisy//src/hid/disp/display.h ****         {
 4931              		.loc 8 239 26 view .LVU1160
 4932 024c 2646     		mov	r6, r4
 4933              	.LVL391:
 4934              	.L338:
 4935              	.LBB1276:
 4936              	.LBI1276:
  42:../../DaisyExamples/libDaisy//src/hid/disp/oled_display.h ****     {
 4937              		.loc 6 42 10 is_stmt 1 view .LVU1161
 4938              	.LBB1277:
 4939              	.LBI1277:
 352:../../DaisyExamples/libDaisy//src/dev/oled_ssd130x.h ****     {
 4940              		.loc 7 352 10 view .LVU1162
 4941              	.LBB1278:
 354:../../DaisyExamples/libDaisy//src/dev/oled_ssd130x.h ****             return;
 4942              		.loc 7 354 9 is_stmt 0 view .LVU1163
 4943 024e 7F2B     		cmp	r3, #127
 4944 0250 14D8     		bhi	.L340
 354:../../DaisyExamples/libDaisy//src/dev/oled_ssd130x.h ****             return;
 4945              		.loc 7 354 9 view .LVU1164
 4946 0252 1F2E     		cmp	r6, #31
 4947 0254 12D8     		bhi	.L340
 357:../../DaisyExamples/libDaisy//src/dev/oled_ssd130x.h ****         else
 4948              		.loc 7 357 28 view .LVU1165
 4949 0256 4FEAD60C 		lsr	ip, r6, #3
 357:../../DaisyExamples/libDaisy//src/dev/oled_ssd130x.h ****         else
 4950              		.loc 7 357 54 view .LVU1166
 4951 025a 06F0070B 		and	fp, r6, #7
 357:../../DaisyExamples/libDaisy//src/dev/oled_ssd130x.h ****         else
 4952              		.loc 7 357 48 view .LVU1167
 4953 025e 4FF00108 		mov	r8, #1
 357:../../DaisyExamples/libDaisy//src/dev/oled_ssd130x.h ****         else
 4954              		.loc 7 357 42 view .LVU1168
 4955 0262 03EBCC1C 		add	ip, r3, ip, lsl #7
 4956 0266 8444     		add	ip, ip, r0
 356:../../DaisyExamples/libDaisy//src/dev/oled_ssd130x.h ****             buffer_[x + (y / 8) * width] |= (1 << (y % 8));
 4957              		.loc 7 356 9 view .LVU1169
 4958 0268 002D     		cmp	r5, #0
 4959 026a 73D0     		beq	.L341
 357:../../DaisyExamples/libDaisy//src/dev/oled_ssd130x.h ****         else
 4960              		.loc 7 357 48 view .LVU1170
 4961 026c 08FA0BF8 		lsl	r8, r8, fp
 357:../../DaisyExamples/libDaisy//src/dev/oled_ssd130x.h ****         else
 4962              		.loc 7 357 42 view .LVU1171
 4963 0270 9CF810B0 		ldrb	fp, [ip, #16]	@ zero_extendqisi2
 4964 0274 48EA0B08 		orr	r8, r8, fp
 4965 0278 8CF81080 		strb	r8, [ip, #16]
 4966              	.L340:
 4967              	.LVL392:
 357:../../DaisyExamples/libDaisy//src/dev/oled_ssd130x.h ****         else
 4968              		.loc 7 357 42 view .LVU1172
 4969              	.LBE1278:
 4970              	.LBE1277:
ARM GAS  /var/folders/hp/45mn71hd0ps5f5pnytxy5bt00000gn/T//ccdvmoSj.s 			page 141


 4971              	.LBE1276:
 243:../../DaisyExamples/libDaisy//src/hid/disp/display.h ****             {
 4972              		.loc 8 243 13 view .LVU1173
 4973 027c 5FEA470C 		lsls	ip, r7, #1
 4974              	.LVL393:
 246:../../DaisyExamples/libDaisy//src/hid/disp/display.h ****             }
 4975              		.loc 8 246 20 view .LVU1174
 4976 0280 18BF     		it	ne
 4977 0282 4B44     		addne	r3, r3, r9
 4978              	.LVL394:
 249:../../DaisyExamples/libDaisy//src/hid/disp/display.h ****             {
 4979              		.loc 8 249 13 view .LVU1175
 4980 0284 E645     		cmp	lr, ip
 4981 0286 01DD     		ble	.L343
 251:../../DaisyExamples/libDaisy//src/hid/disp/display.h ****                 y1 += signY;
 4982              		.loc 8 251 23 view .LVU1176
 4983 0288 7744     		add	r7, r7, lr
 4984              	.LVL395:
 252:../../DaisyExamples/libDaisy//src/hid/disp/display.h ****             }
 4985              		.loc 8 252 20 view .LVU1177
 4986 028a 013E     		subs	r6, r6, #1
 4987              	.LVL396:
 4988              	.L343:
 239:../../DaisyExamples/libDaisy//src/hid/disp/display.h ****         {
 4989              		.loc 8 239 26 is_stmt 1 view .LVU1178
 4990 028c 9942     		cmp	r1, r3
 4991 028e DED1     		bne	.L338
 239:../../DaisyExamples/libDaisy//src/hid/disp/display.h ****         {
 4992              		.loc 8 239 26 is_stmt 0 view .LVU1179
 4993 0290 B442     		cmp	r4, r6
 4994 0292 DCD1     		bne	.L338
 4995              	.LVL397:
 4996              	.L337:
 239:../../DaisyExamples/libDaisy//src/hid/disp/display.h ****         {
 4997              		.loc 8 239 26 view .LVU1180
 4998              	.LBE1265:
 4999              	.LBE1264:
 5000              	.LBB1287:
 5001              	.LBI1287:
 221:../../DaisyExamples/libDaisy//src/hid/disp/display.h ****                   uint_fast8_t y1,
 5002              		.loc 8 221 10 is_stmt 1 view .LVU1181
 5003              	.LBB1288:
 228:../../DaisyExamples/libDaisy//src/hid/disp/display.h ****         int_fast16_t signX  = ((x1 < x2) ? 1 : -1);
 5004              		.loc 8 228 52 is_stmt 0 view .LVU1182
 5005 0294 A2EB040E 		sub	lr, r2, r4
 228:../../DaisyExamples/libDaisy//src/hid/disp/display.h ****         int_fast16_t signX  = ((x1 < x2) ? 1 : -1);
 5006              		.loc 8 228 22 view .LVU1183
 5007 0298 BEF1000F 		cmp	lr, #0
 5008 029c B8BF     		it	lt
 5009 029e CEF1000E 		rsblt	lr, lr, #0
 5010              	.LVL398:
 230:../../DaisyExamples/libDaisy//src/hid/disp/display.h ****         int_fast16_t error  = deltaX - deltaY;
 5011              		.loc 8 230 42 view .LVU1184
 5012 02a2 A242     		cmp	r2, r4
 5013 02a4 8CBF     		ite	hi
 5014 02a6 4FF00108 		movhi	r8, #1
 5015 02aa 4FF0FF38 		movls	r8, #-1
ARM GAS  /var/folders/hp/45mn71hd0ps5f5pnytxy5bt00000gn/T//ccdvmoSj.s 			page 142


 5016              	.LVL399:
 231:../../DaisyExamples/libDaisy//src/hid/disp/display.h ****         int_fast16_t error2;
 5017              		.loc 8 231 22 view .LVU1185
 5018 02ae CEF1000C 		rsb	ip, lr, #0
 5019              	.LVL400:
 5020              	.LBB1289:
 5021              	.LBI1289:
  42:../../DaisyExamples/libDaisy//src/hid/disp/oled_display.h ****     {
 5022              		.loc 6 42 10 is_stmt 1 view .LVU1186
 5023              	.LBB1290:
 5024              	.LBI1290:
 352:../../DaisyExamples/libDaisy//src/dev/oled_ssd130x.h ****     {
 5025              		.loc 7 352 10 view .LVU1187
 5026              	.LBB1291:
 354:../../DaisyExamples/libDaisy//src/dev/oled_ssd130x.h ****             return;
 5027              		.loc 7 354 9 is_stmt 0 view .LVU1188
 5028 02b2 BAF1000F 		cmp	r10, #0
 5029 02b6 0ED1     		bne	.L345
 5030 02b8 029B     		ldr	r3, [sp, #8]
 5031 02ba 63B9     		cbnz	r3, .L345
 357:../../DaisyExamples/libDaisy//src/dev/oled_ssd130x.h ****         else
 5032              		.loc 7 357 28 view .LVU1189
 5033 02bc D308     		lsrs	r3, r2, #3
 357:../../DaisyExamples/libDaisy//src/dev/oled_ssd130x.h ****         else
 5034              		.loc 7 357 54 view .LVU1190
 5035 02be 02F00707 		and	r7, r2, #7
 357:../../DaisyExamples/libDaisy//src/dev/oled_ssd130x.h ****         else
 5036              		.loc 7 357 48 view .LVU1191
 5037 02c2 0126     		movs	r6, #1
 357:../../DaisyExamples/libDaisy//src/dev/oled_ssd130x.h ****         else
 5038              		.loc 7 357 42 view .LVU1192
 5039 02c4 01EBC313 		add	r3, r1, r3, lsl #7
 5040 02c8 0344     		add	r3, r3, r0
 356:../../DaisyExamples/libDaisy//src/dev/oled_ssd130x.h ****             buffer_[x + (y / 8) * width] |= (1 << (y % 8));
 5041              		.loc 7 356 9 view .LVU1193
 5042 02ca 002D     		cmp	r5, #0
 5043 02cc 7CD0     		beq	.L346
 357:../../DaisyExamples/libDaisy//src/dev/oled_ssd130x.h ****         else
 5044              		.loc 7 357 48 view .LVU1194
 5045 02ce BE40     		lsls	r6, r6, r7
 357:../../DaisyExamples/libDaisy//src/dev/oled_ssd130x.h ****         else
 5046              		.loc 7 357 42 view .LVU1195
 5047 02d0 1F7C     		ldrb	r7, [r3, #16]	@ zero_extendqisi2
 5048 02d2 3E43     		orrs	r6, r6, r7
 5049 02d4 1E74     		strb	r6, [r3, #16]
 5050              	.L345:
 5051              	.LVL401:
 357:../../DaisyExamples/libDaisy//src/dev/oled_ssd130x.h ****         else
 5052              		.loc 7 357 42 view .LVU1196
 5053              	.LBE1291:
 5054              	.LBE1290:
 5055              	.LBE1289:
 239:../../DaisyExamples/libDaisy//src/hid/disp/display.h ****         {
 5056              		.loc 8 239 26 is_stmt 1 view .LVU1197
 5057 02d6 019B     		ldr	r3, [sp, #4]
 5058 02d8 002B     		cmp	r3, #0
 5059 02da 7FF4CDAE 		bne	.L303
ARM GAS  /var/folders/hp/45mn71hd0ps5f5pnytxy5bt00000gn/T//ccdvmoSj.s 			page 143


 5060 02de 6646     		mov	r6, ip
 5061 02e0 0B46     		mov	r3, r1
 5062              	.LVL402:
 5063              	.L347:
 5064              	.LBB1296:
 5065              	.LBI1296:
  42:../../DaisyExamples/libDaisy//src/hid/disp/oled_display.h ****     {
 5066              		.loc 6 42 10 view .LVU1198
 5067              	.LBB1297:
 5068              	.LBI1297:
 352:../../DaisyExamples/libDaisy//src/dev/oled_ssd130x.h ****     {
 5069              		.loc 7 352 10 view .LVU1199
 5070              	.LBB1298:
 354:../../DaisyExamples/libDaisy//src/dev/oled_ssd130x.h ****             return;
 5071              		.loc 7 354 9 is_stmt 0 view .LVU1200
 5072 02e2 7F2B     		cmp	r3, #127
 5073 02e4 12D8     		bhi	.L349
 354:../../DaisyExamples/libDaisy//src/dev/oled_ssd130x.h ****             return;
 5074              		.loc 7 354 9 view .LVU1201
 5075 02e6 1F2C     		cmp	r4, #31
 5076 02e8 10D8     		bhi	.L349
 357:../../DaisyExamples/libDaisy//src/dev/oled_ssd130x.h ****         else
 5077              		.loc 7 357 28 view .LVU1202
 5078 02ea E708     		lsrs	r7, r4, #3
 357:../../DaisyExamples/libDaisy//src/dev/oled_ssd130x.h ****         else
 5079              		.loc 7 357 54 view .LVU1203
 5080 02ec 04F0070A 		and	r10, r4, #7
 357:../../DaisyExamples/libDaisy//src/dev/oled_ssd130x.h ****         else
 5081              		.loc 7 357 48 view .LVU1204
 5082 02f0 4FF00109 		mov	r9, #1
 357:../../DaisyExamples/libDaisy//src/dev/oled_ssd130x.h ****         else
 5083              		.loc 7 357 42 view .LVU1205
 5084 02f4 03EBC717 		add	r7, r3, r7, lsl #7
 5085 02f8 0744     		add	r7, r7, r0
 356:../../DaisyExamples/libDaisy//src/dev/oled_ssd130x.h ****             buffer_[x + (y / 8) * width] |= (1 << (y % 8));
 5086              		.loc 7 356 9 view .LVU1206
 5087 02fa A5B3     		cbz	r5, .L350
 357:../../DaisyExamples/libDaisy//src/dev/oled_ssd130x.h ****         else
 5088              		.loc 7 357 48 view .LVU1207
 5089 02fc 09FA0AF9 		lsl	r9, r9, r10
 357:../../DaisyExamples/libDaisy//src/dev/oled_ssd130x.h ****         else
 5090              		.loc 7 357 42 view .LVU1208
 5091 0300 97F810A0 		ldrb	r10, [r7, #16]	@ zero_extendqisi2
 5092 0304 49EA0A09 		orr	r9, r9, r10
 5093 0308 87F81090 		strb	r9, [r7, #16]
 5094              	.L349:
 5095              	.LVL403:
 357:../../DaisyExamples/libDaisy//src/dev/oled_ssd130x.h ****         else
 5096              		.loc 7 357 42 view .LVU1209
 5097              	.LBE1298:
 5098              	.LBE1297:
 5099              	.LBE1296:
 243:../../DaisyExamples/libDaisy//src/hid/disp/display.h ****             {
 5100              		.loc 8 243 13 view .LVU1210
 5101 030c BCEB460F 		cmp	ip, r6, lsl #1
 242:../../DaisyExamples/libDaisy//src/hid/disp/display.h ****             if(error2 > -deltaY)
 5102              		.loc 8 242 20 view .LVU1211
ARM GAS  /var/folders/hp/45mn71hd0ps5f5pnytxy5bt00000gn/T//ccdvmoSj.s 			page 144


 5103 0310 4FEA4607 		lsl	r7, r6, #1
 5104              	.LVL404:
 243:../../DaisyExamples/libDaisy//src/hid/disp/display.h ****             {
 5105              		.loc 8 243 13 view .LVU1212
 5106 0314 02DA     		bge	.L351
 245:../../DaisyExamples/libDaisy//src/hid/disp/display.h ****                 x1 += signX;
 5107              		.loc 8 245 23 view .LVU1213
 5108 0316 A6EB0E06 		sub	r6, r6, lr
 5109              	.LVL405:
 246:../../DaisyExamples/libDaisy//src/hid/disp/display.h ****             }
 5110              		.loc 8 246 20 view .LVU1214
 5111 031a 013B     		subs	r3, r3, #1
 5112              	.LVL406:
 5113              	.L351:
 249:../../DaisyExamples/libDaisy//src/hid/disp/display.h ****             {
 5114              		.loc 8 249 13 view .LVU1215
 5115 031c 07B1     		cbz	r7, .L352
 252:../../DaisyExamples/libDaisy//src/hid/disp/display.h ****             }
 5116              		.loc 8 252 20 view .LVU1216
 5117 031e 4444     		add	r4, r4, r8
 5118              	.LVL407:
 5119              	.L352:
 239:../../DaisyExamples/libDaisy//src/hid/disp/display.h ****         {
 5120              		.loc 8 239 26 is_stmt 1 view .LVU1217
 5121 0320 9942     		cmp	r1, r3
 5122 0322 DED1     		bne	.L347
 239:../../DaisyExamples/libDaisy//src/hid/disp/display.h ****         {
 5123              		.loc 8 239 26 is_stmt 0 view .LVU1218
 5124 0324 A242     		cmp	r2, r4
 5125 0326 DCD1     		bne	.L347
 5126              	.LBE1288:
 5127              	.LBE1287:
 5128              	.LBE1340:
 281:../../DaisyExamples/libDaisy//src/hid/disp/display.h **** 
 5129              		.loc 8 281 5 view .LVU1219
 5130 0328 07B0     		add	sp, sp, #28
 5131              		.cfi_remember_state
 5132              		.cfi_def_cfa_offset 36
 5133              		@ sp needed
 5134 032a BDE8F08F 		pop	{r4, r5, r6, r7, r8, r9, r10, fp, pc}
 5135              	.LVL408:
 5136              	.L312:
 5137              		.cfi_restore_state
 5138              	.LBB1341:
 5139              	.LBB1307:
 5140              	.LBB1224:
 5141              	.LBB1220:
  42:../../DaisyExamples/libDaisy//src/hid/disp/oled_display.h ****     {
 5142              		.loc 6 42 10 is_stmt 1 view .LVU1220
 5143              	.LBB1209:
 352:../../DaisyExamples/libDaisy//src/dev/oled_ssd130x.h ****     {
 5144              		.loc 7 352 10 view .LVU1221
 5145              	.LBB1205:
 354:../../DaisyExamples/libDaisy//src/dev/oled_ssd130x.h ****             return;
 5146              		.loc 7 354 28 is_stmt 0 view .LVU1222
 5147 032e 1F2A     		cmp	r2, #31
 5148              	.LBE1205:
ARM GAS  /var/folders/hp/45mn71hd0ps5f5pnytxy5bt00000gn/T//ccdvmoSj.s 			page 145


 5149              	.LBE1209:
 5150              	.LBE1220:
 229:../../DaisyExamples/libDaisy//src/hid/disp/display.h ****         int_fast16_t signY  = ((y1 < y2) ? 1 : -1);
 5151              		.loc 8 229 42 view .LVU1223
 5152 0330 4FF0010A 		mov	r10, #1
 5153              	.LBB1221:
 5154              	.LBB1210:
 5155              	.LBB1206:
 354:../../DaisyExamples/libDaisy//src/dev/oled_ssd130x.h ****             return;
 5156              		.loc 7 354 28 view .LVU1224
 5157 0334 94BF     		ite	ls
 5158 0336 0026     		movls	r6, #0
 5159 0338 0126     		movhi	r6, #1
 354:../../DaisyExamples/libDaisy//src/dev/oled_ssd130x.h ****             return;
 5160              		.loc 7 354 14 view .LVU1225
 5161 033a 7F2B     		cmp	r3, #127
 354:../../DaisyExamples/libDaisy//src/dev/oled_ssd130x.h ****             return;
 5162              		.loc 7 354 28 view .LVU1226
 5163 033c 0296     		str	r6, [sp, #8]
 354:../../DaisyExamples/libDaisy//src/dev/oled_ssd130x.h ****             return;
 5164              		.loc 7 354 14 view .LVU1227
 5165 033e 94BF     		ite	ls
 5166 0340 0027     		movls	r7, #0
 5167 0342 0127     		movhi	r7, #1
 5168 0344 0097     		str	r7, [sp]
 354:../../DaisyExamples/libDaisy//src/dev/oled_ssd130x.h ****             return;
 5169              		.loc 7 354 9 view .LVU1228
 5170 0346 002E     		cmp	r6, #0
 5171 0348 7FF4C8AE 		bne	.L316
 5172 034c 002F     		cmp	r7, #0
 5173 034e 3FF4AEAE 		beq	.L354
 5174 0352 C3E6     		b	.L316
 5175              	.LVL409:
 5176              	.L341:
 354:../../DaisyExamples/libDaisy//src/dev/oled_ssd130x.h ****             return;
 5177              		.loc 7 354 9 view .LVU1229
 5178              	.LBE1206:
 5179              	.LBE1210:
 5180              	.LBE1221:
 5181              	.LBE1224:
 5182              	.LBE1307:
 5183              	.LBB1308:
 5184              	.LBB1285:
 5185              	.LBB1283:
 5186              	.LBB1282:
 5187              	.LBB1281:
 5188              	.LBB1279:
 5189              	.LBI1279:
 352:../../DaisyExamples/libDaisy//src/dev/oled_ssd130x.h ****     {
 5190              		.loc 7 352 10 is_stmt 1 view .LVU1230
 5191              	.LBB1280:
 359:../../DaisyExamples/libDaisy//src/dev/oled_ssd130x.h ****     }
 5192              		.loc 7 359 49 is_stmt 0 view .LVU1231
 5193 0354 08FA0BFB 		lsl	fp, r8, fp
 359:../../DaisyExamples/libDaisy//src/dev/oled_ssd130x.h ****     }
 5194              		.loc 7 359 42 view .LVU1232
 5195 0358 9CF81080 		ldrb	r8, [ip, #16]	@ zero_extendqisi2
ARM GAS  /var/folders/hp/45mn71hd0ps5f5pnytxy5bt00000gn/T//ccdvmoSj.s 			page 146


 5196 035c 28EA0B08 		bic	r8, r8, fp
 5197 0360 8CF81080 		strb	r8, [ip, #16]
 5198 0364 8AE7     		b	.L340
 5199              	.LVL410:
 5200              	.L350:
 359:../../DaisyExamples/libDaisy//src/dev/oled_ssd130x.h ****     }
 5201              		.loc 7 359 42 view .LVU1233
 5202              	.LBE1280:
 5203              	.LBE1279:
 5204              	.LBE1281:
 5205              	.LBE1282:
 5206              	.LBE1283:
 5207              	.LBE1285:
 5208              	.LBE1308:
 5209              	.LBB1309:
 5210              	.LBB1305:
 5211              	.LBB1303:
 5212              	.LBB1302:
 5213              	.LBB1301:
 5214              	.LBB1299:
 5215              	.LBI1299:
 352:../../DaisyExamples/libDaisy//src/dev/oled_ssd130x.h ****     {
 5216              		.loc 7 352 10 is_stmt 1 view .LVU1234
 5217              	.LBB1300:
 359:../../DaisyExamples/libDaisy//src/dev/oled_ssd130x.h ****     }
 5218              		.loc 7 359 49 is_stmt 0 view .LVU1235
 5219 0366 09FA0AFA 		lsl	r10, r9, r10
 359:../../DaisyExamples/libDaisy//src/dev/oled_ssd130x.h ****     }
 5220              		.loc 7 359 42 view .LVU1236
 5221 036a 97F81090 		ldrb	r9, [r7, #16]	@ zero_extendqisi2
 5222 036e 29EA0A09 		bic	r9, r9, r10
 5223 0372 87F81090 		strb	r9, [r7, #16]
 5224 0376 C9E7     		b	.L349
 5225              	.LVL411:
 5226              	.L320:
 359:../../DaisyExamples/libDaisy//src/dev/oled_ssd130x.h ****     }
 5227              		.loc 7 359 42 view .LVU1237
 5228              	.LBE1300:
 5229              	.LBE1299:
 5230              	.LBE1301:
 5231              	.LBE1302:
 5232              	.LBE1303:
 5233              	.LBE1305:
 5234              	.LBE1309:
 5235              	.LBB1310:
 5236              	.LBB1225:
 5237              	.LBB1222:
 5238              	.LBB1219:
 5239              	.LBB1218:
 5240              	.LBB1216:
 5241              	.LBI1216:
 352:../../DaisyExamples/libDaisy//src/dev/oled_ssd130x.h ****     {
 5242              		.loc 7 352 10 is_stmt 1 view .LVU1238
 5243              	.LBB1217:
 359:../../DaisyExamples/libDaisy//src/dev/oled_ssd130x.h ****     }
 5244              		.loc 7 359 49 is_stmt 0 view .LVU1239
 5245 0378 09FA0BFB 		lsl	fp, r9, fp
ARM GAS  /var/folders/hp/45mn71hd0ps5f5pnytxy5bt00000gn/T//ccdvmoSj.s 			page 147


 359:../../DaisyExamples/libDaisy//src/dev/oled_ssd130x.h ****     }
 5246              		.loc 7 359 42 view .LVU1240
 5247 037c 97F81090 		ldrb	r9, [r7, #16]	@ zero_extendqisi2
 5248 0380 29EA0B09 		bic	r9, r9, fp
 5249 0384 87F81090 		strb	r9, [r7, #16]
 5250 0388 C5E6     		b	.L319
 5251              	.LVL412:
 5252              	.L331:
 359:../../DaisyExamples/libDaisy//src/dev/oled_ssd130x.h ****     }
 5253              		.loc 7 359 42 view .LVU1241
 5254              	.LBE1217:
 5255              	.LBE1216:
 5256              	.LBE1218:
 5257              	.LBE1219:
 5258              	.LBE1222:
 5259              	.LBE1225:
 5260              	.LBE1310:
 5261              	.LBB1311:
 5262              	.LBB1261:
 5263              	.LBB1258:
 5264              	.LBB1257:
 5265              	.LBB1256:
 5266              	.LBB1254:
 5267              	.LBI1254:
 352:../../DaisyExamples/libDaisy//src/dev/oled_ssd130x.h ****     {
 5268              		.loc 7 352 10 is_stmt 1 view .LVU1242
 5269              	.LBB1255:
 359:../../DaisyExamples/libDaisy//src/dev/oled_ssd130x.h ****     }
 5270              		.loc 7 359 49 is_stmt 0 view .LVU1243
 5271 038a 0AFA0BFB 		lsl	fp, r10, fp
 359:../../DaisyExamples/libDaisy//src/dev/oled_ssd130x.h ****     }
 5272              		.loc 7 359 42 view .LVU1244
 5273 038e 9EF810A0 		ldrb	r10, [lr, #16]	@ zero_extendqisi2
 5274 0392 2AEA0B0A 		bic	r10, r10, fp
 5275 0396 8EF810A0 		strb	r10, [lr, #16]
 5276 039a 18E7     		b	.L330
 5277              	.LVL413:
 5278              	.L323:
 359:../../DaisyExamples/libDaisy//src/dev/oled_ssd130x.h ****     }
 5279              		.loc 7 359 42 view .LVU1245
 5280              	.LBE1255:
 5281              	.LBE1254:
 5282              	.LBE1256:
 5283              	.LBE1257:
 5284              	.LBE1258:
 5285              	.LBB1259:
 5286              	.LBB1245:
 5287              	.LBB1239:
 354:../../DaisyExamples/libDaisy//src/dev/oled_ssd130x.h ****             return;
 5288              		.loc 7 354 9 view .LVU1246
 5289 039c 97BB     		cbnz	r7, .L362
 5290 039e 8EBB     		cbnz	r6, .L362
 5291              	.LBE1239:
 5292              	.LBE1245:
 5293              	.LBE1259:
 230:../../DaisyExamples/libDaisy//src/hid/disp/display.h ****         int_fast16_t error  = deltaX - deltaY;
 5294              		.loc 8 230 42 view .LVU1247
ARM GAS  /var/folders/hp/45mn71hd0ps5f5pnytxy5bt00000gn/T//ccdvmoSj.s 			page 148


 5295 03a0 0126     		movs	r6, #1
 5296 03a2 0096     		str	r6, [sp]
 5297              	.LBB1260:
 5298              	.LBB1246:
 5299              	.LBB1240:
 357:../../DaisyExamples/libDaisy//src/dev/oled_ssd130x.h ****         else
 5300              		.loc 7 357 28 view .LVU1248
 5301 03a4 E608     		lsrs	r6, r4, #3
 357:../../DaisyExamples/libDaisy//src/dev/oled_ssd130x.h ****         else
 5302              		.loc 7 357 42 view .LVU1249
 5303 03a6 03EBC616 		add	r6, r3, r6, lsl #7
 5304 03aa 0644     		add	r6, r6, r0
 356:../../DaisyExamples/libDaisy//src/dev/oled_ssd130x.h ****             buffer_[x + (y / 8) * width] |= (1 << (y % 8));
 5305              		.loc 7 356 9 view .LVU1250
 5306 03ac 002D     		cmp	r5, #0
 5307 03ae 7FF4E2AE 		bne	.L397
 5308              	.LVL414:
 5309              	.L325:
 5310              	.LBB1233:
 5311              	.LBI1233:
 352:../../DaisyExamples/libDaisy//src/dev/oled_ssd130x.h ****     {
 5312              		.loc 7 352 10 is_stmt 1 view .LVU1251
 5313              	.LBB1234:
 359:../../DaisyExamples/libDaisy//src/dev/oled_ssd130x.h ****     }
 5314              		.loc 7 359 49 is_stmt 0 view .LVU1252
 5315 03b2 0127     		movs	r7, #1
 359:../../DaisyExamples/libDaisy//src/dev/oled_ssd130x.h ****     }
 5316              		.loc 7 359 55 view .LVU1253
 5317 03b4 04F0070C 		and	ip, r4, #7
 359:../../DaisyExamples/libDaisy//src/dev/oled_ssd130x.h ****     }
 5318              		.loc 7 359 42 view .LVU1254
 5319 03b8 0395     		str	r5, [sp, #12]
 359:../../DaisyExamples/libDaisy//src/dev/oled_ssd130x.h ****     }
 5320              		.loc 7 359 49 view .LVU1255
 5321 03ba 07FA0CFC 		lsl	ip, r7, ip
 359:../../DaisyExamples/libDaisy//src/dev/oled_ssd130x.h ****     }
 5322              		.loc 7 359 42 view .LVU1256
 5323 03be 377C     		ldrb	r7, [r6, #16]	@ zero_extendqisi2
 5324 03c0 27EA0C07 		bic	r7, r7, ip
 5325 03c4 3774     		strb	r7, [r6, #16]
 5326 03c6 E3E6     		b	.L324
 5327              	.LVL415:
 5328              	.L346:
 359:../../DaisyExamples/libDaisy//src/dev/oled_ssd130x.h ****     }
 5329              		.loc 7 359 42 view .LVU1257
 5330              	.LBE1234:
 5331              	.LBE1233:
 5332              	.LBE1240:
 5333              	.LBE1246:
 5334              	.LBE1260:
 5335              	.LBE1261:
 5336              	.LBE1311:
 5337              	.LBB1312:
 5338              	.LBB1306:
 5339              	.LBB1304:
 5340              	.LBB1295:
 5341              	.LBB1294:
ARM GAS  /var/folders/hp/45mn71hd0ps5f5pnytxy5bt00000gn/T//ccdvmoSj.s 			page 149


 5342              	.LBB1292:
 5343              	.LBI1292:
 352:../../DaisyExamples/libDaisy//src/dev/oled_ssd130x.h ****     {
 5344              		.loc 7 352 10 is_stmt 1 view .LVU1258
 5345              	.LBB1293:
 359:../../DaisyExamples/libDaisy//src/dev/oled_ssd130x.h ****     }
 5346              		.loc 7 359 49 is_stmt 0 view .LVU1259
 5347 03c8 06FA07F7 		lsl	r7, r6, r7
 359:../../DaisyExamples/libDaisy//src/dev/oled_ssd130x.h ****     }
 5348              		.loc 7 359 42 view .LVU1260
 5349 03cc 1E7C     		ldrb	r6, [r3, #16]	@ zero_extendqisi2
 5350 03ce 26EA0706 		bic	r6, r6, r7
 5351 03d2 1E74     		strb	r6, [r3, #16]
 5352 03d4 7FE7     		b	.L345
 5353              	.LVL416:
 5354              	.L336:
 359:../../DaisyExamples/libDaisy//src/dev/oled_ssd130x.h ****     }
 5355              		.loc 7 359 42 view .LVU1261
 5356              	.LBE1293:
 5357              	.LBE1292:
 5358              	.LBE1294:
 5359              	.LBE1295:
 5360              	.LBE1304:
 5361              	.LBE1306:
 5362              	.LBE1312:
 5363              	.LBB1313:
 5364              	.LBB1286:
 5365              	.LBB1284:
 5366              	.LBB1274:
 5367              	.LBB1272:
 5368              	.LBB1269:
 5369              	.LBI1269:
 352:../../DaisyExamples/libDaisy//src/dev/oled_ssd130x.h ****     {
 5370              		.loc 7 352 10 is_stmt 1 view .LVU1262
 5371              	.LBB1270:
 359:../../DaisyExamples/libDaisy//src/dev/oled_ssd130x.h ****     }
 5372              		.loc 7 359 49 is_stmt 0 view .LVU1263
 5373 03d6 0127     		movs	r7, #1
 359:../../DaisyExamples/libDaisy//src/dev/oled_ssd130x.h ****     }
 5374              		.loc 7 359 55 view .LVU1264
 5375 03d8 04F0070C 		and	ip, r4, #7
 359:../../DaisyExamples/libDaisy//src/dev/oled_ssd130x.h ****     }
 5376              		.loc 7 359 49 view .LVU1265
 5377 03dc 07FA0CFC 		lsl	ip, r7, ip
 359:../../DaisyExamples/libDaisy//src/dev/oled_ssd130x.h ****     }
 5378              		.loc 7 359 42 view .LVU1266
 5379 03e0 377C     		ldrb	r7, [r6, #16]	@ zero_extendqisi2
 5380 03e2 27EA0C07 		bic	r7, r7, ip
 5381 03e6 3774     		strb	r7, [r6, #16]
 5382 03e8 2DE7     		b	.L335
 5383              	.LVL417:
 5384              	.L314:
 359:../../DaisyExamples/libDaisy//src/dev/oled_ssd130x.h ****     }
 5385              		.loc 7 359 42 view .LVU1267
 5386              	.LBE1270:
 5387              	.LBE1269:
 5388              	.LBE1272:
ARM GAS  /var/folders/hp/45mn71hd0ps5f5pnytxy5bt00000gn/T//ccdvmoSj.s 			page 150


 5389              	.LBE1274:
 5390              	.LBE1284:
 5391              	.LBE1286:
 5392              	.LBE1313:
 5393              	.LBB1314:
 5394              	.LBB1226:
 5395              	.LBB1223:
 5396              	.LBB1211:
 5397              	.LBB1207:
 5398              	.LBB1202:
 5399              	.LBI1202:
 352:../../DaisyExamples/libDaisy//src/dev/oled_ssd130x.h ****     {
 5400              		.loc 7 352 10 is_stmt 1 view .LVU1268
 5401              	.LBB1203:
 359:../../DaisyExamples/libDaisy//src/dev/oled_ssd130x.h ****     }
 5402              		.loc 7 359 49 is_stmt 0 view .LVU1269
 5403 03ea 07FA0CFC 		lsl	ip, r7, ip
 359:../../DaisyExamples/libDaisy//src/dev/oled_ssd130x.h ****     }
 5404              		.loc 7 359 42 view .LVU1270
 5405 03ee 377C     		ldrb	r7, [r6, #16]	@ zero_extendqisi2
 5406 03f0 0295     		str	r5, [sp, #8]
 5407 03f2 27EA0C07 		bic	r7, r7, ip
 5408 03f6 0095     		str	r5, [sp]
 5409 03f8 3774     		strb	r7, [r6, #16]
 5410 03fa 6CE6     		b	.L313
 5411              	.LVL418:
 5412              	.L358:
 359:../../DaisyExamples/libDaisy//src/dev/oled_ssd130x.h ****     }
 5413              		.loc 7 359 42 view .LVU1271
 5414              	.LBE1203:
 5415              	.LBE1202:
 5416              	.LBE1207:
 5417              	.LBE1211:
 5418              	.LBE1223:
 5419              	.LBE1226:
 5420              	.LBE1314:
 5421              	.LBB1315:
 5422              	.LBB1262:
 230:../../DaisyExamples/libDaisy//src/hid/disp/display.h ****         int_fast16_t error  = deltaX - deltaY;
 5423              		.loc 8 230 42 view .LVU1272
 5424 03fc 4FF0FF36 		mov	r6, #-1
 5425 0400 0096     		str	r6, [sp]
 5426 0402 C5E6     		b	.L324
 5427              	.LVL419:
 5428              	.L362:
 230:../../DaisyExamples/libDaisy//src/hid/disp/display.h ****         int_fast16_t error  = deltaX - deltaY;
 5429              		.loc 8 230 42 view .LVU1273
 5430 0404 0126     		movs	r6, #1
 5431 0406 0096     		str	r6, [sp]
 5432 0408 C5E6     		b	.L327
 5433              	.LVL420:
 5434              	.L395:
 230:../../DaisyExamples/libDaisy//src/hid/disp/display.h ****         int_fast16_t error  = deltaX - deltaY;
 5435              		.loc 8 230 42 view .LVU1274
 5436              	.LBE1262:
 5437              	.LBE1315:
 5438              	.LBB1316:
ARM GAS  /var/folders/hp/45mn71hd0ps5f5pnytxy5bt00000gn/T//ccdvmoSj.s 			page 151


 5439              	.LBB1227:
 239:../../DaisyExamples/libDaisy//src/hid/disp/display.h ****         {
 5440              		.loc 8 239 19 view .LVU1275
 5441 040a 0126     		movs	r6, #1
 5442 040c 0496     		str	r6, [sp, #16]
 5443 040e 90E6     		b	.L315
 5444              	.LVL421:
 5445              	.L396:
 239:../../DaisyExamples/libDaisy//src/hid/disp/display.h ****         {
 5446              		.loc 8 239 19 view .LVU1276
 5447              	.LBE1227:
 5448              	.LBE1316:
 5449              	.LBB1317:
 5450              	.LBB1263:
 239:../../DaisyExamples/libDaisy//src/hid/disp/display.h ****         {
 5451              		.loc 8 239 33 view .LVU1277
 5452 0410 0126     		movs	r6, #1
 5453 0412 0196     		str	r6, [sp, #4]
 5454 0414 EDE6     		b	.L326
 5455              	.LBE1263:
 5456              	.LBE1317:
 5457              	.LBE1341:
 5458              		.cfi_endproc
 5459              	.LFE2675:
 5461 0416 00BF     		.section	.text._ZN5daisy13SSD130xDriverILj128ELj32ENS_19SSD130xI2CTransportEE4InitENS2_6ConfigE,"a
 5462              		.align	1
 5463              		.p2align 2,,3
 5464              		.weak	_ZN5daisy13SSD130xDriverILj128ELj32ENS_19SSD130xI2CTransportEE4InitENS2_6ConfigE
 5465              		.syntax unified
 5466              		.thumb
 5467              		.thumb_func
 5469              	_ZN5daisy13SSD130xDriverILj128ELj32ENS_19SSD130xI2CTransportEE4InitENS2_6ConfigE:
 5470              	.LVL422:
 5471              	.LFB2656:
 253:../../DaisyExamples/libDaisy//src/dev/oled_ssd130x.h ****     {
 5472              		.loc 7 253 10 is_stmt 1 view -0
 5473              		.cfi_startproc
 5474              		@ args = 28, pretend = 16, frame = 8
 5475              		@ frame_needed = 0, uses_anonymous_args = 0
 253:../../DaisyExamples/libDaisy//src/dev/oled_ssd130x.h ****     {
 5476              		.loc 7 253 10 is_stmt 0 view .LVU1279
 5477 0000 84B0     		sub	sp, sp, #16
 5478              		.cfi_def_cfa_offset 16
 5479 0002 F0B5     		push	{r4, r5, r6, r7, lr}
 5480              		.cfi_def_cfa_offset 36
 5481              		.cfi_offset 4, -36
 5482              		.cfi_offset 5, -32
 5483              		.cfi_offset 6, -28
 5484              		.cfi_offset 7, -24
 5485              		.cfi_offset 14, -20
 5486 0004 85B0     		sub	sp, sp, #20
 5487              		.cfi_def_cfa_offset 56
 253:../../DaisyExamples/libDaisy//src/dev/oled_ssd130x.h ****     {
 5488              		.loc 7 253 10 view .LVU1280
 5489 0006 0446     		mov	r4, r0
 5490              	.LVL423:
 5491              	.LBB1390:
ARM GAS  /var/folders/hp/45mn71hd0ps5f5pnytxy5bt00000gn/T//ccdvmoSj.s 			page 152


 5492              	.LBI1390:
  37:../../DaisyExamples/libDaisy//src/dev/oled_ssd130x.h ****     {
 5493              		.loc 7 37 10 is_stmt 1 view .LVU1281
 5494              	.LBB1391:
  39:../../DaisyExamples/libDaisy//src/dev/oled_ssd130x.h ****         i2c_.Init(config.i2c_config);
 5495              		.loc 7 39 9 view .LVU1282
 5496              	.LBE1391:
 5497              	.LBE1390:
 5498              	.LBB1394:
 5499              	.LBB1395:
  45:../../DaisyExamples/libDaisy//src/dev/oled_ssd130x.h ****     };
 5500              		.loc 7 45 30 is_stmt 0 view .LVU1283
 5501 0008 4FF47A76 		mov	r6, #1000
 5502              	.LBE1395:
 5503              	.LBE1394:
 253:../../DaisyExamples/libDaisy//src/dev/oled_ssd130x.h ****     {
 5504              		.loc 7 253 10 view .LVU1284
 5505 000c 0BAD     		add	r5, sp, #44
 5506 000e 85E80E00 		stm	r5, {r1, r2, r3}
 5507              	.LBB1398:
 5508              	.LBB1392:
  39:../../DaisyExamples/libDaisy//src/dev/oled_ssd130x.h ****         i2c_.Init(config.i2c_config);
 5509              		.loc 7 39 22 view .LVU1285
 5510 0012 9DF84030 		ldrb	r3, [sp, #64]	@ zero_extendqisi2
  40:../../DaisyExamples/libDaisy//src/dev/oled_ssd130x.h ****     };
 5511              		.loc 7 40 18 view .LVU1286
 5512 0016 2946     		mov	r1, r5
 5513              	.LBE1392:
 5514              	.LBE1398:
 5515              	.LBB1399:
 5516              	.LBB1396:
  44:../../DaisyExamples/libDaisy//src/dev/oled_ssd130x.h ****         i2c_.TransmitBlocking(i2c_address_, buf, 2, 1000);
 5517              		.loc 7 44 17 view .LVU1287
 5518 0018 0025     		movs	r5, #0
 5519              	.LBE1396:
 5520              	.LBE1399:
 5521              	.LBB1400:
 5522              	.LBB1393:
  39:../../DaisyExamples/libDaisy//src/dev/oled_ssd130x.h ****         i2c_.Init(config.i2c_config);
 5523              		.loc 7 39 22 view .LVU1288
 5524 001a 0371     		strb	r3, [r0, #4]
  40:../../DaisyExamples/libDaisy//src/dev/oled_ssd130x.h ****     };
 5525              		.loc 7 40 9 is_stmt 1 view .LVU1289
  40:../../DaisyExamples/libDaisy//src/dev/oled_ssd130x.h ****     };
 5526              		.loc 7 40 18 is_stmt 0 view .LVU1290
 5527 001c FFF7FEFF 		bl	_ZN5daisy9I2CHandle4InitERKNS0_6ConfigE
 5528              	.LVL424:
  40:../../DaisyExamples/libDaisy//src/dev/oled_ssd130x.h ****     };
 5529              		.loc 7 40 18 view .LVU1291
 5530              	.LBE1393:
 5531              	.LBE1400:
 5532              	.LBB1401:
 5533              	.LBI1394:
  42:../../DaisyExamples/libDaisy//src/dev/oled_ssd130x.h ****     {
 5534              		.loc 7 42 10 is_stmt 1 view .LVU1292
 5535              	.LBB1397:
  44:../../DaisyExamples/libDaisy//src/dev/oled_ssd130x.h ****         i2c_.TransmitBlocking(i2c_address_, buf, 2, 1000);
ARM GAS  /var/folders/hp/45mn71hd0ps5f5pnytxy5bt00000gn/T//ccdvmoSj.s 			page 153


 5536              		.loc 7 44 9 view .LVU1293
  44:../../DaisyExamples/libDaisy//src/dev/oled_ssd130x.h ****         i2c_.TransmitBlocking(i2c_address_, buf, 2, 1000);
 5537              		.loc 7 44 36 is_stmt 0 view .LVU1294
 5538 0020 AE23     		movs	r3, #174
  45:../../DaisyExamples/libDaisy//src/dev/oled_ssd130x.h ****     };
 5539              		.loc 7 45 30 view .LVU1295
 5540 0022 03AA     		add	r2, sp, #12
 5541 0024 0096     		str	r6, [sp]
  44:../../DaisyExamples/libDaisy//src/dev/oled_ssd130x.h ****         i2c_.TransmitBlocking(i2c_address_, buf, 2, 1000);
 5542              		.loc 7 44 36 view .LVU1296
 5543 0026 8DF80D30 		strb	r3, [sp, #13]
  45:../../DaisyExamples/libDaisy//src/dev/oled_ssd130x.h ****     };
 5544              		.loc 7 45 9 is_stmt 1 view .LVU1297
  45:../../DaisyExamples/libDaisy//src/dev/oled_ssd130x.h ****     };
 5545              		.loc 7 45 30 is_stmt 0 view .LVU1298
 5546 002a 2046     		mov	r0, r4
 5547 002c 2179     		ldrb	r1, [r4, #4]	@ zero_extendqisi2
 5548 002e 0223     		movs	r3, #2
  44:../../DaisyExamples/libDaisy//src/dev/oled_ssd130x.h ****         i2c_.TransmitBlocking(i2c_address_, buf, 2, 1000);
 5549              		.loc 7 44 17 view .LVU1299
 5550 0030 8DF80C50 		strb	r5, [sp, #12]
  45:../../DaisyExamples/libDaisy//src/dev/oled_ssd130x.h ****     };
 5551              		.loc 7 45 30 view .LVU1300
 5552 0034 FFF7FEFF 		bl	_ZN5daisy9I2CHandle16TransmitBlockingEtPhtm
 5553              	.LVL425:
  45:../../DaisyExamples/libDaisy//src/dev/oled_ssd130x.h ****     };
 5554              		.loc 7 45 30 view .LVU1301
 5555              	.LBE1397:
 5556              	.LBE1401:
 5557              	.LBB1402:
 5558              	.LBI1402:
  42:../../DaisyExamples/libDaisy//src/dev/oled_ssd130x.h ****     {
 5559              		.loc 7 42 10 is_stmt 1 view .LVU1302
 5560              	.LBB1403:
  44:../../DaisyExamples/libDaisy//src/dev/oled_ssd130x.h ****         i2c_.TransmitBlocking(i2c_address_, buf, 2, 1000);
 5561              		.loc 7 44 9 view .LVU1303
  44:../../DaisyExamples/libDaisy//src/dev/oled_ssd130x.h ****         i2c_.TransmitBlocking(i2c_address_, buf, 2, 1000);
 5562              		.loc 7 44 36 is_stmt 0 view .LVU1304
 5563 0038 D523     		movs	r3, #213
  45:../../DaisyExamples/libDaisy//src/dev/oled_ssd130x.h ****     };
 5564              		.loc 7 45 30 view .LVU1305
 5565 003a 03AA     		add	r2, sp, #12
 5566 003c 0096     		str	r6, [sp]
 5567 003e 2046     		mov	r0, r4
 5568 0040 2179     		ldrb	r1, [r4, #4]	@ zero_extendqisi2
  44:../../DaisyExamples/libDaisy//src/dev/oled_ssd130x.h ****         i2c_.TransmitBlocking(i2c_address_, buf, 2, 1000);
 5569              		.loc 7 44 36 view .LVU1306
 5570 0042 8DF80D30 		strb	r3, [sp, #13]
  45:../../DaisyExamples/libDaisy//src/dev/oled_ssd130x.h ****     };
 5571              		.loc 7 45 9 is_stmt 1 view .LVU1307
  45:../../DaisyExamples/libDaisy//src/dev/oled_ssd130x.h ****     };
 5572              		.loc 7 45 30 is_stmt 0 view .LVU1308
 5573 0046 0223     		movs	r3, #2
  44:../../DaisyExamples/libDaisy//src/dev/oled_ssd130x.h ****         i2c_.TransmitBlocking(i2c_address_, buf, 2, 1000);
 5574              		.loc 7 44 17 view .LVU1309
 5575 0048 8DF80C50 		strb	r5, [sp, #12]
  45:../../DaisyExamples/libDaisy//src/dev/oled_ssd130x.h ****     };
ARM GAS  /var/folders/hp/45mn71hd0ps5f5pnytxy5bt00000gn/T//ccdvmoSj.s 			page 154


 5576              		.loc 7 45 30 view .LVU1310
 5577 004c FFF7FEFF 		bl	_ZN5daisy9I2CHandle16TransmitBlockingEtPhtm
 5578              	.LVL426:
  45:../../DaisyExamples/libDaisy//src/dev/oled_ssd130x.h ****     };
 5579              		.loc 7 45 30 view .LVU1311
 5580              	.LBE1403:
 5581              	.LBE1402:
 5582              	.LBB1404:
 5583              	.LBI1404:
  42:../../DaisyExamples/libDaisy//src/dev/oled_ssd130x.h ****     {
 5584              		.loc 7 42 10 is_stmt 1 view .LVU1312
 5585              	.LBB1405:
  44:../../DaisyExamples/libDaisy//src/dev/oled_ssd130x.h ****         i2c_.TransmitBlocking(i2c_address_, buf, 2, 1000);
 5586              		.loc 7 44 9 view .LVU1313
  44:../../DaisyExamples/libDaisy//src/dev/oled_ssd130x.h ****         i2c_.TransmitBlocking(i2c_address_, buf, 2, 1000);
 5587              		.loc 7 44 36 is_stmt 0 view .LVU1314
 5588 0050 8023     		movs	r3, #128
  45:../../DaisyExamples/libDaisy//src/dev/oled_ssd130x.h ****     };
 5589              		.loc 7 45 30 view .LVU1315
 5590 0052 03AA     		add	r2, sp, #12
 5591 0054 0096     		str	r6, [sp]
 5592 0056 2046     		mov	r0, r4
 5593 0058 2179     		ldrb	r1, [r4, #4]	@ zero_extendqisi2
  44:../../DaisyExamples/libDaisy//src/dev/oled_ssd130x.h ****         i2c_.TransmitBlocking(i2c_address_, buf, 2, 1000);
 5594              		.loc 7 44 36 view .LVU1316
 5595 005a 8DF80D30 		strb	r3, [sp, #13]
  45:../../DaisyExamples/libDaisy//src/dev/oled_ssd130x.h ****     };
 5596              		.loc 7 45 9 is_stmt 1 view .LVU1317
  45:../../DaisyExamples/libDaisy//src/dev/oled_ssd130x.h ****     };
 5597              		.loc 7 45 30 is_stmt 0 view .LVU1318
 5598 005e 0223     		movs	r3, #2
  44:../../DaisyExamples/libDaisy//src/dev/oled_ssd130x.h ****         i2c_.TransmitBlocking(i2c_address_, buf, 2, 1000);
 5599              		.loc 7 44 17 view .LVU1319
 5600 0060 8DF80C50 		strb	r5, [sp, #12]
  45:../../DaisyExamples/libDaisy//src/dev/oled_ssd130x.h ****     };
 5601              		.loc 7 45 30 view .LVU1320
 5602 0064 FFF7FEFF 		bl	_ZN5daisy9I2CHandle16TransmitBlockingEtPhtm
 5603              	.LVL427:
  45:../../DaisyExamples/libDaisy//src/dev/oled_ssd130x.h ****     };
 5604              		.loc 7 45 30 view .LVU1321
 5605              	.LBE1405:
 5606              	.LBE1404:
 5607              	.LBB1406:
 5608              	.LBI1406:
  42:../../DaisyExamples/libDaisy//src/dev/oled_ssd130x.h ****     {
 5609              		.loc 7 42 10 is_stmt 1 view .LVU1322
 5610              	.LBB1407:
  44:../../DaisyExamples/libDaisy//src/dev/oled_ssd130x.h ****         i2c_.TransmitBlocking(i2c_address_, buf, 2, 1000);
 5611              		.loc 7 44 9 view .LVU1323
  44:../../DaisyExamples/libDaisy//src/dev/oled_ssd130x.h ****         i2c_.TransmitBlocking(i2c_address_, buf, 2, 1000);
 5612              		.loc 7 44 36 is_stmt 0 view .LVU1324
 5613 0068 A823     		movs	r3, #168
  45:../../DaisyExamples/libDaisy//src/dev/oled_ssd130x.h ****     };
 5614              		.loc 7 45 30 view .LVU1325
 5615 006a 03AA     		add	r2, sp, #12
 5616 006c 0096     		str	r6, [sp]
 5617 006e 2046     		mov	r0, r4
ARM GAS  /var/folders/hp/45mn71hd0ps5f5pnytxy5bt00000gn/T//ccdvmoSj.s 			page 155


 5618 0070 2179     		ldrb	r1, [r4, #4]	@ zero_extendqisi2
  44:../../DaisyExamples/libDaisy//src/dev/oled_ssd130x.h ****         i2c_.TransmitBlocking(i2c_address_, buf, 2, 1000);
 5619              		.loc 7 44 36 view .LVU1326
 5620 0072 8DF80D30 		strb	r3, [sp, #13]
  45:../../DaisyExamples/libDaisy//src/dev/oled_ssd130x.h ****     };
 5621              		.loc 7 45 9 is_stmt 1 view .LVU1327
  45:../../DaisyExamples/libDaisy//src/dev/oled_ssd130x.h ****     };
 5622              		.loc 7 45 30 is_stmt 0 view .LVU1328
 5623 0076 0223     		movs	r3, #2
  44:../../DaisyExamples/libDaisy//src/dev/oled_ssd130x.h ****         i2c_.TransmitBlocking(i2c_address_, buf, 2, 1000);
 5624              		.loc 7 44 17 view .LVU1329
 5625 0078 8DF80C50 		strb	r5, [sp, #12]
  45:../../DaisyExamples/libDaisy//src/dev/oled_ssd130x.h ****     };
 5626              		.loc 7 45 30 view .LVU1330
 5627 007c FFF7FEFF 		bl	_ZN5daisy9I2CHandle16TransmitBlockingEtPhtm
 5628              	.LVL428:
  45:../../DaisyExamples/libDaisy//src/dev/oled_ssd130x.h ****     };
 5629              		.loc 7 45 30 view .LVU1331
 5630              	.LBE1407:
 5631              	.LBE1406:
 5632              	.LBB1408:
 5633              	.LBI1408:
  42:../../DaisyExamples/libDaisy//src/dev/oled_ssd130x.h ****     {
 5634              		.loc 7 42 10 is_stmt 1 view .LVU1332
 5635              	.LBB1409:
  44:../../DaisyExamples/libDaisy//src/dev/oled_ssd130x.h ****         i2c_.TransmitBlocking(i2c_address_, buf, 2, 1000);
 5636              		.loc 7 44 9 view .LVU1333
  44:../../DaisyExamples/libDaisy//src/dev/oled_ssd130x.h ****         i2c_.TransmitBlocking(i2c_address_, buf, 2, 1000);
 5637              		.loc 7 44 36 is_stmt 0 view .LVU1334
 5638 0080 1F23     		movs	r3, #31
  45:../../DaisyExamples/libDaisy//src/dev/oled_ssd130x.h ****     };
 5639              		.loc 7 45 30 view .LVU1335
 5640 0082 03AA     		add	r2, sp, #12
 5641 0084 0096     		str	r6, [sp]
 5642 0086 2046     		mov	r0, r4
 5643 0088 2179     		ldrb	r1, [r4, #4]	@ zero_extendqisi2
  44:../../DaisyExamples/libDaisy//src/dev/oled_ssd130x.h ****         i2c_.TransmitBlocking(i2c_address_, buf, 2, 1000);
 5644              		.loc 7 44 36 view .LVU1336
 5645 008a 8DF80D30 		strb	r3, [sp, #13]
  45:../../DaisyExamples/libDaisy//src/dev/oled_ssd130x.h ****     };
 5646              		.loc 7 45 9 is_stmt 1 view .LVU1337
  45:../../DaisyExamples/libDaisy//src/dev/oled_ssd130x.h ****     };
 5647              		.loc 7 45 30 is_stmt 0 view .LVU1338
 5648 008e 0223     		movs	r3, #2
  44:../../DaisyExamples/libDaisy//src/dev/oled_ssd130x.h ****         i2c_.TransmitBlocking(i2c_address_, buf, 2, 1000);
 5649              		.loc 7 44 17 view .LVU1339
 5650 0090 8DF80C50 		strb	r5, [sp, #12]
  45:../../DaisyExamples/libDaisy//src/dev/oled_ssd130x.h ****     };
 5651              		.loc 7 45 30 view .LVU1340
 5652 0094 FFF7FEFF 		bl	_ZN5daisy9I2CHandle16TransmitBlockingEtPhtm
 5653              	.LVL429:
  45:../../DaisyExamples/libDaisy//src/dev/oled_ssd130x.h ****     };
 5654              		.loc 7 45 30 view .LVU1341
 5655              	.LBE1409:
 5656              	.LBE1408:
 5657              	.LBB1410:
 5658              	.LBI1410:
ARM GAS  /var/folders/hp/45mn71hd0ps5f5pnytxy5bt00000gn/T//ccdvmoSj.s 			page 156


  42:../../DaisyExamples/libDaisy//src/dev/oled_ssd130x.h ****     {
 5659              		.loc 7 42 10 is_stmt 1 view .LVU1342
 5660              	.LBB1411:
  44:../../DaisyExamples/libDaisy//src/dev/oled_ssd130x.h ****         i2c_.TransmitBlocking(i2c_address_, buf, 2, 1000);
 5661              		.loc 7 44 9 view .LVU1343
  44:../../DaisyExamples/libDaisy//src/dev/oled_ssd130x.h ****         i2c_.TransmitBlocking(i2c_address_, buf, 2, 1000);
 5662              		.loc 7 44 36 is_stmt 0 view .LVU1344
 5663 0098 DA23     		movs	r3, #218
  45:../../DaisyExamples/libDaisy//src/dev/oled_ssd130x.h ****     };
 5664              		.loc 7 45 30 view .LVU1345
 5665 009a 03AA     		add	r2, sp, #12
 5666 009c 0096     		str	r6, [sp]
 5667 009e 2046     		mov	r0, r4
  44:../../DaisyExamples/libDaisy//src/dev/oled_ssd130x.h ****         i2c_.TransmitBlocking(i2c_address_, buf, 2, 1000);
 5668              		.loc 7 44 36 view .LVU1346
 5669 00a0 8DF80D30 		strb	r3, [sp, #13]
  45:../../DaisyExamples/libDaisy//src/dev/oled_ssd130x.h ****     };
 5670              		.loc 7 45 9 is_stmt 1 view .LVU1347
  45:../../DaisyExamples/libDaisy//src/dev/oled_ssd130x.h ****     };
 5671              		.loc 7 45 30 is_stmt 0 view .LVU1348
 5672 00a4 0223     		movs	r3, #2
 5673 00a6 2179     		ldrb	r1, [r4, #4]	@ zero_extendqisi2
 5674              	.LBE1411:
 5675              	.LBE1410:
 5676              	.LBB1413:
 5677              	.LBB1414:
  44:../../DaisyExamples/libDaisy//src/dev/oled_ssd130x.h ****         i2c_.TransmitBlocking(i2c_address_, buf, 2, 1000);
 5678              		.loc 7 44 36 view .LVU1349
 5679 00a8 1F46     		mov	r7, r3
 5680              	.LBE1414:
 5681              	.LBE1413:
 5682              	.LBB1416:
 5683              	.LBB1412:
  44:../../DaisyExamples/libDaisy//src/dev/oled_ssd130x.h ****         i2c_.TransmitBlocking(i2c_address_, buf, 2, 1000);
 5684              		.loc 7 44 17 view .LVU1350
 5685 00aa 8DF80C50 		strb	r5, [sp, #12]
  45:../../DaisyExamples/libDaisy//src/dev/oled_ssd130x.h ****     };
 5686              		.loc 7 45 30 view .LVU1351
 5687 00ae FFF7FEFF 		bl	_ZN5daisy9I2CHandle16TransmitBlockingEtPhtm
 5688              	.LVL430:
  45:../../DaisyExamples/libDaisy//src/dev/oled_ssd130x.h ****     };
 5689              		.loc 7 45 30 view .LVU1352
 5690              	.LBE1412:
 5691              	.LBE1416:
 5692              	.LBB1417:
 5693              	.LBI1413:
  42:../../DaisyExamples/libDaisy//src/dev/oled_ssd130x.h ****     {
 5694              		.loc 7 42 10 is_stmt 1 view .LVU1353
 5695              	.LBB1415:
  44:../../DaisyExamples/libDaisy//src/dev/oled_ssd130x.h ****         i2c_.TransmitBlocking(i2c_address_, buf, 2, 1000);
 5696              		.loc 7 44 9 view .LVU1354
  45:../../DaisyExamples/libDaisy//src/dev/oled_ssd130x.h ****     };
 5697              		.loc 7 45 30 is_stmt 0 view .LVU1355
 5698 00b2 03AA     		add	r2, sp, #12
 5699 00b4 3B46     		mov	r3, r7
 5700 00b6 0096     		str	r6, [sp]
 5701 00b8 2046     		mov	r0, r4
ARM GAS  /var/folders/hp/45mn71hd0ps5f5pnytxy5bt00000gn/T//ccdvmoSj.s 			page 157


 5702 00ba 2179     		ldrb	r1, [r4, #4]	@ zero_extendqisi2
  44:../../DaisyExamples/libDaisy//src/dev/oled_ssd130x.h ****         i2c_.TransmitBlocking(i2c_address_, buf, 2, 1000);
 5703              		.loc 7 44 17 view .LVU1356
 5704 00bc 8DF80C50 		strb	r5, [sp, #12]
  44:../../DaisyExamples/libDaisy//src/dev/oled_ssd130x.h ****         i2c_.TransmitBlocking(i2c_address_, buf, 2, 1000);
 5705              		.loc 7 44 36 view .LVU1357
 5706 00c0 8DF80D70 		strb	r7, [sp, #13]
  45:../../DaisyExamples/libDaisy//src/dev/oled_ssd130x.h ****     };
 5707              		.loc 7 45 9 is_stmt 1 view .LVU1358
  45:../../DaisyExamples/libDaisy//src/dev/oled_ssd130x.h ****     };
 5708              		.loc 7 45 30 is_stmt 0 view .LVU1359
 5709 00c4 FFF7FEFF 		bl	_ZN5daisy9I2CHandle16TransmitBlockingEtPhtm
 5710              	.LVL431:
  45:../../DaisyExamples/libDaisy//src/dev/oled_ssd130x.h ****     };
 5711              		.loc 7 45 30 view .LVU1360
 5712              	.LBE1415:
 5713              	.LBE1417:
 5714              	.LBB1418:
 5715              	.LBI1418:
  42:../../DaisyExamples/libDaisy//src/dev/oled_ssd130x.h ****     {
 5716              		.loc 7 42 10 is_stmt 1 view .LVU1361
 5717              	.LBB1419:
  44:../../DaisyExamples/libDaisy//src/dev/oled_ssd130x.h ****         i2c_.TransmitBlocking(i2c_address_, buf, 2, 1000);
 5718              		.loc 7 44 9 view .LVU1362
  44:../../DaisyExamples/libDaisy//src/dev/oled_ssd130x.h ****         i2c_.TransmitBlocking(i2c_address_, buf, 2, 1000);
 5719              		.loc 7 44 36 is_stmt 0 view .LVU1363
 5720 00c8 D323     		movs	r3, #211
  45:../../DaisyExamples/libDaisy//src/dev/oled_ssd130x.h ****     };
 5721              		.loc 7 45 30 view .LVU1364
 5722 00ca 03AA     		add	r2, sp, #12
 5723 00cc 0096     		str	r6, [sp]
 5724 00ce 2046     		mov	r0, r4
 5725 00d0 2179     		ldrb	r1, [r4, #4]	@ zero_extendqisi2
  44:../../DaisyExamples/libDaisy//src/dev/oled_ssd130x.h ****         i2c_.TransmitBlocking(i2c_address_, buf, 2, 1000);
 5726              		.loc 7 44 36 view .LVU1365
 5727 00d2 8DF80D30 		strb	r3, [sp, #13]
  45:../../DaisyExamples/libDaisy//src/dev/oled_ssd130x.h ****     };
 5728              		.loc 7 45 9 is_stmt 1 view .LVU1366
  45:../../DaisyExamples/libDaisy//src/dev/oled_ssd130x.h ****     };
 5729              		.loc 7 45 30 is_stmt 0 view .LVU1367
 5730 00d6 3B46     		mov	r3, r7
  44:../../DaisyExamples/libDaisy//src/dev/oled_ssd130x.h ****         i2c_.TransmitBlocking(i2c_address_, buf, 2, 1000);
 5731              		.loc 7 44 17 view .LVU1368
 5732 00d8 8DF80C50 		strb	r5, [sp, #12]
  45:../../DaisyExamples/libDaisy//src/dev/oled_ssd130x.h ****     };
 5733              		.loc 7 45 30 view .LVU1369
 5734 00dc FFF7FEFF 		bl	_ZN5daisy9I2CHandle16TransmitBlockingEtPhtm
 5735              	.LVL432:
  45:../../DaisyExamples/libDaisy//src/dev/oled_ssd130x.h ****     };
 5736              		.loc 7 45 30 view .LVU1370
 5737              	.LBE1419:
 5738              	.LBE1418:
 5739              	.LBB1420:
 5740              	.LBI1420:
  42:../../DaisyExamples/libDaisy//src/dev/oled_ssd130x.h ****     {
 5741              		.loc 7 42 10 is_stmt 1 view .LVU1371
 5742              	.LBB1421:
ARM GAS  /var/folders/hp/45mn71hd0ps5f5pnytxy5bt00000gn/T//ccdvmoSj.s 			page 158


  44:../../DaisyExamples/libDaisy//src/dev/oled_ssd130x.h ****         i2c_.TransmitBlocking(i2c_address_, buf, 2, 1000);
 5743              		.loc 7 44 9 view .LVU1372
  45:../../DaisyExamples/libDaisy//src/dev/oled_ssd130x.h ****     };
 5744              		.loc 7 45 30 is_stmt 0 view .LVU1373
 5745 00e0 3B46     		mov	r3, r7
 5746 00e2 03AA     		add	r2, sp, #12
 5747 00e4 0096     		str	r6, [sp]
 5748 00e6 2046     		mov	r0, r4
 5749 00e8 2179     		ldrb	r1, [r4, #4]	@ zero_extendqisi2
  44:../../DaisyExamples/libDaisy//src/dev/oled_ssd130x.h ****         i2c_.TransmitBlocking(i2c_address_, buf, 2, 1000);
 5750              		.loc 7 44 17 view .LVU1374
 5751 00ea 8DF80C50 		strb	r5, [sp, #12]
  44:../../DaisyExamples/libDaisy//src/dev/oled_ssd130x.h ****         i2c_.TransmitBlocking(i2c_address_, buf, 2, 1000);
 5752              		.loc 7 44 36 view .LVU1375
 5753 00ee 8DF80D50 		strb	r5, [sp, #13]
  45:../../DaisyExamples/libDaisy//src/dev/oled_ssd130x.h ****     };
 5754              		.loc 7 45 9 is_stmt 1 view .LVU1376
  45:../../DaisyExamples/libDaisy//src/dev/oled_ssd130x.h ****     };
 5755              		.loc 7 45 30 is_stmt 0 view .LVU1377
 5756 00f2 FFF7FEFF 		bl	_ZN5daisy9I2CHandle16TransmitBlockingEtPhtm
 5757              	.LVL433:
  45:../../DaisyExamples/libDaisy//src/dev/oled_ssd130x.h ****     };
 5758              		.loc 7 45 30 view .LVU1378
 5759              	.LBE1421:
 5760              	.LBE1420:
 5761              	.LBB1422:
 5762              	.LBI1422:
  42:../../DaisyExamples/libDaisy//src/dev/oled_ssd130x.h ****     {
 5763              		.loc 7 42 10 is_stmt 1 view .LVU1379
 5764              	.LBB1423:
  44:../../DaisyExamples/libDaisy//src/dev/oled_ssd130x.h ****         i2c_.TransmitBlocking(i2c_address_, buf, 2, 1000);
 5765              		.loc 7 44 9 view .LVU1380
  44:../../DaisyExamples/libDaisy//src/dev/oled_ssd130x.h ****         i2c_.TransmitBlocking(i2c_address_, buf, 2, 1000);
 5766              		.loc 7 44 36 is_stmt 0 view .LVU1381
 5767 00f6 4023     		movs	r3, #64
  45:../../DaisyExamples/libDaisy//src/dev/oled_ssd130x.h ****     };
 5768              		.loc 7 45 30 view .LVU1382
 5769 00f8 03AA     		add	r2, sp, #12
 5770 00fa 0096     		str	r6, [sp]
 5771 00fc 2046     		mov	r0, r4
 5772 00fe 2179     		ldrb	r1, [r4, #4]	@ zero_extendqisi2
  44:../../DaisyExamples/libDaisy//src/dev/oled_ssd130x.h ****         i2c_.TransmitBlocking(i2c_address_, buf, 2, 1000);
 5773              		.loc 7 44 36 view .LVU1383
 5774 0100 8DF80D30 		strb	r3, [sp, #13]
  45:../../DaisyExamples/libDaisy//src/dev/oled_ssd130x.h ****     };
 5775              		.loc 7 45 9 is_stmt 1 view .LVU1384
  45:../../DaisyExamples/libDaisy//src/dev/oled_ssd130x.h ****     };
 5776              		.loc 7 45 30 is_stmt 0 view .LVU1385
 5777 0104 3B46     		mov	r3, r7
  44:../../DaisyExamples/libDaisy//src/dev/oled_ssd130x.h ****         i2c_.TransmitBlocking(i2c_address_, buf, 2, 1000);
 5778              		.loc 7 44 17 view .LVU1386
 5779 0106 8DF80C50 		strb	r5, [sp, #12]
  45:../../DaisyExamples/libDaisy//src/dev/oled_ssd130x.h ****     };
 5780              		.loc 7 45 30 view .LVU1387
 5781 010a FFF7FEFF 		bl	_ZN5daisy9I2CHandle16TransmitBlockingEtPhtm
 5782              	.LVL434:
  45:../../DaisyExamples/libDaisy//src/dev/oled_ssd130x.h ****     };
ARM GAS  /var/folders/hp/45mn71hd0ps5f5pnytxy5bt00000gn/T//ccdvmoSj.s 			page 159


 5783              		.loc 7 45 30 view .LVU1388
 5784              	.LBE1423:
 5785              	.LBE1422:
 5786              	.LBB1424:
 5787              	.LBI1424:
  42:../../DaisyExamples/libDaisy//src/dev/oled_ssd130x.h ****     {
 5788              		.loc 7 42 10 is_stmt 1 view .LVU1389
 5789              	.LBB1425:
  44:../../DaisyExamples/libDaisy//src/dev/oled_ssd130x.h ****         i2c_.TransmitBlocking(i2c_address_, buf, 2, 1000);
 5790              		.loc 7 44 9 view .LVU1390
  44:../../DaisyExamples/libDaisy//src/dev/oled_ssd130x.h ****         i2c_.TransmitBlocking(i2c_address_, buf, 2, 1000);
 5791              		.loc 7 44 36 is_stmt 0 view .LVU1391
 5792 010e A623     		movs	r3, #166
  45:../../DaisyExamples/libDaisy//src/dev/oled_ssd130x.h ****     };
 5793              		.loc 7 45 30 view .LVU1392
 5794 0110 03AA     		add	r2, sp, #12
 5795 0112 0096     		str	r6, [sp]
 5796 0114 2046     		mov	r0, r4
 5797 0116 2179     		ldrb	r1, [r4, #4]	@ zero_extendqisi2
  44:../../DaisyExamples/libDaisy//src/dev/oled_ssd130x.h ****         i2c_.TransmitBlocking(i2c_address_, buf, 2, 1000);
 5798              		.loc 7 44 36 view .LVU1393
 5799 0118 8DF80D30 		strb	r3, [sp, #13]
  45:../../DaisyExamples/libDaisy//src/dev/oled_ssd130x.h ****     };
 5800              		.loc 7 45 9 is_stmt 1 view .LVU1394
  45:../../DaisyExamples/libDaisy//src/dev/oled_ssd130x.h ****     };
 5801              		.loc 7 45 30 is_stmt 0 view .LVU1395
 5802 011c 3B46     		mov	r3, r7
  44:../../DaisyExamples/libDaisy//src/dev/oled_ssd130x.h ****         i2c_.TransmitBlocking(i2c_address_, buf, 2, 1000);
 5803              		.loc 7 44 17 view .LVU1396
 5804 011e 8DF80C50 		strb	r5, [sp, #12]
  45:../../DaisyExamples/libDaisy//src/dev/oled_ssd130x.h ****     };
 5805              		.loc 7 45 30 view .LVU1397
 5806 0122 FFF7FEFF 		bl	_ZN5daisy9I2CHandle16TransmitBlockingEtPhtm
 5807              	.LVL435:
  45:../../DaisyExamples/libDaisy//src/dev/oled_ssd130x.h ****     };
 5808              		.loc 7 45 30 view .LVU1398
 5809              	.LBE1425:
 5810              	.LBE1424:
 5811              	.LBB1426:
 5812              	.LBI1426:
  42:../../DaisyExamples/libDaisy//src/dev/oled_ssd130x.h ****     {
 5813              		.loc 7 42 10 is_stmt 1 view .LVU1399
 5814              	.LBB1427:
  44:../../DaisyExamples/libDaisy//src/dev/oled_ssd130x.h ****         i2c_.TransmitBlocking(i2c_address_, buf, 2, 1000);
 5815              		.loc 7 44 9 view .LVU1400
  44:../../DaisyExamples/libDaisy//src/dev/oled_ssd130x.h ****         i2c_.TransmitBlocking(i2c_address_, buf, 2, 1000);
 5816              		.loc 7 44 36 is_stmt 0 view .LVU1401
 5817 0126 A423     		movs	r3, #164
  45:../../DaisyExamples/libDaisy//src/dev/oled_ssd130x.h ****     };
 5818              		.loc 7 45 30 view .LVU1402
 5819 0128 03AA     		add	r2, sp, #12
 5820 012a 0096     		str	r6, [sp]
 5821 012c 2046     		mov	r0, r4
 5822 012e 2179     		ldrb	r1, [r4, #4]	@ zero_extendqisi2
  44:../../DaisyExamples/libDaisy//src/dev/oled_ssd130x.h ****         i2c_.TransmitBlocking(i2c_address_, buf, 2, 1000);
 5823              		.loc 7 44 36 view .LVU1403
 5824 0130 8DF80D30 		strb	r3, [sp, #13]
ARM GAS  /var/folders/hp/45mn71hd0ps5f5pnytxy5bt00000gn/T//ccdvmoSj.s 			page 160


  45:../../DaisyExamples/libDaisy//src/dev/oled_ssd130x.h ****     };
 5825              		.loc 7 45 9 is_stmt 1 view .LVU1404
  45:../../DaisyExamples/libDaisy//src/dev/oled_ssd130x.h ****     };
 5826              		.loc 7 45 30 is_stmt 0 view .LVU1405
 5827 0134 3B46     		mov	r3, r7
  44:../../DaisyExamples/libDaisy//src/dev/oled_ssd130x.h ****         i2c_.TransmitBlocking(i2c_address_, buf, 2, 1000);
 5828              		.loc 7 44 17 view .LVU1406
 5829 0136 8DF80C50 		strb	r5, [sp, #12]
  45:../../DaisyExamples/libDaisy//src/dev/oled_ssd130x.h ****     };
 5830              		.loc 7 45 30 view .LVU1407
 5831 013a FFF7FEFF 		bl	_ZN5daisy9I2CHandle16TransmitBlockingEtPhtm
 5832              	.LVL436:
  45:../../DaisyExamples/libDaisy//src/dev/oled_ssd130x.h ****     };
 5833              		.loc 7 45 30 view .LVU1408
 5834              	.LBE1427:
 5835              	.LBE1426:
 5836              	.LBB1428:
 5837              	.LBI1428:
  42:../../DaisyExamples/libDaisy//src/dev/oled_ssd130x.h ****     {
 5838              		.loc 7 42 10 is_stmt 1 view .LVU1409
 5839              	.LBB1429:
  44:../../DaisyExamples/libDaisy//src/dev/oled_ssd130x.h ****         i2c_.TransmitBlocking(i2c_address_, buf, 2, 1000);
 5840              		.loc 7 44 9 view .LVU1410
  44:../../DaisyExamples/libDaisy//src/dev/oled_ssd130x.h ****         i2c_.TransmitBlocking(i2c_address_, buf, 2, 1000);
 5841              		.loc 7 44 36 is_stmt 0 view .LVU1411
 5842 013e 8D23     		movs	r3, #141
  45:../../DaisyExamples/libDaisy//src/dev/oled_ssd130x.h ****     };
 5843              		.loc 7 45 30 view .LVU1412
 5844 0140 03AA     		add	r2, sp, #12
 5845 0142 0096     		str	r6, [sp]
 5846 0144 2046     		mov	r0, r4
 5847 0146 2179     		ldrb	r1, [r4, #4]	@ zero_extendqisi2
  44:../../DaisyExamples/libDaisy//src/dev/oled_ssd130x.h ****         i2c_.TransmitBlocking(i2c_address_, buf, 2, 1000);
 5848              		.loc 7 44 36 view .LVU1413
 5849 0148 8DF80D30 		strb	r3, [sp, #13]
  45:../../DaisyExamples/libDaisy//src/dev/oled_ssd130x.h ****     };
 5850              		.loc 7 45 9 is_stmt 1 view .LVU1414
  45:../../DaisyExamples/libDaisy//src/dev/oled_ssd130x.h ****     };
 5851              		.loc 7 45 30 is_stmt 0 view .LVU1415
 5852 014c 3B46     		mov	r3, r7
  44:../../DaisyExamples/libDaisy//src/dev/oled_ssd130x.h ****         i2c_.TransmitBlocking(i2c_address_, buf, 2, 1000);
 5853              		.loc 7 44 17 view .LVU1416
 5854 014e 8DF80C50 		strb	r5, [sp, #12]
  45:../../DaisyExamples/libDaisy//src/dev/oled_ssd130x.h ****     };
 5855              		.loc 7 45 30 view .LVU1417
 5856 0152 FFF7FEFF 		bl	_ZN5daisy9I2CHandle16TransmitBlockingEtPhtm
 5857              	.LVL437:
  45:../../DaisyExamples/libDaisy//src/dev/oled_ssd130x.h ****     };
 5858              		.loc 7 45 30 view .LVU1418
 5859              	.LBE1429:
 5860              	.LBE1428:
 5861              	.LBB1430:
 5862              	.LBI1430:
  42:../../DaisyExamples/libDaisy//src/dev/oled_ssd130x.h ****     {
 5863              		.loc 7 42 10 is_stmt 1 view .LVU1419
 5864              	.LBB1431:
  44:../../DaisyExamples/libDaisy//src/dev/oled_ssd130x.h ****         i2c_.TransmitBlocking(i2c_address_, buf, 2, 1000);
ARM GAS  /var/folders/hp/45mn71hd0ps5f5pnytxy5bt00000gn/T//ccdvmoSj.s 			page 161


 5865              		.loc 7 44 9 view .LVU1420
  44:../../DaisyExamples/libDaisy//src/dev/oled_ssd130x.h ****         i2c_.TransmitBlocking(i2c_address_, buf, 2, 1000);
 5866              		.loc 7 44 36 is_stmt 0 view .LVU1421
 5867 0156 1423     		movs	r3, #20
  45:../../DaisyExamples/libDaisy//src/dev/oled_ssd130x.h ****     };
 5868              		.loc 7 45 30 view .LVU1422
 5869 0158 03AA     		add	r2, sp, #12
 5870 015a 0096     		str	r6, [sp]
 5871 015c 2046     		mov	r0, r4
 5872 015e 2179     		ldrb	r1, [r4, #4]	@ zero_extendqisi2
  44:../../DaisyExamples/libDaisy//src/dev/oled_ssd130x.h ****         i2c_.TransmitBlocking(i2c_address_, buf, 2, 1000);
 5873              		.loc 7 44 36 view .LVU1423
 5874 0160 8DF80D30 		strb	r3, [sp, #13]
  45:../../DaisyExamples/libDaisy//src/dev/oled_ssd130x.h ****     };
 5875              		.loc 7 45 9 is_stmt 1 view .LVU1424
  45:../../DaisyExamples/libDaisy//src/dev/oled_ssd130x.h ****     };
 5876              		.loc 7 45 30 is_stmt 0 view .LVU1425
 5877 0164 3B46     		mov	r3, r7
  44:../../DaisyExamples/libDaisy//src/dev/oled_ssd130x.h ****         i2c_.TransmitBlocking(i2c_address_, buf, 2, 1000);
 5878              		.loc 7 44 17 view .LVU1426
 5879 0166 8DF80C50 		strb	r5, [sp, #12]
  45:../../DaisyExamples/libDaisy//src/dev/oled_ssd130x.h ****     };
 5880              		.loc 7 45 30 view .LVU1427
 5881 016a FFF7FEFF 		bl	_ZN5daisy9I2CHandle16TransmitBlockingEtPhtm
 5882              	.LVL438:
  45:../../DaisyExamples/libDaisy//src/dev/oled_ssd130x.h ****     };
 5883              		.loc 7 45 30 view .LVU1428
 5884              	.LBE1431:
 5885              	.LBE1430:
 5886              	.LBB1432:
 5887              	.LBI1432:
  42:../../DaisyExamples/libDaisy//src/dev/oled_ssd130x.h ****     {
 5888              		.loc 7 42 10 is_stmt 1 view .LVU1429
 5889              	.LBB1433:
  44:../../DaisyExamples/libDaisy//src/dev/oled_ssd130x.h ****         i2c_.TransmitBlocking(i2c_address_, buf, 2, 1000);
 5890              		.loc 7 44 9 view .LVU1430
  44:../../DaisyExamples/libDaisy//src/dev/oled_ssd130x.h ****         i2c_.TransmitBlocking(i2c_address_, buf, 2, 1000);
 5891              		.loc 7 44 36 is_stmt 0 view .LVU1431
 5892 016e A123     		movs	r3, #161
  45:../../DaisyExamples/libDaisy//src/dev/oled_ssd130x.h ****     };
 5893              		.loc 7 45 30 view .LVU1432
 5894 0170 03AA     		add	r2, sp, #12
 5895 0172 0096     		str	r6, [sp]
 5896 0174 2046     		mov	r0, r4
 5897 0176 2179     		ldrb	r1, [r4, #4]	@ zero_extendqisi2
  44:../../DaisyExamples/libDaisy//src/dev/oled_ssd130x.h ****         i2c_.TransmitBlocking(i2c_address_, buf, 2, 1000);
 5898              		.loc 7 44 36 view .LVU1433
 5899 0178 8DF80D30 		strb	r3, [sp, #13]
  45:../../DaisyExamples/libDaisy//src/dev/oled_ssd130x.h ****     };
 5900              		.loc 7 45 9 is_stmt 1 view .LVU1434
  45:../../DaisyExamples/libDaisy//src/dev/oled_ssd130x.h ****     };
 5901              		.loc 7 45 30 is_stmt 0 view .LVU1435
 5902 017c 3B46     		mov	r3, r7
  44:../../DaisyExamples/libDaisy//src/dev/oled_ssd130x.h ****         i2c_.TransmitBlocking(i2c_address_, buf, 2, 1000);
 5903              		.loc 7 44 17 view .LVU1436
 5904 017e 8DF80C50 		strb	r5, [sp, #12]
  45:../../DaisyExamples/libDaisy//src/dev/oled_ssd130x.h ****     };
ARM GAS  /var/folders/hp/45mn71hd0ps5f5pnytxy5bt00000gn/T//ccdvmoSj.s 			page 162


 5905              		.loc 7 45 30 view .LVU1437
 5906 0182 FFF7FEFF 		bl	_ZN5daisy9I2CHandle16TransmitBlockingEtPhtm
 5907              	.LVL439:
  45:../../DaisyExamples/libDaisy//src/dev/oled_ssd130x.h ****     };
 5908              		.loc 7 45 30 view .LVU1438
 5909              	.LBE1433:
 5910              	.LBE1432:
 5911              	.LBB1434:
 5912              	.LBI1434:
  42:../../DaisyExamples/libDaisy//src/dev/oled_ssd130x.h ****     {
 5913              		.loc 7 42 10 is_stmt 1 view .LVU1439
 5914              	.LBB1435:
  44:../../DaisyExamples/libDaisy//src/dev/oled_ssd130x.h ****         i2c_.TransmitBlocking(i2c_address_, buf, 2, 1000);
 5915              		.loc 7 44 9 view .LVU1440
  44:../../DaisyExamples/libDaisy//src/dev/oled_ssd130x.h ****         i2c_.TransmitBlocking(i2c_address_, buf, 2, 1000);
 5916              		.loc 7 44 36 is_stmt 0 view .LVU1441
 5917 0186 C823     		movs	r3, #200
  45:../../DaisyExamples/libDaisy//src/dev/oled_ssd130x.h ****     };
 5918              		.loc 7 45 30 view .LVU1442
 5919 0188 03AA     		add	r2, sp, #12
 5920 018a 0096     		str	r6, [sp]
 5921 018c 2046     		mov	r0, r4
 5922 018e 2179     		ldrb	r1, [r4, #4]	@ zero_extendqisi2
  44:../../DaisyExamples/libDaisy//src/dev/oled_ssd130x.h ****         i2c_.TransmitBlocking(i2c_address_, buf, 2, 1000);
 5923              		.loc 7 44 36 view .LVU1443
 5924 0190 8DF80D30 		strb	r3, [sp, #13]
  45:../../DaisyExamples/libDaisy//src/dev/oled_ssd130x.h ****     };
 5925              		.loc 7 45 9 is_stmt 1 view .LVU1444
  45:../../DaisyExamples/libDaisy//src/dev/oled_ssd130x.h ****     };
 5926              		.loc 7 45 30 is_stmt 0 view .LVU1445
 5927 0194 3B46     		mov	r3, r7
  44:../../DaisyExamples/libDaisy//src/dev/oled_ssd130x.h ****         i2c_.TransmitBlocking(i2c_address_, buf, 2, 1000);
 5928              		.loc 7 44 17 view .LVU1446
 5929 0196 8DF80C50 		strb	r5, [sp, #12]
  45:../../DaisyExamples/libDaisy//src/dev/oled_ssd130x.h ****     };
 5930              		.loc 7 45 30 view .LVU1447
 5931 019a FFF7FEFF 		bl	_ZN5daisy9I2CHandle16TransmitBlockingEtPhtm
 5932              	.LVL440:
  45:../../DaisyExamples/libDaisy//src/dev/oled_ssd130x.h ****     };
 5933              		.loc 7 45 30 view .LVU1448
 5934              	.LBE1435:
 5935              	.LBE1434:
 5936              	.LBB1436:
 5937              	.LBI1436:
  42:../../DaisyExamples/libDaisy//src/dev/oled_ssd130x.h ****     {
 5938              		.loc 7 42 10 is_stmt 1 view .LVU1449
 5939              	.LBB1437:
  44:../../DaisyExamples/libDaisy//src/dev/oled_ssd130x.h ****         i2c_.TransmitBlocking(i2c_address_, buf, 2, 1000);
 5940              		.loc 7 44 9 view .LVU1450
  44:../../DaisyExamples/libDaisy//src/dev/oled_ssd130x.h ****         i2c_.TransmitBlocking(i2c_address_, buf, 2, 1000);
 5941              		.loc 7 44 36 is_stmt 0 view .LVU1451
 5942 019e 8123     		movs	r3, #129
  45:../../DaisyExamples/libDaisy//src/dev/oled_ssd130x.h ****     };
 5943              		.loc 7 45 30 view .LVU1452
 5944 01a0 03AA     		add	r2, sp, #12
 5945 01a2 0096     		str	r6, [sp]
 5946 01a4 2046     		mov	r0, r4
ARM GAS  /var/folders/hp/45mn71hd0ps5f5pnytxy5bt00000gn/T//ccdvmoSj.s 			page 163


 5947 01a6 2179     		ldrb	r1, [r4, #4]	@ zero_extendqisi2
  44:../../DaisyExamples/libDaisy//src/dev/oled_ssd130x.h ****         i2c_.TransmitBlocking(i2c_address_, buf, 2, 1000);
 5948              		.loc 7 44 36 view .LVU1453
 5949 01a8 8DF80D30 		strb	r3, [sp, #13]
  45:../../DaisyExamples/libDaisy//src/dev/oled_ssd130x.h ****     };
 5950              		.loc 7 45 9 is_stmt 1 view .LVU1454
  45:../../DaisyExamples/libDaisy//src/dev/oled_ssd130x.h ****     };
 5951              		.loc 7 45 30 is_stmt 0 view .LVU1455
 5952 01ac 3B46     		mov	r3, r7
  44:../../DaisyExamples/libDaisy//src/dev/oled_ssd130x.h ****         i2c_.TransmitBlocking(i2c_address_, buf, 2, 1000);
 5953              		.loc 7 44 17 view .LVU1456
 5954 01ae 8DF80C50 		strb	r5, [sp, #12]
  45:../../DaisyExamples/libDaisy//src/dev/oled_ssd130x.h ****     };
 5955              		.loc 7 45 30 view .LVU1457
 5956 01b2 FFF7FEFF 		bl	_ZN5daisy9I2CHandle16TransmitBlockingEtPhtm
 5957              	.LVL441:
  45:../../DaisyExamples/libDaisy//src/dev/oled_ssd130x.h ****     };
 5958              		.loc 7 45 30 view .LVU1458
 5959              	.LBE1437:
 5960              	.LBE1436:
 5961              	.LBB1438:
 5962              	.LBI1438:
  42:../../DaisyExamples/libDaisy//src/dev/oled_ssd130x.h ****     {
 5963              		.loc 7 42 10 is_stmt 1 view .LVU1459
 5964              	.LBB1439:
  44:../../DaisyExamples/libDaisy//src/dev/oled_ssd130x.h ****         i2c_.TransmitBlocking(i2c_address_, buf, 2, 1000);
 5965              		.loc 7 44 9 view .LVU1460
  44:../../DaisyExamples/libDaisy//src/dev/oled_ssd130x.h ****         i2c_.TransmitBlocking(i2c_address_, buf, 2, 1000);
 5966              		.loc 7 44 36 is_stmt 0 view .LVU1461
 5967 01b6 8F23     		movs	r3, #143
  45:../../DaisyExamples/libDaisy//src/dev/oled_ssd130x.h ****     };
 5968              		.loc 7 45 30 view .LVU1462
 5969 01b8 03AA     		add	r2, sp, #12
 5970 01ba 0096     		str	r6, [sp]
 5971 01bc 2046     		mov	r0, r4
 5972 01be 2179     		ldrb	r1, [r4, #4]	@ zero_extendqisi2
  44:../../DaisyExamples/libDaisy//src/dev/oled_ssd130x.h ****         i2c_.TransmitBlocking(i2c_address_, buf, 2, 1000);
 5973              		.loc 7 44 36 view .LVU1463
 5974 01c0 8DF80D30 		strb	r3, [sp, #13]
  45:../../DaisyExamples/libDaisy//src/dev/oled_ssd130x.h ****     };
 5975              		.loc 7 45 9 is_stmt 1 view .LVU1464
  45:../../DaisyExamples/libDaisy//src/dev/oled_ssd130x.h ****     };
 5976              		.loc 7 45 30 is_stmt 0 view .LVU1465
 5977 01c4 3B46     		mov	r3, r7
  44:../../DaisyExamples/libDaisy//src/dev/oled_ssd130x.h ****         i2c_.TransmitBlocking(i2c_address_, buf, 2, 1000);
 5978              		.loc 7 44 17 view .LVU1466
 5979 01c6 8DF80C50 		strb	r5, [sp, #12]
  45:../../DaisyExamples/libDaisy//src/dev/oled_ssd130x.h ****     };
 5980              		.loc 7 45 30 view .LVU1467
 5981 01ca FFF7FEFF 		bl	_ZN5daisy9I2CHandle16TransmitBlockingEtPhtm
 5982              	.LVL442:
  45:../../DaisyExamples/libDaisy//src/dev/oled_ssd130x.h ****     };
 5983              		.loc 7 45 30 view .LVU1468
 5984              	.LBE1439:
 5985              	.LBE1438:
 5986              	.LBB1440:
 5987              	.LBI1440:
ARM GAS  /var/folders/hp/45mn71hd0ps5f5pnytxy5bt00000gn/T//ccdvmoSj.s 			page 164


  42:../../DaisyExamples/libDaisy//src/dev/oled_ssd130x.h ****     {
 5988              		.loc 7 42 10 is_stmt 1 view .LVU1469
 5989              	.LBB1441:
  44:../../DaisyExamples/libDaisy//src/dev/oled_ssd130x.h ****         i2c_.TransmitBlocking(i2c_address_, buf, 2, 1000);
 5990              		.loc 7 44 9 view .LVU1470
  44:../../DaisyExamples/libDaisy//src/dev/oled_ssd130x.h ****         i2c_.TransmitBlocking(i2c_address_, buf, 2, 1000);
 5991              		.loc 7 44 36 is_stmt 0 view .LVU1471
 5992 01ce D923     		movs	r3, #217
  45:../../DaisyExamples/libDaisy//src/dev/oled_ssd130x.h ****     };
 5993              		.loc 7 45 30 view .LVU1472
 5994 01d0 03AA     		add	r2, sp, #12
 5995 01d2 0096     		str	r6, [sp]
 5996 01d4 2046     		mov	r0, r4
 5997 01d6 2179     		ldrb	r1, [r4, #4]	@ zero_extendqisi2
  44:../../DaisyExamples/libDaisy//src/dev/oled_ssd130x.h ****         i2c_.TransmitBlocking(i2c_address_, buf, 2, 1000);
 5998              		.loc 7 44 36 view .LVU1473
 5999 01d8 8DF80D30 		strb	r3, [sp, #13]
  45:../../DaisyExamples/libDaisy//src/dev/oled_ssd130x.h ****     };
 6000              		.loc 7 45 9 is_stmt 1 view .LVU1474
  45:../../DaisyExamples/libDaisy//src/dev/oled_ssd130x.h ****     };
 6001              		.loc 7 45 30 is_stmt 0 view .LVU1475
 6002 01dc 3B46     		mov	r3, r7
  44:../../DaisyExamples/libDaisy//src/dev/oled_ssd130x.h ****         i2c_.TransmitBlocking(i2c_address_, buf, 2, 1000);
 6003              		.loc 7 44 17 view .LVU1476
 6004 01de 8DF80C50 		strb	r5, [sp, #12]
  45:../../DaisyExamples/libDaisy//src/dev/oled_ssd130x.h ****     };
 6005              		.loc 7 45 30 view .LVU1477
 6006 01e2 FFF7FEFF 		bl	_ZN5daisy9I2CHandle16TransmitBlockingEtPhtm
 6007              	.LVL443:
  45:../../DaisyExamples/libDaisy//src/dev/oled_ssd130x.h ****     };
 6008              		.loc 7 45 30 view .LVU1478
 6009              	.LBE1441:
 6010              	.LBE1440:
 6011              	.LBB1442:
 6012              	.LBI1442:
  42:../../DaisyExamples/libDaisy//src/dev/oled_ssd130x.h ****     {
 6013              		.loc 7 42 10 is_stmt 1 view .LVU1479
 6014              	.LBB1443:
  44:../../DaisyExamples/libDaisy//src/dev/oled_ssd130x.h ****         i2c_.TransmitBlocking(i2c_address_, buf, 2, 1000);
 6015              		.loc 7 44 9 view .LVU1480
  44:../../DaisyExamples/libDaisy//src/dev/oled_ssd130x.h ****         i2c_.TransmitBlocking(i2c_address_, buf, 2, 1000);
 6016              		.loc 7 44 36 is_stmt 0 view .LVU1481
 6017 01e6 2523     		movs	r3, #37
  45:../../DaisyExamples/libDaisy//src/dev/oled_ssd130x.h ****     };
 6018              		.loc 7 45 30 view .LVU1482
 6019 01e8 03AA     		add	r2, sp, #12
 6020 01ea 0096     		str	r6, [sp]
 6021 01ec 2046     		mov	r0, r4
 6022 01ee 2179     		ldrb	r1, [r4, #4]	@ zero_extendqisi2
  44:../../DaisyExamples/libDaisy//src/dev/oled_ssd130x.h ****         i2c_.TransmitBlocking(i2c_address_, buf, 2, 1000);
 6023              		.loc 7 44 36 view .LVU1483
 6024 01f0 8DF80D30 		strb	r3, [sp, #13]
  45:../../DaisyExamples/libDaisy//src/dev/oled_ssd130x.h ****     };
 6025              		.loc 7 45 9 is_stmt 1 view .LVU1484
  45:../../DaisyExamples/libDaisy//src/dev/oled_ssd130x.h ****     };
 6026              		.loc 7 45 30 is_stmt 0 view .LVU1485
 6027 01f4 3B46     		mov	r3, r7
ARM GAS  /var/folders/hp/45mn71hd0ps5f5pnytxy5bt00000gn/T//ccdvmoSj.s 			page 165


  44:../../DaisyExamples/libDaisy//src/dev/oled_ssd130x.h ****         i2c_.TransmitBlocking(i2c_address_, buf, 2, 1000);
 6028              		.loc 7 44 17 view .LVU1486
 6029 01f6 8DF80C50 		strb	r5, [sp, #12]
  45:../../DaisyExamples/libDaisy//src/dev/oled_ssd130x.h ****     };
 6030              		.loc 7 45 30 view .LVU1487
 6031 01fa FFF7FEFF 		bl	_ZN5daisy9I2CHandle16TransmitBlockingEtPhtm
 6032              	.LVL444:
  45:../../DaisyExamples/libDaisy//src/dev/oled_ssd130x.h ****     };
 6033              		.loc 7 45 30 view .LVU1488
 6034              	.LBE1443:
 6035              	.LBE1442:
 6036              	.LBB1444:
 6037              	.LBI1444:
  42:../../DaisyExamples/libDaisy//src/dev/oled_ssd130x.h ****     {
 6038              		.loc 7 42 10 is_stmt 1 view .LVU1489
 6039              	.LBB1445:
  44:../../DaisyExamples/libDaisy//src/dev/oled_ssd130x.h ****         i2c_.TransmitBlocking(i2c_address_, buf, 2, 1000);
 6040              		.loc 7 44 9 view .LVU1490
  44:../../DaisyExamples/libDaisy//src/dev/oled_ssd130x.h ****         i2c_.TransmitBlocking(i2c_address_, buf, 2, 1000);
 6041              		.loc 7 44 36 is_stmt 0 view .LVU1491
 6042 01fe DB23     		movs	r3, #219
  45:../../DaisyExamples/libDaisy//src/dev/oled_ssd130x.h ****     };
 6043              		.loc 7 45 30 view .LVU1492
 6044 0200 03AA     		add	r2, sp, #12
 6045 0202 0096     		str	r6, [sp]
 6046 0204 2046     		mov	r0, r4
 6047 0206 2179     		ldrb	r1, [r4, #4]	@ zero_extendqisi2
  44:../../DaisyExamples/libDaisy//src/dev/oled_ssd130x.h ****         i2c_.TransmitBlocking(i2c_address_, buf, 2, 1000);
 6048              		.loc 7 44 36 view .LVU1493
 6049 0208 8DF80D30 		strb	r3, [sp, #13]
  45:../../DaisyExamples/libDaisy//src/dev/oled_ssd130x.h ****     };
 6050              		.loc 7 45 9 is_stmt 1 view .LVU1494
  45:../../DaisyExamples/libDaisy//src/dev/oled_ssd130x.h ****     };
 6051              		.loc 7 45 30 is_stmt 0 view .LVU1495
 6052 020c 3B46     		mov	r3, r7
  44:../../DaisyExamples/libDaisy//src/dev/oled_ssd130x.h ****         i2c_.TransmitBlocking(i2c_address_, buf, 2, 1000);
 6053              		.loc 7 44 17 view .LVU1496
 6054 020e 8DF80C50 		strb	r5, [sp, #12]
  45:../../DaisyExamples/libDaisy//src/dev/oled_ssd130x.h ****     };
 6055              		.loc 7 45 30 view .LVU1497
 6056 0212 FFF7FEFF 		bl	_ZN5daisy9I2CHandle16TransmitBlockingEtPhtm
 6057              	.LVL445:
  45:../../DaisyExamples/libDaisy//src/dev/oled_ssd130x.h ****     };
 6058              		.loc 7 45 30 view .LVU1498
 6059              	.LBE1445:
 6060              	.LBE1444:
 6061              	.LBB1446:
 6062              	.LBI1446:
  42:../../DaisyExamples/libDaisy//src/dev/oled_ssd130x.h ****     {
 6063              		.loc 7 42 10 is_stmt 1 view .LVU1499
 6064              	.LBB1447:
  44:../../DaisyExamples/libDaisy//src/dev/oled_ssd130x.h ****         i2c_.TransmitBlocking(i2c_address_, buf, 2, 1000);
 6065              		.loc 7 44 9 view .LVU1500
  44:../../DaisyExamples/libDaisy//src/dev/oled_ssd130x.h ****         i2c_.TransmitBlocking(i2c_address_, buf, 2, 1000);
 6066              		.loc 7 44 36 is_stmt 0 view .LVU1501
 6067 0216 3423     		movs	r3, #52
  45:../../DaisyExamples/libDaisy//src/dev/oled_ssd130x.h ****     };
ARM GAS  /var/folders/hp/45mn71hd0ps5f5pnytxy5bt00000gn/T//ccdvmoSj.s 			page 166


 6068              		.loc 7 45 30 view .LVU1502
 6069 0218 03AA     		add	r2, sp, #12
 6070 021a 0096     		str	r6, [sp]
 6071 021c 2046     		mov	r0, r4
 6072 021e 2179     		ldrb	r1, [r4, #4]	@ zero_extendqisi2
  44:../../DaisyExamples/libDaisy//src/dev/oled_ssd130x.h ****         i2c_.TransmitBlocking(i2c_address_, buf, 2, 1000);
 6073              		.loc 7 44 36 view .LVU1503
 6074 0220 8DF80D30 		strb	r3, [sp, #13]
  45:../../DaisyExamples/libDaisy//src/dev/oled_ssd130x.h ****     };
 6075              		.loc 7 45 9 is_stmt 1 view .LVU1504
  45:../../DaisyExamples/libDaisy//src/dev/oled_ssd130x.h ****     };
 6076              		.loc 7 45 30 is_stmt 0 view .LVU1505
 6077 0224 3B46     		mov	r3, r7
  44:../../DaisyExamples/libDaisy//src/dev/oled_ssd130x.h ****         i2c_.TransmitBlocking(i2c_address_, buf, 2, 1000);
 6078              		.loc 7 44 17 view .LVU1506
 6079 0226 8DF80C50 		strb	r5, [sp, #12]
  45:../../DaisyExamples/libDaisy//src/dev/oled_ssd130x.h ****     };
 6080              		.loc 7 45 30 view .LVU1507
 6081 022a FFF7FEFF 		bl	_ZN5daisy9I2CHandle16TransmitBlockingEtPhtm
 6082              	.LVL446:
  45:../../DaisyExamples/libDaisy//src/dev/oled_ssd130x.h ****     };
 6083              		.loc 7 45 30 view .LVU1508
 6084              	.LBE1447:
 6085              	.LBE1446:
 6086              	.LBB1448:
 6087              	.LBI1448:
  42:../../DaisyExamples/libDaisy//src/dev/oled_ssd130x.h ****     {
 6088              		.loc 7 42 10 is_stmt 1 view .LVU1509
 6089              	.LBB1449:
  44:../../DaisyExamples/libDaisy//src/dev/oled_ssd130x.h ****         i2c_.TransmitBlocking(i2c_address_, buf, 2, 1000);
 6090              		.loc 7 44 9 view .LVU1510
  45:../../DaisyExamples/libDaisy//src/dev/oled_ssd130x.h ****     };
 6091              		.loc 7 45 30 is_stmt 0 view .LVU1511
 6092 022e 0096     		str	r6, [sp]
 6093 0230 3B46     		mov	r3, r7
 6094 0232 2179     		ldrb	r1, [r4, #4]	@ zero_extendqisi2
 6095 0234 03AA     		add	r2, sp, #12
 6096 0236 2046     		mov	r0, r4
  44:../../DaisyExamples/libDaisy//src/dev/oled_ssd130x.h ****         i2c_.TransmitBlocking(i2c_address_, buf, 2, 1000);
 6097              		.loc 7 44 36 view .LVU1512
 6098 0238 AF24     		movs	r4, #175
 6099              	.LVL447:
  44:../../DaisyExamples/libDaisy//src/dev/oled_ssd130x.h ****         i2c_.TransmitBlocking(i2c_address_, buf, 2, 1000);
 6100              		.loc 7 44 17 view .LVU1513
 6101 023a 8DF80C50 		strb	r5, [sp, #12]
  44:../../DaisyExamples/libDaisy//src/dev/oled_ssd130x.h ****         i2c_.TransmitBlocking(i2c_address_, buf, 2, 1000);
 6102              		.loc 7 44 36 view .LVU1514
 6103 023e 8DF80D40 		strb	r4, [sp, #13]
  45:../../DaisyExamples/libDaisy//src/dev/oled_ssd130x.h ****     };
 6104              		.loc 7 45 9 is_stmt 1 view .LVU1515
  45:../../DaisyExamples/libDaisy//src/dev/oled_ssd130x.h ****     };
 6105              		.loc 7 45 30 is_stmt 0 view .LVU1516
 6106 0242 FFF7FEFF 		bl	_ZN5daisy9I2CHandle16TransmitBlockingEtPhtm
 6107              	.LVL448:
  45:../../DaisyExamples/libDaisy//src/dev/oled_ssd130x.h ****     };
 6108              		.loc 7 45 30 view .LVU1517
 6109              	.LBE1449:
ARM GAS  /var/folders/hp/45mn71hd0ps5f5pnytxy5bt00000gn/T//ccdvmoSj.s 			page 167


 6110              	.LBE1448:
 347:../../DaisyExamples/libDaisy//src/dev/oled_ssd130x.h **** 
 6111              		.loc 7 347 5 view .LVU1518
 6112 0246 05B0     		add	sp, sp, #20
 6113              		.cfi_def_cfa_offset 36
 6114              		@ sp needed
 6115 0248 BDE8F040 		pop	{r4, r5, r6, r7, lr}
 6116              		.cfi_restore 14
 6117              		.cfi_restore 7
 6118              		.cfi_restore 6
 6119              		.cfi_restore 5
 6120              		.cfi_restore 4
 6121              		.cfi_def_cfa_offset 16
 6122 024c 04B0     		add	sp, sp, #16
 6123              		.cfi_def_cfa_offset 0
 6124 024e 7047     		bx	lr
 6125              		.cfi_endproc
 6126              	.LFE2656:
 6128              		.section	.rodata.main.str1.4,"aMS",%progbits,1
 6129              		.align	2
 6130              	.LC2:
 6131 0000 54657374 		.ascii	"Testing. . .\000"
 6131      696E672E 
 6131      202E202E 
 6131      00
 6132 000d 000000   		.align	2
 6133              	.LC3:
 6134 0010 44616973 		.ascii	"Daisy. . .\000"
 6134      792E202E 
 6134      202E00
 6135 001b 00       		.align	2
 6136              	.LC4:
 6137 001c 312E202E 		.ascii	"1. . .\000"
 6137      202E00
 6138 0023 00       		.align	2
 6139              	.LC5:
 6140 0024 322E202E 		.ascii	"2. . .\000"
 6140      202E00
 6141 002b 00       		.align	2
 6142              	.LC6:
 6143 002c 332E202E 		.ascii	"3. . .\000"
 6143      202E00
 6144              		.section	.text.startup.main,"ax",%progbits
 6145              		.align	1
 6146              		.p2align 2,,3
 6147              		.global	main
 6148              		.syntax unified
 6149              		.thumb
 6150              		.thumb_func
 6152              	main:
 6153              	.LFB2596:
 6154              		.file 11 "displayDaisy.cpp"
   1:displayDaisy.cpp **** #include <stdio.h>
   2:displayDaisy.cpp **** #include <string.h>
   3:displayDaisy.cpp **** #include "daisy_pod.h"
   4:displayDaisy.cpp **** #include "dev/oled_ssd130x.h"
   5:displayDaisy.cpp **** 
ARM GAS  /var/folders/hp/45mn71hd0ps5f5pnytxy5bt00000gn/T//ccdvmoSj.s 			page 168


   6:displayDaisy.cpp **** using namespace daisy;
   7:displayDaisy.cpp **** 
   8:displayDaisy.cpp **** using MyOledDisplay = OledDisplay<SSD130xI2c128x32Driver>;
   9:displayDaisy.cpp **** 
  10:displayDaisy.cpp **** DaisySeed     hw;
  11:displayDaisy.cpp **** MyOledDisplay display;
  12:displayDaisy.cpp **** 
  13:displayDaisy.cpp **** int main(void)
  14:displayDaisy.cpp **** {
 6155              		.loc 11 14 1 is_stmt 1 view -0
 6156              		.cfi_startproc
 6157              		@ args = 0, pretend = 0, frame = 160
 6158              		@ frame_needed = 0, uses_anonymous_args = 0
  15:displayDaisy.cpp ****     uint8_t message_idx;
 6159              		.loc 11 15 5 view .LVU1520
  16:displayDaisy.cpp ****     hw.Configure();
 6160              		.loc 11 16 5 view .LVU1521
  14:displayDaisy.cpp ****     uint8_t message_idx;
 6161              		.loc 11 14 1 is_stmt 0 view .LVU1522
 6162 0000 2DE9F04F 		push	{r4, r5, r6, r7, r8, r9, r10, fp, lr}
 6163              		.cfi_def_cfa_offset 36
 6164              		.cfi_offset 4, -36
 6165              		.cfi_offset 5, -32
 6166              		.cfi_offset 6, -28
 6167              		.cfi_offset 7, -24
 6168              		.cfi_offset 8, -20
 6169              		.cfi_offset 9, -16
 6170              		.cfi_offset 10, -12
 6171              		.cfi_offset 11, -8
 6172              		.cfi_offset 14, -4
 6173 0004 0024     		movs	r4, #0
 6174 0006 ADB0     		sub	sp, sp, #180
 6175              		.cfi_def_cfa_offset 216
 6176              		.loc 11 16 17 view .LVU1523
 6177 0008 9048     		ldr	r0, .L433
 6178 000a FFF7FEFF 		bl	_ZN5daisy9DaisySeed9ConfigureEv
 6179              	.LVL449:
  17:displayDaisy.cpp ****     hw.Init();
 6180              		.loc 11 17 5 is_stmt 1 view .LVU1524
 6181              		.loc 11 17 12 is_stmt 0 view .LVU1525
 6182 000e 2146     		mov	r1, r4
 6183 0010 8E48     		ldr	r0, .L433
 6184 0012 FFF7FEFF 		bl	_ZN5daisy9DaisySeed4InitEb
 6185              	.LVL450:
  18:displayDaisy.cpp **** 
  19:displayDaisy.cpp ****     /** Configure the Display */
  20:displayDaisy.cpp ****     MyOledDisplay::Config disp_cfg;
 6186              		.loc 11 20 5 is_stmt 1 view .LVU1526
 6187              	.LBB1516:
 6188              	.LBI1516:
  20:../../DaisyExamples/libDaisy//src/hid/disp/oled_display.h ****     {
 6189              		.loc 6 20 12 view .LVU1527
 6190              	.LBB1517:
 6191              	.LBI1517:
 248:../../DaisyExamples/libDaisy//src/dev/oled_ssd130x.h ****     {
 6192              		.loc 7 248 12 view .LVU1528
 6193              	.LBB1518:
ARM GAS  /var/folders/hp/45mn71hd0ps5f5pnytxy5bt00000gn/T//ccdvmoSj.s 			page 169


 6194              	.LBI1518:
  20:../../DaisyExamples/libDaisy//src/dev/oled_ssd130x.h ****         {
 6195              		.loc 7 20 9 view .LVU1529
 6196              	.LBB1519:
 6197              	.LBI1519:
 6198              		.file 12 "../../DaisyExamples/libDaisy//src/per/i2c.h"
   1:../../DaisyExamples/libDaisy//src/per/i2c.h **** #pragma once
   2:../../DaisyExamples/libDaisy//src/per/i2c.h **** #include "daisy_core.h"
   3:../../DaisyExamples/libDaisy//src/per/i2c.h **** 
   4:../../DaisyExamples/libDaisy//src/per/i2c.h **** namespace daisy
   5:../../DaisyExamples/libDaisy//src/per/i2c.h **** {
   6:../../DaisyExamples/libDaisy//src/per/i2c.h **** /** A handle for interacting with an I2C peripheral. This is a dumb
   7:../../DaisyExamples/libDaisy//src/per/i2c.h ****  *  gateway that internally points to one of the four I2C peripherals
   8:../../DaisyExamples/libDaisy//src/per/i2c.h ****  *  after it was initialised. It can then be copied and passed around.
   9:../../DaisyExamples/libDaisy//src/per/i2c.h ****  *  Use an I2CHandle like this:
  10:../../DaisyExamples/libDaisy//src/per/i2c.h ****  *  
  11:../../DaisyExamples/libDaisy//src/per/i2c.h ****  *      // setup the configuration
  12:../../DaisyExamples/libDaisy//src/per/i2c.h ****  *      I2CHandle::Config i2c_conf;
  13:../../DaisyExamples/libDaisy//src/per/i2c.h ****  *      i2c_conf.periph = I2CHandle::Config::Peripheral::I2C_1;
  14:../../DaisyExamples/libDaisy//src/per/i2c.h ****  *      i2c_conf.speed  = I2CHandle::Config::Speed::I2C_400KHZ;
  15:../../DaisyExamples/libDaisy//src/per/i2c.h ****  *      i2c_conf.mode   = I2CHandle::Config::Mode::Master;
  16:../../DaisyExamples/libDaisy//src/per/i2c.h ****  *      i2c_conf.pin_config.scl  = {DSY_GPIOB, 8};
  17:../../DaisyExamples/libDaisy//src/per/i2c.h ****  *      i2c_conf.pin_config.sda  = {DSY_GPIOB, 9};
  18:../../DaisyExamples/libDaisy//src/per/i2c.h ****  *      // initialise the peripheral
  19:../../DaisyExamples/libDaisy//src/per/i2c.h ****  *      I2CHandle i2c;
  20:../../DaisyExamples/libDaisy//src/per/i2c.h ****  *      i2c.Init(i2c_conf);
  21:../../DaisyExamples/libDaisy//src/per/i2c.h ****  *      // now i2c points to the corresponding peripheral and can be used.
  22:../../DaisyExamples/libDaisy//src/per/i2c.h ****  *      i2c.TransmitBlocking( ... );
  23:../../DaisyExamples/libDaisy//src/per/i2c.h ****  */
  24:../../DaisyExamples/libDaisy//src/per/i2c.h **** class I2CHandle
  25:../../DaisyExamples/libDaisy//src/per/i2c.h **** {
  26:../../DaisyExamples/libDaisy//src/per/i2c.h ****   public:
  27:../../DaisyExamples/libDaisy//src/per/i2c.h ****     /** Contains settings for initialising an I2C interface. */
  28:../../DaisyExamples/libDaisy//src/per/i2c.h ****     struct Config
 6199              		.loc 12 28 12 view .LVU1530
 6200              		.loc 12 28 12 is_stmt 0 view .LVU1531
 6201              	.LBE1519:
 6202              	.LBE1518:
 6203              	.LBE1517:
 6204              	.LBE1516:
  23:../../DaisyExamples/libDaisy//src/dev/oled_ssd130x.h ****         }
 6205              		.loc 7 23 13 is_stmt 1 view .LVU1532
 6206              	.LBB1523:
 6207              	.LBB1522:
 6208              	.LBB1521:
 6209              	.LBB1520:
 6210              	.LBI1520:
  27:../../DaisyExamples/libDaisy//src/dev/oled_ssd130x.h ****         {
 6211              		.loc 7 27 27 view .LVU1533
 6212              	.LBE1520:
 6213              	.LBE1521:
 6214              	.LBE1522:
 6215              	.LBE1523:
  29:../../DaisyExamples/libDaisy//src/dev/oled_ssd130x.h ****             i2c_config.speed          = I2CHandle::Config::Speed::I2C_1MHZ;
 6216              		.loc 7 29 13 view .LVU1534
  30:../../DaisyExamples/libDaisy//src/dev/oled_ssd130x.h ****             i2c_config.mode           = I2CHandle::Config::Mode::I2C_MASTER;
 6217              		.loc 7 30 13 view .LVU1535
ARM GAS  /var/folders/hp/45mn71hd0ps5f5pnytxy5bt00000gn/T//ccdvmoSj.s 			page 170


  31:../../DaisyExamples/libDaisy//src/dev/oled_ssd130x.h ****             i2c_config.pin_config.scl = {DSY_GPIOB, 8};
 6218              		.loc 7 31 13 view .LVU1536
  32:../../DaisyExamples/libDaisy//src/dev/oled_ssd130x.h ****             i2c_config.pin_config.sda = {DSY_GPIOB, 9};
 6219              		.loc 7 32 13 view .LVU1537
  33:../../DaisyExamples/libDaisy//src/dev/oled_ssd130x.h ****             i2c_address               = 0x3C;
 6220              		.loc 7 33 13 view .LVU1538
  34:../../DaisyExamples/libDaisy//src/dev/oled_ssd130x.h ****         }
 6221              		.loc 7 34 13 view .LVU1539
  21:displayDaisy.cpp ****     disp_cfg.driver_config.transport_config.i2c_address               = 0x3C;
 6222              		.loc 11 21 5 view .LVU1540
  22:displayDaisy.cpp ****     disp_cfg.driver_config.transport_config.i2c_config.periph         = I2CHandle::Config::Peripher
 6223              		.loc 11 22 5 view .LVU1541
  23:displayDaisy.cpp ****     disp_cfg.driver_config.transport_config.i2c_config.speed          = I2CHandle::Config::Speed::I
 6224              		.loc 11 23 5 view .LVU1542
  24:displayDaisy.cpp ****     disp_cfg.driver_config.transport_config.i2c_config.mode           = I2CHandle::Config::Mode::I2
 6225              		.loc 11 24 5 view .LVU1543
  25:displayDaisy.cpp ****     disp_cfg.driver_config.transport_config.i2c_config.pin_config.scl = {DSY_GPIOB, 8};    disp_cfg
 6226              		.loc 11 25 5 view .LVU1544
 6227              		.loc 11 25 92 view .LVU1545
  26:displayDaisy.cpp ****     /** And Initialize */
  27:displayDaisy.cpp ****     display.Init(disp_cfg);
 6228              		.loc 11 27 5 view .LVU1546
 6229              		.loc 11 27 5 is_stmt 0 view .LVU1547
 6230 0016 3C22     		movs	r2, #60
 6231 0018 1021     		movs	r1, #16
 6232 001a 0F94     		str	r4, [sp, #60]
 6233              	.LBB1524:
 6234              	.LBB1525:
  25:../../DaisyExamples/libDaisy//src/hid/disp/oled_display.h **** 
 6235              		.loc 6 25 44 view .LVU1548
 6236 001c 0DEB0203 		add	r3, sp, r2
 6237 0020 8DF84420 		strb	r2, [sp, #68]
 6238              	.LBE1525:
 6239              	.LBI1524:
  25:../../DaisyExamples/libDaisy//src/hid/disp/oled_display.h **** 
 6240              		.loc 6 25 10 is_stmt 1 view .LVU1549
 6241 0024 8DF84010 		strb	r1, [sp, #64]
 6242 0028 894D     		ldr	r5, .L433+4
 6243 002a DFF854B2 		ldr	fp, .L433+52
 6244              	.LBE1524:
  28:displayDaisy.cpp ****     message_idx = 0;
 6245              		.loc 11 28 17 is_stmt 0 view .LVU1550
 6246 002e 0994     		str	r4, [sp, #36]
 6247              	.LBB1527:
 6248              	.LBB1526:
  25:../../DaisyExamples/libDaisy//src/hid/disp/oled_display.h **** 
 6249              		.loc 6 25 44 view .LVU1551
 6250 0030 93E80700 		ldm	r3, {r0, r1, r2}
 6251 0034 0CAB     		add	r3, sp, #48
 6252 0036 0E94     		str	r4, [sp, #56]
 6253 0038 8DE80700 		stm	sp, {r0, r1, r2}
 6254 003c CDE90C45 		strd	r4, r5, [sp, #48]
 6255 0040 0BF10800 		add	r0, fp, #8
 6256 0044 0ECB     		ldm	r3, {r1, r2, r3}
 6257 0046 FFF7FEFF 		bl	_ZN5daisy13SSD130xDriverILj128ELj32ENS_19SSD130xI2CTransportEE4InitENS2_6ConfigE
 6258              	.LVL451:
  25:../../DaisyExamples/libDaisy//src/hid/disp/oled_display.h **** 
ARM GAS  /var/folders/hp/45mn71hd0ps5f5pnytxy5bt00000gn/T//ccdvmoSj.s 			page 171


 6259              		.loc 6 25 44 view .LVU1552
 6260              	.LBE1526:
 6261              	.LBE1527:
 6262              		.loc 11 28 5 is_stmt 1 view .LVU1553
 6263              	.L421:
  29:displayDaisy.cpp ****     char strbuff[128];
 6264              		.loc 11 29 5 view .LVU1554
  30:displayDaisy.cpp ****     while(1)
 6265              		.loc 11 30 5 view .LVU1555
  31:displayDaisy.cpp ****     {
  32:displayDaisy.cpp ****         System::Delay(500);
 6266              		.loc 11 32 9 view .LVU1556
 6267              		.loc 11 32 22 is_stmt 0 view .LVU1557
 6268 004a 4FF4FA70 		mov	r0, #500
 6269 004e FFF7FEFF 		bl	_ZN5daisy6System5DelayEm
 6270              	.LVL452:
  33:displayDaisy.cpp ****         switch(message_idx)
 6271              		.loc 11 33 9 is_stmt 1 view .LVU1558
 6272 0052 099B     		ldr	r3, [sp, #36]
 6273 0054 042B     		cmp	r3, #4
 6274 0056 0FD8     		bhi	.L401
 6275 0058 DFE813F0 		tbh	[pc, r3, lsl #1]
 6276              	.L403:
 6277 005c E900     		.2byte	(.L407-.L403)/2
 6278 005e EF00     		.2byte	(.L406-.L403)/2
 6279 0060 E700     		.2byte	(.L405-.L403)/2
 6280 0062 E500     		.2byte	(.L404-.L403)/2
 6281 0064 0500     		.2byte	(.L402-.L403)/2
 6282              		.p2align 1
 6283              	.L402:
  34:displayDaisy.cpp ****         {
  35:displayDaisy.cpp ****             case 0: sprintf(strbuff, "Testing. . ."); break;
  36:displayDaisy.cpp ****             case 1: sprintf(strbuff, "Daisy. . ."); break;
  37:displayDaisy.cpp ****             case 2: sprintf(strbuff, "1. . ."); break;
  38:displayDaisy.cpp ****             case 3: sprintf(strbuff, "2. . ."); break;
  39:displayDaisy.cpp ****             case 4: sprintf(strbuff, "3. . ."); break;
 6284              		.loc 11 39 13 view .LVU1559
 6285              		.loc 11 39 21 view .LVU1560
 6286              		.loc 11 39 28 is_stmt 0 view .LVU1561
 6287 0066 7B4B     		ldr	r3, .L433+8
 6288              	.L431:
 6289 0068 93E80300 		ldm	r3, {r0, r1}
 6290 006c ADF83410 		strh	r1, [sp, #52]	@ movhi
 6291 0070 090C     		lsrs	r1, r1, #16
 6292 0072 0C90     		str	r0, [sp, #48]
 6293 0074 8DF83610 		strb	r1, [sp, #54]
 6294              		.loc 11 39 49 is_stmt 1 view .LVU1562
 6295              	.LVL453:
 6296              	.L401:
  40:displayDaisy.cpp ****             default: break;
  41:displayDaisy.cpp ****         }
  42:displayDaisy.cpp ****         message_idx = (message_idx + 1) % 5;
 6297              		.loc 11 42 9 view .LVU1563
 6298              		.loc 11 42 36 is_stmt 0 view .LVU1564
 6299 0078 099B     		ldr	r3, [sp, #36]
 6300              	.LBB1528:
 6301              	.LBB1529:
ARM GAS  /var/folders/hp/45mn71hd0ps5f5pnytxy5bt00000gn/T//ccdvmoSj.s 			page 172


 6302              	.LBB1530:
 366:../../DaisyExamples/libDaisy//src/dev/oled_ssd130x.h ****         }
 6303              		.loc 7 366 24 view .LVU1565
 6304 007a FF21     		movs	r1, #255
 6305              	.LBE1530:
 6306              	.LBE1529:
 6307              	.LBE1528:
 6308              		.loc 11 42 41 view .LVU1566
 6309 007c 764C     		ldr	r4, .L433+12
 6310              		.loc 11 42 36 view .LVU1567
 6311 007e 0133     		adds	r3, r3, #1
 6312              	.LBB1537:
 6313              	.LBB1534:
 6314              	.LBB1531:
 366:../../DaisyExamples/libDaisy//src/dev/oled_ssd130x.h ****         }
 6315              		.loc 7 366 24 view .LVU1568
 6316 0080 7648     		ldr	r0, .L433+16
 6317              	.LBE1531:
 6318              	.LBE1534:
 6319              	.LBE1537:
 6320              		.loc 11 42 36 view .LVU1569
 6321 0082 DBB2     		uxtb	r3, r3
 6322              		.loc 11 42 41 view .LVU1570
 6323 0084 A4FB0324 		umull	r2, r4, r4, r3
 6324              	.LBB1538:
 6325              	.LBB1535:
 6326              	.LBB1532:
 366:../../DaisyExamples/libDaisy//src/dev/oled_ssd130x.h ****         }
 6327              		.loc 7 366 24 view .LVU1571
 6328 0088 4FF40072 		mov	r2, #512
 6329              	.LBE1532:
 6330              	.LBE1535:
 6331              	.LBE1538:
 6332              		.loc 11 42 41 view .LVU1572
 6333 008c 04F0FC05 		and	r5, r4, #252
 6334 0090 05EB9404 		add	r4, r5, r4, lsr #2
 6335 0094 1B1B     		subs	r3, r3, r4
 6336              		.loc 11 42 21 view .LVU1573
 6337 0096 DBB2     		uxtb	r3, r3
 6338 0098 0993     		str	r3, [sp, #36]
 6339              	.LVL454:
  43:displayDaisy.cpp ****         display.Fill(true);
 6340              		.loc 11 43 9 is_stmt 1 view .LVU1574
 6341              	.LBB1539:
 6342              	.LBI1528:
  34:../../DaisyExamples/libDaisy//src/hid/disp/oled_display.h **** 
 6343              		.loc 6 34 10 view .LVU1575
 6344              	.LBB1536:
 6345              	.LBI1529:
 362:../../DaisyExamples/libDaisy//src/dev/oled_ssd130x.h ****     {
 6346              		.loc 7 362 10 view .LVU1576
 6347              	.LBB1533:
 364:../../DaisyExamples/libDaisy//src/dev/oled_ssd130x.h ****         {
 6348              		.loc 7 364 29 view .LVU1577
 366:../../DaisyExamples/libDaisy//src/dev/oled_ssd130x.h ****         }
 6349              		.loc 7 366 24 is_stmt 0 view .LVU1578
 6350 009a FFF7FEFF 		bl	memset
ARM GAS  /var/folders/hp/45mn71hd0ps5f5pnytxy5bt00000gn/T//ccdvmoSj.s 			page 173


 6351              	.LVL455:
 366:../../DaisyExamples/libDaisy//src/dev/oled_ssd130x.h ****         }
 6352              		.loc 7 366 24 view .LVU1579
 6353              	.LBE1533:
 6354              	.LBE1536:
 6355              	.LBE1539:
  44:displayDaisy.cpp ****         display.SetCursor(0, 0);
 6356              		.loc 11 44 9 is_stmt 1 view .LVU1580
 6357              	.LBB1540:
 6358              	.LBI1540:
 171:../../DaisyExamples/libDaisy//src/hid/disp/display.h ****     {
 6359              		.loc 8 171 10 view .LVU1581
 6360              	.LBB1541:
 173:../../DaisyExamples/libDaisy//src/hid/disp/display.h ****         currentY_ = (y >= Height()) ? Height() - 1 : y;
 6361              		.loc 8 173 9 view .LVU1582
 174:../../DaisyExamples/libDaisy//src/hid/disp/display.h ****     }
 6362              		.loc 8 174 9 view .LVU1583
 6363 009e 704A     		ldr	r2, .L433+20
 173:../../DaisyExamples/libDaisy//src/hid/disp/display.h ****         currentY_ = (y >= Height()) ? Height() - 1 : y;
 6364              		.loc 8 173 19 is_stmt 0 view .LVU1584
 6365 00a0 0023     		movs	r3, #0
 6366 00a2 5178     		ldrb	r1, [r2, #1]	@ zero_extendqisi2
 6367 00a4 92F800A0 		ldrb	r10, [r2]	@ zero_extendqisi2
 6368 00a8 CBF80430 		str	r3, [fp, #4]
 6369              	.LVL456:
 173:../../DaisyExamples/libDaisy//src/hid/disp/display.h ****         currentY_ = (y >= Height()) ? Height() - 1 : y;
 6370              		.loc 8 173 19 view .LVU1585
 6371              	.LBE1541:
 6372              	.LBE1540:
  45:displayDaisy.cpp ****         //display.DrawCircle(20, 20, 10, true);
  46:displayDaisy.cpp ****         display.WriteString(strbuff, Font_11x18, false);
 6373              		.loc 11 46 9 is_stmt 1 view .LVU1586
 6374              		.loc 11 46 9 is_stmt 0 view .LVU1587
 6375 00ac 5268     		ldr	r2, [r2, #4]
 6376              	.LBB1542:
 6377              	.LBB1543:
 443:../../DaisyExamples/libDaisy//src/hid/disp/display.h ****         {
 6378              		.loc 8 443 9 view .LVU1588
 6379 00ae 9DF83030 		ldrb	r3, [sp, #48]	@ zero_extendqisi2
 6380 00b2 0791     		str	r1, [sp, #28]
 6381              	.LVL457:
 443:../../DaisyExamples/libDaisy//src/hid/disp/display.h ****         {
 6382              		.loc 8 443 9 view .LVU1589
 6383 00b4 0892     		str	r2, [sp, #32]
 6384              	.LVL458:
 443:../../DaisyExamples/libDaisy//src/hid/disp/display.h ****         {
 6385              		.loc 8 443 9 view .LVU1590
 6386              	.LBE1543:
 6387              	.LBI1542:
 440:../../DaisyExamples/libDaisy//src/hid/disp/display.h ****     {
 6388              		.loc 8 440 10 is_stmt 1 view .LVU1591
 6389              	.LBB1581:
 443:../../DaisyExamples/libDaisy//src/hid/disp/display.h ****         {
 6390              		.loc 8 443 9 view .LVU1592
 6391 00b6 002B     		cmp	r3, #0
 6392 00b8 6FD0     		beq	.L409
 6393 00ba 0CAA     		add	r2, sp, #48
ARM GAS  /var/folders/hp/45mn71hd0ps5f5pnytxy5bt00000gn/T//ccdvmoSj.s 			page 174


 6394              	.LVL459:
 443:../../DaisyExamples/libDaisy//src/hid/disp/display.h ****         {
 6395              		.loc 8 443 9 is_stmt 0 view .LVU1593
 6396 00bc 5546     		mov	r5, r10
 6397 00be 0592     		str	r2, [sp, #20]
 6398              	.LVL460:
 6399              	.L408:
 6400              	.LBB1544:
 6401              	.LBI1544:
 396:../../DaisyExamples/libDaisy//src/hid/disp/display.h ****     {
 6402              		.loc 8 396 10 is_stmt 1 view .LVU1594
 6403              	.LBB1545:
 401:../../DaisyExamples/libDaisy//src/hid/disp/display.h ****             return 0;
 6404              		.loc 8 401 20 is_stmt 0 view .LVU1595
 6405 00c0 203B     		subs	r3, r3, #32
 6406              	.LVL461:
 401:../../DaisyExamples/libDaisy//src/hid/disp/display.h ****             return 0;
 6407              		.loc 8 401 9 view .LVU1596
 6408 00c2 DAB2     		uxtb	r2, r3
 6409 00c4 5E2A     		cmp	r2, #94
 6410 00c6 68D8     		bhi	.L409
 405:../../DaisyExamples/libDaisy//src/hid/disp/display.h ****            || Height() < (currentY_ + font.FontHeight))
 6411              		.loc 8 405 23 view .LVU1597
 6412 00c8 BBF80490 		ldrh	r9, [fp, #4]
 405:../../DaisyExamples/libDaisy//src/hid/disp/display.h ****            || Height() < (currentY_ + font.FontHeight))
 6413              		.loc 8 405 33 view .LVU1598
 6414 00cc 09EB0508 		add	r8, r9, r5
 406:../../DaisyExamples/libDaisy//src/hid/disp/display.h ****         {
 6415              		.loc 8 406 12 view .LVU1599
 6416 00d0 B8F1800F 		cmp	r8, #128
 6417 00d4 61DC     		bgt	.L409
 406:../../DaisyExamples/libDaisy//src/hid/disp/display.h ****         {
 6418              		.loc 8 406 27 view .LVU1600
 6419 00d6 BBF80620 		ldrh	r2, [fp, #6]
 406:../../DaisyExamples/libDaisy//src/hid/disp/display.h ****         {
 6420              		.loc 8 406 37 view .LVU1601
 6421 00da 0799     		ldr	r1, [sp, #28]
 406:../../DaisyExamples/libDaisy//src/hid/disp/display.h ****         {
 6422              		.loc 8 406 27 view .LVU1602
 6423 00dc 0692     		str	r2, [sp, #24]
 406:../../DaisyExamples/libDaisy//src/hid/disp/display.h ****         {
 6424              		.loc 8 406 37 view .LVU1603
 6425 00de 0A44     		add	r2, r2, r1
 406:../../DaisyExamples/libDaisy//src/hid/disp/display.h ****         {
 6426              		.loc 8 406 12 view .LVU1604
 6427 00e0 202A     		cmp	r2, #32
 6428 00e2 5ADC     		bgt	.L409
 6429              	.LVL462:
 413:../../DaisyExamples/libDaisy//src/hid/disp/display.h ****         {
 6430              		.loc 8 413 22 is_stmt 1 view .LVU1605
 6431 00e4 0029     		cmp	r1, #0
 6432 00e6 43D0     		beq	.L414
 415:../../DaisyExamples/libDaisy//src/hid/disp/display.h ****             for(j = 0; j < font.FontWidth; j++)
 6433              		.loc 8 415 37 is_stmt 0 view .LVU1606
 6434 00e8 079A     		ldr	r2, [sp, #28]
 6435 00ea 6FF0004C 		mvn	ip, #-2147483648
 6436 00ee 069C     		ldr	r4, [sp, #24]
ARM GAS  /var/folders/hp/45mn71hd0ps5f5pnytxy5bt00000gn/T//ccdvmoSj.s 			page 175


 6437 00f0 02FB03F3 		mul	r3, r2, r3
 6438 00f4 9C44     		add	ip, ip, r3
 6439 00f6 1344     		add	r3, r3, r2
 6440 00f8 089A     		ldr	r2, [sp, #32]
 6441 00fa A2F1020A 		sub	r10, r2, #2
 6442 00fe 02EB4C0C 		add	ip, r2, ip, lsl #1
 6443 0102 0AEB430A 		add	r10, r10, r3, lsl #1
 6444              	.LVL463:
 6445              	.L415:
 415:../../DaisyExamples/libDaisy//src/hid/disp/display.h ****             for(j = 0; j < font.FontWidth; j++)
 6446              		.loc 8 415 15 view .LVU1607
 6447 0106 3CF8026F 		ldrh	r6, [ip, #2]!
 6448              	.LVL464:
 416:../../DaisyExamples/libDaisy//src/hid/disp/display.h ****             {
 6449              		.loc 8 416 26 is_stmt 1 view .LVU1608
 6450 010a 6DB3     		cbz	r5, .L418
 6451              	.LBB1546:
 6452              	.LBB1547:
 6453              	.LBB1548:
 357:../../DaisyExamples/libDaisy//src/dev/oled_ssd130x.h ****         else
 6454              		.loc 7 357 54 is_stmt 0 view .LVU1609
 6455 010c 04F00703 		and	r3, r4, #7
 357:../../DaisyExamples/libDaisy//src/dev/oled_ssd130x.h ****         else
 6456              		.loc 7 357 48 view .LVU1610
 6457 0110 0127     		movs	r7, #1
 357:../../DaisyExamples/libDaisy//src/dev/oled_ssd130x.h ****         else
 6458              		.loc 7 357 28 view .LVU1611
 6459 0112 E208     		lsrs	r2, r4, #3
 6460 0114 4946     		mov	r1, r9
 357:../../DaisyExamples/libDaisy//src/dev/oled_ssd130x.h ****         else
 6461              		.loc 7 357 48 view .LVU1612
 6462 0116 9F40     		lsls	r7, r7, r3
 6463 0118 09F11003 		add	r3, r9, #16
 357:../../DaisyExamples/libDaisy//src/dev/oled_ssd130x.h ****         else
 6464              		.loc 7 357 42 view .LVU1613
 6465 011c 7FB2     		sxtb	r7, r7
 6466 011e 03EBC212 		add	r2, r3, r2, lsl #7
 6467              	.LBE1548:
 6468              	.LBE1547:
 6469              	.LBE1546:
 416:../../DaisyExamples/libDaisy//src/hid/disp/display.h ****             {
 6470              		.loc 8 416 19 view .LVU1614
 6471 0122 0023     		movs	r3, #0
 6472              	.LBB1556:
 6473              	.LBB1557:
 6474              	.LBB1558:
 6475              	.LBB1559:
 6476              	.LBB1560:
 359:../../DaisyExamples/libDaisy//src/dev/oled_ssd130x.h ****     }
 6477              		.loc 7 359 42 view .LVU1615
 6478 0124 6FEA070E 		mvn	lr, r7
 6479 0128 5A44     		add	r2, r2, fp
 6480 012a 0CE0     		b	.L419
 6481              	.LVL465:
 6482              	.L432:
 359:../../DaisyExamples/libDaisy//src/dev/oled_ssd130x.h ****     }
 6483              		.loc 7 359 42 view .LVU1616
ARM GAS  /var/folders/hp/45mn71hd0ps5f5pnytxy5bt00000gn/T//ccdvmoSj.s 			page 176


 6484              	.LBE1560:
 6485              	.LBI1559:
 352:../../DaisyExamples/libDaisy//src/dev/oled_ssd130x.h ****     {
 6486              		.loc 7 352 10 is_stmt 1 view .LVU1617
 352:../../DaisyExamples/libDaisy//src/dev/oled_ssd130x.h ****     {
 6487              		.loc 7 352 10 is_stmt 0 view .LVU1618
 6488              	.LBE1559:
 354:../../DaisyExamples/libDaisy//src/dev/oled_ssd130x.h ****             return;
 6489              		.loc 7 354 9 view .LVU1619
 6490 012c 7F29     		cmp	r1, #127
 6491 012e 05D8     		bhi	.L417
 6492 0130 1F2C     		cmp	r4, #31
 6493 0132 03D8     		bhi	.L417
 6494              	.LBB1562:
 6495              	.LBB1561:
 359:../../DaisyExamples/libDaisy//src/dev/oled_ssd130x.h ****     }
 6496              		.loc 7 359 42 view .LVU1620
 6497 0134 1078     		ldrb	r0, [r2]	@ zero_extendqisi2
 6498 0136 0EEA0000 		and	r0, lr, r0
 6499 013a 1070     		strb	r0, [r2]
 6500              	.LVL466:
 6501              	.L417:
 359:../../DaisyExamples/libDaisy//src/dev/oled_ssd130x.h ****     }
 6502              		.loc 7 359 42 view .LVU1621
 6503              	.LBE1561:
 6504              	.LBE1562:
 6505              	.LBE1558:
 6506              	.LBE1557:
 6507              	.LBE1556:
 416:../../DaisyExamples/libDaisy//src/hid/disp/display.h ****             {
 6508              		.loc 8 416 13 is_stmt 1 view .LVU1622
 6509 013c 0133     		adds	r3, r3, #1
 6510              	.LVL467:
 416:../../DaisyExamples/libDaisy//src/hid/disp/display.h ****             {
 6511              		.loc 8 416 26 view .LVU1623
 6512 013e 0132     		adds	r2, r2, #1
 6513 0140 0131     		adds	r1, r1, #1
 6514 0142 9D42     		cmp	r5, r3
 6515 0144 10D0     		beq	.L418
 6516              	.LVL468:
 6517              	.L419:
 6518              	.LBB1564:
 6519              	.LBI1556:
  42:../../DaisyExamples/libDaisy//src/hid/disp/oled_display.h ****     {
 6520              		.loc 6 42 10 view .LVU1624
 6521              	.LBB1563:
 6522              	.LBI1557:
 352:../../DaisyExamples/libDaisy//src/dev/oled_ssd130x.h ****     {
 6523              		.loc 7 352 10 view .LVU1625
 352:../../DaisyExamples/libDaisy//src/dev/oled_ssd130x.h ****     {
 6524              		.loc 7 352 10 is_stmt 0 view .LVU1626
 6525              	.LBE1563:
 6526              	.LBE1564:
 6527              	.LBB1565:
 6528              	.LBI1546:
  42:../../DaisyExamples/libDaisy//src/hid/disp/oled_display.h ****     {
 6529              		.loc 6 42 10 is_stmt 1 view .LVU1627
ARM GAS  /var/folders/hp/45mn71hd0ps5f5pnytxy5bt00000gn/T//ccdvmoSj.s 			page 177


 6530              	.LBB1552:
 6531              	.LBI1547:
 352:../../DaisyExamples/libDaisy//src/dev/oled_ssd130x.h ****     {
 6532              		.loc 7 352 10 view .LVU1628
 6533              	.LBE1552:
 6534              	.LBE1565:
 418:../../DaisyExamples/libDaisy//src/hid/disp/display.h ****                 {
 6535              		.loc 8 418 23 is_stmt 0 view .LVU1629
 6536 0146 06FA03F0 		lsl	r0, r6, r3
 418:../../DaisyExamples/libDaisy//src/hid/disp/display.h ****                 {
 6537              		.loc 8 418 17 view .LVU1630
 6538 014a 0004     		lsls	r0, r0, #16
 6539 014c EED4     		bmi	.L432
 6540              	.LBB1566:
 6541              	.LBB1553:
 6542              	.LBB1549:
 354:../../DaisyExamples/libDaisy//src/dev/oled_ssd130x.h ****             return;
 6543              		.loc 7 354 9 view .LVU1631
 6544 014e 7F29     		cmp	r1, #127
 6545 0150 F4D8     		bhi	.L417
 6546 0152 1F2C     		cmp	r4, #31
 6547 0154 F2D8     		bhi	.L417
 357:../../DaisyExamples/libDaisy//src/dev/oled_ssd130x.h ****         else
 6548              		.loc 7 357 42 view .LVU1632
 6549 0156 1078     		ldrb	r0, [r2]	@ zero_extendqisi2
 6550              	.LBE1549:
 6551              	.LBE1553:
 6552              	.LBE1566:
 416:../../DaisyExamples/libDaisy//src/hid/disp/display.h ****             {
 6553              		.loc 8 416 13 view .LVU1633
 6554 0158 0133     		adds	r3, r3, #1
 6555              	.LVL469:
 416:../../DaisyExamples/libDaisy//src/hid/disp/display.h ****             {
 6556              		.loc 8 416 26 view .LVU1634
 6557 015a 0132     		adds	r2, r2, #1
 6558 015c 0131     		adds	r1, r1, #1
 6559              	.LBB1567:
 6560              	.LBB1554:
 6561              	.LBB1550:
 357:../../DaisyExamples/libDaisy//src/dev/oled_ssd130x.h ****         else
 6562              		.loc 7 357 42 view .LVU1635
 6563 015e 3843     		orrs	r0, r0, r7
 6564              	.LBE1550:
 6565              	.LBE1554:
 6566              	.LBE1567:
 416:../../DaisyExamples/libDaisy//src/hid/disp/display.h ****             {
 6567              		.loc 8 416 26 view .LVU1636
 6568 0160 9D42     		cmp	r5, r3
 6569              	.LBB1568:
 6570              	.LBB1555:
 6571              	.LBB1551:
 357:../../DaisyExamples/libDaisy//src/dev/oled_ssd130x.h ****         else
 6572              		.loc 7 357 42 view .LVU1637
 6573 0162 02F8010C 		strb	r0, [r2, #-1]
 6574              	.LVL470:
 357:../../DaisyExamples/libDaisy//src/dev/oled_ssd130x.h ****         else
 6575              		.loc 7 357 42 view .LVU1638
ARM GAS  /var/folders/hp/45mn71hd0ps5f5pnytxy5bt00000gn/T//ccdvmoSj.s 			page 178


 6576              	.LBE1551:
 6577              	.LBE1555:
 6578              	.LBE1568:
 416:../../DaisyExamples/libDaisy//src/hid/disp/display.h ****             {
 6579              		.loc 8 416 13 is_stmt 1 view .LVU1639
 416:../../DaisyExamples/libDaisy//src/hid/disp/display.h ****             {
 6580              		.loc 8 416 26 view .LVU1640
 6581 0166 EED1     		bne	.L419
 6582              	.LVL471:
 6583              	.L418:
 413:../../DaisyExamples/libDaisy//src/hid/disp/display.h ****         {
 6584              		.loc 8 413 9 view .LVU1641
 413:../../DaisyExamples/libDaisy//src/hid/disp/display.h ****         {
 6585              		.loc 8 413 22 view .LVU1642
 6586 0168 D445     		cmp	ip, r10
 6587 016a 04F10104 		add	r4, r4, #1
 6588 016e CAD1     		bne	.L415
 6589              	.LVL472:
 6590              	.L414:
 6591              	.LBB1569:
 6592              	.LBI1569:
 171:../../DaisyExamples/libDaisy//src/hid/disp/display.h ****     {
 6593              		.loc 8 171 10 view .LVU1643
 6594              	.LBB1570:
 173:../../DaisyExamples/libDaisy//src/hid/disp/display.h ****         currentY_ = (y >= Height()) ? Height() - 1 : y;
 6595              		.loc 8 173 9 view .LVU1644
 174:../../DaisyExamples/libDaisy//src/hid/disp/display.h ****     }
 6596              		.loc 8 174 19 is_stmt 0 view .LVU1645
 6597 0170 069B     		ldr	r3, [sp, #24]
 173:../../DaisyExamples/libDaisy//src/hid/disp/display.h ****         currentY_ = (y >= Height()) ? Height() - 1 : y;
 6598              		.loc 8 173 19 view .LVU1646
 6599 0172 1FFA88F8 		uxth	r8, r8
 6600              	.LBE1570:
 6601              	.LBE1569:
 6602              	.LBE1545:
 6603              	.LBE1544:
 443:../../DaisyExamples/libDaisy//src/hid/disp/display.h ****         {
 6604              		.loc 8 443 9 view .LVU1647
 6605 0176 059A     		ldr	r2, [sp, #20]
 6606              	.LBB1578:
 6607              	.LBB1575:
 6608              	.LBB1573:
 6609              	.LBB1571:
 174:../../DaisyExamples/libDaisy//src/hid/disp/display.h ****     }
 6610              		.loc 8 174 19 view .LVU1648
 6611 0178 1F2B     		cmp	r3, #31
 6612 017a 28BF     		it	cs
 6613 017c 1F23     		movcs	r3, #31
 173:../../DaisyExamples/libDaisy//src/hid/disp/display.h ****         currentY_ = (y >= Height()) ? Height() - 1 : y;
 6614              		.loc 8 173 19 view .LVU1649
 6615 017e B8F17F0F 		cmp	r8, #127
 174:../../DaisyExamples/libDaisy//src/hid/disp/display.h ****     }
 6616              		.loc 8 174 19 view .LVU1650
 6617 0182 ABF80630 		strh	r3, [fp, #6]	@ movhi
 173:../../DaisyExamples/libDaisy//src/hid/disp/display.h ****         currentY_ = (y >= Height()) ? Height() - 1 : y;
 6618              		.loc 8 173 19 view .LVU1651
 6619 0186 28BF     		it	cs
ARM GAS  /var/folders/hp/45mn71hd0ps5f5pnytxy5bt00000gn/T//ccdvmoSj.s 			page 179


 6620 0188 4FF07F08 		movcs	r8, #127
 6621              	.LBE1571:
 6622              	.LBE1573:
 6623              	.LBE1575:
 6624              	.LBE1578:
 443:../../DaisyExamples/libDaisy//src/hid/disp/display.h ****         {
 6625              		.loc 8 443 9 view .LVU1652
 6626 018c 12F8013F 		ldrb	r3, [r2, #1]!	@ zero_extendqisi2
 6627              	.LBB1579:
 6628              	.LBB1576:
 6629              	.LBB1574:
 6630              	.LBB1572:
 173:../../DaisyExamples/libDaisy//src/hid/disp/display.h ****         currentY_ = (y >= Height()) ? Height() - 1 : y;
 6631              		.loc 8 173 19 view .LVU1653
 6632 0190 ABF80480 		strh	r8, [fp, #4]	@ movhi
 174:../../DaisyExamples/libDaisy//src/hid/disp/display.h ****     }
 6633              		.loc 8 174 9 is_stmt 1 view .LVU1654
 6634              	.LVL473:
 174:../../DaisyExamples/libDaisy//src/hid/disp/display.h ****     }
 6635              		.loc 8 174 9 is_stmt 0 view .LVU1655
 6636              	.LBE1572:
 6637              	.LBE1574:
 6638              	.LBE1576:
 6639              	.LBE1579:
 443:../../DaisyExamples/libDaisy//src/hid/disp/display.h ****         {
 6640              		.loc 8 443 9 is_stmt 1 view .LVU1656
 6641 0194 0592     		str	r2, [sp, #20]
 6642 0196 002B     		cmp	r3, #0
 6643 0198 92D1     		bne	.L408
 6644              	.LVL474:
 6645              	.L409:
 443:../../DaisyExamples/libDaisy//src/hid/disp/display.h ****         {
 6646              		.loc 8 443 9 is_stmt 0 view .LVU1657
 6647              	.LBE1581:
 6648              	.LBE1542:
  47:displayDaisy.cpp ****         display.Update();
 6649              		.loc 11 47 9 is_stmt 1 view .LVU1658
 6650              	.LBB1583:
 6651              	.LBI1583:
 6652              		.loc 6 51 10 view .LVU1659
 6653              	.LBB1584:
 6654              	.LBI1584:
 373:../../DaisyExamples/libDaisy//src/dev/oled_ssd130x.h ****     {
 6655              		.loc 7 373 10 view .LVU1660
 6656              	.LBB1585:
 6657              		.loc 7 383 22 view .LVU1661
 6658 019a 324D     		ldr	r5, .L433+24
 6659              	.LBE1585:
 6660              	.LBE1584:
 6661              	.LBE1583:
 6662              	.LBB1597:
 6663              	.LBB1582:
 6664              	.LBB1580:
 6665              	.LBB1577:
 416:../../DaisyExamples/libDaisy//src/hid/disp/display.h ****             {
 6666              		.loc 8 416 19 is_stmt 0 view .LVU1662
 6667 019c B026     		movs	r6, #176
ARM GAS  /var/folders/hp/45mn71hd0ps5f5pnytxy5bt00000gn/T//ccdvmoSj.s 			page 180


 6668              	.LVL475:
 6669              	.L422:
 416:../../DaisyExamples/libDaisy//src/hid/disp/display.h ****             {
 6670              		.loc 8 416 19 view .LVU1663
 6671              	.LBE1577:
 6672              	.LBE1580:
 6673              	.LBE1582:
 6674              	.LBE1597:
 6675              	.LBB1598:
 6676              	.LBB1596:
 6677              	.LBB1595:
 6678              	.LBB1586:
 6679              	.LBI1586:
  42:../../DaisyExamples/libDaisy//src/dev/oled_ssd130x.h ****     {
 6680              		.loc 7 42 10 is_stmt 1 view .LVU1664
 6681              	.LBB1587:
  44:../../DaisyExamples/libDaisy//src/dev/oled_ssd130x.h ****         i2c_.TransmitBlocking(i2c_address_, buf, 2, 1000);
 6682              		.loc 7 44 9 view .LVU1665
  45:../../DaisyExamples/libDaisy//src/dev/oled_ssd130x.h ****     };
 6683              		.loc 7 45 30 is_stmt 0 view .LVU1666
 6684 019e 4FF47A77 		mov	r7, #1000
  44:../../DaisyExamples/libDaisy//src/dev/oled_ssd130x.h ****         i2c_.TransmitBlocking(i2c_address_, buf, 2, 1000);
 6685              		.loc 7 44 17 view .LVU1667
 6686 01a2 0024     		movs	r4, #0
  45:../../DaisyExamples/libDaisy//src/dev/oled_ssd130x.h ****     };
 6687              		.loc 7 45 30 view .LVU1668
 6688 01a4 0223     		movs	r3, #2
 6689 01a6 0BAA     		add	r2, sp, #44
 6690 01a8 9BF80C10 		ldrb	r1, [fp, #12]	@ zero_extendqisi2
 6691 01ac 2E48     		ldr	r0, .L433+28
 6692 01ae 0097     		str	r7, [sp]
  44:../../DaisyExamples/libDaisy//src/dev/oled_ssd130x.h ****         i2c_.TransmitBlocking(i2c_address_, buf, 2, 1000);
 6693              		.loc 7 44 17 view .LVU1669
 6694 01b0 8DF82C40 		strb	r4, [sp, #44]
  44:../../DaisyExamples/libDaisy//src/dev/oled_ssd130x.h ****         i2c_.TransmitBlocking(i2c_address_, buf, 2, 1000);
 6695              		.loc 7 44 36 view .LVU1670
 6696 01b4 8DF82D60 		strb	r6, [sp, #45]
  45:../../DaisyExamples/libDaisy//src/dev/oled_ssd130x.h ****     };
 6697              		.loc 7 45 9 is_stmt 1 view .LVU1671
  45:../../DaisyExamples/libDaisy//src/dev/oled_ssd130x.h ****     };
 6698              		.loc 7 45 30 is_stmt 0 view .LVU1672
 6699 01b8 FFF7FEFF 		bl	_ZN5daisy9I2CHandle16TransmitBlockingEtPhtm
 6700              	.LVL476:
  45:../../DaisyExamples/libDaisy//src/dev/oled_ssd130x.h ****     };
 6701              		.loc 7 45 30 view .LVU1673
 6702              	.LBE1587:
 6703              	.LBE1586:
 6704              	.LBB1588:
 6705              	.LBI1588:
  42:../../DaisyExamples/libDaisy//src/dev/oled_ssd130x.h ****     {
 6706              		.loc 7 42 10 is_stmt 1 view .LVU1674
 6707              	.LBB1589:
  44:../../DaisyExamples/libDaisy//src/dev/oled_ssd130x.h ****         i2c_.TransmitBlocking(i2c_address_, buf, 2, 1000);
 6708              		.loc 7 44 9 view .LVU1675
  45:../../DaisyExamples/libDaisy//src/dev/oled_ssd130x.h ****     };
 6709              		.loc 7 45 30 is_stmt 0 view .LVU1676
 6710 01bc 0223     		movs	r3, #2
ARM GAS  /var/folders/hp/45mn71hd0ps5f5pnytxy5bt00000gn/T//ccdvmoSj.s 			page 181


 6711 01be 0BAA     		add	r2, sp, #44
 6712 01c0 9BF80C10 		ldrb	r1, [fp, #12]	@ zero_extendqisi2
 6713 01c4 2848     		ldr	r0, .L433+28
 6714 01c6 0097     		str	r7, [sp]
  44:../../DaisyExamples/libDaisy//src/dev/oled_ssd130x.h ****         i2c_.TransmitBlocking(i2c_address_, buf, 2, 1000);
 6715              		.loc 7 44 17 view .LVU1677
 6716 01c8 8DF82C40 		strb	r4, [sp, #44]
  44:../../DaisyExamples/libDaisy//src/dev/oled_ssd130x.h ****         i2c_.TransmitBlocking(i2c_address_, buf, 2, 1000);
 6717              		.loc 7 44 36 view .LVU1678
 6718 01cc 8DF82D40 		strb	r4, [sp, #45]
  45:../../DaisyExamples/libDaisy//src/dev/oled_ssd130x.h ****     };
 6719              		.loc 7 45 9 is_stmt 1 view .LVU1679
  45:../../DaisyExamples/libDaisy//src/dev/oled_ssd130x.h ****     };
 6720              		.loc 7 45 30 is_stmt 0 view .LVU1680
 6721 01d0 FFF7FEFF 		bl	_ZN5daisy9I2CHandle16TransmitBlockingEtPhtm
 6722              	.LVL477:
  45:../../DaisyExamples/libDaisy//src/dev/oled_ssd130x.h ****     };
 6723              		.loc 7 45 30 view .LVU1681
 6724              	.LBE1589:
 6725              	.LBE1588:
 6726              	.LBB1590:
 6727              	.LBI1590:
  42:../../DaisyExamples/libDaisy//src/dev/oled_ssd130x.h ****     {
 6728              		.loc 7 42 10 is_stmt 1 view .LVU1682
 6729              	.LBB1591:
  44:../../DaisyExamples/libDaisy//src/dev/oled_ssd130x.h ****         i2c_.TransmitBlocking(i2c_address_, buf, 2, 1000);
 6730              		.loc 7 44 9 view .LVU1683
  44:../../DaisyExamples/libDaisy//src/dev/oled_ssd130x.h ****         i2c_.TransmitBlocking(i2c_address_, buf, 2, 1000);
 6731              		.loc 7 44 36 is_stmt 0 view .LVU1684
 6732 01d4 1223     		movs	r3, #18
  45:../../DaisyExamples/libDaisy//src/dev/oled_ssd130x.h ****     };
 6733              		.loc 7 45 30 view .LVU1685
 6734 01d6 0BAA     		add	r2, sp, #44
 6735 01d8 9BF80C10 		ldrb	r1, [fp, #12]	@ zero_extendqisi2
  44:../../DaisyExamples/libDaisy//src/dev/oled_ssd130x.h ****         i2c_.TransmitBlocking(i2c_address_, buf, 2, 1000);
 6736              		.loc 7 44 36 view .LVU1686
 6737 01dc 8DF82D30 		strb	r3, [sp, #45]
  45:../../DaisyExamples/libDaisy//src/dev/oled_ssd130x.h ****     };
 6738              		.loc 7 45 9 is_stmt 1 view .LVU1687
  45:../../DaisyExamples/libDaisy//src/dev/oled_ssd130x.h ****     };
 6739              		.loc 7 45 30 is_stmt 0 view .LVU1688
 6740 01e0 0223     		movs	r3, #2
 6741 01e2 2148     		ldr	r0, .L433+28
 6742 01e4 0097     		str	r7, [sp]
  44:../../DaisyExamples/libDaisy//src/dev/oled_ssd130x.h ****         i2c_.TransmitBlocking(i2c_address_, buf, 2, 1000);
 6743              		.loc 7 44 17 view .LVU1689
 6744 01e6 8DF82C40 		strb	r4, [sp, #44]
 6745 01ea A5F18004 		sub	r4, r5, #128
  45:../../DaisyExamples/libDaisy//src/dev/oled_ssd130x.h ****     };
 6746              		.loc 7 45 30 view .LVU1690
 6747 01ee FFF7FEFF 		bl	_ZN5daisy9I2CHandle16TransmitBlockingEtPhtm
 6748              	.LVL478:
  45:../../DaisyExamples/libDaisy//src/dev/oled_ssd130x.h ****     };
 6749              		.loc 7 45 30 view .LVU1691
 6750              	.LBE1591:
 6751              	.LBE1590:
 6752              	.LBB1592:
ARM GAS  /var/folders/hp/45mn71hd0ps5f5pnytxy5bt00000gn/T//ccdvmoSj.s 			page 182


 6753              	.LBI1592:
  48:../../DaisyExamples/libDaisy//src/dev/oled_ssd130x.h ****     {
 6754              		.loc 7 48 10 is_stmt 1 view .LVU1692
 6755              	.LBB1593:
  50:../../DaisyExamples/libDaisy//src/dev/oled_ssd130x.h ****         {
 6756              		.loc 7 50 29 view .LVU1693
 6757              	.L420:
 6758              	.LBB1594:
  52:../../DaisyExamples/libDaisy//src/dev/oled_ssd130x.h ****             i2c_.TransmitBlocking(i2c_address_, buf, 2, 1000);
 6759              		.loc 7 52 13 view .LVU1694
  53:../../DaisyExamples/libDaisy//src/dev/oled_ssd130x.h ****         }
 6760              		.loc 7 53 34 is_stmt 0 view .LVU1695
 6761 01f2 4FF47A73 		mov	r3, #1000
 6762 01f6 0BAA     		add	r2, sp, #44
 6763 01f8 9BF80C10 		ldrb	r1, [fp, #12]	@ zero_extendqisi2
 6764 01fc 0093     		str	r3, [sp]
  52:../../DaisyExamples/libDaisy//src/dev/oled_ssd130x.h ****             i2c_.TransmitBlocking(i2c_address_, buf, 2, 1000);
 6765              		.loc 7 52 44 view .LVU1696
 6766 01fe 14F8013F 		ldrb	r3, [r4, #1]!	@ zero_extendqisi2
 6767              	.LVL479:
  53:../../DaisyExamples/libDaisy//src/dev/oled_ssd130x.h ****         }
 6768              		.loc 7 53 34 view .LVU1697
 6769 0202 1948     		ldr	r0, .L433+28
  52:../../DaisyExamples/libDaisy//src/dev/oled_ssd130x.h ****             i2c_.TransmitBlocking(i2c_address_, buf, 2, 1000);
 6770              		.loc 7 52 44 view .LVU1698
 6771 0204 8DF82D30 		strb	r3, [sp, #45]
  53:../../DaisyExamples/libDaisy//src/dev/oled_ssd130x.h ****         }
 6772              		.loc 7 53 13 is_stmt 1 view .LVU1699
  52:../../DaisyExamples/libDaisy//src/dev/oled_ssd130x.h ****             i2c_.TransmitBlocking(i2c_address_, buf, 2, 1000);
 6773              		.loc 7 52 21 is_stmt 0 view .LVU1700
 6774 0208 4023     		movs	r3, #64
 6775 020a 8DF82C30 		strb	r3, [sp, #44]
  53:../../DaisyExamples/libDaisy//src/dev/oled_ssd130x.h ****         }
 6776              		.loc 7 53 34 view .LVU1701
 6777 020e 0223     		movs	r3, #2
 6778 0210 FFF7FEFF 		bl	_ZN5daisy9I2CHandle16TransmitBlockingEtPhtm
 6779              	.LVL480:
 6780              	.LBE1594:
  50:../../DaisyExamples/libDaisy//src/dev/oled_ssd130x.h ****         {
 6781              		.loc 7 50 9 is_stmt 1 view .LVU1702
  50:../../DaisyExamples/libDaisy//src/dev/oled_ssd130x.h ****         {
 6782              		.loc 7 50 29 view .LVU1703
 6783 0214 A542     		cmp	r5, r4
 6784 0216 ECD1     		bne	.L420
 6785              	.LVL481:
  50:../../DaisyExamples/libDaisy//src/dev/oled_ssd130x.h ****         {
 6786              		.loc 7 50 29 is_stmt 0 view .LVU1704
 6787              	.LBE1593:
 6788              	.LBE1592:
 6789              		.loc 7 383 9 is_stmt 1 view .LVU1705
 6790              		.loc 7 383 22 view .LVU1706
 6791 0218 8035     		adds	r5, r5, #128
 6792 021a 144B     		ldr	r3, .L433+32
 6793 021c 0136     		adds	r6, r6, #1
 6794              	.LVL482:
 6795              		.loc 7 383 22 is_stmt 0 view .LVU1707
 6796 021e AB42     		cmp	r3, r5
ARM GAS  /var/folders/hp/45mn71hd0ps5f5pnytxy5bt00000gn/T//ccdvmoSj.s 			page 183


 6797 0220 F6B2     		uxtb	r6, r6
 6798 0222 BCD1     		bne	.L422
 6799 0224 11E7     		b	.L421
 6800              	.LVL483:
 6801              	.L404:
 6802              		.loc 7 383 22 view .LVU1708
 6803              	.LBE1595:
 6804              	.LBE1596:
 6805              	.LBE1598:
  38:displayDaisy.cpp ****             case 4: sprintf(strbuff, "3. . ."); break;
 6806              		.loc 11 38 13 is_stmt 1 view .LVU1709
  38:displayDaisy.cpp ****             case 4: sprintf(strbuff, "3. . ."); break;
 6807              		.loc 11 38 21 view .LVU1710
  38:displayDaisy.cpp ****             case 4: sprintf(strbuff, "3. . ."); break;
 6808              		.loc 11 38 28 is_stmt 0 view .LVU1711
 6809 0226 124B     		ldr	r3, .L433+36
 6810 0228 1EE7     		b	.L431
 6811              	.L405:
  37:displayDaisy.cpp ****             case 3: sprintf(strbuff, "2. . ."); break;
 6812              		.loc 11 37 13 is_stmt 1 view .LVU1712
  37:displayDaisy.cpp ****             case 3: sprintf(strbuff, "2. . ."); break;
 6813              		.loc 11 37 21 view .LVU1713
  37:displayDaisy.cpp ****             case 3: sprintf(strbuff, "2. . ."); break;
 6814              		.loc 11 37 28 is_stmt 0 view .LVU1714
 6815 022a 124B     		ldr	r3, .L433+40
 6816 022c 1CE7     		b	.L431
 6817              	.L407:
 6818              	.LVL484:
  35:displayDaisy.cpp ****             case 1: sprintf(strbuff, "Daisy. . ."); break;
 6819              		.loc 11 35 13 is_stmt 1 view .LVU1715
  35:displayDaisy.cpp ****             case 1: sprintf(strbuff, "Daisy. . ."); break;
 6820              		.loc 11 35 21 view .LVU1716
  35:displayDaisy.cpp ****             case 1: sprintf(strbuff, "Daisy. . ."); break;
 6821              		.loc 11 35 28 is_stmt 0 view .LVU1717
 6822 022e 124B     		ldr	r3, .L433+44
 6823 0230 0CAC     		add	r4, sp, #48
 6824 0232 0FCB     		ldm	r3, {r0, r1, r2, r3}
 6825 0234 07C4     		stmia	r4!, {r0, r1, r2}
 6826 0236 2370     		strb	r3, [r4]
  35:displayDaisy.cpp ****             case 1: sprintf(strbuff, "Daisy. . ."); break;
 6827              		.loc 11 35 55 is_stmt 1 view .LVU1718
 6828 0238 1EE7     		b	.L401
 6829              	.LVL485:
 6830              	.L406:
  36:displayDaisy.cpp ****             case 2: sprintf(strbuff, "1. . ."); break;
 6831              		.loc 11 36 13 view .LVU1719
  36:displayDaisy.cpp ****             case 2: sprintf(strbuff, "1. . ."); break;
 6832              		.loc 11 36 21 view .LVU1720
  36:displayDaisy.cpp ****             case 2: sprintf(strbuff, "1. . ."); break;
 6833              		.loc 11 36 28 is_stmt 0 view .LVU1721
 6834 023a 104A     		ldr	r2, .L433+48
 6835 023c 0CAB     		add	r3, sp, #48
 6836 023e 07CA     		ldm	r2, {r0, r1, r2}
 6837 0240 03C3     		stmia	r3!, {r0, r1}
 6838 0242 23F8022B 		strh	r2, [r3], #2	@ movhi
 6839 0246 120C     		lsrs	r2, r2, #16
 6840 0248 1A70     		strb	r2, [r3]
ARM GAS  /var/folders/hp/45mn71hd0ps5f5pnytxy5bt00000gn/T//ccdvmoSj.s 			page 184


  36:displayDaisy.cpp ****             case 2: sprintf(strbuff, "1. . ."); break;
 6841              		.loc 11 36 53 is_stmt 1 view .LVU1722
 6842 024a 15E7     		b	.L401
 6843              	.L434:
 6844              		.align	2
 6845              	.L433:
 6846 024c 00000000 		.word	.LANCHOR0
 6847 0250 01080109 		.word	151062529
 6848 0254 2C000000 		.word	.LC6
 6849 0258 CDCCCCCC 		.word	-858993459
 6850 025c 10000000 		.word	.LANCHOR1+16
 6851 0260 00000000 		.word	Font_11x18
 6852 0264 8F000000 		.word	.LANCHOR1+143
 6853 0268 08000000 		.word	.LANCHOR1+8
 6854 026c 8F020000 		.word	.LANCHOR1+655
 6855 0270 24000000 		.word	.LC5
 6856 0274 1C000000 		.word	.LC4
 6857 0278 00000000 		.word	.LC2
 6858 027c 10000000 		.word	.LC3
 6859 0280 00000000 		.word	.LANCHOR1
 6860              		.cfi_endproc
 6861              	.LFE2596:
 6863              		.section	.text.startup._GLOBAL__sub_I_hw,"ax",%progbits
 6864              		.align	1
 6865              		.p2align 2,,3
 6866              		.syntax unified
 6867              		.thumb
 6868              		.thumb_func
 6870              	_GLOBAL__sub_I_hw:
 6871              	.LFB2682:
  48:displayDaisy.cpp ****     }
  49:displayDaisy.cpp **** }...
 6872              		.loc 11 49 1 view -0
 6873              		.cfi_startproc
 6874              		@ args = 0, pretend = 0, frame = 0
 6875              		@ frame_needed = 0, uses_anonymous_args = 0
 6876              	.LBB1631:
 6877              	.LBI1631:
 6878              		.loc 11 49 1 view .LVU1724
 6879              	.LVL486:
 6880              	.LBB1632:
 6881              	.LBB1633:
 6882              	.LBI1633:
  21:../../DaisyExamples/libDaisy//src/daisy_seed.h ****     ~DaisySeed() {}
 6883              		.loc 1 21 5 view .LVU1725
 6884              	.LBB1634:
 6885              	.LBB1635:
 6886              	.LBI1635:
 6887              		.file 13 "../../DaisyExamples/libDaisy//src/per/qspi.h"
   1:../../DaisyExamples/libDaisy//src/per/qspi.h **** #ifndef DSY_QSPI
   2:../../DaisyExamples/libDaisy//src/per/qspi.h **** #define DSY_QSPI /**< Macro */
   3:../../DaisyExamples/libDaisy//src/per/qspi.h **** 
   4:../../DaisyExamples/libDaisy//src/per/qspi.h **** #ifndef UNIT_TEST // for unit tests, a dummy implementation
   5:../../DaisyExamples/libDaisy//src/per/qspi.h **** 
   6:../../DaisyExamples/libDaisy//src/per/qspi.h **** #include <cstdint>
   7:../../DaisyExamples/libDaisy//src/per/qspi.h **** #include "daisy_core.h" // Added for dsy_gpio_pin typedef
   8:../../DaisyExamples/libDaisy//src/per/qspi.h **** 
ARM GAS  /var/folders/hp/45mn71hd0ps5f5pnytxy5bt00000gn/T//ccdvmoSj.s 			page 185


   9:../../DaisyExamples/libDaisy//src/per/qspi.h **** #define DSY_QSPI_TEXT       \
  10:../../DaisyExamples/libDaisy//src/per/qspi.h ****     __attribute__((section( \
  11:../../DaisyExamples/libDaisy//src/per/qspi.h ****         ".qspiflash_text"))) /**< used for reading memory in memory_mapped mode. */
  12:../../DaisyExamples/libDaisy//src/per/qspi.h **** #define DSY_QSPI_DATA       \
  13:../../DaisyExamples/libDaisy//src/per/qspi.h ****     __attribute__((section( \
  14:../../DaisyExamples/libDaisy//src/per/qspi.h ****         ".qspiflash_data"))) /**< used for reading memory in memory_mapped mode. */
  15:../../DaisyExamples/libDaisy//src/per/qspi.h **** #define DSY_QSPI_BSS        \
  16:../../DaisyExamples/libDaisy//src/per/qspi.h ****     __attribute__((section( \
  17:../../DaisyExamples/libDaisy//src/per/qspi.h ****         ".qspiflash_bss"))) /**< used for reading memory in memory_mapped mode. */
  18:../../DaisyExamples/libDaisy//src/per/qspi.h **** 
  19:../../DaisyExamples/libDaisy//src/per/qspi.h **** namespace daisy
  20:../../DaisyExamples/libDaisy//src/per/qspi.h **** {
  21:../../DaisyExamples/libDaisy//src/per/qspi.h **** /** @addtogroup serial
  22:../../DaisyExamples/libDaisy//src/per/qspi.h **** @{
  23:../../DaisyExamples/libDaisy//src/per/qspi.h **** */
  24:../../DaisyExamples/libDaisy//src/per/qspi.h **** 
  25:../../DaisyExamples/libDaisy//src/per/qspi.h **** /** 
  26:../../DaisyExamples/libDaisy//src/per/qspi.h ****  Driver for QSPI peripheral to interface with external flash memory. \n 
  27:../../DaisyExamples/libDaisy//src/per/qspi.h ****     Currently supported QSPI Devices: \n 
  28:../../DaisyExamples/libDaisy//src/per/qspi.h ****     * IS25LP080D
  29:../../DaisyExamples/libDaisy//src/per/qspi.h **** */
  30:../../DaisyExamples/libDaisy//src/per/qspi.h **** class QSPIHandle
  31:../../DaisyExamples/libDaisy//src/per/qspi.h **** {
  32:../../DaisyExamples/libDaisy//src/per/qspi.h ****   public:
  33:../../DaisyExamples/libDaisy//src/per/qspi.h ****     enum Result
  34:../../DaisyExamples/libDaisy//src/per/qspi.h ****     {
  35:../../DaisyExamples/libDaisy//src/per/qspi.h ****         OK = 0,
  36:../../DaisyExamples/libDaisy//src/per/qspi.h ****         ERR
  37:../../DaisyExamples/libDaisy//src/per/qspi.h ****     };
  38:../../DaisyExamples/libDaisy//src/per/qspi.h **** 
  39:../../DaisyExamples/libDaisy//src/per/qspi.h ****     /** Indicates the current status of the module. 
  40:../../DaisyExamples/libDaisy//src/per/qspi.h ****          *  Warnings are indicated by a leading W.
  41:../../DaisyExamples/libDaisy//src/per/qspi.h ****          *  Errors are indicated by a leading E and cause an immediate exit.
  42:../../DaisyExamples/libDaisy//src/per/qspi.h ****          * 
  43:../../DaisyExamples/libDaisy//src/per/qspi.h ****          *  \param GOOD - No errors have been reported.
  44:../../DaisyExamples/libDaisy//src/per/qspi.h ****          *  \param E_HAL_ERROR - HAL code did not return HAL_OK.
  45:../../DaisyExamples/libDaisy//src/per/qspi.h ****          *  \param E_SWITCHING_MODES - An error was encountered while switching QSPI peripheral mod
  46:../../DaisyExamples/libDaisy//src/per/qspi.h ****          *  \param E_INVALID_MODE - QSPI should not be written to while the program is executing fr
  47:../../DaisyExamples/libDaisy//src/per/qspi.h ****          */
  48:../../DaisyExamples/libDaisy//src/per/qspi.h ****     enum Status
  49:../../DaisyExamples/libDaisy//src/per/qspi.h ****     {
  50:../../DaisyExamples/libDaisy//src/per/qspi.h ****         GOOD = 0,
  51:../../DaisyExamples/libDaisy//src/per/qspi.h ****         E_HAL_ERROR,
  52:../../DaisyExamples/libDaisy//src/per/qspi.h ****         E_SWITCHING_MODES,
  53:../../DaisyExamples/libDaisy//src/per/qspi.h ****         E_INVALID_MODE,
  54:../../DaisyExamples/libDaisy//src/per/qspi.h ****     };
  55:../../DaisyExamples/libDaisy//src/per/qspi.h **** 
  56:../../DaisyExamples/libDaisy//src/per/qspi.h ****     /** Configuration structure for interfacing with QSPI Driver */
  57:../../DaisyExamples/libDaisy//src/per/qspi.h ****     struct Config
  58:../../DaisyExamples/libDaisy//src/per/qspi.h ****     {
  59:../../DaisyExamples/libDaisy//src/per/qspi.h ****         /** Flash Devices supported. (Both of these are more-or-less the same, just different sizes
  60:../../DaisyExamples/libDaisy//src/per/qspi.h ****         enum Device
  61:../../DaisyExamples/libDaisy//src/per/qspi.h ****         {
  62:../../DaisyExamples/libDaisy//src/per/qspi.h ****             IS25LP080D,  /**< & */
  63:../../DaisyExamples/libDaisy//src/per/qspi.h ****             IS25LP064A,  /**< & */
  64:../../DaisyExamples/libDaisy//src/per/qspi.h ****             DEVICE_LAST, /**< & */
  65:../../DaisyExamples/libDaisy//src/per/qspi.h ****         };
ARM GAS  /var/folders/hp/45mn71hd0ps5f5pnytxy5bt00000gn/T//ccdvmoSj.s 			page 186


  66:../../DaisyExamples/libDaisy//src/per/qspi.h **** 
  67:../../DaisyExamples/libDaisy//src/per/qspi.h ****         /** 
  68:../../DaisyExamples/libDaisy//src/per/qspi.h ****         Modes of operation.
  69:../../DaisyExamples/libDaisy//src/per/qspi.h ****         Memory Mapped mode: QSPI configured so that the QSPI can be
  70:../../DaisyExamples/libDaisy//src/per/qspi.h ****         read from starting address 0x90000000. Writing is not
  71:../../DaisyExamples/libDaisy//src/per/qspi.h ****         possible in this mode. \n 
  72:../../DaisyExamples/libDaisy//src/per/qspi.h ****         Indirect Polling mode: Device driver enabled. 
  73:../../DaisyExamples/libDaisy//src/per/qspi.h ****         */
  74:../../DaisyExamples/libDaisy//src/per/qspi.h ****         enum Mode
  75:../../DaisyExamples/libDaisy//src/per/qspi.h ****         {
  76:../../DaisyExamples/libDaisy//src/per/qspi.h ****             MEMORY_MAPPED,    /**< & */
  77:../../DaisyExamples/libDaisy//src/per/qspi.h ****             INDIRECT_POLLING, /**< & */
  78:../../DaisyExamples/libDaisy//src/per/qspi.h ****             MODE_LAST,
  79:../../DaisyExamples/libDaisy//src/per/qspi.h ****         };
  80:../../DaisyExamples/libDaisy//src/per/qspi.h **** 
  81:../../DaisyExamples/libDaisy//src/per/qspi.h ****         //SCK,  CE# (active low)
  82:../../DaisyExamples/libDaisy//src/per/qspi.h ****         struct
  83:../../DaisyExamples/libDaisy//src/per/qspi.h ****         {
  84:../../DaisyExamples/libDaisy//src/per/qspi.h ****             dsy_gpio_pin io0; /**< & */
  85:../../DaisyExamples/libDaisy//src/per/qspi.h ****             dsy_gpio_pin io1; /**< & */
  86:../../DaisyExamples/libDaisy//src/per/qspi.h ****             dsy_gpio_pin io2; /**< & */
  87:../../DaisyExamples/libDaisy//src/per/qspi.h ****             dsy_gpio_pin io3; /**< & */
  88:../../DaisyExamples/libDaisy//src/per/qspi.h ****             dsy_gpio_pin clk; /**< & */
  89:../../DaisyExamples/libDaisy//src/per/qspi.h ****             dsy_gpio_pin ncs; /**< & */
  90:../../DaisyExamples/libDaisy//src/per/qspi.h ****         } pin_config;
  91:../../DaisyExamples/libDaisy//src/per/qspi.h **** 
  92:../../DaisyExamples/libDaisy//src/per/qspi.h ****         Device device;
  93:../../DaisyExamples/libDaisy//src/per/qspi.h ****         Mode   mode;
  94:../../DaisyExamples/libDaisy//src/per/qspi.h ****     };
  95:../../DaisyExamples/libDaisy//src/per/qspi.h **** 
  96:../../DaisyExamples/libDaisy//src/per/qspi.h ****     /** 
  97:../../DaisyExamples/libDaisy//src/per/qspi.h ****         Initializes QSPI peripheral, and Resets, and prepares memory for access.
  98:../../DaisyExamples/libDaisy//src/per/qspi.h ****         \param config should be populated with the mode, device and pin_config before calling this 
  99:../../DaisyExamples/libDaisy//src/per/qspi.h ****         \return Result::OK or Result::ERR
 100:../../DaisyExamples/libDaisy//src/per/qspi.h ****         */
 101:../../DaisyExamples/libDaisy//src/per/qspi.h ****     Result Init(const Config& config);
 102:../../DaisyExamples/libDaisy//src/per/qspi.h **** 
 103:../../DaisyExamples/libDaisy//src/per/qspi.h ****     /** Returns the current config. */
 104:../../DaisyExamples/libDaisy//src/per/qspi.h ****     const Config& GetConfig() const;
 105:../../DaisyExamples/libDaisy//src/per/qspi.h **** 
 106:../../DaisyExamples/libDaisy//src/per/qspi.h ****     // Couldn't this just be called before anything else in init? That
 107:../../DaisyExamples/libDaisy//src/per/qspi.h ****     // would make manually calling it unnecessary.
 108:../../DaisyExamples/libDaisy//src/per/qspi.h ****     /** 
 109:../../DaisyExamples/libDaisy//src/per/qspi.h ****         Deinitializes the peripheral
 110:../../DaisyExamples/libDaisy//src/per/qspi.h ****         This should be called before reinitializing QSPI in a different mode.
 111:../../DaisyExamples/libDaisy//src/per/qspi.h ****         \return Result::OK or Result::ERR
 112:../../DaisyExamples/libDaisy//src/per/qspi.h ****         */
 113:../../DaisyExamples/libDaisy//src/per/qspi.h ****     Result DeInit();
 114:../../DaisyExamples/libDaisy//src/per/qspi.h **** 
 115:../../DaisyExamples/libDaisy//src/per/qspi.h ****     /** 
 116:../../DaisyExamples/libDaisy//src/per/qspi.h ****         Writes a single page to to the specified address on the QSPI chip.
 117:../../DaisyExamples/libDaisy//src/per/qspi.h ****         For IS25LP*, page size is 256 bytes.
 118:../../DaisyExamples/libDaisy//src/per/qspi.h ****         \param address Address to write to
 119:../../DaisyExamples/libDaisy//src/per/qspi.h ****         \param size Buffer size
 120:../../DaisyExamples/libDaisy//src/per/qspi.h ****         \param buffer Buffer to write
 121:../../DaisyExamples/libDaisy//src/per/qspi.h ****         \return Result::OK or Result::ERR
 122:../../DaisyExamples/libDaisy//src/per/qspi.h ****         */
ARM GAS  /var/folders/hp/45mn71hd0ps5f5pnytxy5bt00000gn/T//ccdvmoSj.s 			page 187


 123:../../DaisyExamples/libDaisy//src/per/qspi.h ****     Result WritePage(uint32_t address, uint32_t size, uint8_t* buffer);
 124:../../DaisyExamples/libDaisy//src/per/qspi.h **** 
 125:../../DaisyExamples/libDaisy//src/per/qspi.h ****     /** 
 126:../../DaisyExamples/libDaisy//src/per/qspi.h ****         Writes data in buffer to to the QSPI. Starting at address to address+size 
 127:../../DaisyExamples/libDaisy//src/per/qspi.h ****         \param address Address to write to
 128:../../DaisyExamples/libDaisy//src/per/qspi.h ****         \param size Buffer size
 129:../../DaisyExamples/libDaisy//src/per/qspi.h ****         \param buffer Buffer to write
 130:../../DaisyExamples/libDaisy//src/per/qspi.h ****         \return Result::OK or Result::ERR
 131:../../DaisyExamples/libDaisy//src/per/qspi.h ****         */
 132:../../DaisyExamples/libDaisy//src/per/qspi.h ****     Result Write(uint32_t address, uint32_t size, uint8_t* buffer);
 133:../../DaisyExamples/libDaisy//src/per/qspi.h **** 
 134:../../DaisyExamples/libDaisy//src/per/qspi.h ****     /** 
 135:../../DaisyExamples/libDaisy//src/per/qspi.h ****         Erases the area specified on the chip.
 136:../../DaisyExamples/libDaisy//src/per/qspi.h ****         Erasures will happen by 4K, 32K or 64K increments.
 137:../../DaisyExamples/libDaisy//src/per/qspi.h ****         Smallest erase possible is 4kB at a time. (on IS25LP*)
 138:../../DaisyExamples/libDaisy//src/per/qspi.h ****         \param start_addr Address to begin erasing from
 139:../../DaisyExamples/libDaisy//src/per/qspi.h ****         \param end_addr  Address to stop erasing at
 140:../../DaisyExamples/libDaisy//src/per/qspi.h ****         \return Result::OK or Result::ERR
 141:../../DaisyExamples/libDaisy//src/per/qspi.h ****         */
 142:../../DaisyExamples/libDaisy//src/per/qspi.h ****     Result Erase(uint32_t start_addr, uint32_t end_addr);
 143:../../DaisyExamples/libDaisy//src/per/qspi.h **** 
 144:../../DaisyExamples/libDaisy//src/per/qspi.h ****     /**  
 145:../../DaisyExamples/libDaisy//src/per/qspi.h ****          Erases a single sector of the chip.  
 146:../../DaisyExamples/libDaisy//src/per/qspi.h ****         TODO: Document the size of this function. 
 147:../../DaisyExamples/libDaisy//src/per/qspi.h ****         \param address Address of sector to erase
 148:../../DaisyExamples/libDaisy//src/per/qspi.h ****         \return Result::OK or Result::ERR
 149:../../DaisyExamples/libDaisy//src/per/qspi.h ****         */
 150:../../DaisyExamples/libDaisy//src/per/qspi.h ****     Result EraseSector(uint32_t address);
 151:../../DaisyExamples/libDaisy//src/per/qspi.h **** 
 152:../../DaisyExamples/libDaisy//src/per/qspi.h ****     /** Returns the current class status. Useful for debugging.
 153:../../DaisyExamples/libDaisy//src/per/qspi.h ****      *  \returns Status
 154:../../DaisyExamples/libDaisy//src/per/qspi.h ****      */
 155:../../DaisyExamples/libDaisy//src/per/qspi.h ****     Status GetStatus();
 156:../../DaisyExamples/libDaisy//src/per/qspi.h **** 
 157:../../DaisyExamples/libDaisy//src/per/qspi.h ****     /** Returns a pointer to the actual memory used 
 158:../../DaisyExamples/libDaisy//src/per/qspi.h ****      *  The memory at this address is read-only
 159:../../DaisyExamples/libDaisy//src/per/qspi.h ****      *  to write to it use the Write function.
 160:../../DaisyExamples/libDaisy//src/per/qspi.h ****      * 
 161:../../DaisyExamples/libDaisy//src/per/qspi.h ****      *  \param offset returns the pointer starting this 
 162:../../DaisyExamples/libDaisy//src/per/qspi.h ****      *                many bytes into the memory
 163:../../DaisyExamples/libDaisy//src/per/qspi.h ****     */
 164:../../DaisyExamples/libDaisy//src/per/qspi.h ****     void* GetData(uint32_t offset = 0);
 165:../../DaisyExamples/libDaisy//src/per/qspi.h **** 
 166:../../DaisyExamples/libDaisy//src/per/qspi.h ****     QSPIHandle() : pimpl_(nullptr) {}
 6888              		.loc 13 166 5 view .LVU1726
 6889              	.LBE1635:
 6890              	.LBE1634:
 6891              	.LBE1633:
 6892              	.LBE1632:
 6893              	.LBE1631:
 6894              		.loc 11 49 1 is_stmt 0 view .LVU1727
 6895 0000 10B5     		push	{r4, lr}
 6896              		.cfi_def_cfa_offset 8
 6897              		.cfi_offset 4, -8
 6898              		.cfi_offset 14, -4
 6899              	.LBB1676:
 6900              	.LBB1674:
ARM GAS  /var/folders/hp/45mn71hd0ps5f5pnytxy5bt00000gn/T//ccdvmoSj.s 			page 188


 6901              	.LBB1656:
 6902              	.LBB1654:
 6903              	.LBB1640:
 6904              	.LBB1636:
 6905              	.LBB1637:
 6906              		.loc 13 166 34 view .LVU1728
 6907 0002 0A48     		ldr	r0, .L437
 6908 0004 0024     		movs	r4, #0
 6909              	.LBE1637:
 6910              	.LBE1636:
 6911              	.LBE1640:
 6912              	.LBE1654:
 6913              	.LBE1656:
  10:displayDaisy.cpp **** DaisySeed     hw;
 6914              		.loc 11 10 15 view .LVU1729
 6915 0006 0A4A     		ldr	r2, .L437+4
 6916 0008 0A49     		ldr	r1, .L437+8
 6917              	.LBB1657:
 6918              	.LBB1655:
 6919              	.LBB1641:
 6920              	.LBB1639:
 6921              	.LBB1638:
 6922              		.loc 13 166 34 view .LVU1730
 6923 000a 0460     		str	r4, [r0]
 6924              	.LVL487:
 6925              		.loc 13 166 34 view .LVU1731
 6926              	.LBE1638:
 6927              	.LBE1639:
 6928              	.LBE1641:
 6929              	.LBB1642:
 6930              	.LBI1642:
  95:../../DaisyExamples/libDaisy//src/hid/audio.h ****     ~AudioHandle() {}
 6931              		.loc 5 95 5 is_stmt 1 view .LVU1732
 6932              	.LBB1643:
 6933              	.LBB1644:
  95:../../DaisyExamples/libDaisy//src/hid/audio.h ****     ~AudioHandle() {}
 6934              		.loc 5 95 35 is_stmt 0 view .LVU1733
 6935 000c 4461     		str	r4, [r0, #20]
 6936              	.LVL488:
  95:../../DaisyExamples/libDaisy//src/hid/audio.h ****     ~AudioHandle() {}
 6937              		.loc 5 95 35 view .LVU1734
 6938              	.LBE1644:
 6939              	.LBE1643:
 6940              	.LBE1642:
 6941              	.LBB1645:
 6942              	.LBI1645:
 109:../../DaisyExamples/libDaisy//src/per/adc.h ****     ~AdcHandle() {}
 6943              		.loc 4 109 5 is_stmt 1 view .LVU1735
 109:../../DaisyExamples/libDaisy//src/per/adc.h ****     ~AdcHandle() {}
 6944              		.loc 4 109 5 is_stmt 0 view .LVU1736
 6945              	.LBE1645:
 6946              	.LBB1646:
 6947              	.LBI1646:
 6948              		.file 14 "../../DaisyExamples/libDaisy//src/per/dac.h"
   1:../../DaisyExamples/libDaisy//src/per/dac.h **** #pragma once
   2:../../DaisyExamples/libDaisy//src/per/dac.h **** #ifndef DSY_DAC_H
   3:../../DaisyExamples/libDaisy//src/per/dac.h **** #define DSY_DAC_H
ARM GAS  /var/folders/hp/45mn71hd0ps5f5pnytxy5bt00000gn/T//ccdvmoSj.s 			page 189


   4:../../DaisyExamples/libDaisy//src/per/dac.h **** 
   5:../../DaisyExamples/libDaisy//src/per/dac.h **** #include "daisy_core.h"
   6:../../DaisyExamples/libDaisy//src/per/dac.h **** 
   7:../../DaisyExamples/libDaisy//src/per/dac.h **** namespace daisy
   8:../../DaisyExamples/libDaisy//src/per/dac.h **** {
   9:../../DaisyExamples/libDaisy//src/per/dac.h **** /** @brief DAC handle for Built-in DAC Peripheral 
  10:../../DaisyExamples/libDaisy//src/per/dac.h ****  *  @ingroup per_analog
  11:../../DaisyExamples/libDaisy//src/per/dac.h ****  ** 
  12:../../DaisyExamples/libDaisy//src/per/dac.h ****  ** For now only Normal Mode is supported,
  13:../../DaisyExamples/libDaisy//src/per/dac.h ****  ** Sample and hold mode provides reduced power consumption, but requires a bit more setup.
  14:../../DaisyExamples/libDaisy//src/per/dac.h ****  **
  15:../../DaisyExamples/libDaisy//src/per/dac.h ****  ** For now connecting the DAC through other internal peripherals is also not supported.
  16:../../DaisyExamples/libDaisy//src/per/dac.h ****  **
  17:../../DaisyExamples/libDaisy//src/per/dac.h ****  ** Since the DAC channels have dedicated pins we don't need to pass in a pin config like with
  18:../../DaisyExamples/libDaisy//src/per/dac.h ****  ** other modules. However, it is still important to not try to use the DAC pins for anything else.
  19:../../DaisyExamples/libDaisy//src/per/dac.h ****  ** DAC Channel 1 is on PA4, and DAC Channel 2 is on PA5
  20:../../DaisyExamples/libDaisy//src/per/dac.h ****  ***/
  21:../../DaisyExamples/libDaisy//src/per/dac.h **** class DacHandle
  22:../../DaisyExamples/libDaisy//src/per/dac.h **** {
  23:../../DaisyExamples/libDaisy//src/per/dac.h ****   public:
  24:../../DaisyExamples/libDaisy//src/per/dac.h ****     /** Return Values for the DacHandle class */
  25:../../DaisyExamples/libDaisy//src/per/dac.h ****     enum class Result
  26:../../DaisyExamples/libDaisy//src/per/dac.h ****     {
  27:../../DaisyExamples/libDaisy//src/per/dac.h ****         OK,
  28:../../DaisyExamples/libDaisy//src/per/dac.h ****         ERR,
  29:../../DaisyExamples/libDaisy//src/per/dac.h ****     };
  30:../../DaisyExamples/libDaisy//src/per/dac.h **** 
  31:../../DaisyExamples/libDaisy//src/per/dac.h ****     /** Selects which channel(s) will be configured for use. */
  32:../../DaisyExamples/libDaisy//src/per/dac.h ****     enum class Channel
  33:../../DaisyExamples/libDaisy//src/per/dac.h ****     {
  34:../../DaisyExamples/libDaisy//src/per/dac.h ****         ONE,
  35:../../DaisyExamples/libDaisy//src/per/dac.h ****         TWO,
  36:../../DaisyExamples/libDaisy//src/per/dac.h ****         BOTH,
  37:../../DaisyExamples/libDaisy//src/per/dac.h ****     };
  38:../../DaisyExamples/libDaisy//src/per/dac.h **** 
  39:../../DaisyExamples/libDaisy//src/per/dac.h ****     /** Sets the Mode for the DAC channels.
  40:../../DaisyExamples/libDaisy//src/per/dac.h ****      **
  41:../../DaisyExamples/libDaisy//src/per/dac.h ****      ** Polling mode uses the blocking mode to transmit a single value at a time.
  42:../../DaisyExamples/libDaisy//src/per/dac.h ****      **
  43:../../DaisyExamples/libDaisy//src/per/dac.h ****      ** DMA mode uses a buffer, and periodically transmits it triggering a 
  44:../../DaisyExamples/libDaisy//src/per/dac.h ****      ** callback to fill the buffer when it is ready for more samples.
  45:../../DaisyExamples/libDaisy//src/per/dac.h ****      ***/
  46:../../DaisyExamples/libDaisy//src/per/dac.h ****     enum class Mode
  47:../../DaisyExamples/libDaisy//src/per/dac.h ****     {
  48:../../DaisyExamples/libDaisy//src/per/dac.h ****         POLLING,
  49:../../DaisyExamples/libDaisy//src/per/dac.h ****         DMA,
  50:../../DaisyExamples/libDaisy//src/per/dac.h ****     };
  51:../../DaisyExamples/libDaisy//src/per/dac.h **** 
  52:../../DaisyExamples/libDaisy//src/per/dac.h ****     /** Sets the number of bits per sample transmitted out of the DAC.
  53:../../DaisyExamples/libDaisy//src/per/dac.h ****      ** The output range will be: 0V - VDDA
  54:../../DaisyExamples/libDaisy//src/per/dac.h ****      ** The resolution will be roughly: bitdepth / (VDDA - 0V) 
  55:../../DaisyExamples/libDaisy//src/per/dac.h ****      ***/
  56:../../DaisyExamples/libDaisy//src/per/dac.h ****     enum class BitDepth
  57:../../DaisyExamples/libDaisy//src/per/dac.h ****     {
  58:../../DaisyExamples/libDaisy//src/per/dac.h ****         BITS_8,
  59:../../DaisyExamples/libDaisy//src/per/dac.h ****         BITS_12
  60:../../DaisyExamples/libDaisy//src/per/dac.h ****     };
ARM GAS  /var/folders/hp/45mn71hd0ps5f5pnytxy5bt00000gn/T//ccdvmoSj.s 			page 190


  61:../../DaisyExamples/libDaisy//src/per/dac.h **** 
  62:../../DaisyExamples/libDaisy//src/per/dac.h ****     /** Sets whether the DAC output is buffered for higher drive ability. */
  63:../../DaisyExamples/libDaisy//src/per/dac.h ****     enum class BufferState
  64:../../DaisyExamples/libDaisy//src/per/dac.h ****     {
  65:../../DaisyExamples/libDaisy//src/per/dac.h ****         ENABLED,
  66:../../DaisyExamples/libDaisy//src/per/dac.h ****         DISABLED,
  67:../../DaisyExamples/libDaisy//src/per/dac.h ****     };
  68:../../DaisyExamples/libDaisy//src/per/dac.h **** 
  69:../../DaisyExamples/libDaisy//src/per/dac.h ****     /** Configuration structure for initializing the DAC structure. */
  70:../../DaisyExamples/libDaisy//src/per/dac.h ****     struct Config
  71:../../DaisyExamples/libDaisy//src/per/dac.h ****     {
  72:../../DaisyExamples/libDaisy//src/per/dac.h ****         /** Target Samplerate in Hz used to configure the internal 
  73:../../DaisyExamples/libDaisy//src/per/dac.h ****          ** timebase for DMA mode. Does nothing in POLLING mode.
  74:../../DaisyExamples/libDaisy//src/per/dac.h ****          ** If the value is 0 at Init time this will default to 48000Hz 
  75:../../DaisyExamples/libDaisy//src/per/dac.h ****          ** otherwise the driver will attempt meet the target.*/
  76:../../DaisyExamples/libDaisy//src/per/dac.h ****         uint32_t target_samplerate;
  77:../../DaisyExamples/libDaisy//src/per/dac.h **** 
  78:../../DaisyExamples/libDaisy//src/per/dac.h ****         Channel     chn;
  79:../../DaisyExamples/libDaisy//src/per/dac.h ****         Mode        mode;
  80:../../DaisyExamples/libDaisy//src/per/dac.h ****         BitDepth    bitdepth;
  81:../../DaisyExamples/libDaisy//src/per/dac.h ****         BufferState buff_state;
  82:../../DaisyExamples/libDaisy//src/per/dac.h ****     };
  83:../../DaisyExamples/libDaisy//src/per/dac.h **** 
  84:../../DaisyExamples/libDaisy//src/per/dac.h ****     DacHandle() : pimpl_(nullptr) {}
 6949              		.loc 14 84 5 is_stmt 1 view .LVU1737
 6950              	.LBB1647:
 6951              	.LBB1648:
 6952              		.loc 14 84 33 is_stmt 0 view .LVU1738
 6953 000e 0462     		str	r4, [r0, #32]
 6954              	.LVL489:
 6955              		.loc 14 84 33 view .LVU1739
 6956              	.LBE1648:
 6957              	.LBE1647:
 6958              	.LBE1646:
 6959              	.LBB1649:
 6960              	.LBI1649:
  40:../../DaisyExamples/libDaisy//src/hid/usb.h **** 
 6961              		.loc 3 40 5 is_stmt 1 view .LVU1740
  40:../../DaisyExamples/libDaisy//src/hid/usb.h **** 
 6962              		.loc 3 40 5 is_stmt 0 view .LVU1741
 6963              	.LBE1649:
 6964              	.LBB1650:
 6965              	.LBI1650:
  96:../../DaisyExamples/libDaisy//src/sys/system.h ****     ~System() {}
 6966              		.loc 2 96 5 is_stmt 1 view .LVU1742
  96:../../DaisyExamples/libDaisy//src/sys/system.h ****     ~System() {}
 6967              		.loc 2 96 5 is_stmt 0 view .LVU1743
 6968              	.LBE1650:
 6969              	.LBB1651:
 6970              	.LBI1651:
 6971              		.file 15 "../../DaisyExamples/libDaisy//src/per/sai.h"
   1:../../DaisyExamples/libDaisy//src/per/sai.h **** #pragma once
   2:../../DaisyExamples/libDaisy//src/per/sai.h **** #ifndef DSY_SAI_H
   3:../../DaisyExamples/libDaisy//src/per/sai.h **** #define DSY_SAI_H
   4:../../DaisyExamples/libDaisy//src/per/sai.h **** 
   5:../../DaisyExamples/libDaisy//src/per/sai.h **** #include "daisy_core.h"
   6:../../DaisyExamples/libDaisy//src/per/sai.h **** 
ARM GAS  /var/folders/hp/45mn71hd0ps5f5pnytxy5bt00000gn/T//ccdvmoSj.s 			page 191


   7:../../DaisyExamples/libDaisy//src/per/sai.h **** namespace daisy
   8:../../DaisyExamples/libDaisy//src/per/sai.h **** {
   9:../../DaisyExamples/libDaisy//src/per/sai.h **** /** 
  10:../../DaisyExamples/libDaisy//src/per/sai.h ****  * Support for I2S Audio Protocol with different bit-depth, samplerate options
  11:../../DaisyExamples/libDaisy//src/per/sai.h ****  * Allows for master or slave, as well as freedom of selecting direction, 
  12:../../DaisyExamples/libDaisy//src/per/sai.h ****  * and other behavior for each peripheral, and block.
  13:../../DaisyExamples/libDaisy//src/per/sai.h ****  * 
  14:../../DaisyExamples/libDaisy//src/per/sai.h ****  * DMA Transfer commands must use buffers located within non-cached memory or use cache maintenance
  15:../../DaisyExamples/libDaisy//src/per/sai.h ****  * To declare an unitialized global element in the DMA memory section:
  16:../../DaisyExamples/libDaisy//src/per/sai.h ****  *    int32_t DSY_DMA_BUFFER_SECTOR my_buffer[96];
  17:../../DaisyExamples/libDaisy//src/per/sai.h ****  *
  18:../../DaisyExamples/libDaisy//src/per/sai.h ****  * Callback functions will be called once per half of the buffer. In the above example, 
  19:../../DaisyExamples/libDaisy//src/per/sai.h ****  * the callback function would be called once for every 48 samples.
  20:../../DaisyExamples/libDaisy//src/per/sai.h ****  * 
  21:../../DaisyExamples/libDaisy//src/per/sai.h ****  * Use SAI Handle like this:
  22:../../DaisyExamples/libDaisy//src/per/sai.h ****  * 
  23:../../DaisyExamples/libDaisy//src/per/sai.h ****  *  SaiHandle::Config sai_config;
  24:../../DaisyExamples/libDaisy//src/per/sai.h ****  *  sai_config.periph          = SaiHandle::Config::Peripheral::SAI_1;
  25:../../DaisyExamples/libDaisy//src/per/sai.h ****  *  sai_config.sr              = SaiHandle::Config::SampleRate::SAI_48KHZ;
  26:../../DaisyExamples/libDaisy//src/per/sai.h ****  *  sai_config.bit_depth       = SaiHandle::Config::BitDepth::SAI_24BIT;
  27:../../DaisyExamples/libDaisy//src/per/sai.h ****  *  sai_config.a_sync          = SaiHandle::Config::Sync::MASTER;
  28:../../DaisyExamples/libDaisy//src/per/sai.h ****  *  sai_config.b_sync          = SaiHandle::Config::Sync::SLAVE;
  29:../../DaisyExamples/libDaisy//src/per/sai.h ****  *  sai_config.a_dir           = SaiHandle::Config::Direction::RECEIVE;
  30:../../DaisyExamples/libDaisy//src/per/sai.h ****  *  sai_config.b_dir           = SaiHandle::Config::Direction::TRANSMIT;
  31:../../DaisyExamples/libDaisy//src/per/sai.h ****  *  sai_config.pin_config.fs   = {DSY_GPIOE, 4};
  32:../../DaisyExamples/libDaisy//src/per/sai.h ****  *  sai_config.pin_config.mclk = {DSY_GPIOE, 2};
  33:../../DaisyExamples/libDaisy//src/per/sai.h ****  *  sai_config.pin_config.sck  = {DSY_GPIOE, 5};
  34:../../DaisyExamples/libDaisy//src/per/sai.h ****  *  sai_config.pin_config.sa   = {DSY_GPIOE, 6};
  35:../../DaisyExamples/libDaisy//src/per/sai.h ****  *  sai_config.pin_config.sb   = {DSY_GPIOE, 3};
  36:../../DaisyExamples/libDaisy//src/per/sai.h ****  *  // Then Initialize
  37:../../DaisyExamples/libDaisy//src/per/sai.h ****  *  SaiHandle sai;
  38:../../DaisyExamples/libDaisy//src/per/sai.h ****  *  sai.Init(sai_config);
  39:../../DaisyExamples/libDaisy//src/per/sai.h ****  *  // Now you can use it:
  40:../../DaisyExamples/libDaisy//src/per/sai.h ****  *  sai.StartDma(. . .);
  41:../../DaisyExamples/libDaisy//src/per/sai.h ****  */
  42:../../DaisyExamples/libDaisy//src/per/sai.h **** class SaiHandle
  43:../../DaisyExamples/libDaisy//src/per/sai.h **** {
  44:../../DaisyExamples/libDaisy//src/per/sai.h ****   public:
  45:../../DaisyExamples/libDaisy//src/per/sai.h ****     /** Contains settings for initialising an SAI Interface */
  46:../../DaisyExamples/libDaisy//src/per/sai.h ****     struct Config
  47:../../DaisyExamples/libDaisy//src/per/sai.h ****     {
  48:../../DaisyExamples/libDaisy//src/per/sai.h ****         /** Specifies the internal peripheral to use (mapped to different hardware pins) */
  49:../../DaisyExamples/libDaisy//src/per/sai.h ****         enum class Peripheral
  50:../../DaisyExamples/libDaisy//src/per/sai.h ****         {
  51:../../DaisyExamples/libDaisy//src/per/sai.h ****             SAI_1,
  52:../../DaisyExamples/libDaisy//src/per/sai.h ****             SAI_2,
  53:../../DaisyExamples/libDaisy//src/per/sai.h ****         };
  54:../../DaisyExamples/libDaisy//src/per/sai.h **** 
  55:../../DaisyExamples/libDaisy//src/per/sai.h ****         /** Rate at which samples will be streaming to/from the device. */
  56:../../DaisyExamples/libDaisy//src/per/sai.h ****         enum class SampleRate
  57:../../DaisyExamples/libDaisy//src/per/sai.h ****         {
  58:../../DaisyExamples/libDaisy//src/per/sai.h ****             SAI_8KHZ,
  59:../../DaisyExamples/libDaisy//src/per/sai.h ****             SAI_16KHZ,
  60:../../DaisyExamples/libDaisy//src/per/sai.h ****             SAI_32KHZ,
  61:../../DaisyExamples/libDaisy//src/per/sai.h ****             SAI_48KHZ,
  62:../../DaisyExamples/libDaisy//src/per/sai.h ****             SAI_96KHZ,
  63:../../DaisyExamples/libDaisy//src/per/sai.h ****         };
ARM GAS  /var/folders/hp/45mn71hd0ps5f5pnytxy5bt00000gn/T//ccdvmoSj.s 			page 192


  64:../../DaisyExamples/libDaisy//src/per/sai.h **** 
  65:../../DaisyExamples/libDaisy//src/per/sai.h ****         /** Bit Depth that the hardware expects to be transferred to/from the device. */
  66:../../DaisyExamples/libDaisy//src/per/sai.h ****         enum class BitDepth
  67:../../DaisyExamples/libDaisy//src/per/sai.h ****         {
  68:../../DaisyExamples/libDaisy//src/per/sai.h ****             SAI_16BIT,
  69:../../DaisyExamples/libDaisy//src/per/sai.h ****             SAI_24BIT,
  70:../../DaisyExamples/libDaisy//src/per/sai.h ****             SAI_32BIT,
  71:../../DaisyExamples/libDaisy//src/per/sai.h ****         };
  72:../../DaisyExamples/libDaisy//src/per/sai.h **** 
  73:../../DaisyExamples/libDaisy//src/per/sai.h ****         /** Specifies whether a particular block is the master or the slave 
  74:../../DaisyExamples/libDaisy//src/per/sai.h ****          ** If both are set to slave, no MCLK signal will be used, and it is
  75:../../DaisyExamples/libDaisy//src/per/sai.h ****          ** expected that the codec will have its own xtal.
  76:../../DaisyExamples/libDaisy//src/per/sai.h ****          */
  77:../../DaisyExamples/libDaisy//src/per/sai.h ****         enum class Sync
  78:../../DaisyExamples/libDaisy//src/per/sai.h ****         {
  79:../../DaisyExamples/libDaisy//src/per/sai.h ****             MASTER,
  80:../../DaisyExamples/libDaisy//src/per/sai.h ****             SLAVE,
  81:../../DaisyExamples/libDaisy//src/per/sai.h ****         };
  82:../../DaisyExamples/libDaisy//src/per/sai.h **** 
  83:../../DaisyExamples/libDaisy//src/per/sai.h ****         /** Specifies the direction for each peripheral block. */
  84:../../DaisyExamples/libDaisy//src/per/sai.h ****         enum class Direction
  85:../../DaisyExamples/libDaisy//src/per/sai.h ****         {
  86:../../DaisyExamples/libDaisy//src/per/sai.h ****             TRANSMIT,
  87:../../DaisyExamples/libDaisy//src/per/sai.h ****             RECEIVE,
  88:../../DaisyExamples/libDaisy//src/per/sai.h ****         };
  89:../../DaisyExamples/libDaisy//src/per/sai.h **** 
  90:../../DaisyExamples/libDaisy//src/per/sai.h ****         Peripheral periph;
  91:../../DaisyExamples/libDaisy//src/per/sai.h ****         struct
  92:../../DaisyExamples/libDaisy//src/per/sai.h ****         {
  93:../../DaisyExamples/libDaisy//src/per/sai.h ****             dsy_gpio_pin mclk, fs, sck, sa, sb;
  94:../../DaisyExamples/libDaisy//src/per/sai.h ****         } pin_config;
  95:../../DaisyExamples/libDaisy//src/per/sai.h ****         SampleRate sr;
  96:../../DaisyExamples/libDaisy//src/per/sai.h ****         BitDepth   bit_depth;
  97:../../DaisyExamples/libDaisy//src/per/sai.h ****         Sync       a_sync, b_sync;
  98:../../DaisyExamples/libDaisy//src/per/sai.h ****         Direction  a_dir, b_dir;
  99:../../DaisyExamples/libDaisy//src/per/sai.h ****     };
 100:../../DaisyExamples/libDaisy//src/per/sai.h **** 
 101:../../DaisyExamples/libDaisy//src/per/sai.h ****     /** Return values for SAI functions */
 102:../../DaisyExamples/libDaisy//src/per/sai.h ****     enum class Result
 103:../../DaisyExamples/libDaisy//src/per/sai.h ****     {
 104:../../DaisyExamples/libDaisy//src/per/sai.h ****         OK,
 105:../../DaisyExamples/libDaisy//src/per/sai.h ****         ERR,
 106:../../DaisyExamples/libDaisy//src/per/sai.h ****     };
 107:../../DaisyExamples/libDaisy//src/per/sai.h **** 
 108:../../DaisyExamples/libDaisy//src/per/sai.h ****     SaiHandle() : pimpl_(nullptr) {}
 6972              		.loc 15 108 5 is_stmt 1 view .LVU1744
 6973              	.LBB1652:
 6974              	.LBB1653:
 6975              		.loc 15 108 33 is_stmt 0 view .LVU1745
 6976 0010 C463     		str	r4, [r0, #60]
 6977              	.LVL490:
 6978              		.loc 15 108 33 view .LVU1746
 6979              	.LBE1653:
 6980              	.LBE1652:
 6981              	.LBE1651:
 6982              	.LBE1655:
 6983              	.LBE1657:
ARM GAS  /var/folders/hp/45mn71hd0ps5f5pnytxy5bt00000gn/T//ccdvmoSj.s 			page 193


  10:displayDaisy.cpp **** DaisySeed     hw;
 6984              		.loc 11 10 15 view .LVU1747
 6985 0012 FFF7FEFF 		bl	__aeabi_atexit
 6986              	.LVL491:
 6987              	.LBB1658:
 6988              	.LBI1658:
  17:../../DaisyExamples/libDaisy//src/hid/disp/oled_display.h ****     virtual ~OledDisplay() {}
 6989              		.loc 6 17 5 is_stmt 1 view .LVU1748
 6990              	.LBB1659:
 6991              	.LBB1660:
 6992              	.LBB1661:
 6993              	.LBI1661:
 218:../../DaisyExamples/libDaisy//src/hid/disp/display.h ****     virtual ~OneBitGraphicsDisplayImpl() {}
 6994              		.loc 8 218 5 view .LVU1749
 6995              	.LBB1662:
 6996              	.LBI1662:
  22:../../DaisyExamples/libDaisy//src/hid/disp/display.h ****     virtual ~OneBitGraphicsDisplay() {}
 6997              		.loc 8 22 5 view .LVU1750
  22:../../DaisyExamples/libDaisy//src/hid/disp/display.h ****     virtual ~OneBitGraphicsDisplay() {}
 6998              		.loc 8 22 5 is_stmt 0 view .LVU1751
 6999              	.LBE1662:
 7000              	.LBE1661:
  17:../../DaisyExamples/libDaisy//src/hid/disp/oled_display.h ****     virtual ~OledDisplay() {}
 7001              		.loc 6 17 19 view .LVU1752
 7002 0016 0848     		ldr	r0, .L437+12
 7003 0018 084B     		ldr	r3, .L437+16
 7004              	.LBB1663:
 7005              	.LBB1664:
 7006              	.LBB1665:
 7007              	.LBB1666:
 7008              	.LBB1667:
  29:../../DaisyExamples/libDaisy//src/per/i2c.h ****     {
  30:../../DaisyExamples/libDaisy//src/per/i2c.h ****         /** Specifies whether the interface will operate in master or slave mode. */
  31:../../DaisyExamples/libDaisy//src/per/i2c.h ****         enum class Mode
  32:../../DaisyExamples/libDaisy//src/per/i2c.h ****         {
  33:../../DaisyExamples/libDaisy//src/per/i2c.h ****             I2C_MASTER,
  34:../../DaisyExamples/libDaisy//src/per/i2c.h ****             I2C_SLAVE,
  35:../../DaisyExamples/libDaisy//src/per/i2c.h ****         };
  36:../../DaisyExamples/libDaisy//src/per/i2c.h **** 
  37:../../DaisyExamples/libDaisy//src/per/i2c.h ****         /** Specifices the internal peripheral to use (these are mapped to different pins on the ha
  38:../../DaisyExamples/libDaisy//src/per/i2c.h ****         enum class Peripheral
  39:../../DaisyExamples/libDaisy//src/per/i2c.h ****         {
  40:../../DaisyExamples/libDaisy//src/per/i2c.h ****             I2C_1 = 0, /**< & */
  41:../../DaisyExamples/libDaisy//src/per/i2c.h ****             I2C_2,     /**< & */
  42:../../DaisyExamples/libDaisy//src/per/i2c.h ****             I2C_3,     /**< & */
  43:../../DaisyExamples/libDaisy//src/per/i2c.h ****             I2C_4,     /**< & */
  44:../../DaisyExamples/libDaisy//src/per/i2c.h ****         };
  45:../../DaisyExamples/libDaisy//src/per/i2c.h **** 
  46:../../DaisyExamples/libDaisy//src/per/i2c.h ****         /** Rate at which the clock/data will be sent/received. The device being used will have max
  47:../../DaisyExamples/libDaisy//src/per/i2c.h ****          *  1MHZ Mode is currently 886kHz
  48:../../DaisyExamples/libDaisy//src/per/i2c.h ****          */
  49:../../DaisyExamples/libDaisy//src/per/i2c.h ****         enum class Speed
  50:../../DaisyExamples/libDaisy//src/per/i2c.h ****         {
  51:../../DaisyExamples/libDaisy//src/per/i2c.h ****             I2C_100KHZ, /**< & */
  52:../../DaisyExamples/libDaisy//src/per/i2c.h ****             I2C_400KHZ, /**< & */
  53:../../DaisyExamples/libDaisy//src/per/i2c.h ****             I2C_1MHZ,   /**< & */
  54:../../DaisyExamples/libDaisy//src/per/i2c.h ****         };
ARM GAS  /var/folders/hp/45mn71hd0ps5f5pnytxy5bt00000gn/T//ccdvmoSj.s 			page 194


  55:../../DaisyExamples/libDaisy//src/per/i2c.h **** 
  56:../../DaisyExamples/libDaisy//src/per/i2c.h ****         Peripheral periph; /**< & */
  57:../../DaisyExamples/libDaisy//src/per/i2c.h ****         struct
  58:../../DaisyExamples/libDaisy//src/per/i2c.h ****         {
  59:../../DaisyExamples/libDaisy//src/per/i2c.h ****             dsy_gpio_pin scl; /**< & */
  60:../../DaisyExamples/libDaisy//src/per/i2c.h ****             dsy_gpio_pin sda; /**< & */
  61:../../DaisyExamples/libDaisy//src/per/i2c.h ****         } pin_config;         /**< & */
  62:../../DaisyExamples/libDaisy//src/per/i2c.h **** 
  63:../../DaisyExamples/libDaisy//src/per/i2c.h ****         Speed speed; /**< & */
  64:../../DaisyExamples/libDaisy//src/per/i2c.h ****         Mode  mode;  /**< & */
  65:../../DaisyExamples/libDaisy//src/per/i2c.h ****         // 0x10 is chosen as a default to avoid conflicts with reserved addresses
  66:../../DaisyExamples/libDaisy//src/per/i2c.h ****         uint8_t address = 0x10; /**< & */
  67:../../DaisyExamples/libDaisy//src/per/i2c.h ****     };
  68:../../DaisyExamples/libDaisy//src/per/i2c.h **** 
  69:../../DaisyExamples/libDaisy//src/per/i2c.h ****     /** Return values for I2C functions. */
  70:../../DaisyExamples/libDaisy//src/per/i2c.h ****     enum class Result
  71:../../DaisyExamples/libDaisy//src/per/i2c.h ****     {
  72:../../DaisyExamples/libDaisy//src/per/i2c.h ****         OK, /**< & */
  73:../../DaisyExamples/libDaisy//src/per/i2c.h ****         ERR /**< & */
  74:../../DaisyExamples/libDaisy//src/per/i2c.h ****     };
  75:../../DaisyExamples/libDaisy//src/per/i2c.h **** 
  76:../../DaisyExamples/libDaisy//src/per/i2c.h ****     enum class Direction
  77:../../DaisyExamples/libDaisy//src/per/i2c.h ****     {
  78:../../DaisyExamples/libDaisy//src/per/i2c.h ****         TRANSMIT, /**< & */
  79:../../DaisyExamples/libDaisy//src/per/i2c.h ****         RECEIVE,  /**< & */
  80:../../DaisyExamples/libDaisy//src/per/i2c.h ****     };
  81:../../DaisyExamples/libDaisy//src/per/i2c.h **** 
  82:../../DaisyExamples/libDaisy//src/per/i2c.h ****     I2CHandle() : pimpl_(nullptr) {}
 7009              		.loc 12 82 33 view .LVU1753
 7010 001a 8460     		str	r4, [r0, #8]
 7011              	.LBE1667:
 7012              	.LBE1666:
 7013              	.LBE1665:
 7014              	.LBE1664:
 7015              	.LBE1663:
 7016              	.LBE1660:
 7017              	.LBE1659:
 7018              	.LBE1658:
  11:displayDaisy.cpp **** MyOledDisplay display;
 7019              		.loc 11 11 15 view .LVU1754
 7020 001c 044A     		ldr	r2, .L437+4
 7021 001e 0849     		ldr	r1, .L437+20
 7022              	.LBB1673:
 7023              	.LBB1672:
 7024              	.LBB1671:
  17:../../DaisyExamples/libDaisy//src/hid/disp/oled_display.h ****     virtual ~OledDisplay() {}
 7025              		.loc 6 17 19 view .LVU1755
 7026 0020 0360     		str	r3, [r0]
 7027              	.LVL492:
 7028              	.LBB1670:
 7029              	.LBI1663:
 245:../../DaisyExamples/libDaisy//src/dev/oled_ssd130x.h **** {
 7030              		.loc 7 245 7 is_stmt 1 view .LVU1756
 7031              	.LBB1669:
 7032              	.LBI1664:
  15:../../DaisyExamples/libDaisy//src/dev/oled_ssd130x.h **** {
 7033              		.loc 7 15 7 view .LVU1757
ARM GAS  /var/folders/hp/45mn71hd0ps5f5pnytxy5bt00000gn/T//ccdvmoSj.s 			page 195


 7034              	.LBB1668:
 7035              	.LBI1665:
 7036              		.loc 12 82 5 view .LVU1758
 7037              		.loc 12 82 5 is_stmt 0 view .LVU1759
 7038              	.LBE1668:
 7039              	.LBE1669:
 7040              	.LBE1670:
 7041              	.LBE1671:
 7042              	.LBE1672:
 7043              	.LBE1673:
 7044              	.LBE1674:
 7045              	.LBE1676:
 7046              		.loc 11 49 1 view .LVU1760
 7047 0022 BDE81040 		pop	{r4, lr}
 7048              		.cfi_restore 14
 7049              		.cfi_restore 4
 7050              		.cfi_def_cfa_offset 0
 7051              	.LBB1677:
 7052              	.LBB1675:
  11:displayDaisy.cpp **** MyOledDisplay display;
 7053              		.loc 11 11 15 view .LVU1761
 7054 0026 FFF7FEBF 		b	__aeabi_atexit
 7055              	.LVL493:
 7056              	.L438:
 7057 002a 00BF     		.align	2
 7058              	.L437:
 7059 002c 00000000 		.word	.LANCHOR0
 7060 0030 00000000 		.word	__dso_handle
 7061 0034 00000000 		.word	_ZN5daisy9DaisySeedD1Ev
 7062 0038 00000000 		.word	.LANCHOR1
 7063 003c 08000000 		.word	_ZTVN5daisy11OledDisplayINS_13SSD130xDriverILj128ELj32ENS_19SSD130xI2CTransportEEEEE+8
 7064 0040 00000000 		.word	_ZN5daisy11OledDisplayINS_13SSD130xDriverILj128ELj32ENS_19SSD130xI2CTransportEEEED1Ev
 7065              	.LBE1675:
 7066              	.LBE1677:
 7067              		.cfi_endproc
 7068              	.LFE2682:
 7070              		.section	.init_array,"aw",%init_array
 7071              		.align	2
 7072 0000 00000000 		.word	_GLOBAL__sub_I_hw(target1)
 7073              		.weak	_ZTVN5daisy11OledDisplayINS_13SSD130xDriverILj128ELj32ENS_19SSD130xI2CTransportEEEEE
 7074              		.section	.rodata._ZTVN5daisy11OledDisplayINS_13SSD130xDriverILj128ELj32ENS_19SSD130xI2CTransportEE
 7075              		.align	2
 7078              	_ZTVN5daisy11OledDisplayINS_13SSD130xDriverILj128ELj32ENS_19SSD130xI2CTransportEEEEE:
 7079 0000 00000000 		.word	0
 7080 0004 00000000 		.word	0
 7081 0008 00000000 		.word	_ZN5daisy11OledDisplayINS_13SSD130xDriverILj128ELj32ENS_19SSD130xI2CTransportEEEED1Ev
 7082 000c 00000000 		.word	_ZN5daisy11OledDisplayINS_13SSD130xDriverILj128ELj32ENS_19SSD130xI2CTransportEEEED0Ev
 7083 0010 00000000 		.word	_ZNK5daisy11OledDisplayINS_13SSD130xDriverILj128ELj32ENS_19SSD130xI2CTransportEEEE6HeightEv
 7084 0014 00000000 		.word	_ZNK5daisy11OledDisplayINS_13SSD130xDriverILj128ELj32ENS_19SSD130xI2CTransportEEEE5WidthEv
 7085 0018 00000000 		.word	_ZN5daisy11OledDisplayINS_13SSD130xDriverILj128ELj32ENS_19SSD130xI2CTransportEEEE4FillEb
 7086 001c 00000000 		.word	_ZN5daisy11OledDisplayINS_13SSD130xDriverILj128ELj32ENS_19SSD130xI2CTransportEEEE9DrawPixelE
 7087 0020 00000000 		.word	_ZN5daisy25OneBitGraphicsDisplayImplINS_11OledDisplayINS_13SSD130xDriverILj128ELj32ENS_19SSD
 7088 0024 00000000 		.word	_ZN5daisy25OneBitGraphicsDisplayImplINS_11OledDisplayINS_13SSD130xDriverILj128ELj32ENS_19SSD
 7089 0028 00000000 		.word	_ZN5daisy25OneBitGraphicsDisplayImplINS_11OledDisplayINS_13SSD130xDriverILj128ELj32ENS_19SSD
 7090 002c 00000000 		.word	_ZN5daisy25OneBitGraphicsDisplayImplINS_11OledDisplayINS_13SSD130xDriverILj128ELj32ENS_19SSD
 7091 0030 00000000 		.word	_ZN5daisy25OneBitGraphicsDisplayImplINS_11OledDisplayINS_13SSD130xDriverILj128ELj32ENS_19SSD
 7092 0034 00000000 		.word	_ZN5daisy25OneBitGraphicsDisplayImplINS_11OledDisplayINS_13SSD130xDriverILj128ELj32ENS_19SSD
ARM GAS  /var/folders/hp/45mn71hd0ps5f5pnytxy5bt00000gn/T//ccdvmoSj.s 			page 196


 7093 0038 00000000 		.word	_ZN5daisy11OledDisplayINS_13SSD130xDriverILj128ELj32ENS_19SSD130xI2CTransportEEEE6UpdateEv
 7094              		.global	display
 7095              		.global	hw
 7096              		.section	.bss.display,"aw",%nobits
 7097              		.align	2
 7098              		.set	.LANCHOR1,. + 0
 7101              	display:
 7102 0000 00000000 		.space	528
 7102      00000000 
 7102      00000000 
 7102      00000000 
 7102      00000000 
 7103              		.section	.bss.hw,"aw",%nobits
 7104              		.align	2
 7105              		.set	.LANCHOR0,. + 0
 7108              	hw:
 7109 0000 00000000 		.space	64
 7109      00000000 
 7109      00000000 
 7109      00000000 
 7109      00000000 
 7110              		.text
 7111              	.Letext0:
 7112              		.file 16 "/Library/DaisyToolchain/0.2.0/arm/arm-none-eabi/include/machine/_default_types.h"
 7113              		.file 17 "/Library/DaisyToolchain/0.2.0/arm/arm-none-eabi/include/sys/_stdint.h"
 7114              		.file 18 "/Library/DaisyToolchain/0.2.0/arm/arm-none-eabi/include/stdint.h"
 7115              		.file 19 "/Library/DaisyToolchain/0.2.0/arm/lib/gcc/arm-none-eabi/10.3.1/include/stddef.h"
 7116              		.file 20 "/Library/DaisyToolchain/0.2.0/arm/arm-none-eabi/include/c++/10.3.1/bits/std_abs.h"
 7117              		.file 21 "/Library/DaisyToolchain/0.2.0/arm/arm-none-eabi/include/c++/10.3.1/cstdlib"
 7118              		.file 22 "/Library/DaisyToolchain/0.2.0/arm/arm-none-eabi/include/c++/10.3.1/cstdint"
 7119              		.file 23 "/Library/DaisyToolchain/0.2.0/arm/arm-none-eabi/include/c++/10.3.1/arm-none-eabi/thumb/v
 7120              		.file 24 "/Library/DaisyToolchain/0.2.0/arm/arm-none-eabi/include/c++/10.3.1/type_traits"
 7121              		.file 25 "/Library/DaisyToolchain/0.2.0/arm/arm-none-eabi/include/c++/10.3.1/debug/debug.h"
 7122              		.file 26 "/Library/DaisyToolchain/0.2.0/arm/arm-none-eabi/include/c++/10.3.1/bits/algorithmfwd.h"
 7123              		.file 27 "/Library/DaisyToolchain/0.2.0/arm/arm-none-eabi/include/c++/10.3.1/bits/stl_pair.h"
 7124              		.file 28 "/Library/DaisyToolchain/0.2.0/arm/arm-none-eabi/include/c++/10.3.1/bits/exception_ptr.h"
 7125              		.file 29 "/Library/DaisyToolchain/0.2.0/arm/arm-none-eabi/include/c++/10.3.1/initializer_list"
 7126              		.file 30 "/Library/DaisyToolchain/0.2.0/arm/arm-none-eabi/include/c++/10.3.1/cstdarg"
 7127              		.file 31 "/Library/DaisyToolchain/0.2.0/arm/arm-none-eabi/include/c++/10.3.1/cstdio"
 7128              		.file 32 "/Library/DaisyToolchain/0.2.0/arm/arm-none-eabi/include/c++/10.3.1/cstring"
 7129              		.file 33 "/Library/DaisyToolchain/0.2.0/arm/arm-none-eabi/include/c++/10.3.1/bits/predefined_ops.h
 7130              		.file 34 "/Library/DaisyToolchain/0.2.0/arm/arm-none-eabi/include/sys/_types.h"
 7131              		.file 35 "/Library/DaisyToolchain/0.2.0/arm/arm-none-eabi/include/sys/reent.h"
 7132              		.file 36 "/Library/DaisyToolchain/0.2.0/arm/arm-none-eabi/include/sys/lock.h"
 7133              		.file 37 "/Library/DaisyToolchain/0.2.0/arm/arm-none-eabi/include/math.h"
 7134              		.file 38 "/Library/DaisyToolchain/0.2.0/arm/arm-none-eabi/include/stdlib.h"
 7135              		.file 39 "/Library/DaisyToolchain/0.2.0/arm/arm-none-eabi/include/c++/10.3.1/math.h"
 7136              		.file 40 "/Library/DaisyToolchain/0.2.0/arm/lib/gcc/arm-none-eabi/10.3.1/include/stdarg.h"
 7137              		.file 41 "/Library/DaisyToolchain/0.2.0/arm/arm-none-eabi/include/stdio.h"
 7138              		.file 42 "/Library/DaisyToolchain/0.2.0/arm/arm-none-eabi/include/c++/10.3.1/stdlib.h"
 7139              		.file 43 "../../DaisyExamples/libDaisy//src/daisy_core.h"
 7140              		.file 44 "../../DaisyExamples/libDaisy//src/per/tim.h"
 7141              		.file 45 "../../DaisyExamples/libDaisy//src/per/uart.h"
 7142              		.file 46 "../../DaisyExamples/libDaisy//src/hid/MidiEvent.h"
 7143              		.file 47 "../../DaisyExamples/libDaisy//src/hid/midi_parser.h"
 7144              		.file 48 "../../DaisyExamples/libDaisy//src/hid/midi.h"
 7145              		.file 49 "../../DaisyExamples/libDaisy//src/util/FIFO.h"
ARM GAS  /var/folders/hp/45mn71hd0ps5f5pnytxy5bt00000gn/T//ccdvmoSj.s 			page 197


 7146              		.file 50 "../../DaisyExamples/libDaisy//src/hid/switch.h"
 7147              		.file 51 "../../DaisyExamples/libDaisy//src/hid/encoder.h"
 7148              		.file 52 "../../DaisyExamples/libDaisy//src/hid/ctrl.h"
 7149              		.file 53 "../../DaisyExamples/libDaisy//src/util/wav_format.h"
 7150              		.file 54 "../../DaisyExamples/libDaisy//src/hid/led.h"
 7151              		.file 55 "../../DaisyExamples/libDaisy//src/util/color.h"
 7152              		.file 56 "../../DaisyExamples/libDaisy//src/hid/rgb_led.h"
 7153              		.file 57 "../../DaisyExamples/libDaisy//src/dev/max11300.h"
 7154              		.file 58 "../../DaisyExamples/libDaisy//src/daisy_pod.h"
 7155              		.file 59 "../../DaisyExamples/libDaisy//src/per/gpio.h"
 7156              		.file 60 "../../DaisyExamples/libDaisy//src/dev/sdram.h"
 7157              		.file 61 "../../DaisyExamples/libDaisy//src/util/oled_fonts.h"
 7158              		.file 62 "/Library/DaisyToolchain/0.2.0/arm/arm-none-eabi/include/string.h"
 7159              		.file 63 "../../DaisyExamples/libDaisy//src/dev/sr_595.h"
 7160              		.file 64 "<built-in>"
 7161              		.file 65 "/Library/DaisyToolchain/0.2.0/arm/arm-none-eabi/include/c++/10.3.1/new"
ARM GAS  /var/folders/hp/45mn71hd0ps5f5pnytxy5bt00000gn/T//ccdvmoSj.s 			page 198


DEFINED SYMBOLS
                            *ABS*:0000000000000000 displayDaisy.cpp
/var/folders/hp/45mn71hd0ps5f5pnytxy5bt00000gn/T//ccdvmoSj.s:19     .text._ZN5daisy9DaisySeedD2Ev:0000000000000000 $t
/var/folders/hp/45mn71hd0ps5f5pnytxy5bt00000gn/T//ccdvmoSj.s:26     .text._ZN5daisy9DaisySeedD2Ev:0000000000000000 _ZN5daisy9DaisySeedD2Ev
/var/folders/hp/45mn71hd0ps5f5pnytxy5bt00000gn/T//ccdvmoSj.s:26     .text._ZN5daisy9DaisySeedD2Ev:0000000000000000 _ZN5daisy9DaisySeedD1Ev
/var/folders/hp/45mn71hd0ps5f5pnytxy5bt00000gn/T//ccdvmoSj.s:67     .text._ZN5daisy11OledDisplayINS_13SSD130xDriverILj128ELj32ENS_19SSD130xI2CTransportEEEE4FillEb:0000000000000000 $t
/var/folders/hp/45mn71hd0ps5f5pnytxy5bt00000gn/T//ccdvmoSj.s:74     .text._ZN5daisy11OledDisplayINS_13SSD130xDriverILj128ELj32ENS_19SSD130xI2CTransportEEEE4FillEb:0000000000000000 _ZN5daisy11OledDisplayINS_13SSD130xDriverILj128ELj32ENS_19SSD130xI2CTransportEEEE4FillEb
/var/folders/hp/45mn71hd0ps5f5pnytxy5bt00000gn/T//ccdvmoSj.s:107    .text._ZN5daisy11OledDisplayINS_13SSD130xDriverILj128ELj32ENS_19SSD130xI2CTransportEEEED2Ev:0000000000000000 $t
/var/folders/hp/45mn71hd0ps5f5pnytxy5bt00000gn/T//ccdvmoSj.s:114    .text._ZN5daisy11OledDisplayINS_13SSD130xDriverILj128ELj32ENS_19SSD130xI2CTransportEEEED2Ev:0000000000000000 _ZN5daisy11OledDisplayINS_13SSD130xDriverILj128ELj32ENS_19SSD130xI2CTransportEEEED2Ev
/var/folders/hp/45mn71hd0ps5f5pnytxy5bt00000gn/T//ccdvmoSj.s:114    .text._ZN5daisy11OledDisplayINS_13SSD130xDriverILj128ELj32ENS_19SSD130xI2CTransportEEEED2Ev:0000000000000000 _ZN5daisy11OledDisplayINS_13SSD130xDriverILj128ELj32ENS_19SSD130xI2CTransportEEEED1Ev
/var/folders/hp/45mn71hd0ps5f5pnytxy5bt00000gn/T//ccdvmoSj.s:140    .text._ZNK5daisy11OledDisplayINS_13SSD130xDriverILj128ELj32ENS_19SSD130xI2CTransportEEEE6HeightEv:0000000000000000 $t
/var/folders/hp/45mn71hd0ps5f5pnytxy5bt00000gn/T//ccdvmoSj.s:147    .text._ZNK5daisy11OledDisplayINS_13SSD130xDriverILj128ELj32ENS_19SSD130xI2CTransportEEEE6HeightEv:0000000000000000 _ZNK5daisy11OledDisplayINS_13SSD130xDriverILj128ELj32ENS_19SSD130xI2CTransportEEEE6HeightEv
/var/folders/hp/45mn71hd0ps5f5pnytxy5bt00000gn/T//ccdvmoSj.s:164    .text._ZNK5daisy11OledDisplayINS_13SSD130xDriverILj128ELj32ENS_19SSD130xI2CTransportEEEE5WidthEv:0000000000000000 $t
/var/folders/hp/45mn71hd0ps5f5pnytxy5bt00000gn/T//ccdvmoSj.s:171    .text._ZNK5daisy11OledDisplayINS_13SSD130xDriverILj128ELj32ENS_19SSD130xI2CTransportEEEE5WidthEv:0000000000000000 _ZNK5daisy11OledDisplayINS_13SSD130xDriverILj128ELj32ENS_19SSD130xI2CTransportEEEE5WidthEv
/var/folders/hp/45mn71hd0ps5f5pnytxy5bt00000gn/T//ccdvmoSj.s:188    .text._ZN5daisy11OledDisplayINS_13SSD130xDriverILj128ELj32ENS_19SSD130xI2CTransportEEEED0Ev:0000000000000000 $t
/var/folders/hp/45mn71hd0ps5f5pnytxy5bt00000gn/T//ccdvmoSj.s:195    .text._ZN5daisy11OledDisplayINS_13SSD130xDriverILj128ELj32ENS_19SSD130xI2CTransportEEEED0Ev:0000000000000000 _ZN5daisy11OledDisplayINS_13SSD130xDriverILj128ELj32ENS_19SSD130xI2CTransportEEEED0Ev
/var/folders/hp/45mn71hd0ps5f5pnytxy5bt00000gn/T//ccdvmoSj.s:235    .text._ZN5daisy11OledDisplayINS_13SSD130xDriverILj128ELj32ENS_19SSD130xI2CTransportEEEE6UpdateEv:0000000000000000 $t
/var/folders/hp/45mn71hd0ps5f5pnytxy5bt00000gn/T//ccdvmoSj.s:242    .text._ZN5daisy11OledDisplayINS_13SSD130xDriverILj128ELj32ENS_19SSD130xI2CTransportEEEE6UpdateEv:0000000000000000 _ZN5daisy11OledDisplayINS_13SSD130xDriverILj128ELj32ENS_19SSD130xI2CTransportEEEE6UpdateEv
/var/folders/hp/45mn71hd0ps5f5pnytxy5bt00000gn/T//ccdvmoSj.s:426    .text._ZN5daisy25OneBitGraphicsDisplayImplINS_11OledDisplayINS_13SSD130xDriverILj128ELj32ENS_19SSD130xI2CTransportEEEEEE9WriteCharEc7FontDefb:0000000000000000 $t
/var/folders/hp/45mn71hd0ps5f5pnytxy5bt00000gn/T//ccdvmoSj.s:433    .text._ZN5daisy25OneBitGraphicsDisplayImplINS_11OledDisplayINS_13SSD130xDriverILj128ELj32ENS_19SSD130xI2CTransportEEEEEE9WriteCharEc7FontDefb:0000000000000000 _ZN5daisy25OneBitGraphicsDisplayImplINS_11OledDisplayINS_13SSD130xDriverILj128ELj32ENS_19SSD130xI2CTransportEEEEEE9WriteCharEc7FontDefb
/var/folders/hp/45mn71hd0ps5f5pnytxy5bt00000gn/T//ccdvmoSj.s:859    .text._ZN5daisy25OneBitGraphicsDisplayImplINS_11OledDisplayINS_13SSD130xDriverILj128ELj32ENS_19SSD130xI2CTransportEEEEEE9WriteCharEc7FontDefb:0000000000000198 $d
/var/folders/hp/45mn71hd0ps5f5pnytxy5bt00000gn/T//ccdvmoSj.s:867    .text._ZN5daisy25OneBitGraphicsDisplayImplINS_11OledDisplayINS_13SSD130xDriverILj128ELj32ENS_19SSD130xI2CTransportEEEEEE11WriteStringEPKc7FontDefb:0000000000000000 $t
/var/folders/hp/45mn71hd0ps5f5pnytxy5bt00000gn/T//ccdvmoSj.s:874    .text._ZN5daisy25OneBitGraphicsDisplayImplINS_11OledDisplayINS_13SSD130xDriverILj128ELj32ENS_19SSD130xI2CTransportEEEEEE11WriteStringEPKc7FontDefb:0000000000000000 _ZN5daisy25OneBitGraphicsDisplayImplINS_11OledDisplayINS_13SSD130xDriverILj128ELj32ENS_19SSD130xI2CTransportEEEEEE11WriteStringEPKc7FontDefb
/var/folders/hp/45mn71hd0ps5f5pnytxy5bt00000gn/T//ccdvmoSj.s:1331   .text._ZN5daisy25OneBitGraphicsDisplayImplINS_11OledDisplayINS_13SSD130xDriverILj128ELj32ENS_19SSD130xI2CTransportEEEEEE11WriteStringEPKc7FontDefb:00000000000001b8 $d
/var/folders/hp/45mn71hd0ps5f5pnytxy5bt00000gn/T//ccdvmoSj.s:1341   .text._ZN5daisy11OledDisplayINS_13SSD130xDriverILj128ELj32ENS_19SSD130xI2CTransportEEEE9DrawPixelEjjb:0000000000000000 $t
/var/folders/hp/45mn71hd0ps5f5pnytxy5bt00000gn/T//ccdvmoSj.s:1348   .text._ZN5daisy11OledDisplayINS_13SSD130xDriverILj128ELj32ENS_19SSD130xI2CTransportEEEE9DrawPixelEjjb:0000000000000000 _ZN5daisy11OledDisplayINS_13SSD130xDriverILj128ELj32ENS_19SSD130xI2CTransportEEEE9DrawPixelEjjb
/var/folders/hp/45mn71hd0ps5f5pnytxy5bt00000gn/T//ccdvmoSj.s:1425   .text._ZN5daisy25OneBitGraphicsDisplayImplINS_11OledDisplayINS_13SSD130xDriverILj128ELj32ENS_19SSD130xI2CTransportEEEEEE8DrawLineEjjjjb:0000000000000000 $t
/var/folders/hp/45mn71hd0ps5f5pnytxy5bt00000gn/T//ccdvmoSj.s:1432   .text._ZN5daisy25OneBitGraphicsDisplayImplINS_11OledDisplayINS_13SSD130xDriverILj128ELj32ENS_19SSD130xI2CTransportEEEEEE8DrawLineEjjjjb:0000000000000000 _ZN5daisy25OneBitGraphicsDisplayImplINS_11OledDisplayINS_13SSD130xDriverILj128ELj32ENS_19SSD130xI2CTransportEEEEEE8DrawLineEjjjjb
/var/folders/hp/45mn71hd0ps5f5pnytxy5bt00000gn/T//ccdvmoSj.s:1717   .text._ZN5daisy25OneBitGraphicsDisplayImplINS_11OledDisplayINS_13SSD130xDriverILj128ELj32ENS_19SSD130xI2CTransportEEEEEE7DrawArcEjjjiib:0000000000000000 $t
/var/folders/hp/45mn71hd0ps5f5pnytxy5bt00000gn/T//ccdvmoSj.s:1724   .text._ZN5daisy25OneBitGraphicsDisplayImplINS_11OledDisplayINS_13SSD130xDriverILj128ELj32ENS_19SSD130xI2CTransportEEEEEE7DrawArcEjjjiib:0000000000000000 _ZN5daisy25OneBitGraphicsDisplayImplINS_11OledDisplayINS_13SSD130xDriverILj128ELj32ENS_19SSD130xI2CTransportEEEEEE7DrawArcEjjjiib
/var/folders/hp/45mn71hd0ps5f5pnytxy5bt00000gn/T//ccdvmoSj.s:2409   .text._ZN5daisy25OneBitGraphicsDisplayImplINS_11OledDisplayINS_13SSD130xDriverILj128ELj32ENS_19SSD130xI2CTransportEEEEEE7DrawArcEjjjiib:0000000000000368 $d
/var/folders/hp/45mn71hd0ps5f5pnytxy5bt00000gn/T//ccdvmoSj.s:2423   .text._ZN5daisy25OneBitGraphicsDisplayImplINS_11OledDisplayINS_13SSD130xDriverILj128ELj32ENS_19SSD130xI2CTransportEEEEEE7DrawArcEjjjiib:0000000000000378 $t
/var/folders/hp/45mn71hd0ps5f5pnytxy5bt00000gn/T//ccdvmoSj.s:2649   .text._ZN5daisy25OneBitGraphicsDisplayImplINS_11OledDisplayINS_13SSD130xDriverILj128ELj32ENS_19SSD130xI2CTransportEEEEEE18WriteStringAlignedEPKcRK7FontDefNS_9RectangleENS_9AlignmentEb:0000000000000000 $t
/var/folders/hp/45mn71hd0ps5f5pnytxy5bt00000gn/T//ccdvmoSj.s:2656   .text._ZN5daisy25OneBitGraphicsDisplayImplINS_11OledDisplayINS_13SSD130xDriverILj128ELj32ENS_19SSD130xI2CTransportEEEEEE18WriteStringAlignedEPKcRK7FontDefNS_9RectangleENS_9AlignmentEb:0000000000000000 _ZN5daisy25OneBitGraphicsDisplayImplINS_11OledDisplayINS_13SSD130xDriverILj128ELj32ENS_19SSD130xI2CTransportEEEEEE18WriteStringAlignedEPKcRK7FontDefNS_9RectangleENS_9AlignmentEb
/var/folders/hp/45mn71hd0ps5f5pnytxy5bt00000gn/T//ccdvmoSj.s:2795   .text._ZN5daisy25OneBitGraphicsDisplayImplINS_11OledDisplayINS_13SSD130xDriverILj128ELj32ENS_19SSD130xI2CTransportEEEEEE18WriteStringAlignedEPKcRK7FontDefNS_9RectangleENS_9AlignmentEb:0000000000000046 $d
/var/folders/hp/45mn71hd0ps5f5pnytxy5bt00000gn/T//ccdvmoSj.s:2804   .text._ZN5daisy25OneBitGraphicsDisplayImplINS_11OledDisplayINS_13SSD130xDriverILj128ELj32ENS_19SSD130xI2CTransportEEEEEE18WriteStringAlignedEPKcRK7FontDefNS_9RectangleENS_9AlignmentEb:0000000000000058 $t
/var/folders/hp/45mn71hd0ps5f5pnytxy5bt00000gn/T//ccdvmoSj.s:4012   .text._ZN5daisy25OneBitGraphicsDisplayImplINS_11OledDisplayINS_13SSD130xDriverILj128ELj32ENS_19SSD130xI2CTransportEEEEEE18WriteStringAlignedEPKcRK7FontDefNS_9RectangleENS_9AlignmentEb:000000000000031c $d
/var/folders/hp/45mn71hd0ps5f5pnytxy5bt00000gn/T//ccdvmoSj.s:4021   .text._ZN5daisy25OneBitGraphicsDisplayImplINS_11OledDisplayINS_13SSD130xDriverILj128ELj32ENS_19SSD130xI2CTransportEEEEEE18WriteStringAlignedEPKcRK7FontDefNS_9RectangleENS_9AlignmentEb:0000000000000324 $t
/var/folders/hp/45mn71hd0ps5f5pnytxy5bt00000gn/T//ccdvmoSj.s:4337   .text._ZN5daisy25OneBitGraphicsDisplayImplINS_11OledDisplayINS_13SSD130xDriverILj128ELj32ENS_19SSD130xI2CTransportEEEEEE18WriteStringAlignedEPKcRK7FontDefNS_9RectangleENS_9AlignmentEb:00000000000003e4 $d
/var/folders/hp/45mn71hd0ps5f5pnytxy5bt00000gn/T//ccdvmoSj.s:4345   .text._ZN5daisy25OneBitGraphicsDisplayImplINS_11OledDisplayINS_13SSD130xDriverILj128ELj32ENS_19SSD130xI2CTransportEEEEEE8DrawRectEjjjjbb:0000000000000000 $t
/var/folders/hp/45mn71hd0ps5f5pnytxy5bt00000gn/T//ccdvmoSj.s:4352   .text._ZN5daisy25OneBitGraphicsDisplayImplINS_11OledDisplayINS_13SSD130xDriverILj128ELj32ENS_19SSD130xI2CTransportEEEEEE8DrawRectEjjjjbb:0000000000000000 _ZN5daisy25OneBitGraphicsDisplayImplINS_11OledDisplayINS_13SSD130xDriverILj128ELj32ENS_19SSD130xI2CTransportEEEEEE8DrawRectEjjjjbb
/var/folders/hp/45mn71hd0ps5f5pnytxy5bt00000gn/T//ccdvmoSj.s:5462   .text._ZN5daisy13SSD130xDriverILj128ELj32ENS_19SSD130xI2CTransportEE4InitENS2_6ConfigE:0000000000000000 $t
/var/folders/hp/45mn71hd0ps5f5pnytxy5bt00000gn/T//ccdvmoSj.s:5469   .text._ZN5daisy13SSD130xDriverILj128ELj32ENS_19SSD130xI2CTransportEE4InitENS2_6ConfigE:0000000000000000 _ZN5daisy13SSD130xDriverILj128ELj32ENS_19SSD130xI2CTransportEE4InitENS2_6ConfigE
/var/folders/hp/45mn71hd0ps5f5pnytxy5bt00000gn/T//ccdvmoSj.s:6129   .rodata.main.str1.4:0000000000000000 $d
/var/folders/hp/45mn71hd0ps5f5pnytxy5bt00000gn/T//ccdvmoSj.s:6145   .text.startup.main:0000000000000000 $t
/var/folders/hp/45mn71hd0ps5f5pnytxy5bt00000gn/T//ccdvmoSj.s:6152   .text.startup.main:0000000000000000 main
/var/folders/hp/45mn71hd0ps5f5pnytxy5bt00000gn/T//ccdvmoSj.s:6277   .text.startup.main:000000000000005c $d
/var/folders/hp/45mn71hd0ps5f5pnytxy5bt00000gn/T//ccdvmoSj.s:6282   .text.startup.main:0000000000000066 $t
/var/folders/hp/45mn71hd0ps5f5pnytxy5bt00000gn/T//ccdvmoSj.s:6846   .text.startup.main:000000000000024c $d
/var/folders/hp/45mn71hd0ps5f5pnytxy5bt00000gn/T//ccdvmoSj.s:6864   .text.startup._GLOBAL__sub_I_hw:0000000000000000 $t
/var/folders/hp/45mn71hd0ps5f5pnytxy5bt00000gn/T//ccdvmoSj.s:6870   .text.startup._GLOBAL__sub_I_hw:0000000000000000 _GLOBAL__sub_I_hw
/var/folders/hp/45mn71hd0ps5f5pnytxy5bt00000gn/T//ccdvmoSj.s:7059   .text.startup._GLOBAL__sub_I_hw:000000000000002c $d
/var/folders/hp/45mn71hd0ps5f5pnytxy5bt00000gn/T//ccdvmoSj.s:7078   .rodata._ZTVN5daisy11OledDisplayINS_13SSD130xDriverILj128ELj32ENS_19SSD130xI2CTransportEEEEE:0000000000000000 _ZTVN5daisy11OledDisplayINS_13SSD130xDriverILj128ELj32ENS_19SSD130xI2CTransportEEEEE
/var/folders/hp/45mn71hd0ps5f5pnytxy5bt00000gn/T//ccdvmoSj.s:7071   .init_array:0000000000000000 $d
/var/folders/hp/45mn71hd0ps5f5pnytxy5bt00000gn/T//ccdvmoSj.s:7075   .rodata._ZTVN5daisy11OledDisplayINS_13SSD130xDriverILj128ELj32ENS_19SSD130xI2CTransportEEEEE:0000000000000000 $d
/var/folders/hp/45mn71hd0ps5f5pnytxy5bt00000gn/T//ccdvmoSj.s:7101   .bss.display:0000000000000000 display
/var/folders/hp/45mn71hd0ps5f5pnytxy5bt00000gn/T//ccdvmoSj.s:7108   .bss.hw:0000000000000000 hw
ARM GAS  /var/folders/hp/45mn71hd0ps5f5pnytxy5bt00000gn/T//ccdvmoSj.s 			page 199


/var/folders/hp/45mn71hd0ps5f5pnytxy5bt00000gn/T//ccdvmoSj.s:7097   .bss.display:0000000000000000 $d
/var/folders/hp/45mn71hd0ps5f5pnytxy5bt00000gn/T//ccdvmoSj.s:7104   .bss.hw:0000000000000000 $d
                           .group:0000000000000000 _ZN5daisy9DaisySeedD5Ev
                           .group:0000000000000000 _ZN5daisy11OledDisplayINS_13SSD130xDriverILj128ELj32ENS_19SSD130xI2CTransportEEEED5Ev

UNDEFINED SYMBOLS
memset
_ZdlPvj
_ZN5daisy9I2CHandle16TransmitBlockingEtPhtm
cosf
sinf
_ZN5daisy9I2CHandle4InitERKNS0_6ConfigE
_ZN5daisy9DaisySeed9ConfigureEv
_ZN5daisy9DaisySeed4InitEb
_ZN5daisy6System5DelayEm
Font_11x18
__aeabi_atexit
__dso_handle
