ARM GAS  /var/folders/hp/45mn71hd0ps5f5pnytxy5bt00000gn/T//ccdvmoSj.s 			page 1


   1              		.cpu cortex-m7
   2              		.arch armv7e-m
   3              		.fpu fpv5-d16
   4              		.eabi_attribute 28, 1
   5              		.eabi_attribute 20, 1
   6              		.eabi_attribute 21, 1
   7              		.eabi_attribute 23, 3
   8              		.eabi_attribute 24, 1
   9              		.eabi_attribute 25, 1
  10              		.eabi_attribute 26, 1
  11              		.eabi_attribute 30, 2
  12              		.eabi_attribute 34, 1
  13              		.eabi_attribute 18, 4
  14              		.file	"displayDaisy.cpp"
  15              		.text
  16              	.Ltext0:
  17              		.cfi_sections	.debug_frame
  18              		.section	.text._ZN5daisy9DaisySeedD2Ev,"axG",%progbits,_ZN5daisy9DaisySeedD5Ev,comdat
  19              		.align	1
  20              		.p2align 2,,3
  21              		.weak	_ZN5daisy9DaisySeedD2Ev
  22              		.syntax unified
  23              		.thumb
  24              		.thumb_func
  26              	_ZN5daisy9DaisySeedD2Ev:
  27              	.LVL0:
  28              	.LFB2556:
  29              		.file 1 "../../DaisyExamples/libDaisy//src/daisy_seed.h"
   1:../../DaisyExamples/libDaisy//src/daisy_seed.h **** #pragma once
   2:../../DaisyExamples/libDaisy//src/daisy_seed.h **** #ifndef DSY_SEED_H
   3:../../DaisyExamples/libDaisy//src/daisy_seed.h **** #define DSY_SEED_H
   4:../../DaisyExamples/libDaisy//src/daisy_seed.h **** 
   5:../../DaisyExamples/libDaisy//src/daisy_seed.h **** #include "daisy.h"
   6:../../DaisyExamples/libDaisy//src/daisy_seed.h **** 
   7:../../DaisyExamples/libDaisy//src/daisy_seed.h **** //Uncomment this out if you're still using the rev2 hardware
   8:../../DaisyExamples/libDaisy//src/daisy_seed.h **** //#define SEED_REV2
   9:../../DaisyExamples/libDaisy//src/daisy_seed.h **** 
  10:../../DaisyExamples/libDaisy//src/daisy_seed.h **** namespace daisy
  11:../../DaisyExamples/libDaisy//src/daisy_seed.h **** {
  12:../../DaisyExamples/libDaisy//src/daisy_seed.h **** /**
  13:../../DaisyExamples/libDaisy//src/daisy_seed.h ****    @brief This is the higher-level interface for the Daisy board. \n 
  14:../../DaisyExamples/libDaisy//src/daisy_seed.h ****     All basic peripheral configuration/initialization is setup here. \n
  15:../../DaisyExamples/libDaisy//src/daisy_seed.h **** 
  16:../../DaisyExamples/libDaisy//src/daisy_seed.h ****    @ingroup boards
  17:../../DaisyExamples/libDaisy//src/daisy_seed.h **** */
  18:../../DaisyExamples/libDaisy//src/daisy_seed.h **** class DaisySeed
  19:../../DaisyExamples/libDaisy//src/daisy_seed.h **** {
  20:../../DaisyExamples/libDaisy//src/daisy_seed.h ****   public:
  21:../../DaisyExamples/libDaisy//src/daisy_seed.h ****     DaisySeed() {}
  22:../../DaisyExamples/libDaisy//src/daisy_seed.h ****     ~DaisySeed() {}
  30              		.loc 1 22 5 view -0
  31              		.cfi_startproc
  32              		@ args = 0, pretend = 0, frame = 0
  33              		@ frame_needed = 0, uses_anonymous_args = 0
  34              		@ link register save eliminated.
  35              	.LBB335:
  36              	.LBI335:
ARM GAS  /var/folders/hp/45mn71hd0ps5f5pnytxy5bt00000gn/T//ccdvmoSj.s 			page 2


  37              		.file 2 "../../DaisyExamples/libDaisy//src/sys/system.h"
   1:../../DaisyExamples/libDaisy//src/sys/system.h **** #ifndef DSY_SYSTEM_H
   2:../../DaisyExamples/libDaisy//src/sys/system.h **** #define DSY_SYSTEM_H
   3:../../DaisyExamples/libDaisy//src/sys/system.h **** 
   4:../../DaisyExamples/libDaisy//src/sys/system.h **** #ifndef UNIT_TEST // for unit tests, a dummy implementation is provided below
   5:../../DaisyExamples/libDaisy//src/sys/system.h **** 
   6:../../DaisyExamples/libDaisy//src/sys/system.h **** #include <cstdint>
   7:../../DaisyExamples/libDaisy//src/sys/system.h **** #include "per/tim.h"
   8:../../DaisyExamples/libDaisy//src/sys/system.h **** 
   9:../../DaisyExamples/libDaisy//src/sys/system.h **** namespace daisy
  10:../../DaisyExamples/libDaisy//src/sys/system.h **** {
  11:../../DaisyExamples/libDaisy//src/sys/system.h **** /** A handle for interacting with the Core System.
  12:../../DaisyExamples/libDaisy//src/sys/system.h ****  ** This includes the Clock tree, MPU, global DMA initialization,
  13:../../DaisyExamples/libDaisy//src/sys/system.h ****  ** cache handling, and any other necessary global initiailzation
  14:../../DaisyExamples/libDaisy//src/sys/system.h ****  **
  15:../../DaisyExamples/libDaisy//src/sys/system.h ****  ** @author shensley
  16:../../DaisyExamples/libDaisy//src/sys/system.h ****  ** @ingroup system
  17:../../DaisyExamples/libDaisy//src/sys/system.h ****  */
  18:../../DaisyExamples/libDaisy//src/sys/system.h **** class System
  19:../../DaisyExamples/libDaisy//src/sys/system.h **** {
  20:../../DaisyExamples/libDaisy//src/sys/system.h ****   public:
  21:../../DaisyExamples/libDaisy//src/sys/system.h ****     /** Contains settings for initializing the System */
  22:../../DaisyExamples/libDaisy//src/sys/system.h ****     struct Config
  23:../../DaisyExamples/libDaisy//src/sys/system.h ****     {
  24:../../DaisyExamples/libDaisy//src/sys/system.h ****         /** Specifies the system clock frequency that feeds APB/AHB clocks, etc. */
  25:../../DaisyExamples/libDaisy//src/sys/system.h ****         enum class SysClkFreq
  26:../../DaisyExamples/libDaisy//src/sys/system.h ****         {
  27:../../DaisyExamples/libDaisy//src/sys/system.h ****             FREQ_400MHZ,
  28:../../DaisyExamples/libDaisy//src/sys/system.h ****             FREQ_480MHZ,
  29:../../DaisyExamples/libDaisy//src/sys/system.h ****         };
  30:../../DaisyExamples/libDaisy//src/sys/system.h **** 
  31:../../DaisyExamples/libDaisy//src/sys/system.h ****         /** Method to call on the struct to set to defaults
  32:../../DaisyExamples/libDaisy//src/sys/system.h ****          ** CPU Freq set to 400MHz
  33:../../DaisyExamples/libDaisy//src/sys/system.h ****          ** Cache Enabled
  34:../../DaisyExamples/libDaisy//src/sys/system.h ****          ** */
  35:../../DaisyExamples/libDaisy//src/sys/system.h ****         void Defaults()
  36:../../DaisyExamples/libDaisy//src/sys/system.h ****         {
  37:../../DaisyExamples/libDaisy//src/sys/system.h ****             cpu_freq    = SysClkFreq::FREQ_400MHZ;
  38:../../DaisyExamples/libDaisy//src/sys/system.h ****             use_dcache  = true;
  39:../../DaisyExamples/libDaisy//src/sys/system.h ****             use_icache  = true;
  40:../../DaisyExamples/libDaisy//src/sys/system.h ****             skip_clocks = false;
  41:../../DaisyExamples/libDaisy//src/sys/system.h ****         }
  42:../../DaisyExamples/libDaisy//src/sys/system.h **** 
  43:../../DaisyExamples/libDaisy//src/sys/system.h ****         /** Method to call on the struct to set to boost mode:
  44:../../DaisyExamples/libDaisy//src/sys/system.h ****          ** CPU Freq set to 480MHz
  45:../../DaisyExamples/libDaisy//src/sys/system.h ****          ** Cache Enabled
  46:../../DaisyExamples/libDaisy//src/sys/system.h ****          ** */
  47:../../DaisyExamples/libDaisy//src/sys/system.h ****         void Boost()
  48:../../DaisyExamples/libDaisy//src/sys/system.h ****         {
  49:../../DaisyExamples/libDaisy//src/sys/system.h ****             cpu_freq    = SysClkFreq::FREQ_480MHZ;
  50:../../DaisyExamples/libDaisy//src/sys/system.h ****             use_dcache  = true;
  51:../../DaisyExamples/libDaisy//src/sys/system.h ****             use_icache  = true;
  52:../../DaisyExamples/libDaisy//src/sys/system.h ****             skip_clocks = false;
  53:../../DaisyExamples/libDaisy//src/sys/system.h ****         }
  54:../../DaisyExamples/libDaisy//src/sys/system.h **** 
  55:../../DaisyExamples/libDaisy//src/sys/system.h ****         SysClkFreq cpu_freq;
  56:../../DaisyExamples/libDaisy//src/sys/system.h ****         bool       use_dcache;
ARM GAS  /var/folders/hp/45mn71hd0ps5f5pnytxy5bt00000gn/T//ccdvmoSj.s 			page 3


  57:../../DaisyExamples/libDaisy//src/sys/system.h ****         bool       use_icache;
  58:../../DaisyExamples/libDaisy//src/sys/system.h ****         bool       skip_clocks;
  59:../../DaisyExamples/libDaisy//src/sys/system.h ****     };
  60:../../DaisyExamples/libDaisy//src/sys/system.h **** 
  61:../../DaisyExamples/libDaisy//src/sys/system.h ****     /** Describes the different regions of memory available to the Daisy */
  62:../../DaisyExamples/libDaisy//src/sys/system.h ****     enum MemoryRegion
  63:../../DaisyExamples/libDaisy//src/sys/system.h ****     {
  64:../../DaisyExamples/libDaisy//src/sys/system.h ****         INTERNAL_FLASH = 0,
  65:../../DaisyExamples/libDaisy//src/sys/system.h ****         ITCMRAM,
  66:../../DaisyExamples/libDaisy//src/sys/system.h ****         DTCMRAM,
  67:../../DaisyExamples/libDaisy//src/sys/system.h ****         SRAM_D1,
  68:../../DaisyExamples/libDaisy//src/sys/system.h ****         SRAM_D2,
  69:../../DaisyExamples/libDaisy//src/sys/system.h ****         SRAM_D3,
  70:../../DaisyExamples/libDaisy//src/sys/system.h ****         SDRAM,
  71:../../DaisyExamples/libDaisy//src/sys/system.h ****         QSPI,
  72:../../DaisyExamples/libDaisy//src/sys/system.h ****         INVALID_ADDRESS,
  73:../../DaisyExamples/libDaisy//src/sys/system.h ****     };
  74:../../DaisyExamples/libDaisy//src/sys/system.h **** 
  75:../../DaisyExamples/libDaisy//src/sys/system.h ****     /** Bootloader struct for controlling bootloading parameters */
  76:../../DaisyExamples/libDaisy//src/sys/system.h ****     struct BootInfo
  77:../../DaisyExamples/libDaisy//src/sys/system.h ****     {
  78:../../DaisyExamples/libDaisy//src/sys/system.h ****         enum class Type : uint32_t
  79:../../DaisyExamples/libDaisy//src/sys/system.h ****         {
  80:../../DaisyExamples/libDaisy//src/sys/system.h ****             INVALID      = 0x00000000,
  81:../../DaisyExamples/libDaisy//src/sys/system.h ****             JUMP         = 0xDEADBEEF,
  82:../../DaisyExamples/libDaisy//src/sys/system.h ****             SKIP_TIMEOUT = 0x5AFEB007,
  83:../../DaisyExamples/libDaisy//src/sys/system.h ****             INF_TIMEOUT  = 0xB0074EFA,
  84:../../DaisyExamples/libDaisy//src/sys/system.h ****         } status;
  85:../../DaisyExamples/libDaisy//src/sys/system.h ****         uint32_t data;
  86:../../DaisyExamples/libDaisy//src/sys/system.h ****         enum class Version : uint32_t
  87:../../DaisyExamples/libDaisy//src/sys/system.h ****         {
  88:../../DaisyExamples/libDaisy//src/sys/system.h ****             LT_v6_0 = 0, // Less than v6.0
  89:../../DaisyExamples/libDaisy//src/sys/system.h ****             NONE,        // No bootloader present
  90:../../DaisyExamples/libDaisy//src/sys/system.h ****             v6_0,        // v6.0
  91:../../DaisyExamples/libDaisy//src/sys/system.h ****             v6_1,        // v6.1 or greater
  92:../../DaisyExamples/libDaisy//src/sys/system.h ****             LAST
  93:../../DaisyExamples/libDaisy//src/sys/system.h ****         } version;
  94:../../DaisyExamples/libDaisy//src/sys/system.h ****     };
  95:../../DaisyExamples/libDaisy//src/sys/system.h **** 
  96:../../DaisyExamples/libDaisy//src/sys/system.h ****     System() {}
  97:../../DaisyExamples/libDaisy//src/sys/system.h ****     ~System() {}
  38              		.loc 2 97 5 view .LVU1
  39              		.loc 2 97 5 is_stmt 0 view .LVU2
  40              	.LBE335:
  41              	.LBB336:
  42              	.LBI336:
  43              		.file 3 "../../DaisyExamples/libDaisy//src/hid/usb.h"
   1:../../DaisyExamples/libDaisy//src/hid/usb.h **** #pragma once
   2:../../DaisyExamples/libDaisy//src/hid/usb.h **** #ifndef DSY_HID_USB_H
   3:../../DaisyExamples/libDaisy//src/hid/usb.h **** #define DSY_HID_USB_H
   4:../../DaisyExamples/libDaisy//src/hid/usb.h **** #include <stdint.h>
   5:../../DaisyExamples/libDaisy//src/hid/usb.h **** #include <stdlib.h>
   6:../../DaisyExamples/libDaisy//src/hid/usb.h **** 
   7:../../DaisyExamples/libDaisy//src/hid/usb.h **** namespace daisy
   8:../../DaisyExamples/libDaisy//src/hid/usb.h **** /** @addtogroup human_interface
   9:../../DaisyExamples/libDaisy//src/hid/usb.h ****     @{
  10:../../DaisyExamples/libDaisy//src/hid/usb.h **** */
ARM GAS  /var/folders/hp/45mn71hd0ps5f5pnytxy5bt00000gn/T//ccdvmoSj.s 			page 4


  11:../../DaisyExamples/libDaisy//src/hid/usb.h **** 
  12:../../DaisyExamples/libDaisy//src/hid/usb.h **** {
  13:../../DaisyExamples/libDaisy//src/hid/usb.h **** /** 
  14:../../DaisyExamples/libDaisy//src/hid/usb.h ****     @brief Interface for initializing and using the USB Peripherals on the daisy
  15:../../DaisyExamples/libDaisy//src/hid/usb.h ****     @author Stephen Hensley
  16:../../DaisyExamples/libDaisy//src/hid/usb.h ****     @date December 2019
  17:../../DaisyExamples/libDaisy//src/hid/usb.h **** */
  18:../../DaisyExamples/libDaisy//src/hid/usb.h **** class UsbHandle
  19:../../DaisyExamples/libDaisy//src/hid/usb.h **** {
  20:../../DaisyExamples/libDaisy//src/hid/usb.h ****   public:
  21:../../DaisyExamples/libDaisy//src/hid/usb.h ****     /** Return values for USBHandle Functions */
  22:../../DaisyExamples/libDaisy//src/hid/usb.h ****     enum class Result
  23:../../DaisyExamples/libDaisy//src/hid/usb.h ****     {
  24:../../DaisyExamples/libDaisy//src/hid/usb.h ****         OK,
  25:../../DaisyExamples/libDaisy//src/hid/usb.h ****         ERR,
  26:../../DaisyExamples/libDaisy//src/hid/usb.h ****     };
  27:../../DaisyExamples/libDaisy//src/hid/usb.h **** 
  28:../../DaisyExamples/libDaisy//src/hid/usb.h ****     /** Specified which of the two USB Peripherals to initialize. */
  29:../../DaisyExamples/libDaisy//src/hid/usb.h ****     enum UsbPeriph
  30:../../DaisyExamples/libDaisy//src/hid/usb.h ****     {
  31:../../DaisyExamples/libDaisy//src/hid/usb.h ****         FS_INTERNAL, /**< Internal pin */
  32:../../DaisyExamples/libDaisy//src/hid/usb.h ****         FS_EXTERNAL, /**< FS External D+ pin is Pin 38 (GPIO32). FS External D- pin is Pin 37 (GPIO
  33:../../DaisyExamples/libDaisy//src/hid/usb.h ****         FS_BOTH,     /**< Both */
  34:../../DaisyExamples/libDaisy//src/hid/usb.h ****     };
  35:../../DaisyExamples/libDaisy//src/hid/usb.h **** 
  36:../../DaisyExamples/libDaisy//src/hid/usb.h **** 
  37:../../DaisyExamples/libDaisy//src/hid/usb.h ****     /** Function called upon reception of a buffer */
  38:../../DaisyExamples/libDaisy//src/hid/usb.h ****     typedef void (*ReceiveCallback)(uint8_t* buff, uint32_t* len);
  39:../../DaisyExamples/libDaisy//src/hid/usb.h **** 
  40:../../DaisyExamples/libDaisy//src/hid/usb.h ****     UsbHandle() {}
  41:../../DaisyExamples/libDaisy//src/hid/usb.h **** 
  42:../../DaisyExamples/libDaisy//src/hid/usb.h ****     ~UsbHandle() {}
  44              		.loc 3 42 5 is_stmt 1 view .LVU3
  45              		.loc 3 42 5 is_stmt 0 view .LVU4
  46              	.LBE336:
  47              	.LBB337:
  48              	.LBI337:
  49              		.file 4 "../../DaisyExamples/libDaisy//src/per/adc.h"
   1:../../DaisyExamples/libDaisy//src/per/adc.h **** #pragma once
   2:../../DaisyExamples/libDaisy//src/per/adc.h **** #ifndef DSY_ADC_H
   3:../../DaisyExamples/libDaisy//src/per/adc.h **** #define DSY_ADC_H /**< Macro */
   4:../../DaisyExamples/libDaisy//src/per/adc.h **** #include <stdint.h>
   5:../../DaisyExamples/libDaisy//src/per/adc.h **** #include <stdlib.h>
   6:../../DaisyExamples/libDaisy//src/per/adc.h **** #include "daisy_core.h"
   7:../../DaisyExamples/libDaisy//src/per/adc.h **** #include "per/gpio.h"
   8:../../DaisyExamples/libDaisy//src/per/adc.h **** 
   9:../../DaisyExamples/libDaisy//src/per/adc.h **** #define DSY_ADC_MAX_CHANNELS 16 /**< Maximum number of ADC channels */
  10:../../DaisyExamples/libDaisy//src/per/adc.h **** 
  11:../../DaisyExamples/libDaisy//src/per/adc.h **** namespace daisy
  12:../../DaisyExamples/libDaisy//src/per/adc.h **** {
  13:../../DaisyExamples/libDaisy//src/per/adc.h **** /** @addtogroup per_analog
  14:../../DaisyExamples/libDaisy//src/per/adc.h ****     @{
  15:../../DaisyExamples/libDaisy//src/per/adc.h **** */
  16:../../DaisyExamples/libDaisy//src/per/adc.h **** 
  17:../../DaisyExamples/libDaisy//src/per/adc.h **** /* While there may not be many configuration options here,
  18:../../DaisyExamples/libDaisy//src/per/adc.h **** using a struct like this allows us to add more configuration
  19:../../DaisyExamples/libDaisy//src/per/adc.h **** later without breaking existing functionality.
ARM GAS  /var/folders/hp/45mn71hd0ps5f5pnytxy5bt00000gn/T//ccdvmoSj.s 			page 5


  20:../../DaisyExamples/libDaisy//src/per/adc.h **** */
  21:../../DaisyExamples/libDaisy//src/per/adc.h **** 
  22:../../DaisyExamples/libDaisy//src/per/adc.h **** /** @brief   Configuration Structure for an ADC Channel 
  23:../../DaisyExamples/libDaisy//src/per/adc.h ****  *  @details This can be used to configure a a single input, 
  24:../../DaisyExamples/libDaisy//src/per/adc.h ****  *           or a multiplexed input, allowing up to 8 inputs on 
  25:../../DaisyExamples/libDaisy//src/per/adc.h ****  *           one channel.
  26:../../DaisyExamples/libDaisy//src/per/adc.h ****  *  @note    Sharing data lines to multiple muxes _is_ possible, but
  27:../../DaisyExamples/libDaisy//src/per/adc.h ****  *           each channel sharing data lines must be set to the maximum
  28:../../DaisyExamples/libDaisy//src/per/adc.h ****  *           number of channels, even if some multiplexers have fewer
  29:../../DaisyExamples/libDaisy//src/per/adc.h ****  *           inputs connected.
  30:../../DaisyExamples/libDaisy//src/per/adc.h **** */
  31:../../DaisyExamples/libDaisy//src/per/adc.h **** struct AdcChannelConfig
  32:../../DaisyExamples/libDaisy//src/per/adc.h **** {
  33:../../DaisyExamples/libDaisy//src/per/adc.h ****     /** Which pin to use for multiplexing */
  34:../../DaisyExamples/libDaisy//src/per/adc.h ****     enum MuxPin
  35:../../DaisyExamples/libDaisy//src/per/adc.h ****     {
  36:../../DaisyExamples/libDaisy//src/per/adc.h ****         MUX_SEL_0,    /**< & */
  37:../../DaisyExamples/libDaisy//src/per/adc.h ****         MUX_SEL_1,    /**< & */
  38:../../DaisyExamples/libDaisy//src/per/adc.h ****         MUX_SEL_2,    /**< & */
  39:../../DaisyExamples/libDaisy//src/per/adc.h ****         MUX_SEL_LAST, /**< & */
  40:../../DaisyExamples/libDaisy//src/per/adc.h ****     };
  41:../../DaisyExamples/libDaisy//src/per/adc.h **** 
  42:../../DaisyExamples/libDaisy//src/per/adc.h ****     /** \brief per channel conversion speed added to fixed time based on bitdepth, etc. */
  43:../../DaisyExamples/libDaisy//src/per/adc.h ****     enum ConversionSpeed
  44:../../DaisyExamples/libDaisy//src/per/adc.h ****     {
  45:../../DaisyExamples/libDaisy//src/per/adc.h ****         SPEED_1CYCLES_5,
  46:../../DaisyExamples/libDaisy//src/per/adc.h ****         SPEED_2CYCLES_5,
  47:../../DaisyExamples/libDaisy//src/per/adc.h ****         SPEED_8CYCLES_5,
  48:../../DaisyExamples/libDaisy//src/per/adc.h ****         SPEED_16CYCLES_5,
  49:../../DaisyExamples/libDaisy//src/per/adc.h ****         SPEED_32CYCLES_5,
  50:../../DaisyExamples/libDaisy//src/per/adc.h ****         SPEED_64CYCLES_5,
  51:../../DaisyExamples/libDaisy//src/per/adc.h ****         SPEED_387CYCLES_5,
  52:../../DaisyExamples/libDaisy//src/per/adc.h ****         SPEED_810CYCLES_5,
  53:../../DaisyExamples/libDaisy//src/per/adc.h ****     };
  54:../../DaisyExamples/libDaisy//src/per/adc.h **** 
  55:../../DaisyExamples/libDaisy//src/per/adc.h ****     /** Initializes a single ADC pin as an ADC. 
  56:../../DaisyExamples/libDaisy//src/per/adc.h ****     \param pin Pin to init.
  57:../../DaisyExamples/libDaisy//src/per/adc.h ****     \param speed conversion speed for this pin defaults to 8.5 cycles
  58:../../DaisyExamples/libDaisy//src/per/adc.h ****      */
  59:../../DaisyExamples/libDaisy//src/per/adc.h ****     void InitSingle(dsy_gpio_pin pin, ConversionSpeed speed = SPEED_8CYCLES_5);
  60:../../DaisyExamples/libDaisy//src/per/adc.h **** 
  61:../../DaisyExamples/libDaisy//src/per/adc.h ****     /** 
  62:../../DaisyExamples/libDaisy//src/per/adc.h ****     Initializes a single ADC pin as a Multiplexed ADC.
  63:../../DaisyExamples/libDaisy//src/per/adc.h ****     Requires a CD405X Multiplexer connected to the pin.
  64:../../DaisyExamples/libDaisy//src/per/adc.h ****     You only need to supply the mux pins that are required,
  65:../../DaisyExamples/libDaisy//src/per/adc.h ****     e.g. a 4052 mux would only require mux_0 and mux_1.
  66:../../DaisyExamples/libDaisy//src/per/adc.h ****     Internal Callbacks handle the pin addressing.
  67:../../DaisyExamples/libDaisy//src/per/adc.h ****     \param adc_pin &
  68:../../DaisyExamples/libDaisy//src/per/adc.h ****     \param mux_channels must be 1-8
  69:../../DaisyExamples/libDaisy//src/per/adc.h ****     \param mux_0 First mux pin
  70:../../DaisyExamples/libDaisy//src/per/adc.h ****     \param mux_1 Second mux pin
  71:../../DaisyExamples/libDaisy//src/per/adc.h ****     \param mux_2 Third mux pin
  72:../../DaisyExamples/libDaisy//src/per/adc.h ****     \param speed conversion speed for this pin defaults to 8.5 cycles
  73:../../DaisyExamples/libDaisy//src/per/adc.h ****     */
  74:../../DaisyExamples/libDaisy//src/per/adc.h ****     void InitMux(dsy_gpio_pin    adc_pin,
  75:../../DaisyExamples/libDaisy//src/per/adc.h ****                  size_t          mux_channels,
  76:../../DaisyExamples/libDaisy//src/per/adc.h ****                  dsy_gpio_pin    mux_0,
ARM GAS  /var/folders/hp/45mn71hd0ps5f5pnytxy5bt00000gn/T//ccdvmoSj.s 			page 6


  77:../../DaisyExamples/libDaisy//src/per/adc.h ****                  dsy_gpio_pin    mux_1 = {DSY_GPIOX, 0},
  78:../../DaisyExamples/libDaisy//src/per/adc.h ****                  dsy_gpio_pin    mux_2 = {DSY_GPIOX, 0},
  79:../../DaisyExamples/libDaisy//src/per/adc.h ****                  ConversionSpeed speed = SPEED_8CYCLES_5);
  80:../../DaisyExamples/libDaisy//src/per/adc.h **** 
  81:../../DaisyExamples/libDaisy//src/per/adc.h ****     dsy_gpio        pin_;                   /**< & */
  82:../../DaisyExamples/libDaisy//src/per/adc.h ****     dsy_gpio        mux_pin_[MUX_SEL_LAST]; /**< & */
  83:../../DaisyExamples/libDaisy//src/per/adc.h ****     uint8_t         mux_channels_;          /**< & */
  84:../../DaisyExamples/libDaisy//src/per/adc.h ****     ConversionSpeed speed_;
  85:../../DaisyExamples/libDaisy//src/per/adc.h **** };
  86:../../DaisyExamples/libDaisy//src/per/adc.h **** 
  87:../../DaisyExamples/libDaisy//src/per/adc.h **** /**
  88:../../DaisyExamples/libDaisy//src/per/adc.h ****    @brief Handler for analog to digital conversion
  89:../../DaisyExamples/libDaisy//src/per/adc.h **** */
  90:../../DaisyExamples/libDaisy//src/per/adc.h **** class AdcHandle
  91:../../DaisyExamples/libDaisy//src/per/adc.h **** {
  92:../../DaisyExamples/libDaisy//src/per/adc.h ****   public:
  93:../../DaisyExamples/libDaisy//src/per/adc.h ****     /** Supported oversampling amounts */
  94:../../DaisyExamples/libDaisy//src/per/adc.h ****     enum OverSampling
  95:../../DaisyExamples/libDaisy//src/per/adc.h ****     {
  96:../../DaisyExamples/libDaisy//src/per/adc.h ****         OVS_NONE, /**< & */
  97:../../DaisyExamples/libDaisy//src/per/adc.h ****         OVS_4,    /**< & */
  98:../../DaisyExamples/libDaisy//src/per/adc.h ****         OVS_8,    /**< & */
  99:../../DaisyExamples/libDaisy//src/per/adc.h ****         OVS_16,   /**< & */
 100:../../DaisyExamples/libDaisy//src/per/adc.h ****         OVS_32,   /**< & */
 101:../../DaisyExamples/libDaisy//src/per/adc.h ****         OVS_64,   /**< & */
 102:../../DaisyExamples/libDaisy//src/per/adc.h ****         OVS_128,  /**< & */
 103:../../DaisyExamples/libDaisy//src/per/adc.h ****         OVS_256,  /**< & */
 104:../../DaisyExamples/libDaisy//src/per/adc.h ****         OVS_512,  /**< & */
 105:../../DaisyExamples/libDaisy//src/per/adc.h ****         OVS_1024, /**< & */
 106:../../DaisyExamples/libDaisy//src/per/adc.h ****         OVS_LAST, /**< & */
 107:../../DaisyExamples/libDaisy//src/per/adc.h ****     };
 108:../../DaisyExamples/libDaisy//src/per/adc.h **** 
 109:../../DaisyExamples/libDaisy//src/per/adc.h ****     AdcHandle() {}
 110:../../DaisyExamples/libDaisy//src/per/adc.h ****     ~AdcHandle() {}
  50              		.loc 4 110 5 is_stmt 1 view .LVU5
  51              		.loc 4 110 5 is_stmt 0 view .LVU6
  52              	.LBE337:
  53              	.LBB338:
  54              	.LBI338:
  55              		.file 5 "../../DaisyExamples/libDaisy//src/hid/audio.h"
   1:../../DaisyExamples/libDaisy//src/hid/audio.h **** #ifndef DSY_AUDIO_H
   2:../../DaisyExamples/libDaisy//src/hid/audio.h **** #define DSY_AUDIO_H /**< & */
   3:../../DaisyExamples/libDaisy//src/hid/audio.h **** 
   4:../../DaisyExamples/libDaisy//src/hid/audio.h **** #include "per/sai.h"
   5:../../DaisyExamples/libDaisy//src/hid/audio.h **** 
   6:../../DaisyExamples/libDaisy//src/hid/audio.h **** namespace daisy
   7:../../DaisyExamples/libDaisy//src/hid/audio.h **** {
   8:../../DaisyExamples/libDaisy//src/hid/audio.h **** /** @brief Audio Engine Handle
   9:../../DaisyExamples/libDaisy//src/hid/audio.h ****  *  @ingroup audio 
  10:../../DaisyExamples/libDaisy//src/hid/audio.h ****  *  @details This class allows for higher level access to an audio engine.
  11:../../DaisyExamples/libDaisy//src/hid/audio.h ****  *           If you're using a SOM like the DaisySeed or DaisyPatchSM (or any 
  12:../../DaisyExamples/libDaisy//src/hid/audio.h ****  *            board that includes one of those objects) then the intialization
  13:../../DaisyExamples/libDaisy//src/hid/audio.h ****  *            is already taken  care of.
  14:../../DaisyExamples/libDaisy//src/hid/audio.h ****  *           If you're setting up your own custom hardware, or need to make changes
  15:../../DaisyExamples/libDaisy//src/hid/audio.h ****  *           you will have to take the following steps:
  16:../../DaisyExamples/libDaisy//src/hid/audio.h ****  *             1. Create and Initialize an SaiHandle or two depending on your requirements
  17:../../DaisyExamples/libDaisy//src/hid/audio.h ****  *             2. Initialize the Audio Handle with the desired settings and the Initialized SaiHand
ARM GAS  /var/folders/hp/45mn71hd0ps5f5pnytxy5bt00000gn/T//ccdvmoSj.s 			page 7


  18:../../DaisyExamples/libDaisy//src/hid/audio.h ****  *             3. If the connected codec requires special configuration or initialization, do so
  19:../../DaisyExamples/libDaisy//src/hid/audio.h ****  *             4. Write a callback method using either the AudioCallback or the InterleavingAudioCa
  20:../../DaisyExamples/libDaisy//src/hid/audio.h ****  *             5. Start the Audio using one of the StartAudio function
  21:../../DaisyExamples/libDaisy//src/hid/audio.h ****  */
  22:../../DaisyExamples/libDaisy//src/hid/audio.h **** class AudioHandle
  23:../../DaisyExamples/libDaisy//src/hid/audio.h **** {
  24:../../DaisyExamples/libDaisy//src/hid/audio.h ****   public:
  25:../../DaisyExamples/libDaisy//src/hid/audio.h ****     /** Manually configurable details about the Audio Engine */
  26:../../DaisyExamples/libDaisy//src/hid/audio.h ****     /** TODO: Figure out how to get samplerate in here. */
  27:../../DaisyExamples/libDaisy//src/hid/audio.h ****     struct Config
  28:../../DaisyExamples/libDaisy//src/hid/audio.h ****     {
  29:../../DaisyExamples/libDaisy//src/hid/audio.h ****         /** number of samples to process per callback */
  30:../../DaisyExamples/libDaisy//src/hid/audio.h ****         size_t blocksize;
  31:../../DaisyExamples/libDaisy//src/hid/audio.h **** 
  32:../../DaisyExamples/libDaisy//src/hid/audio.h ****         /**< Sample rate of audio */
  33:../../DaisyExamples/libDaisy//src/hid/audio.h ****         SaiHandle::Config::SampleRate samplerate;
  34:../../DaisyExamples/libDaisy//src/hid/audio.h **** 
  35:../../DaisyExamples/libDaisy//src/hid/audio.h ****         /** factor for adjustment before and after callback for hardware that may have extra headro
  36:../../DaisyExamples/libDaisy//src/hid/audio.h ****         float postgain;
  37:../../DaisyExamples/libDaisy//src/hid/audio.h **** 
  38:../../DaisyExamples/libDaisy//src/hid/audio.h ****         /** factor for additional one-sided compensation to audio path for hardware that may
  39:../../DaisyExamples/libDaisy//src/hid/audio.h ****          *  have unequal input/output ranges
  40:../../DaisyExamples/libDaisy//src/hid/audio.h ****          */
  41:../../DaisyExamples/libDaisy//src/hid/audio.h ****         float output_compensation;
  42:../../DaisyExamples/libDaisy//src/hid/audio.h **** 
  43:../../DaisyExamples/libDaisy//src/hid/audio.h ****         /** Sets default values for config struct */
  44:../../DaisyExamples/libDaisy//src/hid/audio.h ****         Config()
  45:../../DaisyExamples/libDaisy//src/hid/audio.h ****         : blocksize(48),
  46:../../DaisyExamples/libDaisy//src/hid/audio.h ****           samplerate(SaiHandle::Config::SampleRate::SAI_48KHZ),
  47:../../DaisyExamples/libDaisy//src/hid/audio.h ****           postgain(1.f),
  48:../../DaisyExamples/libDaisy//src/hid/audio.h ****           output_compensation(1.f)
  49:../../DaisyExamples/libDaisy//src/hid/audio.h ****         {
  50:../../DaisyExamples/libDaisy//src/hid/audio.h ****         }
  51:../../DaisyExamples/libDaisy//src/hid/audio.h ****     };
  52:../../DaisyExamples/libDaisy//src/hid/audio.h **** 
  53:../../DaisyExamples/libDaisy//src/hid/audio.h ****     enum class Result
  54:../../DaisyExamples/libDaisy//src/hid/audio.h ****     {
  55:../../DaisyExamples/libDaisy//src/hid/audio.h ****         OK,
  56:../../DaisyExamples/libDaisy//src/hid/audio.h ****         ERR,
  57:../../DaisyExamples/libDaisy//src/hid/audio.h ****     };
  58:../../DaisyExamples/libDaisy//src/hid/audio.h **** 
  59:../../DaisyExamples/libDaisy//src/hid/audio.h ****     /** Non-Interleaving input buffer
  60:../../DaisyExamples/libDaisy//src/hid/audio.h ****      * Buffer arranged by float[chn][sample] 
  61:../../DaisyExamples/libDaisy//src/hid/audio.h ****      * const so that the user can't modify the input
  62:../../DaisyExamples/libDaisy//src/hid/audio.h ****      */
  63:../../DaisyExamples/libDaisy//src/hid/audio.h ****     typedef const float* const* InputBuffer;
  64:../../DaisyExamples/libDaisy//src/hid/audio.h **** 
  65:../../DaisyExamples/libDaisy//src/hid/audio.h ****     /** Non-Interleaving output buffer
  66:../../DaisyExamples/libDaisy//src/hid/audio.h ****      * Arranged by float[chn][sample] 
  67:../../DaisyExamples/libDaisy//src/hid/audio.h ****      */
  68:../../DaisyExamples/libDaisy//src/hid/audio.h ****     typedef float** OutputBuffer;
  69:../../DaisyExamples/libDaisy//src/hid/audio.h **** 
  70:../../DaisyExamples/libDaisy//src/hid/audio.h ****     /** Type for a Non-Interleaving audio callback 
  71:../../DaisyExamples/libDaisy//src/hid/audio.h ****      * Non-Interleaving audio callbacks in daisy will be of this type
  72:../../DaisyExamples/libDaisy//src/hid/audio.h ****      */
  73:../../DaisyExamples/libDaisy//src/hid/audio.h ****     typedef void (*AudioCallback)(InputBuffer  in,
  74:../../DaisyExamples/libDaisy//src/hid/audio.h ****                                   OutputBuffer out,
ARM GAS  /var/folders/hp/45mn71hd0ps5f5pnytxy5bt00000gn/T//ccdvmoSj.s 			page 8


  75:../../DaisyExamples/libDaisy//src/hid/audio.h ****                                   size_t       size);
  76:../../DaisyExamples/libDaisy//src/hid/audio.h **** 
  77:../../DaisyExamples/libDaisy//src/hid/audio.h ****     /** Interleaving Input buffer
  78:../../DaisyExamples/libDaisy//src/hid/audio.h ****      ** audio is prepared as { L0, R0, L1, R1, . . . LN, RN }]
  79:../../DaisyExamples/libDaisy//src/hid/audio.h ****      ** this is const, as the user shouldn't modify it
  80:../../DaisyExamples/libDaisy//src/hid/audio.h ****     */
  81:../../DaisyExamples/libDaisy//src/hid/audio.h ****     typedef const float* InterleavingInputBuffer;
  82:../../DaisyExamples/libDaisy//src/hid/audio.h **** 
  83:../../DaisyExamples/libDaisy//src/hid/audio.h ****     /** Interleaving Output buffer 
  84:../../DaisyExamples/libDaisy//src/hid/audio.h ****      ** audio is prepared as { L0, R0, L1, R1, . . . LN, RN }
  85:../../DaisyExamples/libDaisy//src/hid/audio.h ****     */
  86:../../DaisyExamples/libDaisy//src/hid/audio.h ****     typedef float* InterleavingOutputBuffer;
  87:../../DaisyExamples/libDaisy//src/hid/audio.h **** 
  88:../../DaisyExamples/libDaisy//src/hid/audio.h ****     /** Interleaving Audio Callback 
  89:../../DaisyExamples/libDaisy//src/hid/audio.h ****      * Interleaving audio callbacks in daisy must be of this type
  90:../../DaisyExamples/libDaisy//src/hid/audio.h ****      */
  91:../../DaisyExamples/libDaisy//src/hid/audio.h ****     typedef void (*InterleavingAudioCallback)(InterleavingInputBuffer  in,
  92:../../DaisyExamples/libDaisy//src/hid/audio.h ****                                               InterleavingOutputBuffer out,
  93:../../DaisyExamples/libDaisy//src/hid/audio.h ****                                               size_t                   size);
  94:../../DaisyExamples/libDaisy//src/hid/audio.h **** 
  95:../../DaisyExamples/libDaisy//src/hid/audio.h ****     AudioHandle() : pimpl_(nullptr) {}
  96:../../DaisyExamples/libDaisy//src/hid/audio.h ****     ~AudioHandle() {}
  56              		.loc 5 96 5 is_stmt 1 view .LVU7
  57              		.loc 5 96 5 is_stmt 0 view .LVU8
  58              	.LBE338:
  59              		.loc 1 22 19 view .LVU9
  60 0000 7047     		bx	lr
  61              		.cfi_endproc
  62              	.LFE2556:
  64              		.weak	_ZN5daisy9DaisySeedD1Ev
  65              		.thumb_set _ZN5daisy9DaisySeedD1Ev,_ZN5daisy9DaisySeedD2Ev
  66 0002 00BF     		.section	.text._ZN5daisy11OledDisplayINS_13SSD130xDriverILj128ELj32ENS_19SSD130xI2CTransportEEEE4F
  67              		.align	1
  68              		.p2align 2,,3
  69              		.weak	_ZN5daisy11OledDisplayINS_13SSD130xDriverILj128ELj32ENS_19SSD130xI2CTransportEEEE4FillEb
  70              		.syntax unified
  71              		.thumb
  72              		.thumb_func
  74              	_ZN5daisy11OledDisplayINS_13SSD130xDriverILj128ELj32ENS_19SSD130xI2CTransportEEEE4FillEb:
  75              	.LVL1:
  76              	.LFB2635:
  77              		.file 6 "../../DaisyExamples/libDaisy//src/hid/disp/oled_display.h"
   1:../../DaisyExamples/libDaisy//src/hid/disp/oled_display.h **** #pragma once
   2:../../DaisyExamples/libDaisy//src/hid/disp/oled_display.h **** #ifndef DSY_OLED_DISPLAY_H
   3:../../DaisyExamples/libDaisy//src/hid/disp/oled_display.h **** #define DSY_OLED_DISPLAY_H /**< Macro */
   4:../../DaisyExamples/libDaisy//src/hid/disp/oled_display.h **** 
   5:../../DaisyExamples/libDaisy//src/hid/disp/oled_display.h **** #include "display.h"
   6:../../DaisyExamples/libDaisy//src/hid/disp/oled_display.h **** 
   7:../../DaisyExamples/libDaisy//src/hid/disp/oled_display.h **** namespace daisy
   8:../../DaisyExamples/libDaisy//src/hid/disp/oled_display.h **** {
   9:../../DaisyExamples/libDaisy//src/hid/disp/oled_display.h **** /** 
  10:../../DaisyExamples/libDaisy//src/hid/disp/oled_display.h ****  * This class is for drawing to a monochrome OLED display. 
  11:../../DaisyExamples/libDaisy//src/hid/disp/oled_display.h ****  * @ingroup device
  12:../../DaisyExamples/libDaisy//src/hid/disp/oled_display.h **** */
  13:../../DaisyExamples/libDaisy//src/hid/disp/oled_display.h **** template <typename DisplayDriver>
  14:../../DaisyExamples/libDaisy//src/hid/disp/oled_display.h **** class OledDisplay : public OneBitGraphicsDisplayImpl<OledDisplay<DisplayDriver>>
  15:../../DaisyExamples/libDaisy//src/hid/disp/oled_display.h **** {
ARM GAS  /var/folders/hp/45mn71hd0ps5f5pnytxy5bt00000gn/T//ccdvmoSj.s 			page 9


  16:../../DaisyExamples/libDaisy//src/hid/disp/oled_display.h ****   public:
  17:../../DaisyExamples/libDaisy//src/hid/disp/oled_display.h ****     OledDisplay() {}
  18:../../DaisyExamples/libDaisy//src/hid/disp/oled_display.h ****     virtual ~OledDisplay() {}
  19:../../DaisyExamples/libDaisy//src/hid/disp/oled_display.h **** 
  20:../../DaisyExamples/libDaisy//src/hid/disp/oled_display.h ****     struct Config
  21:../../DaisyExamples/libDaisy//src/hid/disp/oled_display.h ****     {
  22:../../DaisyExamples/libDaisy//src/hid/disp/oled_display.h ****         typename DisplayDriver::Config driver_config;
  23:../../DaisyExamples/libDaisy//src/hid/disp/oled_display.h ****     };
  24:../../DaisyExamples/libDaisy//src/hid/disp/oled_display.h **** 
  25:../../DaisyExamples/libDaisy//src/hid/disp/oled_display.h ****     void Init(Config config) { driver_.Init(config.driver_config); }
  26:../../DaisyExamples/libDaisy//src/hid/disp/oled_display.h **** 
  27:../../DaisyExamples/libDaisy//src/hid/disp/oled_display.h ****     uint16_t Height() const override { return driver_.Height(); }
  28:../../DaisyExamples/libDaisy//src/hid/disp/oled_display.h ****     uint16_t Width() const override { return driver_.Width(); }
  29:../../DaisyExamples/libDaisy//src/hid/disp/oled_display.h **** 
  30:../../DaisyExamples/libDaisy//src/hid/disp/oled_display.h ****     /** 
  31:../../DaisyExamples/libDaisy//src/hid/disp/oled_display.h ****     Fills the entire display with either on/off.
  32:../../DaisyExamples/libDaisy//src/hid/disp/oled_display.h ****     \param on Sets on or off.
  33:../../DaisyExamples/libDaisy//src/hid/disp/oled_display.h ****     */
  34:../../DaisyExamples/libDaisy//src/hid/disp/oled_display.h ****     void Fill(bool on) override { driver_.Fill(on); }
  78              		.loc 6 34 10 is_stmt 1 view -0
  79              		.cfi_startproc
  80              		@ args = 0, pretend = 0, frame = 0
  81              		@ frame_needed = 0, uses_anonymous_args = 0
  82              		@ link register save eliminated.
  83              	.LBB339:
  84              	.LBI339:
  85              		.file 7 "../../DaisyExamples/libDaisy//src/dev/oled_ssd130x.h"
   1:../../DaisyExamples/libDaisy//src/dev/oled_ssd130x.h **** #pragma once
   2:../../DaisyExamples/libDaisy//src/dev/oled_ssd130x.h **** #ifndef SA_OLED_SSD130X_H
   3:../../DaisyExamples/libDaisy//src/dev/oled_ssd130x.h **** #define SA_OLED_SSD130X_H /**< & */
   4:../../DaisyExamples/libDaisy//src/dev/oled_ssd130x.h **** 
   5:../../DaisyExamples/libDaisy//src/dev/oled_ssd130x.h **** #include "per/i2c.h"
   6:../../DaisyExamples/libDaisy//src/dev/oled_ssd130x.h **** #include "per/spi.h"
   7:../../DaisyExamples/libDaisy//src/dev/oled_ssd130x.h **** #include "per/gpio.h"
   8:../../DaisyExamples/libDaisy//src/dev/oled_ssd130x.h **** #include "sys/system.h"
   9:../../DaisyExamples/libDaisy//src/dev/oled_ssd130x.h **** 
  10:../../DaisyExamples/libDaisy//src/dev/oled_ssd130x.h **** namespace daisy
  11:../../DaisyExamples/libDaisy//src/dev/oled_ssd130x.h **** {
  12:../../DaisyExamples/libDaisy//src/dev/oled_ssd130x.h **** /**
  13:../../DaisyExamples/libDaisy//src/dev/oled_ssd130x.h ****  * I2C Transport for SSD1306 / SSD1309 OLED display devices
  14:../../DaisyExamples/libDaisy//src/dev/oled_ssd130x.h ****  */
  15:../../DaisyExamples/libDaisy//src/dev/oled_ssd130x.h **** class SSD130xI2CTransport
  16:../../DaisyExamples/libDaisy//src/dev/oled_ssd130x.h **** {
  17:../../DaisyExamples/libDaisy//src/dev/oled_ssd130x.h ****   public:
  18:../../DaisyExamples/libDaisy//src/dev/oled_ssd130x.h ****     struct Config
  19:../../DaisyExamples/libDaisy//src/dev/oled_ssd130x.h ****     {
  20:../../DaisyExamples/libDaisy//src/dev/oled_ssd130x.h ****         Config()
  21:../../DaisyExamples/libDaisy//src/dev/oled_ssd130x.h ****         {
  22:../../DaisyExamples/libDaisy//src/dev/oled_ssd130x.h ****             // Intialize using defaults
  23:../../DaisyExamples/libDaisy//src/dev/oled_ssd130x.h ****             Defaults();
  24:../../DaisyExamples/libDaisy//src/dev/oled_ssd130x.h ****         }
  25:../../DaisyExamples/libDaisy//src/dev/oled_ssd130x.h ****         I2CHandle::Config i2c_config;
  26:../../DaisyExamples/libDaisy//src/dev/oled_ssd130x.h ****         uint8_t           i2c_address;
  27:../../DaisyExamples/libDaisy//src/dev/oled_ssd130x.h ****         void              Defaults()
  28:../../DaisyExamples/libDaisy//src/dev/oled_ssd130x.h ****         {
  29:../../DaisyExamples/libDaisy//src/dev/oled_ssd130x.h ****             i2c_config.periph         = I2CHandle::Config::Peripheral::I2C_1;
  30:../../DaisyExamples/libDaisy//src/dev/oled_ssd130x.h ****             i2c_config.speed          = I2CHandle::Config::Speed::I2C_1MHZ;
ARM GAS  /var/folders/hp/45mn71hd0ps5f5pnytxy5bt00000gn/T//ccdvmoSj.s 			page 10


  31:../../DaisyExamples/libDaisy//src/dev/oled_ssd130x.h ****             i2c_config.mode           = I2CHandle::Config::Mode::I2C_MASTER;
  32:../../DaisyExamples/libDaisy//src/dev/oled_ssd130x.h ****             i2c_config.pin_config.scl = {DSY_GPIOB, 8};
  33:../../DaisyExamples/libDaisy//src/dev/oled_ssd130x.h ****             i2c_config.pin_config.sda = {DSY_GPIOB, 9};
  34:../../DaisyExamples/libDaisy//src/dev/oled_ssd130x.h ****             i2c_address               = 0x3C;
  35:../../DaisyExamples/libDaisy//src/dev/oled_ssd130x.h ****         }
  36:../../DaisyExamples/libDaisy//src/dev/oled_ssd130x.h ****     };
  37:../../DaisyExamples/libDaisy//src/dev/oled_ssd130x.h ****     void Init(const Config& config)
  38:../../DaisyExamples/libDaisy//src/dev/oled_ssd130x.h ****     {
  39:../../DaisyExamples/libDaisy//src/dev/oled_ssd130x.h ****         i2c_address_ = config.i2c_address;
  40:../../DaisyExamples/libDaisy//src/dev/oled_ssd130x.h ****         i2c_.Init(config.i2c_config);
  41:../../DaisyExamples/libDaisy//src/dev/oled_ssd130x.h ****     };
  42:../../DaisyExamples/libDaisy//src/dev/oled_ssd130x.h ****     void SendCommand(uint8_t cmd)
  43:../../DaisyExamples/libDaisy//src/dev/oled_ssd130x.h ****     {
  44:../../DaisyExamples/libDaisy//src/dev/oled_ssd130x.h ****         uint8_t buf[2] = {0X00, cmd};
  45:../../DaisyExamples/libDaisy//src/dev/oled_ssd130x.h ****         i2c_.TransmitBlocking(i2c_address_, buf, 2, 1000);
  46:../../DaisyExamples/libDaisy//src/dev/oled_ssd130x.h ****     };
  47:../../DaisyExamples/libDaisy//src/dev/oled_ssd130x.h **** 
  48:../../DaisyExamples/libDaisy//src/dev/oled_ssd130x.h ****     void SendData(uint8_t* buff, size_t size)
  49:../../DaisyExamples/libDaisy//src/dev/oled_ssd130x.h ****     {
  50:../../DaisyExamples/libDaisy//src/dev/oled_ssd130x.h ****         for(size_t i = 0; i < size; i++)
  51:../../DaisyExamples/libDaisy//src/dev/oled_ssd130x.h ****         {
  52:../../DaisyExamples/libDaisy//src/dev/oled_ssd130x.h ****             uint8_t buf[2] = {0X40, buff[i]};
  53:../../DaisyExamples/libDaisy//src/dev/oled_ssd130x.h ****             i2c_.TransmitBlocking(i2c_address_, buf, 2, 1000);
  54:../../DaisyExamples/libDaisy//src/dev/oled_ssd130x.h ****         }
  55:../../DaisyExamples/libDaisy//src/dev/oled_ssd130x.h ****     };
  56:../../DaisyExamples/libDaisy//src/dev/oled_ssd130x.h **** 
  57:../../DaisyExamples/libDaisy//src/dev/oled_ssd130x.h ****   private:
  58:../../DaisyExamples/libDaisy//src/dev/oled_ssd130x.h ****     daisy::I2CHandle i2c_;
  59:../../DaisyExamples/libDaisy//src/dev/oled_ssd130x.h ****     uint8_t          i2c_address_;
  60:../../DaisyExamples/libDaisy//src/dev/oled_ssd130x.h **** };
  61:../../DaisyExamples/libDaisy//src/dev/oled_ssd130x.h **** 
  62:../../DaisyExamples/libDaisy//src/dev/oled_ssd130x.h **** /**
  63:../../DaisyExamples/libDaisy//src/dev/oled_ssd130x.h ****  * 4 Wire SPI Transport for SSD1306 / SSD1309 OLED display devices
  64:../../DaisyExamples/libDaisy//src/dev/oled_ssd130x.h ****  */
  65:../../DaisyExamples/libDaisy//src/dev/oled_ssd130x.h **** class SSD130x4WireSpiTransport
  66:../../DaisyExamples/libDaisy//src/dev/oled_ssd130x.h **** {
  67:../../DaisyExamples/libDaisy//src/dev/oled_ssd130x.h ****   public:
  68:../../DaisyExamples/libDaisy//src/dev/oled_ssd130x.h ****     struct Config
  69:../../DaisyExamples/libDaisy//src/dev/oled_ssd130x.h ****     {
  70:../../DaisyExamples/libDaisy//src/dev/oled_ssd130x.h ****         Config()
  71:../../DaisyExamples/libDaisy//src/dev/oled_ssd130x.h ****         {
  72:../../DaisyExamples/libDaisy//src/dev/oled_ssd130x.h ****             // Initialize using defaults
  73:../../DaisyExamples/libDaisy//src/dev/oled_ssd130x.h ****             Defaults();
  74:../../DaisyExamples/libDaisy//src/dev/oled_ssd130x.h ****         }
  75:../../DaisyExamples/libDaisy//src/dev/oled_ssd130x.h ****         SpiHandle::Config spi_config;
  76:../../DaisyExamples/libDaisy//src/dev/oled_ssd130x.h ****         struct
  77:../../DaisyExamples/libDaisy//src/dev/oled_ssd130x.h ****         {
  78:../../DaisyExamples/libDaisy//src/dev/oled_ssd130x.h ****             dsy_gpio_pin dc;    /**< & */
  79:../../DaisyExamples/libDaisy//src/dev/oled_ssd130x.h ****             dsy_gpio_pin reset; /**< & */
  80:../../DaisyExamples/libDaisy//src/dev/oled_ssd130x.h ****         } pin_config;
  81:../../DaisyExamples/libDaisy//src/dev/oled_ssd130x.h ****         void Defaults()
  82:../../DaisyExamples/libDaisy//src/dev/oled_ssd130x.h ****         {
  83:../../DaisyExamples/libDaisy//src/dev/oled_ssd130x.h ****             // SPI peripheral config
  84:../../DaisyExamples/libDaisy//src/dev/oled_ssd130x.h ****             spi_config.periph = SpiHandle::Config::Peripheral::SPI_1;
  85:../../DaisyExamples/libDaisy//src/dev/oled_ssd130x.h ****             spi_config.mode   = SpiHandle::Config::Mode::MASTER;
  86:../../DaisyExamples/libDaisy//src/dev/oled_ssd130x.h ****             spi_config.direction
  87:../../DaisyExamples/libDaisy//src/dev/oled_ssd130x.h ****                 = SpiHandle::Config::Direction::TWO_LINES_TX_ONLY;
ARM GAS  /var/folders/hp/45mn71hd0ps5f5pnytxy5bt00000gn/T//ccdvmoSj.s 			page 11


  88:../../DaisyExamples/libDaisy//src/dev/oled_ssd130x.h ****             spi_config.datasize       = 8;
  89:../../DaisyExamples/libDaisy//src/dev/oled_ssd130x.h ****             spi_config.clock_polarity = SpiHandle::Config::ClockPolarity::LOW;
  90:../../DaisyExamples/libDaisy//src/dev/oled_ssd130x.h ****             spi_config.clock_phase    = SpiHandle::Config::ClockPhase::ONE_EDGE;
  91:../../DaisyExamples/libDaisy//src/dev/oled_ssd130x.h ****             spi_config.nss            = SpiHandle::Config::NSS::HARD_OUTPUT;
  92:../../DaisyExamples/libDaisy//src/dev/oled_ssd130x.h ****             spi_config.baud_prescaler = SpiHandle::Config::BaudPrescaler::PS_8;
  93:../../DaisyExamples/libDaisy//src/dev/oled_ssd130x.h ****             // SPI pin config
  94:../../DaisyExamples/libDaisy//src/dev/oled_ssd130x.h ****             spi_config.pin_config.sclk = {DSY_GPIOG, 11};
  95:../../DaisyExamples/libDaisy//src/dev/oled_ssd130x.h ****             spi_config.pin_config.miso = {DSY_GPIOX, 0};
  96:../../DaisyExamples/libDaisy//src/dev/oled_ssd130x.h ****             spi_config.pin_config.mosi = {DSY_GPIOB, 5};
  97:../../DaisyExamples/libDaisy//src/dev/oled_ssd130x.h ****             spi_config.pin_config.nss  = {DSY_GPIOG, 10};
  98:../../DaisyExamples/libDaisy//src/dev/oled_ssd130x.h ****             // SSD130x control pin config
  99:../../DaisyExamples/libDaisy//src/dev/oled_ssd130x.h ****             pin_config.dc    = {DSY_GPIOB, 4};
 100:../../DaisyExamples/libDaisy//src/dev/oled_ssd130x.h ****             pin_config.reset = {DSY_GPIOB, 15};
 101:../../DaisyExamples/libDaisy//src/dev/oled_ssd130x.h ****         }
 102:../../DaisyExamples/libDaisy//src/dev/oled_ssd130x.h ****     };
 103:../../DaisyExamples/libDaisy//src/dev/oled_ssd130x.h ****     void Init(const Config& config)
 104:../../DaisyExamples/libDaisy//src/dev/oled_ssd130x.h ****     {
 105:../../DaisyExamples/libDaisy//src/dev/oled_ssd130x.h ****         // Initialize both GPIO
 106:../../DaisyExamples/libDaisy//src/dev/oled_ssd130x.h ****         pin_dc_.mode = DSY_GPIO_MODE_OUTPUT_PP;
 107:../../DaisyExamples/libDaisy//src/dev/oled_ssd130x.h ****         pin_dc_.pin  = config.pin_config.dc;
 108:../../DaisyExamples/libDaisy//src/dev/oled_ssd130x.h ****         dsy_gpio_init(&pin_dc_);
 109:../../DaisyExamples/libDaisy//src/dev/oled_ssd130x.h ****         pin_reset_.mode = DSY_GPIO_MODE_OUTPUT_PP;
 110:../../DaisyExamples/libDaisy//src/dev/oled_ssd130x.h ****         pin_reset_.pin  = config.pin_config.reset;
 111:../../DaisyExamples/libDaisy//src/dev/oled_ssd130x.h ****         dsy_gpio_init(&pin_reset_);
 112:../../DaisyExamples/libDaisy//src/dev/oled_ssd130x.h **** 
 113:../../DaisyExamples/libDaisy//src/dev/oled_ssd130x.h ****         // Initialize SPI
 114:../../DaisyExamples/libDaisy//src/dev/oled_ssd130x.h ****         spi_.Init(config.spi_config);
 115:../../DaisyExamples/libDaisy//src/dev/oled_ssd130x.h **** 
 116:../../DaisyExamples/libDaisy//src/dev/oled_ssd130x.h ****         // Reset and Configure OLED.
 117:../../DaisyExamples/libDaisy//src/dev/oled_ssd130x.h ****         dsy_gpio_write(&pin_reset_, 0);
 118:../../DaisyExamples/libDaisy//src/dev/oled_ssd130x.h ****         System::Delay(10);
 119:../../DaisyExamples/libDaisy//src/dev/oled_ssd130x.h ****         dsy_gpio_write(&pin_reset_, 1);
 120:../../DaisyExamples/libDaisy//src/dev/oled_ssd130x.h ****         System::Delay(10);
 121:../../DaisyExamples/libDaisy//src/dev/oled_ssd130x.h ****     };
 122:../../DaisyExamples/libDaisy//src/dev/oled_ssd130x.h ****     void SendCommand(uint8_t cmd)
 123:../../DaisyExamples/libDaisy//src/dev/oled_ssd130x.h ****     {
 124:../../DaisyExamples/libDaisy//src/dev/oled_ssd130x.h ****         dsy_gpio_write(&pin_dc_, 0);
 125:../../DaisyExamples/libDaisy//src/dev/oled_ssd130x.h ****         spi_.BlockingTransmit(&cmd, 1);
 126:../../DaisyExamples/libDaisy//src/dev/oled_ssd130x.h ****     };
 127:../../DaisyExamples/libDaisy//src/dev/oled_ssd130x.h **** 
 128:../../DaisyExamples/libDaisy//src/dev/oled_ssd130x.h ****     void SendData(uint8_t* buff, size_t size)
 129:../../DaisyExamples/libDaisy//src/dev/oled_ssd130x.h ****     {
 130:../../DaisyExamples/libDaisy//src/dev/oled_ssd130x.h ****         dsy_gpio_write(&pin_dc_, 1);
 131:../../DaisyExamples/libDaisy//src/dev/oled_ssd130x.h ****         spi_.BlockingTransmit(buff, size);
 132:../../DaisyExamples/libDaisy//src/dev/oled_ssd130x.h ****     };
 133:../../DaisyExamples/libDaisy//src/dev/oled_ssd130x.h **** 
 134:../../DaisyExamples/libDaisy//src/dev/oled_ssd130x.h ****   private:
 135:../../DaisyExamples/libDaisy//src/dev/oled_ssd130x.h ****     SpiHandle spi_;
 136:../../DaisyExamples/libDaisy//src/dev/oled_ssd130x.h ****     dsy_gpio  pin_reset_;
 137:../../DaisyExamples/libDaisy//src/dev/oled_ssd130x.h ****     dsy_gpio  pin_dc_;
 138:../../DaisyExamples/libDaisy//src/dev/oled_ssd130x.h **** };
 139:../../DaisyExamples/libDaisy//src/dev/oled_ssd130x.h **** 
 140:../../DaisyExamples/libDaisy//src/dev/oled_ssd130x.h **** /**
 141:../../DaisyExamples/libDaisy//src/dev/oled_ssd130x.h ****  * Soft SPI Transport for SSD1306 / SSD1309 OLED display devices
 142:../../DaisyExamples/libDaisy//src/dev/oled_ssd130x.h ****  */
 143:../../DaisyExamples/libDaisy//src/dev/oled_ssd130x.h **** class SSD130x4WireSoftSpiTransport
 144:../../DaisyExamples/libDaisy//src/dev/oled_ssd130x.h **** {
ARM GAS  /var/folders/hp/45mn71hd0ps5f5pnytxy5bt00000gn/T//ccdvmoSj.s 			page 12


 145:../../DaisyExamples/libDaisy//src/dev/oled_ssd130x.h ****   public:
 146:../../DaisyExamples/libDaisy//src/dev/oled_ssd130x.h ****     struct Config
 147:../../DaisyExamples/libDaisy//src/dev/oled_ssd130x.h ****     {
 148:../../DaisyExamples/libDaisy//src/dev/oled_ssd130x.h ****         Config()
 149:../../DaisyExamples/libDaisy//src/dev/oled_ssd130x.h ****         {
 150:../../DaisyExamples/libDaisy//src/dev/oled_ssd130x.h ****             // Initialize using defaults
 151:../../DaisyExamples/libDaisy//src/dev/oled_ssd130x.h ****             Defaults();
 152:../../DaisyExamples/libDaisy//src/dev/oled_ssd130x.h ****         }
 153:../../DaisyExamples/libDaisy//src/dev/oled_ssd130x.h ****         struct
 154:../../DaisyExamples/libDaisy//src/dev/oled_ssd130x.h ****         {
 155:../../DaisyExamples/libDaisy//src/dev/oled_ssd130x.h ****             uint32_t     sclk_delay;
 156:../../DaisyExamples/libDaisy//src/dev/oled_ssd130x.h ****             dsy_gpio_pin sclk;
 157:../../DaisyExamples/libDaisy//src/dev/oled_ssd130x.h ****             dsy_gpio_pin mosi;
 158:../../DaisyExamples/libDaisy//src/dev/oled_ssd130x.h ****             dsy_gpio_pin dc;
 159:../../DaisyExamples/libDaisy//src/dev/oled_ssd130x.h ****             dsy_gpio_pin reset;
 160:../../DaisyExamples/libDaisy//src/dev/oled_ssd130x.h ****         } pin_config;
 161:../../DaisyExamples/libDaisy//src/dev/oled_ssd130x.h ****         void Defaults()
 162:../../DaisyExamples/libDaisy//src/dev/oled_ssd130x.h ****         {
 163:../../DaisyExamples/libDaisy//src/dev/oled_ssd130x.h ****             pin_config.sclk_delay = 0; // fast as possible?!
 164:../../DaisyExamples/libDaisy//src/dev/oled_ssd130x.h ****             // SPI peripheral config
 165:../../DaisyExamples/libDaisy//src/dev/oled_ssd130x.h ****             pin_config.sclk = {DSY_GPIOD, 3}; /**< D10 - SPI2 SCK  */
 166:../../DaisyExamples/libDaisy//src/dev/oled_ssd130x.h ****             pin_config.mosi = {DSY_GPIOC, 3}; /**< D9  - SPI2 MOSI */
 167:../../DaisyExamples/libDaisy//src/dev/oled_ssd130x.h ****             // SSD130x control pin config
 168:../../DaisyExamples/libDaisy//src/dev/oled_ssd130x.h ****             pin_config.dc    = {DSY_GPIOC, 11}; //D2
 169:../../DaisyExamples/libDaisy//src/dev/oled_ssd130x.h ****             pin_config.reset = {DSY_GPIOC, 10}; //D3
 170:../../DaisyExamples/libDaisy//src/dev/oled_ssd130x.h ****         }
 171:../../DaisyExamples/libDaisy//src/dev/oled_ssd130x.h ****     };
 172:../../DaisyExamples/libDaisy//src/dev/oled_ssd130x.h ****     void Init(const Config& config)
 173:../../DaisyExamples/libDaisy//src/dev/oled_ssd130x.h ****     {
 174:../../DaisyExamples/libDaisy//src/dev/oled_ssd130x.h ****         // Initialize both GPIO
 175:../../DaisyExamples/libDaisy//src/dev/oled_ssd130x.h ****         pin_sclk_.mode = DSY_GPIO_MODE_OUTPUT_PP;
 176:../../DaisyExamples/libDaisy//src/dev/oled_ssd130x.h ****         pin_sclk_.pin  = config.pin_config.sclk;
 177:../../DaisyExamples/libDaisy//src/dev/oled_ssd130x.h ****         dsy_gpio_init(&pin_sclk_);
 178:../../DaisyExamples/libDaisy//src/dev/oled_ssd130x.h ****         dsy_gpio_write(&pin_sclk_, 1); //ClockPolarity::LOW
 179:../../DaisyExamples/libDaisy//src/dev/oled_ssd130x.h ****         clk_delay      = config.pin_config.sclk_delay;
 180:../../DaisyExamples/libDaisy//src/dev/oled_ssd130x.h ****         pin_mosi_.mode = DSY_GPIO_MODE_OUTPUT_PP;
 181:../../DaisyExamples/libDaisy//src/dev/oled_ssd130x.h ****         pin_mosi_.pin  = config.pin_config.mosi;
 182:../../DaisyExamples/libDaisy//src/dev/oled_ssd130x.h ****         dsy_gpio_init(&pin_mosi_);
 183:../../DaisyExamples/libDaisy//src/dev/oled_ssd130x.h ****         dsy_gpio_write(&pin_mosi_, 0);
 184:../../DaisyExamples/libDaisy//src/dev/oled_ssd130x.h **** 
 185:../../DaisyExamples/libDaisy//src/dev/oled_ssd130x.h ****         pin_dc_.mode = DSY_GPIO_MODE_OUTPUT_PP;
 186:../../DaisyExamples/libDaisy//src/dev/oled_ssd130x.h ****         pin_dc_.pin  = config.pin_config.dc;
 187:../../DaisyExamples/libDaisy//src/dev/oled_ssd130x.h ****         dsy_gpio_init(&pin_dc_);
 188:../../DaisyExamples/libDaisy//src/dev/oled_ssd130x.h ****         pin_reset_.mode = DSY_GPIO_MODE_OUTPUT_PP;
 189:../../DaisyExamples/libDaisy//src/dev/oled_ssd130x.h ****         pin_reset_.pin  = config.pin_config.reset;
 190:../../DaisyExamples/libDaisy//src/dev/oled_ssd130x.h ****         dsy_gpio_init(&pin_reset_);
 191:../../DaisyExamples/libDaisy//src/dev/oled_ssd130x.h **** 
 192:../../DaisyExamples/libDaisy//src/dev/oled_ssd130x.h ****         // Reset and Configure OLED.
 193:../../DaisyExamples/libDaisy//src/dev/oled_ssd130x.h ****         dsy_gpio_write(&pin_reset_, 0);
 194:../../DaisyExamples/libDaisy//src/dev/oled_ssd130x.h ****         System::Delay(10);
 195:../../DaisyExamples/libDaisy//src/dev/oled_ssd130x.h ****         dsy_gpio_write(&pin_reset_, 1);
 196:../../DaisyExamples/libDaisy//src/dev/oled_ssd130x.h ****         System::Delay(10);
 197:../../DaisyExamples/libDaisy//src/dev/oled_ssd130x.h ****     };
 198:../../DaisyExamples/libDaisy//src/dev/oled_ssd130x.h ****     void SendCommand(uint8_t cmd)
 199:../../DaisyExamples/libDaisy//src/dev/oled_ssd130x.h ****     {
 200:../../DaisyExamples/libDaisy//src/dev/oled_ssd130x.h ****         dsy_gpio_write(&pin_dc_, 0);
 201:../../DaisyExamples/libDaisy//src/dev/oled_ssd130x.h ****         SoftSpiTransmit(cmd);
ARM GAS  /var/folders/hp/45mn71hd0ps5f5pnytxy5bt00000gn/T//ccdvmoSj.s 			page 13


 202:../../DaisyExamples/libDaisy//src/dev/oled_ssd130x.h ****     };
 203:../../DaisyExamples/libDaisy//src/dev/oled_ssd130x.h **** 
 204:../../DaisyExamples/libDaisy//src/dev/oled_ssd130x.h ****     void SendData(uint8_t* buff, size_t size)
 205:../../DaisyExamples/libDaisy//src/dev/oled_ssd130x.h ****     {
 206:../../DaisyExamples/libDaisy//src/dev/oled_ssd130x.h ****         dsy_gpio_write(&pin_dc_, 1);
 207:../../DaisyExamples/libDaisy//src/dev/oled_ssd130x.h ****         for(size_t i = 0; i < size; i++)
 208:../../DaisyExamples/libDaisy//src/dev/oled_ssd130x.h ****             SoftSpiTransmit(buff[i]);
 209:../../DaisyExamples/libDaisy//src/dev/oled_ssd130x.h ****     };
 210:../../DaisyExamples/libDaisy//src/dev/oled_ssd130x.h **** 
 211:../../DaisyExamples/libDaisy//src/dev/oled_ssd130x.h ****   private:
 212:../../DaisyExamples/libDaisy//src/dev/oled_ssd130x.h ****     void SoftSpiTransmit(uint8_t val)
 213:../../DaisyExamples/libDaisy//src/dev/oled_ssd130x.h ****     {
 214:../../DaisyExamples/libDaisy//src/dev/oled_ssd130x.h ****         // bit flip
 215:../../DaisyExamples/libDaisy//src/dev/oled_ssd130x.h ****         val = ((val & 0x01) << 7) | ((val & 0x02) << 5) | ((val & 0x04) << 3)
 216:../../DaisyExamples/libDaisy//src/dev/oled_ssd130x.h ****               | ((val & 0x08) << 1) | ((val & 0x10) >> 1) | ((val & 0x20) >> 3)
 217:../../DaisyExamples/libDaisy//src/dev/oled_ssd130x.h ****               | ((val & 0x40) >> 5) | ((val & 0x80) >> 7);
 218:../../DaisyExamples/libDaisy//src/dev/oled_ssd130x.h **** 
 219:../../DaisyExamples/libDaisy//src/dev/oled_ssd130x.h ****         for(uint8_t bit = 0u; bit < 8u; bit++)
 220:../../DaisyExamples/libDaisy//src/dev/oled_ssd130x.h ****         {
 221:../../DaisyExamples/libDaisy//src/dev/oled_ssd130x.h ****             dsy_gpio_write(&pin_mosi_, ((val & (1 << bit)) ? 1 : 0));
 222:../../DaisyExamples/libDaisy//src/dev/oled_ssd130x.h **** 
 223:../../DaisyExamples/libDaisy//src/dev/oled_ssd130x.h ****             System::DelayTicks(clk_delay);
 224:../../DaisyExamples/libDaisy//src/dev/oled_ssd130x.h **** 
 225:../../DaisyExamples/libDaisy//src/dev/oled_ssd130x.h ****             dsy_gpio_toggle(&pin_sclk_);
 226:../../DaisyExamples/libDaisy//src/dev/oled_ssd130x.h **** 
 227:../../DaisyExamples/libDaisy//src/dev/oled_ssd130x.h ****             System::DelayTicks(clk_delay);
 228:../../DaisyExamples/libDaisy//src/dev/oled_ssd130x.h **** 
 229:../../DaisyExamples/libDaisy//src/dev/oled_ssd130x.h ****             dsy_gpio_toggle(&pin_sclk_);
 230:../../DaisyExamples/libDaisy//src/dev/oled_ssd130x.h ****         }
 231:../../DaisyExamples/libDaisy//src/dev/oled_ssd130x.h ****     }
 232:../../DaisyExamples/libDaisy//src/dev/oled_ssd130x.h **** 
 233:../../DaisyExamples/libDaisy//src/dev/oled_ssd130x.h ****     uint32_t clk_delay;
 234:../../DaisyExamples/libDaisy//src/dev/oled_ssd130x.h ****     dsy_gpio pin_sclk_;
 235:../../DaisyExamples/libDaisy//src/dev/oled_ssd130x.h ****     dsy_gpio pin_mosi_;
 236:../../DaisyExamples/libDaisy//src/dev/oled_ssd130x.h ****     dsy_gpio pin_reset_;
 237:../../DaisyExamples/libDaisy//src/dev/oled_ssd130x.h ****     dsy_gpio pin_dc_;
 238:../../DaisyExamples/libDaisy//src/dev/oled_ssd130x.h **** };
 239:../../DaisyExamples/libDaisy//src/dev/oled_ssd130x.h **** 
 240:../../DaisyExamples/libDaisy//src/dev/oled_ssd130x.h **** 
 241:../../DaisyExamples/libDaisy//src/dev/oled_ssd130x.h **** /**
 242:../../DaisyExamples/libDaisy//src/dev/oled_ssd130x.h ****  * A driver implementation for the SSD1306/SSD1309
 243:../../DaisyExamples/libDaisy//src/dev/oled_ssd130x.h ****  */
 244:../../DaisyExamples/libDaisy//src/dev/oled_ssd130x.h **** template <size_t width, size_t height, typename Transport>
 245:../../DaisyExamples/libDaisy//src/dev/oled_ssd130x.h **** class SSD130xDriver
 246:../../DaisyExamples/libDaisy//src/dev/oled_ssd130x.h **** {
 247:../../DaisyExamples/libDaisy//src/dev/oled_ssd130x.h ****   public:
 248:../../DaisyExamples/libDaisy//src/dev/oled_ssd130x.h ****     struct Config
 249:../../DaisyExamples/libDaisy//src/dev/oled_ssd130x.h ****     {
 250:../../DaisyExamples/libDaisy//src/dev/oled_ssd130x.h ****         typename Transport::Config transport_config;
 251:../../DaisyExamples/libDaisy//src/dev/oled_ssd130x.h ****     };
 252:../../DaisyExamples/libDaisy//src/dev/oled_ssd130x.h **** 
 253:../../DaisyExamples/libDaisy//src/dev/oled_ssd130x.h ****     void Init(Config config)
 254:../../DaisyExamples/libDaisy//src/dev/oled_ssd130x.h ****     {
 255:../../DaisyExamples/libDaisy//src/dev/oled_ssd130x.h ****         transport_.Init(config.transport_config);
 256:../../DaisyExamples/libDaisy//src/dev/oled_ssd130x.h **** 
 257:../../DaisyExamples/libDaisy//src/dev/oled_ssd130x.h ****         // Init routine...
 258:../../DaisyExamples/libDaisy//src/dev/oled_ssd130x.h **** 
ARM GAS  /var/folders/hp/45mn71hd0ps5f5pnytxy5bt00000gn/T//ccdvmoSj.s 			page 14


 259:../../DaisyExamples/libDaisy//src/dev/oled_ssd130x.h ****         // Display Off
 260:../../DaisyExamples/libDaisy//src/dev/oled_ssd130x.h ****         transport_.SendCommand(0xaE);
 261:../../DaisyExamples/libDaisy//src/dev/oled_ssd130x.h ****         // Dimension dependent commands...
 262:../../DaisyExamples/libDaisy//src/dev/oled_ssd130x.h ****         switch(height)
 263:../../DaisyExamples/libDaisy//src/dev/oled_ssd130x.h ****         {
 264:../../DaisyExamples/libDaisy//src/dev/oled_ssd130x.h ****             case 16:
 265:../../DaisyExamples/libDaisy//src/dev/oled_ssd130x.h ****                 // Display Clock Divide Ratio
 266:../../DaisyExamples/libDaisy//src/dev/oled_ssd130x.h ****                 transport_.SendCommand(0xD5);
 267:../../DaisyExamples/libDaisy//src/dev/oled_ssd130x.h ****                 transport_.SendCommand(0x60);
 268:../../DaisyExamples/libDaisy//src/dev/oled_ssd130x.h ****                 // Multiplex Ratio
 269:../../DaisyExamples/libDaisy//src/dev/oled_ssd130x.h ****                 transport_.SendCommand(0xA8);
 270:../../DaisyExamples/libDaisy//src/dev/oled_ssd130x.h ****                 transport_.SendCommand(0x0F);
 271:../../DaisyExamples/libDaisy//src/dev/oled_ssd130x.h ****                 // COM Pins
 272:../../DaisyExamples/libDaisy//src/dev/oled_ssd130x.h ****                 transport_.SendCommand(0xDA);
 273:../../DaisyExamples/libDaisy//src/dev/oled_ssd130x.h ****                 transport_.SendCommand(0x02);
 274:../../DaisyExamples/libDaisy//src/dev/oled_ssd130x.h ****                 break;
 275:../../DaisyExamples/libDaisy//src/dev/oled_ssd130x.h ****             case 32:
 276:../../DaisyExamples/libDaisy//src/dev/oled_ssd130x.h ****                 // Display Clock Divide Ratio
 277:../../DaisyExamples/libDaisy//src/dev/oled_ssd130x.h ****                 transport_.SendCommand(0xD5);
 278:../../DaisyExamples/libDaisy//src/dev/oled_ssd130x.h ****                 transport_.SendCommand(0x80);
 279:../../DaisyExamples/libDaisy//src/dev/oled_ssd130x.h ****                 // Multiplex Ratio
 280:../../DaisyExamples/libDaisy//src/dev/oled_ssd130x.h ****                 transport_.SendCommand(0xA8);
 281:../../DaisyExamples/libDaisy//src/dev/oled_ssd130x.h ****                 transport_.SendCommand(0x1F);
 282:../../DaisyExamples/libDaisy//src/dev/oled_ssd130x.h ****                 // COM Pins
 283:../../DaisyExamples/libDaisy//src/dev/oled_ssd130x.h ****                 transport_.SendCommand(0xDA);
 284:../../DaisyExamples/libDaisy//src/dev/oled_ssd130x.h ****                 if(width == 64)
 285:../../DaisyExamples/libDaisy//src/dev/oled_ssd130x.h ****                 {
 286:../../DaisyExamples/libDaisy//src/dev/oled_ssd130x.h ****                     transport_.SendCommand(0x12);
 287:../../DaisyExamples/libDaisy//src/dev/oled_ssd130x.h ****                 }
 288:../../DaisyExamples/libDaisy//src/dev/oled_ssd130x.h ****                 else
 289:../../DaisyExamples/libDaisy//src/dev/oled_ssd130x.h ****                 {
 290:../../DaisyExamples/libDaisy//src/dev/oled_ssd130x.h ****                     transport_.SendCommand(0x02);
 291:../../DaisyExamples/libDaisy//src/dev/oled_ssd130x.h ****                 }
 292:../../DaisyExamples/libDaisy//src/dev/oled_ssd130x.h **** 
 293:../../DaisyExamples/libDaisy//src/dev/oled_ssd130x.h ****                 break;
 294:../../DaisyExamples/libDaisy//src/dev/oled_ssd130x.h ****             case 48:
 295:../../DaisyExamples/libDaisy//src/dev/oled_ssd130x.h ****                 // Display Clock Divide Ratio
 296:../../DaisyExamples/libDaisy//src/dev/oled_ssd130x.h ****                 transport_.SendCommand(0xD5);
 297:../../DaisyExamples/libDaisy//src/dev/oled_ssd130x.h ****                 transport_.SendCommand(0x80);
 298:../../DaisyExamples/libDaisy//src/dev/oled_ssd130x.h ****                 // Multiplex Ratio
 299:../../DaisyExamples/libDaisy//src/dev/oled_ssd130x.h ****                 transport_.SendCommand(0xA8);
 300:../../DaisyExamples/libDaisy//src/dev/oled_ssd130x.h ****                 transport_.SendCommand(0x2F);
 301:../../DaisyExamples/libDaisy//src/dev/oled_ssd130x.h ****                 // COM Pins
 302:../../DaisyExamples/libDaisy//src/dev/oled_ssd130x.h ****                 transport_.SendCommand(0xDA);
 303:../../DaisyExamples/libDaisy//src/dev/oled_ssd130x.h ****                 transport_.SendCommand(0x12);
 304:../../DaisyExamples/libDaisy//src/dev/oled_ssd130x.h ****                 break;
 305:../../DaisyExamples/libDaisy//src/dev/oled_ssd130x.h ****             default: // 128
 306:../../DaisyExamples/libDaisy//src/dev/oled_ssd130x.h ****                 // Display Clock Divide Ratio
 307:../../DaisyExamples/libDaisy//src/dev/oled_ssd130x.h ****                 transport_.SendCommand(0xD5);
 308:../../DaisyExamples/libDaisy//src/dev/oled_ssd130x.h ****                 transport_.SendCommand(0x80);
 309:../../DaisyExamples/libDaisy//src/dev/oled_ssd130x.h ****                 // Multiplex Ratio
 310:../../DaisyExamples/libDaisy//src/dev/oled_ssd130x.h ****                 transport_.SendCommand(0xA8);
 311:../../DaisyExamples/libDaisy//src/dev/oled_ssd130x.h ****                 transport_.SendCommand(0x3F);
 312:../../DaisyExamples/libDaisy//src/dev/oled_ssd130x.h ****                 // COM Pins
 313:../../DaisyExamples/libDaisy//src/dev/oled_ssd130x.h ****                 transport_.SendCommand(0xDA);
 314:../../DaisyExamples/libDaisy//src/dev/oled_ssd130x.h ****                 transport_.SendCommand(0x12);
 315:../../DaisyExamples/libDaisy//src/dev/oled_ssd130x.h ****                 break;
ARM GAS  /var/folders/hp/45mn71hd0ps5f5pnytxy5bt00000gn/T//ccdvmoSj.s 			page 15


 316:../../DaisyExamples/libDaisy//src/dev/oled_ssd130x.h ****         }
 317:../../DaisyExamples/libDaisy//src/dev/oled_ssd130x.h **** 
 318:../../DaisyExamples/libDaisy//src/dev/oled_ssd130x.h ****         // Display Offset
 319:../../DaisyExamples/libDaisy//src/dev/oled_ssd130x.h ****         transport_.SendCommand(0xD3);
 320:../../DaisyExamples/libDaisy//src/dev/oled_ssd130x.h ****         transport_.SendCommand(0x00);
 321:../../DaisyExamples/libDaisy//src/dev/oled_ssd130x.h ****         // Start Line Address
 322:../../DaisyExamples/libDaisy//src/dev/oled_ssd130x.h ****         transport_.SendCommand(0x40);
 323:../../DaisyExamples/libDaisy//src/dev/oled_ssd130x.h ****         // Normal Display
 324:../../DaisyExamples/libDaisy//src/dev/oled_ssd130x.h ****         transport_.SendCommand(0xA6);
 325:../../DaisyExamples/libDaisy//src/dev/oled_ssd130x.h ****         // All On Resume
 326:../../DaisyExamples/libDaisy//src/dev/oled_ssd130x.h ****         transport_.SendCommand(0xA4);
 327:../../DaisyExamples/libDaisy//src/dev/oled_ssd130x.h ****         // Charge Pump
 328:../../DaisyExamples/libDaisy//src/dev/oled_ssd130x.h ****         transport_.SendCommand(0x8D);
 329:../../DaisyExamples/libDaisy//src/dev/oled_ssd130x.h ****         transport_.SendCommand(0x14);
 330:../../DaisyExamples/libDaisy//src/dev/oled_ssd130x.h ****         // Set Segment Remap
 331:../../DaisyExamples/libDaisy//src/dev/oled_ssd130x.h ****         transport_.SendCommand(0xA1);
 332:../../DaisyExamples/libDaisy//src/dev/oled_ssd130x.h ****         // COM Output Scan Direction
 333:../../DaisyExamples/libDaisy//src/dev/oled_ssd130x.h ****         transport_.SendCommand(0xC8);
 334:../../DaisyExamples/libDaisy//src/dev/oled_ssd130x.h ****         // Contrast Control
 335:../../DaisyExamples/libDaisy//src/dev/oled_ssd130x.h ****         transport_.SendCommand(0x81);
 336:../../DaisyExamples/libDaisy//src/dev/oled_ssd130x.h ****         transport_.SendCommand(0x8F);
 337:../../DaisyExamples/libDaisy//src/dev/oled_ssd130x.h ****         // Pre Charge
 338:../../DaisyExamples/libDaisy//src/dev/oled_ssd130x.h ****         transport_.SendCommand(0xD9);
 339:../../DaisyExamples/libDaisy//src/dev/oled_ssd130x.h ****         transport_.SendCommand(0x25);
 340:../../DaisyExamples/libDaisy//src/dev/oled_ssd130x.h ****         // VCOM Detect
 341:../../DaisyExamples/libDaisy//src/dev/oled_ssd130x.h ****         transport_.SendCommand(0xDB);
 342:../../DaisyExamples/libDaisy//src/dev/oled_ssd130x.h ****         transport_.SendCommand(0x34);
 343:../../DaisyExamples/libDaisy//src/dev/oled_ssd130x.h **** 
 344:../../DaisyExamples/libDaisy//src/dev/oled_ssd130x.h **** 
 345:../../DaisyExamples/libDaisy//src/dev/oled_ssd130x.h ****         // Display On
 346:../../DaisyExamples/libDaisy//src/dev/oled_ssd130x.h ****         transport_.SendCommand(0xAF); //--turn on oled panel
 347:../../DaisyExamples/libDaisy//src/dev/oled_ssd130x.h ****     };
 348:../../DaisyExamples/libDaisy//src/dev/oled_ssd130x.h **** 
 349:../../DaisyExamples/libDaisy//src/dev/oled_ssd130x.h ****     size_t Width() const { return width; };
 350:../../DaisyExamples/libDaisy//src/dev/oled_ssd130x.h ****     size_t Height() const { return height; };
 351:../../DaisyExamples/libDaisy//src/dev/oled_ssd130x.h **** 
 352:../../DaisyExamples/libDaisy//src/dev/oled_ssd130x.h ****     void DrawPixel(uint_fast8_t x, uint_fast8_t y, bool on)
 353:../../DaisyExamples/libDaisy//src/dev/oled_ssd130x.h ****     {
 354:../../DaisyExamples/libDaisy//src/dev/oled_ssd130x.h ****         if(x >= width || y >= height)
 355:../../DaisyExamples/libDaisy//src/dev/oled_ssd130x.h ****             return;
 356:../../DaisyExamples/libDaisy//src/dev/oled_ssd130x.h ****         if(on)
 357:../../DaisyExamples/libDaisy//src/dev/oled_ssd130x.h ****             buffer_[x + (y / 8) * width] |= (1 << (y % 8));
 358:../../DaisyExamples/libDaisy//src/dev/oled_ssd130x.h ****         else
 359:../../DaisyExamples/libDaisy//src/dev/oled_ssd130x.h ****             buffer_[x + (y / 8) * width] &= ~(1 << (y % 8));
 360:../../DaisyExamples/libDaisy//src/dev/oled_ssd130x.h ****     }
 361:../../DaisyExamples/libDaisy//src/dev/oled_ssd130x.h **** 
 362:../../DaisyExamples/libDaisy//src/dev/oled_ssd130x.h ****     void Fill(bool on)
  86              		.loc 7 362 10 view .LVU11
  87              	.LBB340:
 363:../../DaisyExamples/libDaisy//src/dev/oled_ssd130x.h ****     {
 364:../../DaisyExamples/libDaisy//src/dev/oled_ssd130x.h ****         for(size_t i = 0; i < sizeof(buffer_); i++)
  88              		.loc 7 364 29 view .LVU12
 365:../../DaisyExamples/libDaisy//src/dev/oled_ssd130x.h ****         {
 366:../../DaisyExamples/libDaisy//src/dev/oled_ssd130x.h ****             buffer_[i] = on ? 0xff : 0x00;
  89              		.loc 7 366 24 is_stmt 0 view .LVU13
  90 0000 4942     		rsbs	r1, r1, #0
  91              	.LVL2:
ARM GAS  /var/folders/hp/45mn71hd0ps5f5pnytxy5bt00000gn/T//ccdvmoSj.s 			page 16


  92              		.loc 7 366 24 view .LVU14
  93 0002 4FF40072 		mov	r2, #512
  94 0006 1030     		adds	r0, r0, #16
  95              	.LVL3:
  96              		.loc 7 366 24 view .LVU15
  97 0008 C9B2     		uxtb	r1, r1
  98 000a FFF7FEBF 		b	memset
  99              	.LVL4:
 100              		.loc 7 366 24 view .LVU16
 101              	.LBE340:
 102              	.LBE339:
 103              		.cfi_endproc
 104              	.LFE2635:
 106 000e 00BF     		.section	.text._ZN5daisy11OledDisplayINS_13SSD130xDriverILj128ELj32ENS_19SSD130xI2CTransportEEEED2
 107              		.align	1
 108              		.p2align 2,,3
 109              		.weak	_ZN5daisy11OledDisplayINS_13SSD130xDriverILj128ELj32ENS_19SSD130xI2CTransportEEEED2Ev
 110              		.syntax unified
 111              		.thumb
 112              		.thumb_func
 114              	_ZN5daisy11OledDisplayINS_13SSD130xDriverILj128ELj32ENS_19SSD130xI2CTransportEEEED2Ev:
 115              	.LVL5:
 116              	.LFB2669:
  18:../../DaisyExamples/libDaisy//src/hid/disp/oled_display.h **** 
 117              		.loc 6 18 13 is_stmt 1 view -0
 118              		.cfi_startproc
 119              		@ args = 0, pretend = 0, frame = 0
 120              		@ frame_needed = 0, uses_anonymous_args = 0
 121              		@ link register save eliminated.
 122              	.LBB341:
 123              	.LBI341:
 124              		.file 8 "../../DaisyExamples/libDaisy//src/hid/disp/display.h"
   1:../../DaisyExamples/libDaisy//src/hid/disp/display.h **** #pragma once
   2:../../DaisyExamples/libDaisy//src/hid/disp/display.h **** #ifndef DSY_DISPLAY_H
   3:../../DaisyExamples/libDaisy//src/hid/disp/display.h **** #define DSY_DISPLAY_H /**< Macro */
   4:../../DaisyExamples/libDaisy//src/hid/disp/display.h **** #include <cmath>
   5:../../DaisyExamples/libDaisy//src/hid/disp/display.h **** #include "util/oled_fonts.h"
   6:../../DaisyExamples/libDaisy//src/hid/disp/display.h **** #include "daisy_core.h"
   7:../../DaisyExamples/libDaisy//src/hid/disp/display.h **** #include "graphics_common.h"
   8:../../DaisyExamples/libDaisy//src/hid/disp/display.h **** 
   9:../../DaisyExamples/libDaisy//src/hid/disp/display.h **** #ifndef deg2rad
  10:../../DaisyExamples/libDaisy//src/hid/disp/display.h **** #define deg2rad(deg) ((deg)*3.141592 / 180.0)
  11:../../DaisyExamples/libDaisy//src/hid/disp/display.h **** #endif
  12:../../DaisyExamples/libDaisy//src/hid/disp/display.h **** 
  13:../../DaisyExamples/libDaisy//src/hid/disp/display.h **** namespace daisy
  14:../../DaisyExamples/libDaisy//src/hid/disp/display.h **** {
  15:../../DaisyExamples/libDaisy//src/hid/disp/display.h **** /** 
  16:../../DaisyExamples/libDaisy//src/hid/disp/display.h ****  * This interface is used as a base class for all types of 1bit-per-pixel
  17:../../DaisyExamples/libDaisy//src/hid/disp/display.h ****  * graphics displays.
  18:../../DaisyExamples/libDaisy//src/hid/disp/display.h **** */
  19:../../DaisyExamples/libDaisy//src/hid/disp/display.h **** class OneBitGraphicsDisplay
  20:../../DaisyExamples/libDaisy//src/hid/disp/display.h **** {
  21:../../DaisyExamples/libDaisy//src/hid/disp/display.h ****   public:
  22:../../DaisyExamples/libDaisy//src/hid/disp/display.h ****     OneBitGraphicsDisplay() {}
  23:../../DaisyExamples/libDaisy//src/hid/disp/display.h ****     virtual ~OneBitGraphicsDisplay() {}
  24:../../DaisyExamples/libDaisy//src/hid/disp/display.h **** 
  25:../../DaisyExamples/libDaisy//src/hid/disp/display.h ****     virtual uint16_t Height() const = 0;
ARM GAS  /var/folders/hp/45mn71hd0ps5f5pnytxy5bt00000gn/T//ccdvmoSj.s 			page 17


  26:../../DaisyExamples/libDaisy//src/hid/disp/display.h ****     virtual uint16_t Width() const  = 0;
  27:../../DaisyExamples/libDaisy//src/hid/disp/display.h **** 
  28:../../DaisyExamples/libDaisy//src/hid/disp/display.h ****     Rectangle GetBounds() const
  29:../../DaisyExamples/libDaisy//src/hid/disp/display.h ****     {
  30:../../DaisyExamples/libDaisy//src/hid/disp/display.h ****         return Rectangle(int16_t(Width()), int16_t(Height()));
  31:../../DaisyExamples/libDaisy//src/hid/disp/display.h ****     }
  32:../../DaisyExamples/libDaisy//src/hid/disp/display.h **** 
  33:../../DaisyExamples/libDaisy//src/hid/disp/display.h **** 
  34:../../DaisyExamples/libDaisy//src/hid/disp/display.h ****     size_t CurrentX() { return currentX_; };
  35:../../DaisyExamples/libDaisy//src/hid/disp/display.h ****     size_t CurrentY() { return currentY_; };
  36:../../DaisyExamples/libDaisy//src/hid/disp/display.h **** 
  37:../../DaisyExamples/libDaisy//src/hid/disp/display.h ****     /** 
  38:../../DaisyExamples/libDaisy//src/hid/disp/display.h ****     Fills the entire display with either on/off.
  39:../../DaisyExamples/libDaisy//src/hid/disp/display.h ****     \param on Sets on or off.
  40:../../DaisyExamples/libDaisy//src/hid/disp/display.h ****     */
  41:../../DaisyExamples/libDaisy//src/hid/disp/display.h ****     virtual void Fill(bool on) = 0;
  42:../../DaisyExamples/libDaisy//src/hid/disp/display.h **** 
  43:../../DaisyExamples/libDaisy//src/hid/disp/display.h ****     /**
  44:../../DaisyExamples/libDaisy//src/hid/disp/display.h ****     Sets the pixel at the specified coordinate to be on/off.
  45:../../DaisyExamples/libDaisy//src/hid/disp/display.h ****     \param x   x Coordinate
  46:../../DaisyExamples/libDaisy//src/hid/disp/display.h ****     \param y   y coordinate
  47:../../DaisyExamples/libDaisy//src/hid/disp/display.h ****     \param on  on or off
  48:../../DaisyExamples/libDaisy//src/hid/disp/display.h ****     */
  49:../../DaisyExamples/libDaisy//src/hid/disp/display.h ****     virtual void DrawPixel(uint_fast8_t x, uint_fast8_t y, bool on) = 0;
  50:../../DaisyExamples/libDaisy//src/hid/disp/display.h **** 
  51:../../DaisyExamples/libDaisy//src/hid/disp/display.h ****     /**
  52:../../DaisyExamples/libDaisy//src/hid/disp/display.h ****     Draws a line from (x1, y1) to (y1, y2)
  53:../../DaisyExamples/libDaisy//src/hid/disp/display.h ****     \param x1  x Coordinate of the starting point
  54:../../DaisyExamples/libDaisy//src/hid/disp/display.h ****     \param y1  y Coordinate of the starting point
  55:../../DaisyExamples/libDaisy//src/hid/disp/display.h ****     \param x2  x Coordinate of the ending point
  56:../../DaisyExamples/libDaisy//src/hid/disp/display.h ****     \param y2  y Coordinate of the ending point
  57:../../DaisyExamples/libDaisy//src/hid/disp/display.h ****     \param on  on or off
  58:../../DaisyExamples/libDaisy//src/hid/disp/display.h ****     */
  59:../../DaisyExamples/libDaisy//src/hid/disp/display.h ****     virtual void DrawLine(uint_fast8_t x1,
  60:../../DaisyExamples/libDaisy//src/hid/disp/display.h ****                           uint_fast8_t y1,
  61:../../DaisyExamples/libDaisy//src/hid/disp/display.h ****                           uint_fast8_t x2,
  62:../../DaisyExamples/libDaisy//src/hid/disp/display.h ****                           uint_fast8_t y2,
  63:../../DaisyExamples/libDaisy//src/hid/disp/display.h ****                           bool         on)
  64:../../DaisyExamples/libDaisy//src/hid/disp/display.h ****         = 0;
  65:../../DaisyExamples/libDaisy//src/hid/disp/display.h **** 
  66:../../DaisyExamples/libDaisy//src/hid/disp/display.h ****     /**
  67:../../DaisyExamples/libDaisy//src/hid/disp/display.h ****     Draws a rectangle based on two coordinates.
  68:../../DaisyExamples/libDaisy//src/hid/disp/display.h ****     \param x1 x Coordinate of the first point
  69:../../DaisyExamples/libDaisy//src/hid/disp/display.h ****     \param y1 y Coordinate of the first point
  70:../../DaisyExamples/libDaisy//src/hid/disp/display.h ****     \param x2 x Coordinate of the second point
  71:../../DaisyExamples/libDaisy//src/hid/disp/display.h ****     \param y2 y Coordinate of the second point
  72:../../DaisyExamples/libDaisy//src/hid/disp/display.h ****     \param on on or off
  73:../../DaisyExamples/libDaisy//src/hid/disp/display.h ****     \param fill fill the rectangle or draw only the outline
  74:../../DaisyExamples/libDaisy//src/hid/disp/display.h ****     */
  75:../../DaisyExamples/libDaisy//src/hid/disp/display.h ****     virtual void DrawRect(uint_fast8_t x1,
  76:../../DaisyExamples/libDaisy//src/hid/disp/display.h ****                           uint_fast8_t y1,
  77:../../DaisyExamples/libDaisy//src/hid/disp/display.h ****                           uint_fast8_t x2,
  78:../../DaisyExamples/libDaisy//src/hid/disp/display.h ****                           uint_fast8_t y2,
  79:../../DaisyExamples/libDaisy//src/hid/disp/display.h ****                           bool         on,
  80:../../DaisyExamples/libDaisy//src/hid/disp/display.h ****                           bool         fill = false)
  81:../../DaisyExamples/libDaisy//src/hid/disp/display.h ****         = 0;
  82:../../DaisyExamples/libDaisy//src/hid/disp/display.h **** 
ARM GAS  /var/folders/hp/45mn71hd0ps5f5pnytxy5bt00000gn/T//ccdvmoSj.s 			page 18


  83:../../DaisyExamples/libDaisy//src/hid/disp/display.h ****     /**
  84:../../DaisyExamples/libDaisy//src/hid/disp/display.h ****     Draws a rectangle.
  85:../../DaisyExamples/libDaisy//src/hid/disp/display.h ****     \param rect the rectangle
  86:../../DaisyExamples/libDaisy//src/hid/disp/display.h ****     \param on   on or off
  87:../../DaisyExamples/libDaisy//src/hid/disp/display.h ****     \param fill fill the rectangle or draw only the outline
  88:../../DaisyExamples/libDaisy//src/hid/disp/display.h ****     */
  89:../../DaisyExamples/libDaisy//src/hid/disp/display.h ****     void DrawRect(const Rectangle& rect, bool on, bool fill = false)
  90:../../DaisyExamples/libDaisy//src/hid/disp/display.h ****     {
  91:../../DaisyExamples/libDaisy//src/hid/disp/display.h ****         DrawRect(rect.GetX(),
  92:../../DaisyExamples/libDaisy//src/hid/disp/display.h ****                  rect.GetY(),
  93:../../DaisyExamples/libDaisy//src/hid/disp/display.h ****                  rect.GetRight(),
  94:../../DaisyExamples/libDaisy//src/hid/disp/display.h ****                  rect.GetBottom(),
  95:../../DaisyExamples/libDaisy//src/hid/disp/display.h ****                  on,
  96:../../DaisyExamples/libDaisy//src/hid/disp/display.h ****                  fill);
  97:../../DaisyExamples/libDaisy//src/hid/disp/display.h ****     }
  98:../../DaisyExamples/libDaisy//src/hid/disp/display.h **** 
  99:../../DaisyExamples/libDaisy//src/hid/disp/display.h ****     /**
 100:../../DaisyExamples/libDaisy//src/hid/disp/display.h ****     Draws an arc around the specified coordinate
 101:../../DaisyExamples/libDaisy//src/hid/disp/display.h ****     \param x           x Coordinate of the center of the arc
 102:../../DaisyExamples/libDaisy//src/hid/disp/display.h ****     \param y           y Coordinate of the center of the arc
 103:../../DaisyExamples/libDaisy//src/hid/disp/display.h ****     \param radius      radius of the arc
 104:../../DaisyExamples/libDaisy//src/hid/disp/display.h ****     \param start_angle angle where to start the arc
 105:../../DaisyExamples/libDaisy//src/hid/disp/display.h ****     \param sweep       total angle of the arc
 106:../../DaisyExamples/libDaisy//src/hid/disp/display.h ****     \param on  on or off
 107:../../DaisyExamples/libDaisy//src/hid/disp/display.h ****     */
 108:../../DaisyExamples/libDaisy//src/hid/disp/display.h ****     virtual void DrawArc(uint_fast8_t x,
 109:../../DaisyExamples/libDaisy//src/hid/disp/display.h ****                          uint_fast8_t y,
 110:../../DaisyExamples/libDaisy//src/hid/disp/display.h ****                          uint_fast8_t radius,
 111:../../DaisyExamples/libDaisy//src/hid/disp/display.h ****                          int_fast16_t start_angle,
 112:../../DaisyExamples/libDaisy//src/hid/disp/display.h ****                          int_fast16_t sweep,
 113:../../DaisyExamples/libDaisy//src/hid/disp/display.h ****                          bool         on)
 114:../../DaisyExamples/libDaisy//src/hid/disp/display.h ****         = 0;
 115:../../DaisyExamples/libDaisy//src/hid/disp/display.h **** 
 116:../../DaisyExamples/libDaisy//src/hid/disp/display.h ****     /**
 117:../../DaisyExamples/libDaisy//src/hid/disp/display.h ****     Draws a circle around the specified coordinate
 118:../../DaisyExamples/libDaisy//src/hid/disp/display.h ****     \param x           x Coordinate of the center of the circle
 119:../../DaisyExamples/libDaisy//src/hid/disp/display.h ****     \param y           y Coordinate of the center of the circle
 120:../../DaisyExamples/libDaisy//src/hid/disp/display.h ****     \param radius      radius of the circle
 121:../../DaisyExamples/libDaisy//src/hid/disp/display.h ****     \param on  on or off
 122:../../DaisyExamples/libDaisy//src/hid/disp/display.h ****     */
 123:../../DaisyExamples/libDaisy//src/hid/disp/display.h ****     void
 124:../../DaisyExamples/libDaisy//src/hid/disp/display.h ****     DrawCircle(uint_fast8_t x, uint_fast8_t y, uint_fast8_t radius, bool on)
 125:../../DaisyExamples/libDaisy//src/hid/disp/display.h ****     {
 126:../../DaisyExamples/libDaisy//src/hid/disp/display.h ****         DrawArc(x, y, radius, 0, 360, on);
 127:../../DaisyExamples/libDaisy//src/hid/disp/display.h ****     };
 128:../../DaisyExamples/libDaisy//src/hid/disp/display.h **** 
 129:../../DaisyExamples/libDaisy//src/hid/disp/display.h ****     /** 
 130:../../DaisyExamples/libDaisy//src/hid/disp/display.h ****     Writes the character with the specific FontDef
 131:../../DaisyExamples/libDaisy//src/hid/disp/display.h ****     to the display buffer at the current Cursor position.
 132:../../DaisyExamples/libDaisy//src/hid/disp/display.h ****     \param ch character to be written
 133:../../DaisyExamples/libDaisy//src/hid/disp/display.h ****     \param font font to be written in
 134:../../DaisyExamples/libDaisy//src/hid/disp/display.h ****     \param on    on or off
 135:../../DaisyExamples/libDaisy//src/hid/disp/display.h ****     \return &
 136:../../DaisyExamples/libDaisy//src/hid/disp/display.h ****     */
 137:../../DaisyExamples/libDaisy//src/hid/disp/display.h ****     virtual char WriteChar(char ch, FontDef font, bool on) = 0;
 138:../../DaisyExamples/libDaisy//src/hid/disp/display.h **** 
 139:../../DaisyExamples/libDaisy//src/hid/disp/display.h ****     /** 
ARM GAS  /var/folders/hp/45mn71hd0ps5f5pnytxy5bt00000gn/T//ccdvmoSj.s 			page 19


 140:../../DaisyExamples/libDaisy//src/hid/disp/display.h ****     Similar to WriteChar, except it will handle an entire String.
 141:../../DaisyExamples/libDaisy//src/hid/disp/display.h ****     Wrapping does not happen automatically, so the width
 142:../../DaisyExamples/libDaisy//src/hid/disp/display.h ****     of the string must be kept within the dimensions of the screen.
 143:../../DaisyExamples/libDaisy//src/hid/disp/display.h ****     \param str string to be written
 144:../../DaisyExamples/libDaisy//src/hid/disp/display.h ****     \param font font to use
 145:../../DaisyExamples/libDaisy//src/hid/disp/display.h ****     \param on  on or off
 146:../../DaisyExamples/libDaisy//src/hid/disp/display.h ****     \return &
 147:../../DaisyExamples/libDaisy//src/hid/disp/display.h ****     */
 148:../../DaisyExamples/libDaisy//src/hid/disp/display.h ****     virtual char WriteString(const char* str, FontDef font, bool on) = 0;
 149:../../DaisyExamples/libDaisy//src/hid/disp/display.h **** 
 150:../../DaisyExamples/libDaisy//src/hid/disp/display.h ****     /** 
 151:../../DaisyExamples/libDaisy//src/hid/disp/display.h ****     Similar to WriteString but justified within a bounding box.
 152:../../DaisyExamples/libDaisy//src/hid/disp/display.h ****     \param str          string to be written
 153:../../DaisyExamples/libDaisy//src/hid/disp/display.h ****     \param font         font to use
 154:../../DaisyExamples/libDaisy//src/hid/disp/display.h ****     \param boundingBox  the bounding box to draw the text in
 155:../../DaisyExamples/libDaisy//src/hid/disp/display.h ****     \param alignment    the alignment to use
 156:../../DaisyExamples/libDaisy//src/hid/disp/display.h ****     \param on           on or off
 157:../../DaisyExamples/libDaisy//src/hid/disp/display.h ****     \return The rectangle that was drawn to
 158:../../DaisyExamples/libDaisy//src/hid/disp/display.h ****     */
 159:../../DaisyExamples/libDaisy//src/hid/disp/display.h ****     virtual Rectangle WriteStringAligned(const char*    str,
 160:../../DaisyExamples/libDaisy//src/hid/disp/display.h ****                                          const FontDef& font,
 161:../../DaisyExamples/libDaisy//src/hid/disp/display.h ****                                          Rectangle      boundingBox,
 162:../../DaisyExamples/libDaisy//src/hid/disp/display.h ****                                          Alignment      alignment,
 163:../../DaisyExamples/libDaisy//src/hid/disp/display.h ****                                          bool           on)
 164:../../DaisyExamples/libDaisy//src/hid/disp/display.h ****         = 0;
 165:../../DaisyExamples/libDaisy//src/hid/disp/display.h **** 
 166:../../DaisyExamples/libDaisy//src/hid/disp/display.h ****     /** 
 167:../../DaisyExamples/libDaisy//src/hid/disp/display.h ****     Moves the 'Cursor' position used for WriteChar, and WriteStr to the specified coordinate.
 168:../../DaisyExamples/libDaisy//src/hid/disp/display.h ****     \param x x pos
 169:../../DaisyExamples/libDaisy//src/hid/disp/display.h ****     \param y y pos
 170:../../DaisyExamples/libDaisy//src/hid/disp/display.h ****     */
 171:../../DaisyExamples/libDaisy//src/hid/disp/display.h ****     void SetCursor(uint16_t x, uint16_t y)
 172:../../DaisyExamples/libDaisy//src/hid/disp/display.h ****     {
 173:../../DaisyExamples/libDaisy//src/hid/disp/display.h ****         currentX_ = (x >= Width()) ? Width() - 1 : x;
 174:../../DaisyExamples/libDaisy//src/hid/disp/display.h ****         currentY_ = (y >= Height()) ? Height() - 1 : y;
 175:../../DaisyExamples/libDaisy//src/hid/disp/display.h ****     }
 176:../../DaisyExamples/libDaisy//src/hid/disp/display.h **** 
 177:../../DaisyExamples/libDaisy//src/hid/disp/display.h ****     /** 
 178:../../DaisyExamples/libDaisy//src/hid/disp/display.h ****     Writes the current display buffer to the OLED device using SPI or I2C depending on 
 179:../../DaisyExamples/libDaisy//src/hid/disp/display.h ****     how the object was initialized.
 180:../../DaisyExamples/libDaisy//src/hid/disp/display.h ****     */
 181:../../DaisyExamples/libDaisy//src/hid/disp/display.h ****     virtual void Update() = 0;
 182:../../DaisyExamples/libDaisy//src/hid/disp/display.h **** 
 183:../../DaisyExamples/libDaisy//src/hid/disp/display.h ****   protected:
 184:../../DaisyExamples/libDaisy//src/hid/disp/display.h ****     uint16_t currentX_;
 185:../../DaisyExamples/libDaisy//src/hid/disp/display.h ****     uint16_t currentY_;
 186:../../DaisyExamples/libDaisy//src/hid/disp/display.h **** };
 187:../../DaisyExamples/libDaisy//src/hid/disp/display.h **** 
 188:../../DaisyExamples/libDaisy//src/hid/disp/display.h **** /** This class is intended as a intermediary class for your actual implementation of the OneBitGrap
 189:../../DaisyExamples/libDaisy//src/hid/disp/display.h ****  *  interface. It uses the CRTP design pattern where the template argument is the child class. It p
 190:../../DaisyExamples/libDaisy//src/hid/disp/display.h ****  *  implementations for most of the functions, except DrawPixel(), Update() and Fill(), which you'l
 191:../../DaisyExamples/libDaisy//src/hid/disp/display.h ****  *  to provide in your child class.
 192:../../DaisyExamples/libDaisy//src/hid/disp/display.h ****  *  The main goal of this class is to provide common drawing functions without relying on massive a
 193:../../DaisyExamples/libDaisy//src/hid/disp/display.h ****  *  virtual function calls that would result in a performance loss. To achieve this, any drawing fu
 194:../../DaisyExamples/libDaisy//src/hid/disp/display.h ****  *  is implemented here and internally calls other drawing functions (e.g. DrawRect() which interna
 195:../../DaisyExamples/libDaisy//src/hid/disp/display.h ****  *  DrawPixel() and DrawLine()) makes these calls via the qualified name of these functions to expl
 196:../../DaisyExamples/libDaisy//src/hid/disp/display.h ****  *  suppress the virtual dispatch mechanism like this:
ARM GAS  /var/folders/hp/45mn71hd0ps5f5pnytxy5bt00000gn/T//ccdvmoSj.s 			page 20


 197:../../DaisyExamples/libDaisy//src/hid/disp/display.h ****  * 
 198:../../DaisyExamples/libDaisy//src/hid/disp/display.h ****  *      ChildType::DrawPixel(...); // no virtual function call; direct call into the child class fu
 199:../../DaisyExamples/libDaisy//src/hid/disp/display.h ****  *  
 200:../../DaisyExamples/libDaisy//src/hid/disp/display.h ****  *  To create a custom OneBitGraphicsDisplay implementation, you can 
 201:../../DaisyExamples/libDaisy//src/hid/disp/display.h ****  *  A) inherit from OneBitGraphicsDisplay directly and provide all the drawing functions yourself
 202:../../DaisyExamples/libDaisy//src/hid/disp/display.h ****  *  B) Inherit from OneBitGraphicsDisplayImpl and only provide DrawPixel(), Fill() and Update()
 203:../../DaisyExamples/libDaisy//src/hid/disp/display.h ****  *     like this:
 204:../../DaisyExamples/libDaisy//src/hid/disp/display.h ****  *  
 205:../../DaisyExamples/libDaisy//src/hid/disp/display.h ****  *      class MyDisplayClass : public OneBitGraphicsDisplayImpl<MyDisplayClass> 
 206:../../DaisyExamples/libDaisy//src/hid/disp/display.h ****  *      {
 207:../../DaisyExamples/libDaisy//src/hid/disp/display.h ****  *      public:
 208:../../DaisyExamples/libDaisy//src/hid/disp/display.h ****  *          void Fill() override { ... };
 209:../../DaisyExamples/libDaisy//src/hid/disp/display.h ****  *          void DrawPixel(uint_fast8_t x, uint_fast8_t y, bool on) override { ... };
 210:../../DaisyExamples/libDaisy//src/hid/disp/display.h ****  *          void Update() override { ... }
 211:../../DaisyExamples/libDaisy//src/hid/disp/display.h ****  *      };
 212:../../DaisyExamples/libDaisy//src/hid/disp/display.h ****  *  
 213:../../DaisyExamples/libDaisy//src/hid/disp/display.h ****  */
 214:../../DaisyExamples/libDaisy//src/hid/disp/display.h **** template <class ChildType>
 215:../../DaisyExamples/libDaisy//src/hid/disp/display.h **** class OneBitGraphicsDisplayImpl : public OneBitGraphicsDisplay
 216:../../DaisyExamples/libDaisy//src/hid/disp/display.h **** {
 217:../../DaisyExamples/libDaisy//src/hid/disp/display.h ****   public:
 218:../../DaisyExamples/libDaisy//src/hid/disp/display.h ****     OneBitGraphicsDisplayImpl() {}
 219:../../DaisyExamples/libDaisy//src/hid/disp/display.h ****     virtual ~OneBitGraphicsDisplayImpl() {}
 125              		.loc 8 219 13 view .LVU18
 126              	.LBB342:
 127              	.LBI342:
  23:../../DaisyExamples/libDaisy//src/hid/disp/display.h **** 
 128              		.loc 8 23 13 view .LVU19
  23:../../DaisyExamples/libDaisy//src/hid/disp/display.h **** 
 129              		.loc 8 23 13 is_stmt 0 view .LVU20
 130              	.LBE342:
 131              	.LBE341:
  18:../../DaisyExamples/libDaisy//src/hid/disp/oled_display.h **** 
 132              		.loc 6 18 29 view .LVU21
 133 0000 7047     		bx	lr
 134              		.cfi_endproc
 135              	.LFE2669:
 137              		.weak	_ZN5daisy11OledDisplayINS_13SSD130xDriverILj128ELj32ENS_19SSD130xI2CTransportEEEED1Ev
 138              		.thumb_set _ZN5daisy11OledDisplayINS_13SSD130xDriverILj128ELj32ENS_19SSD130xI2CTransportEEEED1Ev,_
 139 0002 00BF     		.section	.text._ZNK5daisy11OledDisplayINS_13SSD130xDriverILj128ELj32ENS_19SSD130xI2CTransportEEEE6
 140              		.align	1
 141              		.p2align 2,,3
 142              		.weak	_ZNK5daisy11OledDisplayINS_13SSD130xDriverILj128ELj32ENS_19SSD130xI2CTransportEEEE6HeightEv
 143              		.syntax unified
 144              		.thumb
 145              		.thumb_func
 147              	_ZNK5daisy11OledDisplayINS_13SSD130xDriverILj128ELj32ENS_19SSD130xI2CTransportEEEE6HeightEv:
 148              	.LVL6:
 149              	.LFB2672:
  27:../../DaisyExamples/libDaisy//src/hid/disp/oled_display.h ****     uint16_t Width() const override { return driver_.Width(); }
 150              		.loc 6 27 14 is_stmt 1 view -0
 151              		.cfi_startproc
 152              		@ args = 0, pretend = 0, frame = 0
 153              		@ frame_needed = 0, uses_anonymous_args = 0
 154              		@ link register save eliminated.
  27:../../DaisyExamples/libDaisy//src/hid/disp/oled_display.h ****     uint16_t Width() const override { return driver_.Width(); }
 155              		.loc 6 27 65 is_stmt 0 view .LVU23
ARM GAS  /var/folders/hp/45mn71hd0ps5f5pnytxy5bt00000gn/T//ccdvmoSj.s 			page 21


 156 0000 2020     		movs	r0, #32
 157              	.LVL7:
  27:../../DaisyExamples/libDaisy//src/hid/disp/oled_display.h ****     uint16_t Width() const override { return driver_.Width(); }
 158              		.loc 6 27 65 view .LVU24
 159 0002 7047     		bx	lr
 160              		.cfi_endproc
 161              	.LFE2672:
 163              		.section	.text._ZNK5daisy11OledDisplayINS_13SSD130xDriverILj128ELj32ENS_19SSD130xI2CTransportEEEE5
 164              		.align	1
 165              		.p2align 2,,3
 166              		.weak	_ZNK5daisy11OledDisplayINS_13SSD130xDriverILj128ELj32ENS_19SSD130xI2CTransportEEEE5WidthEv
 167              		.syntax unified
 168              		.thumb
 169              		.thumb_func
 171              	_ZNK5daisy11OledDisplayINS_13SSD130xDriverILj128ELj32ENS_19SSD130xI2CTransportEEEE5WidthEv:
 172              	.LVL8:
 173              	.LFB2673:
  28:../../DaisyExamples/libDaisy//src/hid/disp/oled_display.h **** 
 174              		.loc 6 28 14 is_stmt 1 view -0
 175              		.cfi_startproc
 176              		@ args = 0, pretend = 0, frame = 0
 177              		@ frame_needed = 0, uses_anonymous_args = 0
 178              		@ link register save eliminated.
  28:../../DaisyExamples/libDaisy//src/hid/disp/oled_display.h **** 
 179              		.loc 6 28 63 is_stmt 0 view .LVU26
 180 0000 8020     		movs	r0, #128
 181              	.LVL9:
  28:../../DaisyExamples/libDaisy//src/hid/disp/oled_display.h **** 
 182              		.loc 6 28 63 view .LVU27
 183 0002 7047     		bx	lr
 184              		.cfi_endproc
 185              	.LFE2673:
 187              		.section	.text._ZN5daisy11OledDisplayINS_13SSD130xDriverILj128ELj32ENS_19SSD130xI2CTransportEEEED0
 188              		.align	1
 189              		.p2align 2,,3
 190              		.weak	_ZN5daisy11OledDisplayINS_13SSD130xDriverILj128ELj32ENS_19SSD130xI2CTransportEEEED0Ev
 191              		.syntax unified
 192              		.thumb
 193              		.thumb_func
 195              	_ZN5daisy11OledDisplayINS_13SSD130xDriverILj128ELj32ENS_19SSD130xI2CTransportEEEED0Ev:
 196              	.LVL10:
 197              	.LFB2671:
  18:../../DaisyExamples/libDaisy//src/hid/disp/oled_display.h **** 
 198              		.loc 6 18 13 is_stmt 1 view -0
 199              		.cfi_startproc
 200              		@ args = 0, pretend = 0, frame = 0
 201              		@ frame_needed = 0, uses_anonymous_args = 0
  18:../../DaisyExamples/libDaisy//src/hid/disp/oled_display.h **** 
 202              		.loc 6 18 13 is_stmt 0 view .LVU29
 203 0000 10B5     		push	{r4, lr}
 204              		.cfi_def_cfa_offset 8
 205              		.cfi_offset 4, -8
 206              		.cfi_offset 14, -4
  18:../../DaisyExamples/libDaisy//src/hid/disp/oled_display.h **** 
 207              		.loc 6 18 13 view .LVU30
 208 0002 0446     		mov	r4, r0
 209              	.LVL11:
ARM GAS  /var/folders/hp/45mn71hd0ps5f5pnytxy5bt00000gn/T//ccdvmoSj.s 			page 22


 210              	.LBB343:
 211              	.LBI343:
  18:../../DaisyExamples/libDaisy//src/hid/disp/oled_display.h **** 
 212              		.loc 6 18 13 is_stmt 1 view .LVU31
 213              	.LBB344:
 214              	.LBI344:
 215              		.loc 8 219 13 view .LVU32
 216              	.LBB345:
 217              	.LBI345:
  23:../../DaisyExamples/libDaisy//src/hid/disp/display.h **** 
 218              		.loc 8 23 13 view .LVU33
  23:../../DaisyExamples/libDaisy//src/hid/disp/display.h **** 
 219              		.loc 8 23 13 is_stmt 0 view .LVU34
 220              	.LBE345:
 221              	.LBE344:
 222              	.LBE343:
  18:../../DaisyExamples/libDaisy//src/hid/disp/oled_display.h **** 
 223              		.loc 6 18 29 view .LVU35
 224 0004 4FF40471 		mov	r1, #528
 225 0008 FFF7FEFF 		bl	_ZdlPvj
 226              	.LVL12:
  18:../../DaisyExamples/libDaisy//src/hid/disp/oled_display.h **** 
 227              		.loc 6 18 29 view .LVU36
 228 000c 2046     		mov	r0, r4
 229 000e 10BD     		pop	{r4, pc}
  18:../../DaisyExamples/libDaisy//src/hid/disp/oled_display.h **** 
 230              		.loc 6 18 29 view .LVU37
 231              		.cfi_endproc
 232              	.LFE2671:
 234              		.section	.text._ZN5daisy11OledDisplayINS_13SSD130xDriverILj128ELj32ENS_19SSD130xI2CTransportEEEE6U
 235              		.align	1
 236              		.p2align 2,,3
 237              		.weak	_ZN5daisy11OledDisplayINS_13SSD130xDriverILj128ELj32ENS_19SSD130xI2CTransportEEEE6UpdateEv
 238              		.syntax unified
 239              		.thumb
 240              		.thumb_func
 242              	_ZN5daisy11OledDisplayINS_13SSD130xDriverILj128ELj32ENS_19SSD130xI2CTransportEEEE6UpdateEv:
 243              	.LVL13:
 244              	.LFB2637:
  35:../../DaisyExamples/libDaisy//src/hid/disp/oled_display.h **** 
  36:../../DaisyExamples/libDaisy//src/hid/disp/oled_display.h ****     /**
  37:../../DaisyExamples/libDaisy//src/hid/disp/oled_display.h ****     Sets the pixel at the specified coordinate to be on/off.
  38:../../DaisyExamples/libDaisy//src/hid/disp/oled_display.h ****     \param x   x Coordinate
  39:../../DaisyExamples/libDaisy//src/hid/disp/oled_display.h ****     \param y   y coordinate
  40:../../DaisyExamples/libDaisy//src/hid/disp/oled_display.h ****     \param on  on or off
  41:../../DaisyExamples/libDaisy//src/hid/disp/oled_display.h ****     */
  42:../../DaisyExamples/libDaisy//src/hid/disp/oled_display.h ****     void DrawPixel(uint_fast8_t x, uint_fast8_t y, bool on) override
  43:../../DaisyExamples/libDaisy//src/hid/disp/oled_display.h ****     {
  44:../../DaisyExamples/libDaisy//src/hid/disp/oled_display.h ****         driver_.DrawPixel(x, y, on);
  45:../../DaisyExamples/libDaisy//src/hid/disp/oled_display.h ****     }
  46:../../DaisyExamples/libDaisy//src/hid/disp/oled_display.h **** 
  47:../../DaisyExamples/libDaisy//src/hid/disp/oled_display.h ****     /** 
  48:../../DaisyExamples/libDaisy//src/hid/disp/oled_display.h ****     Writes the current display buffer to the OLED device using SPI or I2C depending on 
  49:../../DaisyExamples/libDaisy//src/hid/disp/oled_display.h ****     how the object was initialized.
  50:../../DaisyExamples/libDaisy//src/hid/disp/oled_display.h ****     */
  51:../../DaisyExamples/libDaisy//src/hid/disp/oled_display.h ****     void Update() override { driver_.Update(); }
 245              		.loc 6 51 10 is_stmt 1 view -0
ARM GAS  /var/folders/hp/45mn71hd0ps5f5pnytxy5bt00000gn/T//ccdvmoSj.s 			page 23


 246              		.cfi_startproc
 247              		@ args = 0, pretend = 0, frame = 8
 248              		@ frame_needed = 0, uses_anonymous_args = 0
 249              		.loc 6 51 10 is_stmt 0 view .LVU39
 250 0000 2DE9F04F 		push	{r4, r5, r6, r7, r8, r9, r10, fp, lr}
 251              		.cfi_def_cfa_offset 36
 252              		.cfi_offset 4, -36
 253              		.cfi_offset 5, -32
 254              		.cfi_offset 6, -28
 255              		.cfi_offset 7, -24
 256              		.cfi_offset 8, -20
 257              		.cfi_offset 9, -16
 258              		.cfi_offset 10, -12
 259              		.cfi_offset 11, -8
 260              		.cfi_offset 14, -4
 261              	.LBB358:
 262              	.LBB359:
 263              	.LBB360:
 264              	.LBB361:
  45:../../DaisyExamples/libDaisy//src/dev/oled_ssd130x.h ****     };
 265              		.loc 7 45 30 view .LVU40
 266 0004 4FF0B008 		mov	r8, #176
 267              	.LBE361:
 268              	.LBE360:
 269              	.LBE359:
 270              	.LBE358:
 271              		.loc 6 51 10 view .LVU41
 272 0008 85B0     		sub	sp, sp, #20
 273              		.cfi_def_cfa_offset 56
 274              		.loc 6 51 10 view .LVU42
 275 000a 0546     		mov	r5, r0
 276              	.LVL14:
 277              	.LBB373:
 278              	.LBI358:
 367:../../DaisyExamples/libDaisy//src/dev/oled_ssd130x.h ****         }
 368:../../DaisyExamples/libDaisy//src/dev/oled_ssd130x.h ****     };
 369:../../DaisyExamples/libDaisy//src/dev/oled_ssd130x.h **** 
 370:../../DaisyExamples/libDaisy//src/dev/oled_ssd130x.h ****     /**
 371:../../DaisyExamples/libDaisy//src/dev/oled_ssd130x.h ****      * Update the display 
 372:../../DaisyExamples/libDaisy//src/dev/oled_ssd130x.h ****     */
 373:../../DaisyExamples/libDaisy//src/dev/oled_ssd130x.h ****     void Update()
 279              		.loc 7 373 10 is_stmt 1 view .LVU43
 280              	.LBB372:
 374:../../DaisyExamples/libDaisy//src/dev/oled_ssd130x.h ****     {
 375:../../DaisyExamples/libDaisy//src/dev/oled_ssd130x.h ****         uint8_t i;
 376:../../DaisyExamples/libDaisy//src/dev/oled_ssd130x.h ****         uint8_t high_column_addr;
 377:../../DaisyExamples/libDaisy//src/dev/oled_ssd130x.h ****         switch(height)
 378:../../DaisyExamples/libDaisy//src/dev/oled_ssd130x.h ****         {
 379:../../DaisyExamples/libDaisy//src/dev/oled_ssd130x.h ****             case 32: high_column_addr = 0x12; break;
 380:../../DaisyExamples/libDaisy//src/dev/oled_ssd130x.h **** 
 381:../../DaisyExamples/libDaisy//src/dev/oled_ssd130x.h ****             default: high_column_addr = 0x10; break;
 382:../../DaisyExamples/libDaisy//src/dev/oled_ssd130x.h ****         }
 383:../../DaisyExamples/libDaisy//src/dev/oled_ssd130x.h ****         for(i = 0; i < (height / 8); i++)
 281              		.loc 7 383 22 view .LVU44
 282              	.LBB364:
 283              	.LBB362:
  45:../../DaisyExamples/libDaisy//src/dev/oled_ssd130x.h ****     };
ARM GAS  /var/folders/hp/45mn71hd0ps5f5pnytxy5bt00000gn/T//ccdvmoSj.s 			page 24


 284              		.loc 7 45 30 is_stmt 0 view .LVU45
 285 000c 00F10807 		add	r7, r0, #8
 286              	.LVL15:
  45:../../DaisyExamples/libDaisy//src/dev/oled_ssd130x.h ****     };
 287              		.loc 7 45 30 view .LVU46
 288 0010 00F18F06 		add	r6, r0, #143
 289 0014 00F28F29 		addw	r9, r0, #655
 290              	.LVL16:
 291              	.L11:
  45:../../DaisyExamples/libDaisy//src/dev/oled_ssd130x.h ****     };
 292              		.loc 7 45 30 view .LVU47
 293              	.LBE362:
 294              	.LBI360:
  42:../../DaisyExamples/libDaisy//src/dev/oled_ssd130x.h ****     {
 295              		.loc 7 42 10 is_stmt 1 view .LVU48
 296              	.LBB363:
  44:../../DaisyExamples/libDaisy//src/dev/oled_ssd130x.h ****         i2c_.TransmitBlocking(i2c_address_, buf, 2, 1000);
 297              		.loc 7 44 9 view .LVU49
  45:../../DaisyExamples/libDaisy//src/dev/oled_ssd130x.h ****     };
 298              		.loc 7 45 30 is_stmt 0 view .LVU50
 299 0018 4FF47A7B 		mov	fp, #1000
  44:../../DaisyExamples/libDaisy//src/dev/oled_ssd130x.h ****         i2c_.TransmitBlocking(i2c_address_, buf, 2, 1000);
 300              		.loc 7 44 17 view .LVU51
 301 001c 4FF0000A 		mov	r10, #0
  45:../../DaisyExamples/libDaisy//src/dev/oled_ssd130x.h ****     };
 302              		.loc 7 45 30 view .LVU52
 303 0020 297B     		ldrb	r1, [r5, #12]	@ zero_extendqisi2
 304 0022 0223     		movs	r3, #2
 305 0024 03AA     		add	r2, sp, #12
 306 0026 3846     		mov	r0, r7
 307 0028 CDF800B0 		str	fp, [sp]
 308 002c A6F18004 		sub	r4, r6, #128
  44:../../DaisyExamples/libDaisy//src/dev/oled_ssd130x.h ****         i2c_.TransmitBlocking(i2c_address_, buf, 2, 1000);
 309              		.loc 7 44 17 view .LVU53
 310 0030 8DF80CA0 		strb	r10, [sp, #12]
  44:../../DaisyExamples/libDaisy//src/dev/oled_ssd130x.h ****         i2c_.TransmitBlocking(i2c_address_, buf, 2, 1000);
 311              		.loc 7 44 36 view .LVU54
 312 0034 8DF80D80 		strb	r8, [sp, #13]
  45:../../DaisyExamples/libDaisy//src/dev/oled_ssd130x.h ****     };
 313              		.loc 7 45 9 is_stmt 1 view .LVU55
  45:../../DaisyExamples/libDaisy//src/dev/oled_ssd130x.h ****     };
 314              		.loc 7 45 30 is_stmt 0 view .LVU56
 315 0038 FFF7FEFF 		bl	_ZN5daisy9I2CHandle16TransmitBlockingEtPhtm
 316              	.LVL17:
  45:../../DaisyExamples/libDaisy//src/dev/oled_ssd130x.h ****     };
 317              		.loc 7 45 30 view .LVU57
 318              	.LBE363:
 319              	.LBE364:
 320              	.LBB365:
 321              	.LBI365:
  42:../../DaisyExamples/libDaisy//src/dev/oled_ssd130x.h ****     {
 322              		.loc 7 42 10 is_stmt 1 view .LVU58
 323              	.LBB366:
  44:../../DaisyExamples/libDaisy//src/dev/oled_ssd130x.h ****         i2c_.TransmitBlocking(i2c_address_, buf, 2, 1000);
 324              		.loc 7 44 9 view .LVU59
  45:../../DaisyExamples/libDaisy//src/dev/oled_ssd130x.h ****     };
 325              		.loc 7 45 30 is_stmt 0 view .LVU60
ARM GAS  /var/folders/hp/45mn71hd0ps5f5pnytxy5bt00000gn/T//ccdvmoSj.s 			page 25


 326 003c 297B     		ldrb	r1, [r5, #12]	@ zero_extendqisi2
 327 003e 0223     		movs	r3, #2
 328 0040 03AA     		add	r2, sp, #12
 329 0042 3846     		mov	r0, r7
 330 0044 CDF800B0 		str	fp, [sp]
  44:../../DaisyExamples/libDaisy//src/dev/oled_ssd130x.h ****         i2c_.TransmitBlocking(i2c_address_, buf, 2, 1000);
 331              		.loc 7 44 17 view .LVU61
 332 0048 8DF80CA0 		strb	r10, [sp, #12]
  44:../../DaisyExamples/libDaisy//src/dev/oled_ssd130x.h ****         i2c_.TransmitBlocking(i2c_address_, buf, 2, 1000);
 333              		.loc 7 44 36 view .LVU62
 334 004c 8DF80DA0 		strb	r10, [sp, #13]
  45:../../DaisyExamples/libDaisy//src/dev/oled_ssd130x.h ****     };
 335              		.loc 7 45 9 is_stmt 1 view .LVU63
  45:../../DaisyExamples/libDaisy//src/dev/oled_ssd130x.h ****     };
 336              		.loc 7 45 30 is_stmt 0 view .LVU64
 337 0050 FFF7FEFF 		bl	_ZN5daisy9I2CHandle16TransmitBlockingEtPhtm
 338              	.LVL18:
  45:../../DaisyExamples/libDaisy//src/dev/oled_ssd130x.h ****     };
 339              		.loc 7 45 30 view .LVU65
 340              	.LBE366:
 341              	.LBE365:
 342              	.LBB367:
 343              	.LBI367:
  42:../../DaisyExamples/libDaisy//src/dev/oled_ssd130x.h ****     {
 344              		.loc 7 42 10 is_stmt 1 view .LVU66
 345              	.LBB368:
  44:../../DaisyExamples/libDaisy//src/dev/oled_ssd130x.h ****         i2c_.TransmitBlocking(i2c_address_, buf, 2, 1000);
 346              		.loc 7 44 9 view .LVU67
  44:../../DaisyExamples/libDaisy//src/dev/oled_ssd130x.h ****         i2c_.TransmitBlocking(i2c_address_, buf, 2, 1000);
 347              		.loc 7 44 36 is_stmt 0 view .LVU68
 348 0054 1220     		movs	r0, #18
  45:../../DaisyExamples/libDaisy//src/dev/oled_ssd130x.h ****     };
 349              		.loc 7 45 30 view .LVU69
 350 0056 CDF800B0 		str	fp, [sp]
 351 005a 0223     		movs	r3, #2
 352 005c 03AA     		add	r2, sp, #12
  44:../../DaisyExamples/libDaisy//src/dev/oled_ssd130x.h ****         i2c_.TransmitBlocking(i2c_address_, buf, 2, 1000);
 353              		.loc 7 44 36 view .LVU70
 354 005e 8DF80D00 		strb	r0, [sp, #13]
  45:../../DaisyExamples/libDaisy//src/dev/oled_ssd130x.h ****     };
 355              		.loc 7 45 9 is_stmt 1 view .LVU71
  45:../../DaisyExamples/libDaisy//src/dev/oled_ssd130x.h ****     };
 356              		.loc 7 45 30 is_stmt 0 view .LVU72
 357 0062 3846     		mov	r0, r7
 358 0064 297B     		ldrb	r1, [r5, #12]	@ zero_extendqisi2
  44:../../DaisyExamples/libDaisy//src/dev/oled_ssd130x.h ****         i2c_.TransmitBlocking(i2c_address_, buf, 2, 1000);
 359              		.loc 7 44 17 view .LVU73
 360 0066 8DF80CA0 		strb	r10, [sp, #12]
  45:../../DaisyExamples/libDaisy//src/dev/oled_ssd130x.h ****     };
 361              		.loc 7 45 30 view .LVU74
 362 006a FFF7FEFF 		bl	_ZN5daisy9I2CHandle16TransmitBlockingEtPhtm
 363              	.LVL19:
  45:../../DaisyExamples/libDaisy//src/dev/oled_ssd130x.h ****     };
 364              		.loc 7 45 30 view .LVU75
 365              	.LBE368:
 366              	.LBE367:
 367              	.LBB369:
ARM GAS  /var/folders/hp/45mn71hd0ps5f5pnytxy5bt00000gn/T//ccdvmoSj.s 			page 26


 368              	.LBI369:
  48:../../DaisyExamples/libDaisy//src/dev/oled_ssd130x.h ****     {
 369              		.loc 7 48 10 is_stmt 1 view .LVU76
 370              	.LBB370:
  50:../../DaisyExamples/libDaisy//src/dev/oled_ssd130x.h ****         {
 371              		.loc 7 50 29 view .LVU77
 372              	.L10:
 373              	.LBB371:
  52:../../DaisyExamples/libDaisy//src/dev/oled_ssd130x.h ****             i2c_.TransmitBlocking(i2c_address_, buf, 2, 1000);
 374              		.loc 7 52 13 view .LVU78
  53:../../DaisyExamples/libDaisy//src/dev/oled_ssd130x.h ****         }
 375              		.loc 7 53 34 is_stmt 0 view .LVU79
 376 006e 4FF47A70 		mov	r0, #1000
  52:../../DaisyExamples/libDaisy//src/dev/oled_ssd130x.h ****             i2c_.TransmitBlocking(i2c_address_, buf, 2, 1000);
 377              		.loc 7 52 44 view .LVU80
 378 0072 14F801CF 		ldrb	ip, [r4, #1]!	@ zero_extendqisi2
 379              	.LVL20:
  52:../../DaisyExamples/libDaisy//src/dev/oled_ssd130x.h ****             i2c_.TransmitBlocking(i2c_address_, buf, 2, 1000);
 380              		.loc 7 52 21 view .LVU81
 381 0076 4FF0400E 		mov	lr, #64
  53:../../DaisyExamples/libDaisy//src/dev/oled_ssd130x.h ****         }
 382              		.loc 7 53 34 view .LVU82
 383 007a 297B     		ldrb	r1, [r5, #12]	@ zero_extendqisi2
 384 007c 0223     		movs	r3, #2
 385 007e 0090     		str	r0, [sp]
 386 0080 03AA     		add	r2, sp, #12
 387 0082 3846     		mov	r0, r7
  52:../../DaisyExamples/libDaisy//src/dev/oled_ssd130x.h ****             i2c_.TransmitBlocking(i2c_address_, buf, 2, 1000);
 388              		.loc 7 52 21 view .LVU83
 389 0084 8DF80CE0 		strb	lr, [sp, #12]
  52:../../DaisyExamples/libDaisy//src/dev/oled_ssd130x.h ****             i2c_.TransmitBlocking(i2c_address_, buf, 2, 1000);
 390              		.loc 7 52 44 view .LVU84
 391 0088 8DF80DC0 		strb	ip, [sp, #13]
  53:../../DaisyExamples/libDaisy//src/dev/oled_ssd130x.h ****         }
 392              		.loc 7 53 13 is_stmt 1 view .LVU85
  53:../../DaisyExamples/libDaisy//src/dev/oled_ssd130x.h ****         }
 393              		.loc 7 53 34 is_stmt 0 view .LVU86
 394 008c FFF7FEFF 		bl	_ZN5daisy9I2CHandle16TransmitBlockingEtPhtm
 395              	.LVL21:
 396              	.LBE371:
  50:../../DaisyExamples/libDaisy//src/dev/oled_ssd130x.h ****         {
 397              		.loc 7 50 9 is_stmt 1 view .LVU87
  50:../../DaisyExamples/libDaisy//src/dev/oled_ssd130x.h ****         {
 398              		.loc 7 50 29 view .LVU88
 399 0090 B442     		cmp	r4, r6
 400 0092 ECD1     		bne	.L10
 401              	.LVL22:
  50:../../DaisyExamples/libDaisy//src/dev/oled_ssd130x.h ****         {
 402              		.loc 7 50 29 is_stmt 0 view .LVU89
 403              	.LBE370:
 404              	.LBE369:
 405              		.loc 7 383 9 is_stmt 1 view .LVU90
 406              		.loc 7 383 22 view .LVU91
 407 0094 04F18006 		add	r6, r4, #128
 408 0098 08F10108 		add	r8, r8, #1
 409              	.LVL23:
 410              		.loc 7 383 22 is_stmt 0 view .LVU92
ARM GAS  /var/folders/hp/45mn71hd0ps5f5pnytxy5bt00000gn/T//ccdvmoSj.s 			page 27


 411 009c 4E45     		cmp	r6, r9
 412 009e 5FFA88F8 		uxtb	r8, r8
 413 00a2 B9D1     		bne	.L11
 414              	.LBE372:
 415              	.LBE373:
 416              		.loc 6 51 48 view .LVU93
 417 00a4 05B0     		add	sp, sp, #20
 418              		.cfi_def_cfa_offset 36
 419              		@ sp needed
 420 00a6 BDE8F08F 		pop	{r4, r5, r6, r7, r8, r9, r10, fp, pc}
 421              		.loc 6 51 48 view .LVU94
 422              		.cfi_endproc
 423              	.LFE2637:
 425 00aa 00BF     		.section	.text._ZN5daisy25OneBitGraphicsDisplayImplINS_11OledDisplayINS_13SSD130xDriverILj128ELj32
 426              		.align	1
 427              		.p2align 2,,3
 428              		.weak	_ZN5daisy25OneBitGraphicsDisplayImplINS_11OledDisplayINS_13SSD130xDriverILj128ELj32ENS_19SSD
 429              		.syntax unified
 430              		.thumb
 431              		.thumb_func
 433              	_ZN5daisy25OneBitGraphicsDisplayImplINS_11OledDisplayINS_13SSD130xDriverILj128ELj32ENS_19SSD130xI2C
 434              	.LVL24:
 435              	.LFB2658:
 220:../../DaisyExamples/libDaisy//src/hid/disp/display.h **** 
 221:../../DaisyExamples/libDaisy//src/hid/disp/display.h ****     void DrawLine(uint_fast8_t x1,
 222:../../DaisyExamples/libDaisy//src/hid/disp/display.h ****                   uint_fast8_t y1,
 223:../../DaisyExamples/libDaisy//src/hid/disp/display.h ****                   uint_fast8_t x2,
 224:../../DaisyExamples/libDaisy//src/hid/disp/display.h ****                   uint_fast8_t y2,
 225:../../DaisyExamples/libDaisy//src/hid/disp/display.h ****                   bool         on) override
 226:../../DaisyExamples/libDaisy//src/hid/disp/display.h ****     {
 227:../../DaisyExamples/libDaisy//src/hid/disp/display.h ****         int_fast16_t deltaX = abs((int_fast16_t)x2 - (int_fast16_t)x1);
 228:../../DaisyExamples/libDaisy//src/hid/disp/display.h ****         int_fast16_t deltaY = abs((int_fast16_t)y2 - (int_fast16_t)y1);
 229:../../DaisyExamples/libDaisy//src/hid/disp/display.h ****         int_fast16_t signX  = ((x1 < x2) ? 1 : -1);
 230:../../DaisyExamples/libDaisy//src/hid/disp/display.h ****         int_fast16_t signY  = ((y1 < y2) ? 1 : -1);
 231:../../DaisyExamples/libDaisy//src/hid/disp/display.h ****         int_fast16_t error  = deltaX - deltaY;
 232:../../DaisyExamples/libDaisy//src/hid/disp/display.h ****         int_fast16_t error2;
 233:../../DaisyExamples/libDaisy//src/hid/disp/display.h **** 
 234:../../DaisyExamples/libDaisy//src/hid/disp/display.h ****         // If we write "ChildType::DrawPixel(x2, y2, on);", we end up with
 235:../../DaisyExamples/libDaisy//src/hid/disp/display.h ****         // all sorts of weird compiler errors when the Child class is a template
 236:../../DaisyExamples/libDaisy//src/hid/disp/display.h ****         // class. The only way around this is to use this very verbose syntax:
 237:../../DaisyExamples/libDaisy//src/hid/disp/display.h ****         ((ChildType*)(this))->ChildType::DrawPixel(x2, y2, on);
 238:../../DaisyExamples/libDaisy//src/hid/disp/display.h **** 
 239:../../DaisyExamples/libDaisy//src/hid/disp/display.h ****         while((x1 != x2) || (y1 != y2))
 240:../../DaisyExamples/libDaisy//src/hid/disp/display.h ****         {
 241:../../DaisyExamples/libDaisy//src/hid/disp/display.h ****             ((ChildType*)(this))->ChildType::DrawPixel(x1, y1, on);
 242:../../DaisyExamples/libDaisy//src/hid/disp/display.h ****             error2 = error * 2;
 243:../../DaisyExamples/libDaisy//src/hid/disp/display.h ****             if(error2 > -deltaY)
 244:../../DaisyExamples/libDaisy//src/hid/disp/display.h ****             {
 245:../../DaisyExamples/libDaisy//src/hid/disp/display.h ****                 error -= deltaY;
 246:../../DaisyExamples/libDaisy//src/hid/disp/display.h ****                 x1 += signX;
 247:../../DaisyExamples/libDaisy//src/hid/disp/display.h ****             }
 248:../../DaisyExamples/libDaisy//src/hid/disp/display.h **** 
 249:../../DaisyExamples/libDaisy//src/hid/disp/display.h ****             if(error2 < deltaX)
 250:../../DaisyExamples/libDaisy//src/hid/disp/display.h ****             {
 251:../../DaisyExamples/libDaisy//src/hid/disp/display.h ****                 error += deltaX;
 252:../../DaisyExamples/libDaisy//src/hid/disp/display.h ****                 y1 += signY;
 253:../../DaisyExamples/libDaisy//src/hid/disp/display.h ****             }
ARM GAS  /var/folders/hp/45mn71hd0ps5f5pnytxy5bt00000gn/T//ccdvmoSj.s 			page 28


 254:../../DaisyExamples/libDaisy//src/hid/disp/display.h ****         }
 255:../../DaisyExamples/libDaisy//src/hid/disp/display.h ****     }
 256:../../DaisyExamples/libDaisy//src/hid/disp/display.h **** 
 257:../../DaisyExamples/libDaisy//src/hid/disp/display.h ****     void DrawRect(uint_fast8_t x1,
 258:../../DaisyExamples/libDaisy//src/hid/disp/display.h ****                   uint_fast8_t y1,
 259:../../DaisyExamples/libDaisy//src/hid/disp/display.h ****                   uint_fast8_t x2,
 260:../../DaisyExamples/libDaisy//src/hid/disp/display.h ****                   uint_fast8_t y2,
 261:../../DaisyExamples/libDaisy//src/hid/disp/display.h ****                   bool         on,
 262:../../DaisyExamples/libDaisy//src/hid/disp/display.h ****                   bool         fill = false) override
 263:../../DaisyExamples/libDaisy//src/hid/disp/display.h ****     {
 264:../../DaisyExamples/libDaisy//src/hid/disp/display.h ****         if(fill)
 265:../../DaisyExamples/libDaisy//src/hid/disp/display.h ****         {
 266:../../DaisyExamples/libDaisy//src/hid/disp/display.h ****             for(uint_fast8_t x = x1; x <= x2; x++)
 267:../../DaisyExamples/libDaisy//src/hid/disp/display.h ****             {
 268:../../DaisyExamples/libDaisy//src/hid/disp/display.h ****                 for(uint_fast8_t y = y1; y <= y2; y++)
 269:../../DaisyExamples/libDaisy//src/hid/disp/display.h ****                 {
 270:../../DaisyExamples/libDaisy//src/hid/disp/display.h ****                     ((ChildType*)(this))->ChildType::DrawPixel(x, y, on);
 271:../../DaisyExamples/libDaisy//src/hid/disp/display.h ****                 }
 272:../../DaisyExamples/libDaisy//src/hid/disp/display.h ****             }
 273:../../DaisyExamples/libDaisy//src/hid/disp/display.h ****         }
 274:../../DaisyExamples/libDaisy//src/hid/disp/display.h ****         else
 275:../../DaisyExamples/libDaisy//src/hid/disp/display.h ****         {
 276:../../DaisyExamples/libDaisy//src/hid/disp/display.h ****             ((ChildType*)(this))->ChildType::DrawLine(x1, y1, x2, y1, on);
 277:../../DaisyExamples/libDaisy//src/hid/disp/display.h ****             ((ChildType*)(this))->ChildType::DrawLine(x2, y1, x2, y2, on);
 278:../../DaisyExamples/libDaisy//src/hid/disp/display.h ****             ((ChildType*)(this))->ChildType::DrawLine(x2, y2, x1, y2, on);
 279:../../DaisyExamples/libDaisy//src/hid/disp/display.h ****             ((ChildType*)(this))->ChildType::DrawLine(x1, y2, x1, y1, on);
 280:../../DaisyExamples/libDaisy//src/hid/disp/display.h ****         }
 281:../../DaisyExamples/libDaisy//src/hid/disp/display.h ****     }
 282:../../DaisyExamples/libDaisy//src/hid/disp/display.h **** 
 283:../../DaisyExamples/libDaisy//src/hid/disp/display.h ****     void DrawArc(uint_fast8_t x,
 284:../../DaisyExamples/libDaisy//src/hid/disp/display.h ****                  uint_fast8_t y,
 285:../../DaisyExamples/libDaisy//src/hid/disp/display.h ****                  uint_fast8_t radius,
 286:../../DaisyExamples/libDaisy//src/hid/disp/display.h ****                  int_fast16_t start_angle,
 287:../../DaisyExamples/libDaisy//src/hid/disp/display.h ****                  int_fast16_t sweep,
 288:../../DaisyExamples/libDaisy//src/hid/disp/display.h ****                  bool         on) override
 289:../../DaisyExamples/libDaisy//src/hid/disp/display.h ****     {
 290:../../DaisyExamples/libDaisy//src/hid/disp/display.h ****         // Values to calculate the circle
 291:../../DaisyExamples/libDaisy//src/hid/disp/display.h ****         int_fast16_t t_x, t_y, err, e2;
 292:../../DaisyExamples/libDaisy//src/hid/disp/display.h **** 
 293:../../DaisyExamples/libDaisy//src/hid/disp/display.h ****         // Temporary values to speed up comparisons
 294:../../DaisyExamples/libDaisy//src/hid/disp/display.h ****         float t_sxy, t_syx, t_sxny, t_synx;
 295:../../DaisyExamples/libDaisy//src/hid/disp/display.h ****         float t_exy, t_eyx, t_exny, t_eynx;
 296:../../DaisyExamples/libDaisy//src/hid/disp/display.h **** 
 297:../../DaisyExamples/libDaisy//src/hid/disp/display.h ****         float start_angle_rad, end_angle_rad;
 298:../../DaisyExamples/libDaisy//src/hid/disp/display.h ****         float start_x, start_y, end_x, end_y;
 299:../../DaisyExamples/libDaisy//src/hid/disp/display.h **** 
 300:../../DaisyExamples/libDaisy//src/hid/disp/display.h ****         bool d1, d2, d3, d4;
 301:../../DaisyExamples/libDaisy//src/hid/disp/display.h **** 
 302:../../DaisyExamples/libDaisy//src/hid/disp/display.h ****         d1 = d2 = d3 = d4 = true;
 303:../../DaisyExamples/libDaisy//src/hid/disp/display.h **** 
 304:../../DaisyExamples/libDaisy//src/hid/disp/display.h ****         bool circle = false;
 305:../../DaisyExamples/libDaisy//src/hid/disp/display.h **** 
 306:../../DaisyExamples/libDaisy//src/hid/disp/display.h ****         if(sweep < 0)
 307:../../DaisyExamples/libDaisy//src/hid/disp/display.h ****         {
 308:../../DaisyExamples/libDaisy//src/hid/disp/display.h ****             start_angle += sweep;
 309:../../DaisyExamples/libDaisy//src/hid/disp/display.h ****             sweep = -sweep;
 310:../../DaisyExamples/libDaisy//src/hid/disp/display.h ****         }
ARM GAS  /var/folders/hp/45mn71hd0ps5f5pnytxy5bt00000gn/T//ccdvmoSj.s 			page 29


 311:../../DaisyExamples/libDaisy//src/hid/disp/display.h **** 
 312:../../DaisyExamples/libDaisy//src/hid/disp/display.h ****         start_angle_rad = deg2rad(start_angle);
 313:../../DaisyExamples/libDaisy//src/hid/disp/display.h ****         end_angle_rad   = deg2rad(start_angle + sweep);
 314:../../DaisyExamples/libDaisy//src/hid/disp/display.h **** 
 315:../../DaisyExamples/libDaisy//src/hid/disp/display.h ****         start_x = cos(start_angle_rad) * radius;
 316:../../DaisyExamples/libDaisy//src/hid/disp/display.h ****         start_y = -sin(start_angle_rad) * radius;
 317:../../DaisyExamples/libDaisy//src/hid/disp/display.h ****         end_x   = cos(end_angle_rad) * radius;
 318:../../DaisyExamples/libDaisy//src/hid/disp/display.h ****         end_y   = -sin(end_angle_rad) * radius;
 319:../../DaisyExamples/libDaisy//src/hid/disp/display.h **** 
 320:../../DaisyExamples/libDaisy//src/hid/disp/display.h ****         // Check if start and endpoint are very near
 321:../../DaisyExamples/libDaisy//src/hid/disp/display.h ****         if((end_x - start_x) * (end_x - start_x)
 322:../../DaisyExamples/libDaisy//src/hid/disp/display.h ****                + (end_y - start_y) * (end_y - start_y)
 323:../../DaisyExamples/libDaisy//src/hid/disp/display.h ****            < 2.0f)
 324:../../DaisyExamples/libDaisy//src/hid/disp/display.h ****         {
 325:../../DaisyExamples/libDaisy//src/hid/disp/display.h ****             if(sweep > 180)
 326:../../DaisyExamples/libDaisy//src/hid/disp/display.h ****                 circle = true;
 327:../../DaisyExamples/libDaisy//src/hid/disp/display.h ****             else
 328:../../DaisyExamples/libDaisy//src/hid/disp/display.h ****                 // Nothing to draw
 329:../../DaisyExamples/libDaisy//src/hid/disp/display.h ****                 return;
 330:../../DaisyExamples/libDaisy//src/hid/disp/display.h ****         }
 331:../../DaisyExamples/libDaisy//src/hid/disp/display.h **** 
 332:../../DaisyExamples/libDaisy//src/hid/disp/display.h ****         t_x = -radius;
 333:../../DaisyExamples/libDaisy//src/hid/disp/display.h ****         t_y = 0;
 334:../../DaisyExamples/libDaisy//src/hid/disp/display.h ****         err = 2 - 2 * radius;
 335:../../DaisyExamples/libDaisy//src/hid/disp/display.h **** 
 336:../../DaisyExamples/libDaisy//src/hid/disp/display.h ****         do
 337:../../DaisyExamples/libDaisy//src/hid/disp/display.h ****         {
 338:../../DaisyExamples/libDaisy//src/hid/disp/display.h ****             if(!circle)
 339:../../DaisyExamples/libDaisy//src/hid/disp/display.h ****             {
 340:../../DaisyExamples/libDaisy//src/hid/disp/display.h ****                 t_sxy  = start_x * t_y;
 341:../../DaisyExamples/libDaisy//src/hid/disp/display.h ****                 t_syx  = start_y * t_x;
 342:../../DaisyExamples/libDaisy//src/hid/disp/display.h ****                 t_sxny = start_x * -t_y;
 343:../../DaisyExamples/libDaisy//src/hid/disp/display.h ****                 t_synx = start_y * -t_x;
 344:../../DaisyExamples/libDaisy//src/hid/disp/display.h ****                 t_exy  = end_x * t_y;
 345:../../DaisyExamples/libDaisy//src/hid/disp/display.h ****                 t_eyx  = end_y * t_x;
 346:../../DaisyExamples/libDaisy//src/hid/disp/display.h ****                 t_exny = end_x * -t_y;
 347:../../DaisyExamples/libDaisy//src/hid/disp/display.h ****                 t_eynx = end_y * -t_x;
 348:../../DaisyExamples/libDaisy//src/hid/disp/display.h **** 
 349:../../DaisyExamples/libDaisy//src/hid/disp/display.h ****                 if(sweep > 180)
 350:../../DaisyExamples/libDaisy//src/hid/disp/display.h ****                 {
 351:../../DaisyExamples/libDaisy//src/hid/disp/display.h ****                     d1 = (t_sxy - t_synx < 0 || t_exy - t_eynx > 0);
 352:../../DaisyExamples/libDaisy//src/hid/disp/display.h ****                     d2 = (t_sxy - t_syx < 0 || t_exy - t_eyx > 0);
 353:../../DaisyExamples/libDaisy//src/hid/disp/display.h ****                     d3 = (t_sxny - t_syx < 0 || t_exny - t_eyx > 0);
 354:../../DaisyExamples/libDaisy//src/hid/disp/display.h ****                     d4 = (t_sxny - t_synx < 0 || t_exny - t_eynx > 0);
 355:../../DaisyExamples/libDaisy//src/hid/disp/display.h ****                 }
 356:../../DaisyExamples/libDaisy//src/hid/disp/display.h ****                 else
 357:../../DaisyExamples/libDaisy//src/hid/disp/display.h ****                 {
 358:../../DaisyExamples/libDaisy//src/hid/disp/display.h ****                     d1 = (t_sxy - t_synx < 0 && t_exy - t_eynx > 0);
 359:../../DaisyExamples/libDaisy//src/hid/disp/display.h ****                     d2 = (t_sxy - t_syx < 0 && t_exy - t_eyx > 0);
 360:../../DaisyExamples/libDaisy//src/hid/disp/display.h ****                     d3 = (t_sxny - t_syx < 0 && t_exny - t_eyx > 0);
 361:../../DaisyExamples/libDaisy//src/hid/disp/display.h ****                     d4 = (t_sxny - t_synx < 0 && t_exny - t_eynx > 0);
 362:../../DaisyExamples/libDaisy//src/hid/disp/display.h ****                 }
 363:../../DaisyExamples/libDaisy//src/hid/disp/display.h ****             }
 364:../../DaisyExamples/libDaisy//src/hid/disp/display.h **** 
 365:../../DaisyExamples/libDaisy//src/hid/disp/display.h ****             if(d1)
 366:../../DaisyExamples/libDaisy//src/hid/disp/display.h ****                 ((ChildType*)(this))
 367:../../DaisyExamples/libDaisy//src/hid/disp/display.h ****                     ->ChildType::DrawPixel(x - t_x, y + t_y, on);
ARM GAS  /var/folders/hp/45mn71hd0ps5f5pnytxy5bt00000gn/T//ccdvmoSj.s 			page 30


 368:../../DaisyExamples/libDaisy//src/hid/disp/display.h ****             if(d2)
 369:../../DaisyExamples/libDaisy//src/hid/disp/display.h ****                 ((ChildType*)(this))
 370:../../DaisyExamples/libDaisy//src/hid/disp/display.h ****                     ->ChildType::DrawPixel(x + t_x, y + t_y, on);
 371:../../DaisyExamples/libDaisy//src/hid/disp/display.h ****             if(d3)
 372:../../DaisyExamples/libDaisy//src/hid/disp/display.h ****                 ((ChildType*)(this))
 373:../../DaisyExamples/libDaisy//src/hid/disp/display.h ****                     ->ChildType::DrawPixel(x + t_x, y - t_y, on);
 374:../../DaisyExamples/libDaisy//src/hid/disp/display.h ****             if(d4)
 375:../../DaisyExamples/libDaisy//src/hid/disp/display.h ****                 ((ChildType*)(this))
 376:../../DaisyExamples/libDaisy//src/hid/disp/display.h ****                     ->ChildType::DrawPixel(x - t_x, y - t_y, on);
 377:../../DaisyExamples/libDaisy//src/hid/disp/display.h **** 
 378:../../DaisyExamples/libDaisy//src/hid/disp/display.h ****             e2 = err;
 379:../../DaisyExamples/libDaisy//src/hid/disp/display.h ****             if(e2 <= t_y)
 380:../../DaisyExamples/libDaisy//src/hid/disp/display.h ****             {
 381:../../DaisyExamples/libDaisy//src/hid/disp/display.h ****                 t_y++;
 382:../../DaisyExamples/libDaisy//src/hid/disp/display.h ****                 err = err + (t_y * 2 + 1);
 383:../../DaisyExamples/libDaisy//src/hid/disp/display.h ****                 if(-t_x == t_y && e2 <= t_x)
 384:../../DaisyExamples/libDaisy//src/hid/disp/display.h ****                 {
 385:../../DaisyExamples/libDaisy//src/hid/disp/display.h ****                     e2 = 0;
 386:../../DaisyExamples/libDaisy//src/hid/disp/display.h ****                 }
 387:../../DaisyExamples/libDaisy//src/hid/disp/display.h ****             }
 388:../../DaisyExamples/libDaisy//src/hid/disp/display.h ****             if(e2 > t_x)
 389:../../DaisyExamples/libDaisy//src/hid/disp/display.h ****             {
 390:../../DaisyExamples/libDaisy//src/hid/disp/display.h ****                 t_x++;
 391:../../DaisyExamples/libDaisy//src/hid/disp/display.h ****                 err = err + (t_x * 2 + 1);
 392:../../DaisyExamples/libDaisy//src/hid/disp/display.h ****             }
 393:../../DaisyExamples/libDaisy//src/hid/disp/display.h ****         } while(t_x <= 0);
 394:../../DaisyExamples/libDaisy//src/hid/disp/display.h ****     }
 395:../../DaisyExamples/libDaisy//src/hid/disp/display.h **** 
 396:../../DaisyExamples/libDaisy//src/hid/disp/display.h ****     char WriteChar(char ch, FontDef font, bool on) override
 436              		.loc 8 396 10 is_stmt 1 view -0
 437              		.cfi_startproc
 438              		@ args = 4, pretend = 0, frame = 16
 439              		@ frame_needed = 0, uses_anonymous_args = 0
 440              		.loc 8 396 10 is_stmt 0 view .LVU96
 441 0000 2DE9F04F 		push	{r4, r5, r6, r7, r8, r9, r10, fp, lr}
 442              		.cfi_def_cfa_offset 36
 443              		.cfi_offset 4, -36
 444              		.cfi_offset 5, -32
 445              		.cfi_offset 6, -28
 446              		.cfi_offset 7, -24
 447              		.cfi_offset 8, -20
 448              		.cfi_offset 9, -16
 449              		.cfi_offset 10, -12
 450              		.cfi_offset 11, -8
 451              		.cfi_offset 14, -4
 452 0004 85B0     		sub	sp, sp, #20
 453              		.cfi_def_cfa_offset 56
 454              	.LVL25:
 397:../../DaisyExamples/libDaisy//src/hid/disp/display.h ****     {
 398:../../DaisyExamples/libDaisy//src/hid/disp/display.h ****         uint32_t i, b, j;
 399:../../DaisyExamples/libDaisy//src/hid/disp/display.h **** 
 400:../../DaisyExamples/libDaisy//src/hid/disp/display.h ****         // Check if character is valid
 401:../../DaisyExamples/libDaisy//src/hid/disp/display.h ****         if(ch < 32 || ch > 126)
 455              		.loc 8 401 20 view .LVU97
 456 0006 A1F12005 		sub	r5, r1, #32
 396:../../DaisyExamples/libDaisy//src/hid/disp/display.h ****     {
 457              		.loc 8 396 10 view .LVU98
ARM GAS  /var/folders/hp/45mn71hd0ps5f5pnytxy5bt00000gn/T//ccdvmoSj.s 			page 31


 458 000a 04AC     		add	r4, sp, #16
 459 000c 9DF83870 		ldrb	r7, [sp, #56]	@ zero_extendqisi2
 460 0010 0091     		str	r1, [sp]
 461 0012 04E90C00 		stmdb	r4, {r2, r3}
 462              	.LVL26:
 463              		.loc 8 401 9 view .LVU99
 464 0016 EBB2     		uxtb	r3, r5
 465 0018 5E2B     		cmp	r3, #94
 466 001a 00F29580 		bhi	.L19
 402:../../DaisyExamples/libDaisy//src/hid/disp/display.h ****             return 0;
 403:../../DaisyExamples/libDaisy//src/hid/disp/display.h **** 
 404:../../DaisyExamples/libDaisy//src/hid/disp/display.h ****         // Check remaining space on current line
 405:../../DaisyExamples/libDaisy//src/hid/disp/display.h ****         if(Width() < (currentX_ + font.FontWidth)
 467              		.loc 8 405 17 view .LVU100
 468 001e 0368     		ldr	r3, [r0]
 469 0020 8046     		mov	r8, r0
 470 0022 5D4A     		ldr	r2, .L54
 471 0024 DB68     		ldr	r3, [r3, #12]
 472 0026 9DF80840 		ldrb	r4, [sp, #8]	@ zero_extendqisi2
 473 002a 9342     		cmp	r3, r2
 474 002c 9DF80960 		ldrb	r6, [sp, #9]	@ zero_extendqisi2
 475 0030 40F09480 		bne	.L46
 476 0034 8020     		movs	r0, #128
 477              	.LVL27:
 478              	.L18:
 479              		.loc 8 405 23 view .LVU101
 480 0036 B8F80430 		ldrh	r3, [r8, #4]
 481              		.loc 8 405 33 view .LVU102
 482 003a 2344     		add	r3, r3, r4
 406:../../DaisyExamples/libDaisy//src/hid/disp/display.h ****            || Height() < (currentY_ + font.FontHeight))
 483              		.loc 8 406 12 view .LVU103
 484 003c 8342     		cmp	r3, r0
 485 003e 00F38380 		bgt	.L19
 486              		.loc 8 406 21 discriminator 2 view .LVU104
 487 0042 D8F80030 		ldr	r3, [r8]
 488 0046 554A     		ldr	r2, .L54+4
 489 0048 9B68     		ldr	r3, [r3, #8]
 490 004a 9342     		cmp	r3, r2
 491 004c 40F08880 		bne	.L47
 492              		.loc 8 406 21 view .LVU105
 493 0050 2020     		movs	r0, #32
 494              	.L20:
 495              		.loc 8 406 27 discriminator 2 view .LVU106
 496 0052 B8F80620 		ldrh	r2, [r8, #6]
 497              		.loc 8 406 37 discriminator 2 view .LVU107
 498 0056 9319     		adds	r3, r2, r6
 499              		.loc 8 406 27 discriminator 2 view .LVU108
 500 0058 0192     		str	r2, [sp, #4]
 501              		.loc 8 406 12 discriminator 2 view .LVU109
 502 005a 8342     		cmp	r3, r0
 503 005c 74DC     		bgt	.L19
 504              	.LVL28:
 407:../../DaisyExamples/libDaisy//src/hid/disp/display.h ****         {
 408:../../DaisyExamples/libDaisy//src/hid/disp/display.h ****             // Not enough space on current line
 409:../../DaisyExamples/libDaisy//src/hid/disp/display.h ****             return 0;
 410:../../DaisyExamples/libDaisy//src/hid/disp/display.h ****         }
 411:../../DaisyExamples/libDaisy//src/hid/disp/display.h **** 
ARM GAS  /var/folders/hp/45mn71hd0ps5f5pnytxy5bt00000gn/T//ccdvmoSj.s 			page 32


 412:../../DaisyExamples/libDaisy//src/hid/disp/display.h ****         // Use the font to write
 413:../../DaisyExamples/libDaisy//src/hid/disp/display.h ****         for(i = 0; i < font.FontHeight; i++)
 505              		.loc 8 413 22 is_stmt 1 view .LVU110
 506 005e 002E     		cmp	r6, #0
 507 0060 00F08980 		beq	.L21
 414:../../DaisyExamples/libDaisy//src/hid/disp/display.h ****         {
 415:../../DaisyExamples/libDaisy//src/hid/disp/display.h ****             b = font.data[(ch - 32) * font.FontHeight + i];
 508              		.loc 8 415 37 is_stmt 0 view .LVU111
 509 0064 06FB05F5 		mul	r5, r6, r5
 510 0068 6FF00040 		mvn	r0, #-2147483648
 511              		.loc 8 415 22 view .LVU112
 512 006c 039B     		ldr	r3, [sp, #12]
 513 006e 9646     		mov	lr, r2
 514 0070 2844     		add	r0, r0, r5
 515 0072 2E44     		add	r6, r6, r5
 416:../../DaisyExamples/libDaisy//src/hid/disp/display.h ****             for(j = 0; j < font.FontWidth; j++)
 417:../../DaisyExamples/libDaisy//src/hid/disp/display.h ****             {
 418:../../DaisyExamples/libDaisy//src/hid/disp/display.h ****                 if((b << j) & 0x8000)
 419:../../DaisyExamples/libDaisy//src/hid/disp/display.h ****                 {
 420:../../DaisyExamples/libDaisy//src/hid/disp/display.h ****                     ((ChildType*)(this))
 421:../../DaisyExamples/libDaisy//src/hid/disp/display.h ****                         ->ChildType::DrawPixel(
 422:../../DaisyExamples/libDaisy//src/hid/disp/display.h ****                             currentX_ + j, (currentY_ + i), on);
 423:../../DaisyExamples/libDaisy//src/hid/disp/display.h ****                 }
 424:../../DaisyExamples/libDaisy//src/hid/disp/display.h ****                 else
 425:../../DaisyExamples/libDaisy//src/hid/disp/display.h ****                 {
 426:../../DaisyExamples/libDaisy//src/hid/disp/display.h ****                     ((ChildType*)(this))
 427:../../DaisyExamples/libDaisy//src/hid/disp/display.h ****                         ->ChildType::DrawPixel(
 428:../../DaisyExamples/libDaisy//src/hid/disp/display.h ****                             currentX_ + j, (currentY_ + i), !on);
 429:../../DaisyExamples/libDaisy//src/hid/disp/display.h ****                 }
 430:../../DaisyExamples/libDaisy//src/hid/disp/display.h ****             }
 431:../../DaisyExamples/libDaisy//src/hid/disp/display.h ****         }
 432:../../DaisyExamples/libDaisy//src/hid/disp/display.h **** 
 433:../../DaisyExamples/libDaisy//src/hid/disp/display.h ****         // The current space is now taken
 434:../../DaisyExamples/libDaisy//src/hid/disp/display.h ****         SetCursor(currentX_ + font.FontWidth, currentY_);
 516              		.loc 8 434 19 view .LVU113
 517 0074 B8F804A0 		ldrh	r10, [r8, #4]
 518 0078 03EB4000 		add	r0, r3, r0, lsl #1
 519 007c 023B     		subs	r3, r3, #2
 520 007e 03EB460B 		add	fp, r3, r6, lsl #1
 521              	.LVL29:
 522              	.L24:
 415:../../DaisyExamples/libDaisy//src/hid/disp/display.h ****             for(j = 0; j < font.FontWidth; j++)
 523              		.loc 8 415 15 view .LVU114
 524 0082 30F8026F 		ldrh	r6, [r0, #2]!
 525              	.LVL30:
 416:../../DaisyExamples/libDaisy//src/hid/disp/display.h ****             for(j = 0; j < font.FontWidth; j++)
 526              		.loc 8 416 26 is_stmt 1 view .LVU115
 527 0086 BCB3     		cbz	r4, .L29
 528              	.LBB404:
 529              	.LBB405:
 530              	.LBB406:
 531              	.LBB407:
 532              	.LBB408:
 359:../../DaisyExamples/libDaisy//src/dev/oled_ssd130x.h ****     }
 533              		.loc 7 359 55 is_stmt 0 view .LVU116
 534 0088 0EF00703 		and	r3, lr, #7
 359:../../DaisyExamples/libDaisy//src/dev/oled_ssd130x.h ****     }
ARM GAS  /var/folders/hp/45mn71hd0ps5f5pnytxy5bt00000gn/T//ccdvmoSj.s 			page 33


 535              		.loc 7 359 49 view .LVU117
 536 008c 4FF0010C 		mov	ip, #1
 359:../../DaisyExamples/libDaisy//src/dev/oled_ssd130x.h ****     }
 537              		.loc 7 359 28 view .LVU118
 538 0090 4FEADE02 		lsr	r2, lr, #3
 539 0094 5146     		mov	r1, r10
 359:../../DaisyExamples/libDaisy//src/dev/oled_ssd130x.h ****     }
 540              		.loc 7 359 49 view .LVU119
 541 0096 0CFA03FC 		lsl	ip, ip, r3
 542 009a 0AF11003 		add	r3, r10, #16
 359:../../DaisyExamples/libDaisy//src/dev/oled_ssd130x.h ****     }
 543              		.loc 7 359 42 view .LVU120
 544 009e 4FFA8CFC 		sxtb	ip, ip
 545 00a2 03EBC212 		add	r2, r3, r2, lsl #7
 546              	.LBE408:
 547              	.LBE407:
 548              	.LBE406:
 549              	.LBE405:
 550              	.LBE404:
 416:../../DaisyExamples/libDaisy//src/hid/disp/display.h ****             for(j = 0; j < font.FontWidth; j++)
 551              		.loc 8 416 19 view .LVU121
 552 00a6 0023     		movs	r3, #0
 553              	.LBB426:
 554              	.LBB421:
 555              	.LBB416:
 556              	.LBB412:
 557              	.LBB409:
 359:../../DaisyExamples/libDaisy//src/dev/oled_ssd130x.h ****     }
 558              		.loc 7 359 42 view .LVU122
 559 00a8 6FEA0C09 		mvn	r9, ip
 560 00ac 4244     		add	r2, r2, r8
 561 00ae 0EE0     		b	.L30
 562              	.LVL31:
 563              	.L48:
 359:../../DaisyExamples/libDaisy//src/dev/oled_ssd130x.h ****     }
 564              		.loc 7 359 42 view .LVU123
 565              	.LBE409:
 566              	.LBE412:
 567              	.LBE416:
 568              	.LBE421:
 569              	.LBE426:
 570              	.LBB427:
 571              	.LBI427:
  42:../../DaisyExamples/libDaisy//src/hid/disp/oled_display.h ****     {
 572              		.loc 6 42 10 is_stmt 1 view .LVU124
 573              	.LBB428:
 574              	.LBI428:
 352:../../DaisyExamples/libDaisy//src/dev/oled_ssd130x.h ****     {
 575              		.loc 7 352 10 view .LVU125
 576              	.LBB429:
 354:../../DaisyExamples/libDaisy//src/dev/oled_ssd130x.h ****             return;
 577              		.loc 7 354 9 is_stmt 0 view .LVU126
 578 00b0 7F29     		cmp	r1, #127
 579 00b2 07D8     		bhi	.L26
 580 00b4 BEF11F0F 		cmp	lr, #31
 581 00b8 04D8     		bhi	.L26
 357:../../DaisyExamples/libDaisy//src/dev/oled_ssd130x.h ****         else
ARM GAS  /var/folders/hp/45mn71hd0ps5f5pnytxy5bt00000gn/T//ccdvmoSj.s 			page 34


 582              		.loc 7 357 42 view .LVU127
 583 00ba 1578     		ldrb	r5, [r2]	@ zero_extendqisi2
 356:../../DaisyExamples/libDaisy//src/dev/oled_ssd130x.h ****             buffer_[x + (y / 8) * width] |= (1 << (y % 8));
 584              		.loc 7 356 9 view .LVU128
 585 00bc 9FB1     		cbz	r7, .L28
 586              	.L45:
 356:../../DaisyExamples/libDaisy//src/dev/oled_ssd130x.h ****             buffer_[x + (y / 8) * width] |= (1 << (y % 8));
 587              		.loc 7 356 9 view .LVU129
 588              	.LBE429:
 589              	.LBE428:
 590              	.LBE427:
 591              	.LBB430:
 592              	.LBB422:
 593              	.LBB417:
 357:../../DaisyExamples/libDaisy//src/dev/oled_ssd130x.h ****         else
 594              		.loc 7 357 42 view .LVU130
 595 00be 4CEA0505 		orr	r5, ip, r5
 596 00c2 1570     		strb	r5, [r2]
 597              	.L26:
 598              	.LBE417:
 599              	.LBE422:
 600              	.LBE430:
 416:../../DaisyExamples/libDaisy//src/hid/disp/display.h ****             {
 601              		.loc 8 416 13 is_stmt 1 discriminator 2 view .LVU131
 602 00c4 0133     		adds	r3, r3, #1
 603              	.LVL32:
 416:../../DaisyExamples/libDaisy//src/hid/disp/display.h ****             {
 604              		.loc 8 416 26 discriminator 2 view .LVU132
 605 00c6 0132     		adds	r2, r2, #1
 606 00c8 0131     		adds	r1, r1, #1
 607 00ca 9C42     		cmp	r4, r3
 608 00cc 14D0     		beq	.L29
 609              	.LVL33:
 610              	.L30:
 418:../../DaisyExamples/libDaisy//src/hid/disp/display.h ****                 {
 611              		.loc 8 418 23 is_stmt 0 view .LVU133
 612 00ce 06FA03F5 		lsl	r5, r6, r3
 418:../../DaisyExamples/libDaisy//src/hid/disp/display.h ****                 {
 613              		.loc 8 418 17 view .LVU134
 614 00d2 2D04     		lsls	r5, r5, #16
 615 00d4 ECD4     		bmi	.L48
 616              	.LVL34:
 617              	.LBB431:
 618              	.LBI404:
  42:../../DaisyExamples/libDaisy//src/hid/disp/oled_display.h ****     {
 619              		.loc 6 42 10 is_stmt 1 view .LVU135
 620              	.LBB423:
 621              	.LBI405:
 352:../../DaisyExamples/libDaisy//src/dev/oled_ssd130x.h ****     {
 622              		.loc 7 352 10 view .LVU136
 623              	.LBB418:
 354:../../DaisyExamples/libDaisy//src/dev/oled_ssd130x.h ****             return;
 624              		.loc 7 354 9 is_stmt 0 view .LVU137
 625 00d6 7F29     		cmp	r1, #127
 626 00d8 F4D8     		bhi	.L26
 627 00da BEF11F0F 		cmp	lr, #31
 628 00de F1D8     		bhi	.L26
ARM GAS  /var/folders/hp/45mn71hd0ps5f5pnytxy5bt00000gn/T//ccdvmoSj.s 			page 35


 357:../../DaisyExamples/libDaisy//src/dev/oled_ssd130x.h ****         else
 629              		.loc 7 357 42 view .LVU138
 630 00e0 1578     		ldrb	r5, [r2]	@ zero_extendqisi2
 356:../../DaisyExamples/libDaisy//src/dev/oled_ssd130x.h ****             buffer_[x + (y / 8) * width] |= (1 << (y % 8));
 631              		.loc 7 356 9 view .LVU139
 632 00e2 002F     		cmp	r7, #0
 633 00e4 EBD0     		beq	.L45
 634              	.L28:
 635              	.LVL35:
 636              	.LBB413:
 637              	.LBI407:
 352:../../DaisyExamples/libDaisy//src/dev/oled_ssd130x.h ****     {
 638              		.loc 7 352 10 is_stmt 1 view .LVU140
 352:../../DaisyExamples/libDaisy//src/dev/oled_ssd130x.h ****     {
 639              		.loc 7 352 10 is_stmt 0 view .LVU141
 640              	.LBE413:
 641              	.LBE418:
 642              	.LBE423:
 643              	.LBE431:
 416:../../DaisyExamples/libDaisy//src/hid/disp/display.h ****             {
 644              		.loc 8 416 13 view .LVU142
 645 00e6 0133     		adds	r3, r3, #1
 646              	.LVL36:
 647              	.LBB432:
 648              	.LBB424:
 649              	.LBB419:
 650              	.LBB414:
 651              	.LBB410:
 359:../../DaisyExamples/libDaisy//src/dev/oled_ssd130x.h ****     }
 652              		.loc 7 359 42 view .LVU143
 653 00e8 09EA0505 		and	r5, r9, r5
 654              	.LBE410:
 655              	.LBE414:
 656              	.LBE419:
 657              	.LBE424:
 658              	.LBE432:
 416:../../DaisyExamples/libDaisy//src/hid/disp/display.h ****             {
 659              		.loc 8 416 26 view .LVU144
 660 00ec 0132     		adds	r2, r2, #1
 661 00ee 0131     		adds	r1, r1, #1
 662 00f0 9C42     		cmp	r4, r3
 663              	.LBB433:
 664              	.LBB425:
 665              	.LBB420:
 666              	.LBB415:
 667              	.LBB411:
 359:../../DaisyExamples/libDaisy//src/dev/oled_ssd130x.h ****     }
 668              		.loc 7 359 42 view .LVU145
 669 00f2 02F8015C 		strb	r5, [r2, #-1]
 359:../../DaisyExamples/libDaisy//src/dev/oled_ssd130x.h ****     }
 670              		.loc 7 359 42 view .LVU146
 671              	.LBE411:
 672              	.LBE415:
 673              	.LBE420:
 674              	.LBE425:
 675              	.LBE433:
 416:../../DaisyExamples/libDaisy//src/hid/disp/display.h ****             {
ARM GAS  /var/folders/hp/45mn71hd0ps5f5pnytxy5bt00000gn/T//ccdvmoSj.s 			page 36


 676              		.loc 8 416 13 is_stmt 1 view .LVU147
 677              	.LVL37:
 416:../../DaisyExamples/libDaisy//src/hid/disp/display.h ****             {
 678              		.loc 8 416 26 view .LVU148
 679 00f6 EAD1     		bne	.L30
 680              	.LVL38:
 681              	.L29:
 413:../../DaisyExamples/libDaisy//src/hid/disp/display.h ****         {
 682              		.loc 8 413 9 view .LVU149
 413:../../DaisyExamples/libDaisy//src/hid/disp/display.h ****         {
 683              		.loc 8 413 22 view .LVU150
 684 00f8 5845     		cmp	r0, fp
 685 00fa 0EF1010E 		add	lr, lr, #1
 686 00fe C0D1     		bne	.L24
 687              	.LVL39:
 688              	.L23:
 689              	.LBB434:
 690              	.LBB435:
 173:../../DaisyExamples/libDaisy//src/hid/disp/display.h ****         currentY_ = (y >= Height()) ? Height() - 1 : y;
 691              		.loc 8 173 33 is_stmt 0 view .LVU151
 692 0100 D8F80030 		ldr	r3, [r8]
 693              	.LBE435:
 694              	.LBE434:
 695              		.loc 8 434 18 view .LVU152
 696 0104 5444     		add	r4, r4, r10
 697 0106 2449     		ldr	r1, .L54
 698              	.LBB441:
 699              	.LBB436:
 173:../../DaisyExamples/libDaisy//src/hid/disp/display.h ****         currentY_ = (y >= Height()) ? Height() - 1 : y;
 700              		.loc 8 173 33 view .LVU153
 701 0108 DA68     		ldr	r2, [r3, #12]
 702              	.LBE436:
 703              	.LBE441:
 704              		.loc 8 434 18 view .LVU154
 705 010a A4B2     		uxth	r4, r4
 706              	.LVL40:
 707              	.LBB442:
 708              	.LBI434:
 171:../../DaisyExamples/libDaisy//src/hid/disp/display.h ****     {
 709              		.loc 8 171 10 is_stmt 1 view .LVU155
 710              	.LBB437:
 173:../../DaisyExamples/libDaisy//src/hid/disp/display.h ****         currentY_ = (y >= Height()) ? Height() - 1 : y;
 711              		.loc 8 173 9 view .LVU156
 712 010c 8A42     		cmp	r2, r1
 713 010e 2DD1     		bne	.L49
 173:../../DaisyExamples/libDaisy//src/hid/disp/display.h ****         currentY_ = (y >= Height()) ? Height() - 1 : y;
 714              		.loc 8 173 33 is_stmt 0 view .LVU157
 715 0110 8020     		movs	r0, #128
 716              	.L31:
 173:../../DaisyExamples/libDaisy//src/hid/disp/display.h ****         currentY_ = (y >= Height()) ? Height() - 1 : y;
 717              		.loc 8 173 19 view .LVU158
 718 0112 8442     		cmp	r4, r0
 719 0114 1CD2     		bcs	.L50
 720              	.LVL41:
 721              	.L32:
 174:../../DaisyExamples/libDaisy//src/hid/disp/display.h ****     }
 722              		.loc 8 174 34 view .LVU159
ARM GAS  /var/folders/hp/45mn71hd0ps5f5pnytxy5bt00000gn/T//ccdvmoSj.s 			page 37


 723 0116 9B68     		ldr	r3, [r3, #8]
 724 0118 204A     		ldr	r2, .L54+4
 173:../../DaisyExamples/libDaisy//src/hid/disp/display.h ****         currentY_ = (y >= Height()) ? Height() - 1 : y;
 725              		.loc 8 173 19 view .LVU160
 726 011a A8F80440 		strh	r4, [r8, #4]	@ movhi
 174:../../DaisyExamples/libDaisy//src/hid/disp/display.h ****     }
 727              		.loc 8 174 9 is_stmt 1 view .LVU161
 728 011e 9342     		cmp	r3, r2
 729 0120 21D1     		bne	.L51
 174:../../DaisyExamples/libDaisy//src/hid/disp/display.h ****     }
 730              		.loc 8 174 34 is_stmt 0 view .LVU162
 731 0122 2020     		movs	r0, #32
 732              	.L34:
 174:../../DaisyExamples/libDaisy//src/hid/disp/display.h ****     }
 733              		.loc 8 174 19 view .LVU163
 734 0124 019B     		ldr	r3, [sp, #4]
 735 0126 8342     		cmp	r3, r0
 736 0128 07D3     		bcc	.L35
 174:../../DaisyExamples/libDaisy//src/hid/disp/display.h ****     }
 737              		.loc 8 174 46 view .LVU164
 738 012a D8F80030 		ldr	r3, [r8]
 739 012e 1B4A     		ldr	r2, .L54+4
 740 0130 9B68     		ldr	r3, [r3, #8]
 741 0132 9342     		cmp	r3, r2
 742 0134 29D1     		bne	.L52
 743 0136 1F23     		movs	r3, #31
 744 0138 0193     		str	r3, [sp, #4]
 745              	.LVL42:
 746              	.L35:
 174:../../DaisyExamples/libDaisy//src/hid/disp/display.h ****     }
 747              		.loc 8 174 19 view .LVU165
 748 013a DDE90003 		ldrd	r0, r3, [sp]
 749 013e A8F80630 		strh	r3, [r8, #6]	@ movhi
 750              	.LVL43:
 174:../../DaisyExamples/libDaisy//src/hid/disp/display.h ****     }
 751              		.loc 8 174 19 view .LVU166
 752              	.LBE437:
 753              	.LBE442:
 435:../../DaisyExamples/libDaisy//src/hid/disp/display.h **** 
 436:../../DaisyExamples/libDaisy//src/hid/disp/display.h ****         // Return written char for validation
 437:../../DaisyExamples/libDaisy//src/hid/disp/display.h ****         return ch;
 438:../../DaisyExamples/libDaisy//src/hid/disp/display.h ****     }
 754              		.loc 8 438 5 view .LVU167
 755 0142 05B0     		add	sp, sp, #20
 756              		.cfi_remember_state
 757              		.cfi_def_cfa_offset 36
 758              		@ sp needed
 759 0144 BDE8F08F 		pop	{r4, r5, r6, r7, r8, r9, r10, fp, pc}
 760              	.LVL44:
 761              	.L19:
 762              		.cfi_restore_state
 402:../../DaisyExamples/libDaisy//src/hid/disp/display.h **** 
 763              		.loc 8 402 20 view .LVU168
 764 0148 0020     		movs	r0, #0
 765              		.loc 8 438 5 view .LVU169
 766 014a 05B0     		add	sp, sp, #20
 767              		.cfi_remember_state
ARM GAS  /var/folders/hp/45mn71hd0ps5f5pnytxy5bt00000gn/T//ccdvmoSj.s 			page 38


 768              		.cfi_def_cfa_offset 36
 769              		@ sp needed
 770 014c BDE8F08F 		pop	{r4, r5, r6, r7, r8, r9, r10, fp, pc}
 771              	.LVL45:
 772              	.L50:
 773              		.cfi_restore_state
 774              	.LBB443:
 775              	.LBB438:
 173:../../DaisyExamples/libDaisy//src/hid/disp/display.h ****         currentY_ = (y >= Height()) ? Height() - 1 : y;
 776              		.loc 8 173 44 view .LVU170
 777 0150 DA68     		ldr	r2, [r3, #12]
 778 0152 1149     		ldr	r1, .L54
 779 0154 8A42     		cmp	r2, r1
 780 0156 11D1     		bne	.L53
 781 0158 7F24     		movs	r4, #127
 782              	.LVL46:
 173:../../DaisyExamples/libDaisy//src/hid/disp/display.h ****         currentY_ = (y >= Height()) ? Height() - 1 : y;
 783              		.loc 8 173 44 view .LVU171
 784 015a DCE7     		b	.L32
 785              	.LVL47:
 786              	.L46:
 173:../../DaisyExamples/libDaisy//src/hid/disp/display.h ****         currentY_ = (y >= Height()) ? Height() - 1 : y;
 787              		.loc 8 173 44 view .LVU172
 788              	.LBE438:
 789              	.LBE443:
 405:../../DaisyExamples/libDaisy//src/hid/disp/display.h ****            || Height() < (currentY_ + font.FontHeight))
 790              		.loc 8 405 17 view .LVU173
 791 015c 9847     		blx	r3
 792              	.LVL48:
 405:../../DaisyExamples/libDaisy//src/hid/disp/display.h ****            || Height() < (currentY_ + font.FontHeight))
 793              		.loc 8 405 17 view .LVU174
 794 015e 6AE7     		b	.L18
 795              	.L47:
 406:../../DaisyExamples/libDaisy//src/hid/disp/display.h ****         {
 796              		.loc 8 406 21 discriminator 2 view .LVU175
 797 0160 4046     		mov	r0, r8
 798 0162 9847     		blx	r3
 799              	.LVL49:
 800 0164 75E7     		b	.L20
 801              	.LVL50:
 802              	.L51:
 803              	.LBB444:
 804              	.LBB439:
 174:../../DaisyExamples/libDaisy//src/hid/disp/display.h ****     }
 805              		.loc 8 174 33 view .LVU176
 806 0166 4046     		mov	r0, r8
 807 0168 9847     		blx	r3
 808              	.LVL51:
 809 016a DBE7     		b	.L34
 810              	.LVL52:
 811              	.L49:
 173:../../DaisyExamples/libDaisy//src/hid/disp/display.h ****         currentY_ = (y >= Height()) ? Height() - 1 : y;
 812              		.loc 8 173 32 view .LVU177
 813 016c 4046     		mov	r0, r8
 814 016e 9047     		blx	r2
 815              	.LVL53:
 173:../../DaisyExamples/libDaisy//src/hid/disp/display.h ****         currentY_ = (y >= Height()) ? Height() - 1 : y;
ARM GAS  /var/folders/hp/45mn71hd0ps5f5pnytxy5bt00000gn/T//ccdvmoSj.s 			page 39


 816              		.loc 8 173 44 view .LVU178
 817 0170 D8F80030 		ldr	r3, [r8]
 818 0174 CDE7     		b	.L31
 819              	.LVL54:
 820              	.L21:
 173:../../DaisyExamples/libDaisy//src/hid/disp/display.h ****         currentY_ = (y >= Height()) ? Height() - 1 : y;
 821              		.loc 8 173 44 view .LVU179
 822              	.LBE439:
 823              	.LBE444:
 434:../../DaisyExamples/libDaisy//src/hid/disp/display.h **** 
 824              		.loc 8 434 19 view .LVU180
 825 0176 B8F804A0 		ldrh	r10, [r8, #4]
 826 017a C1E7     		b	.L23
 827              	.LVL55:
 828              	.L53:
 829              	.LBB445:
 830              	.LBB440:
 173:../../DaisyExamples/libDaisy//src/hid/disp/display.h ****         currentY_ = (y >= Height()) ? Height() - 1 : y;
 831              		.loc 8 173 43 view .LVU181
 832 017c 4046     		mov	r0, r8
 833 017e 9047     		blx	r2
 834              	.LVL56:
 173:../../DaisyExamples/libDaisy//src/hid/disp/display.h ****         currentY_ = (y >= Height()) ? Height() - 1 : y;
 835              		.loc 8 173 19 view .LVU182
 836 0180 0138     		subs	r0, r0, #1
 174:../../DaisyExamples/libDaisy//src/hid/disp/display.h ****     }
 837              		.loc 8 174 34 view .LVU183
 838 0182 D8F80030 		ldr	r3, [r8]
 173:../../DaisyExamples/libDaisy//src/hid/disp/display.h ****         currentY_ = (y >= Height()) ? Height() - 1 : y;
 839              		.loc 8 173 19 view .LVU184
 840 0186 84B2     		uxth	r4, r0
 841              	.LVL57:
 173:../../DaisyExamples/libDaisy//src/hid/disp/display.h ****         currentY_ = (y >= Height()) ? Height() - 1 : y;
 842              		.loc 8 173 19 view .LVU185
 843 0188 C5E7     		b	.L32
 844              	.L52:
 174:../../DaisyExamples/libDaisy//src/hid/disp/display.h ****     }
 845              		.loc 8 174 45 view .LVU186
 846 018a 4046     		mov	r0, r8
 847 018c 9847     		blx	r3
 848              	.LVL58:
 174:../../DaisyExamples/libDaisy//src/hid/disp/display.h ****     }
 849              		.loc 8 174 19 view .LVU187
 850 018e 0138     		subs	r0, r0, #1
 851 0190 83B2     		uxth	r3, r0
 852 0192 0193     		str	r3, [sp, #4]
 853              	.LVL59:
 174:../../DaisyExamples/libDaisy//src/hid/disp/display.h ****     }
 854              		.loc 8 174 19 view .LVU188
 855 0194 D1E7     		b	.L35
 856              	.L55:
 857 0196 00BF     		.align	2
 858              	.L54:
 859 0198 00000000 		.word	_ZNK5daisy11OledDisplayINS_13SSD130xDriverILj128ELj32ENS_19SSD130xI2CTransportEEEE5WidthEv
 860 019c 00000000 		.word	_ZNK5daisy11OledDisplayINS_13SSD130xDriverILj128ELj32ENS_19SSD130xI2CTransportEEEE6HeightEv
 861              	.LBE440:
 862              	.LBE445:
ARM GAS  /var/folders/hp/45mn71hd0ps5f5pnytxy5bt00000gn/T//ccdvmoSj.s 			page 40


 863              		.cfi_endproc
 864              	.LFE2658:
 866              		.section	.text._ZN5daisy25OneBitGraphicsDisplayImplINS_11OledDisplayINS_13SSD130xDriverILj128ELj32
 867              		.align	1
 868              		.p2align 2,,3
 869              		.weak	_ZN5daisy25OneBitGraphicsDisplayImplINS_11OledDisplayINS_13SSD130xDriverILj128ELj32ENS_19SSD
 870              		.syntax unified
 871              		.thumb
 872              		.thumb_func
 874              	_ZN5daisy25OneBitGraphicsDisplayImplINS_11OledDisplayINS_13SSD130xDriverILj128ELj32ENS_19SSD130xI2C
 875              	.LVL60:
 876              	.LFB2636:
 439:../../DaisyExamples/libDaisy//src/hid/disp/display.h **** 
 440:../../DaisyExamples/libDaisy//src/hid/disp/display.h ****     char WriteString(const char* str, FontDef font, bool on) override
 877              		.loc 8 440 10 is_stmt 1 view -0
 878              		.cfi_startproc
 879              		@ args = 4, pretend = 0, frame = 32
 880              		@ frame_needed = 0, uses_anonymous_args = 0
 881              		.loc 8 440 10 is_stmt 0 view .LVU190
 882 0000 2DE9F04F 		push	{r4, r5, r6, r7, r8, r9, r10, fp, lr}
 883              		.cfi_def_cfa_offset 36
 884              		.cfi_offset 4, -36
 885              		.cfi_offset 5, -32
 886              		.cfi_offset 6, -28
 887              		.cfi_offset 7, -24
 888              		.cfi_offset 8, -20
 889              		.cfi_offset 9, -16
 890              		.cfi_offset 10, -12
 891              		.cfi_offset 11, -8
 892              		.cfi_offset 14, -4
 893 0004 89B0     		sub	sp, sp, #36
 894              		.cfi_def_cfa_offset 72
 895              		.loc 8 440 10 view .LVU191
 896 0006 08AC     		add	r4, sp, #32
 897 0008 9DF84870 		ldrb	r7, [sp, #72]	@ zero_extendqisi2
 898 000c 0191     		str	r1, [sp, #4]
 899 000e 04E90C00 		stmdb	r4, {r2, r3}
 441:../../DaisyExamples/libDaisy//src/hid/disp/display.h ****     {
 442:../../DaisyExamples/libDaisy//src/hid/disp/display.h ****         // Write until null-byte
 443:../../DaisyExamples/libDaisy//src/hid/disp/display.h ****         while(*str)
 900              		.loc 8 443 9 is_stmt 1 view .LVU192
 901 0012 0B78     		ldrb	r3, [r1]	@ zero_extendqisi2
 902 0014 002B     		cmp	r3, #0
 903 0016 00F0AB80 		beq	.L80
 904 001a 1A46     		mov	r2, r3
 905 001c 9DF81880 		ldrb	r8, [sp, #24]	@ zero_extendqisi2
 906 0020 9DF81930 		ldrb	r3, [sp, #25]	@ zero_extendqisi2
 907 0024 0646     		mov	r6, r0
 908 0026 4546     		mov	r5, r8
 909 0028 9046     		mov	r8, r2
 910 002a 0393     		str	r3, [sp, #12]
 911 002c 079B     		ldr	r3, [sp, #28]
 912 002e 0593     		str	r3, [sp, #20]
 913              	.LVL61:
 914              	.L81:
 915              	.LBB474:
 916              	.LBI474:
ARM GAS  /var/folders/hp/45mn71hd0ps5f5pnytxy5bt00000gn/T//ccdvmoSj.s 			page 41


 396:../../DaisyExamples/libDaisy//src/hid/disp/display.h ****     {
 917              		.loc 8 396 10 view .LVU193
 918              	.LBB475:
 401:../../DaisyExamples/libDaisy//src/hid/disp/display.h ****             return 0;
 919              		.loc 8 401 20 is_stmt 0 view .LVU194
 920 0030 A8F12004 		sub	r4, r8, #32
 401:../../DaisyExamples/libDaisy//src/hid/disp/display.h ****             return 0;
 921              		.loc 8 401 9 view .LVU195
 922 0034 E3B2     		uxtb	r3, r4
 923 0036 5E2B     		cmp	r3, #94
 924 0038 00F29E80 		bhi	.L62
 405:../../DaisyExamples/libDaisy//src/hid/disp/display.h ****            || Height() < (currentY_ + font.FontHeight))
 925              		.loc 8 405 17 view .LVU196
 926 003c 3368     		ldr	r3, [r6]
 927 003e 5E4A     		ldr	r2, .L102
 928 0040 DB68     		ldr	r3, [r3, #12]
 929 0042 9342     		cmp	r3, r2
 930 0044 40F09B80 		bne	.L95
 931 0048 8020     		movs	r0, #128
 932              	.L61:
 405:../../DaisyExamples/libDaisy//src/hid/disp/display.h ****            || Height() < (currentY_ + font.FontHeight))
 933              		.loc 8 405 23 view .LVU197
 934 004a B388     		ldrh	r3, [r6, #4]
 405:../../DaisyExamples/libDaisy//src/hid/disp/display.h ****            || Height() < (currentY_ + font.FontHeight))
 935              		.loc 8 405 33 view .LVU198
 936 004c 2B44     		add	r3, r3, r5
 406:../../DaisyExamples/libDaisy//src/hid/disp/display.h ****         {
 937              		.loc 8 406 12 view .LVU199
 938 004e 8342     		cmp	r3, r0
 939 0050 00F39280 		bgt	.L62
 406:../../DaisyExamples/libDaisy//src/hid/disp/display.h ****         {
 940              		.loc 8 406 21 view .LVU200
 941 0054 3368     		ldr	r3, [r6]
 942 0056 594A     		ldr	r2, .L102+4
 943 0058 9B68     		ldr	r3, [r3, #8]
 944 005a 9342     		cmp	r3, r2
 945 005c 40F09280 		bne	.L96
 946 0060 2020     		movs	r0, #32
 947              	.L63:
 406:../../DaisyExamples/libDaisy//src/hid/disp/display.h ****         {
 948              		.loc 8 406 27 view .LVU201
 949 0062 F188     		ldrh	r1, [r6, #6]
 406:../../DaisyExamples/libDaisy//src/hid/disp/display.h ****         {
 950              		.loc 8 406 37 view .LVU202
 951 0064 039A     		ldr	r2, [sp, #12]
 406:../../DaisyExamples/libDaisy//src/hid/disp/display.h ****         {
 952              		.loc 8 406 27 view .LVU203
 953 0066 0291     		str	r1, [sp, #8]
 406:../../DaisyExamples/libDaisy//src/hid/disp/display.h ****         {
 954              		.loc 8 406 37 view .LVU204
 955 0068 8B18     		adds	r3, r1, r2
 406:../../DaisyExamples/libDaisy//src/hid/disp/display.h ****         {
 956              		.loc 8 406 12 view .LVU205
 957 006a 8342     		cmp	r3, r0
 958 006c 00F38480 		bgt	.L62
 959              	.LVL62:
 413:../../DaisyExamples/libDaisy//src/hid/disp/display.h ****         {
ARM GAS  /var/folders/hp/45mn71hd0ps5f5pnytxy5bt00000gn/T//ccdvmoSj.s 			page 42


 960              		.loc 8 413 22 is_stmt 1 view .LVU206
 961 0070 002A     		cmp	r2, #0
 962 0072 00F09180 		beq	.L64
 415:../../DaisyExamples/libDaisy//src/hid/disp/display.h ****             for(j = 0; j < font.FontWidth; j++)
 963              		.loc 8 415 37 is_stmt 0 view .LVU207
 964 0076 02FB04F4 		mul	r4, r2, r4
 965 007a 6FF00049 		mvn	r9, #-2147483648
 966 007e 059B     		ldr	r3, [sp, #20]
 967 0080 A144     		add	r9, r9, r4
 968 0082 1444     		add	r4, r4, r2
 434:../../DaisyExamples/libDaisy//src/hid/disp/display.h **** 
 969              		.loc 8 434 19 view .LVU208
 970 0084 B6F804B0 		ldrh	fp, [r6, #4]
 971 0088 03EB4909 		add	r9, r3, r9, lsl #1
 972 008c 023B     		subs	r3, r3, #2
 973 008e CDF81080 		str	r8, [sp, #16]
 974 0092 03EB4403 		add	r3, r3, r4, lsl #1
 975 0096 0C46     		mov	r4, r1
 976 0098 9A46     		mov	r10, r3
 977              	.LVL63:
 978              	.L67:
 415:../../DaisyExamples/libDaisy//src/hid/disp/display.h ****             for(j = 0; j < font.FontWidth; j++)
 979              		.loc 8 415 15 view .LVU209
 980 009a 39F802CF 		ldrh	ip, [r9, #2]!
 981              	.LVL64:
 416:../../DaisyExamples/libDaisy//src/hid/disp/display.h ****             {
 982              		.loc 8 416 26 is_stmt 1 view .LVU210
 983 009e A5B3     		cbz	r5, .L72
 984              	.LBB476:
 985              	.LBB477:
 986              	.LBB478:
 987              	.LBB479:
 988              	.LBB480:
 359:../../DaisyExamples/libDaisy//src/dev/oled_ssd130x.h ****     }
 989              		.loc 7 359 55 is_stmt 0 view .LVU211
 990 00a0 04F00703 		and	r3, r4, #7
 359:../../DaisyExamples/libDaisy//src/dev/oled_ssd130x.h ****     }
 991              		.loc 7 359 49 view .LVU212
 992 00a4 4FF0010E 		mov	lr, #1
 359:../../DaisyExamples/libDaisy//src/dev/oled_ssd130x.h ****     }
 993              		.loc 7 359 28 view .LVU213
 994 00a8 E208     		lsrs	r2, r4, #3
 995 00aa 5946     		mov	r1, fp
 359:../../DaisyExamples/libDaisy//src/dev/oled_ssd130x.h ****     }
 996              		.loc 7 359 49 view .LVU214
 997 00ac 0EFA03FE 		lsl	lr, lr, r3
 998 00b0 0BF11003 		add	r3, fp, #16
 359:../../DaisyExamples/libDaisy//src/dev/oled_ssd130x.h ****     }
 999              		.loc 7 359 42 view .LVU215
 1000 00b4 4FFA8EFE 		sxtb	lr, lr
 1001 00b8 03EBC212 		add	r2, r3, r2, lsl #7
 1002              	.LBE480:
 1003              	.LBE479:
 1004              	.LBE478:
 1005              	.LBE477:
 1006              	.LBE476:
 416:../../DaisyExamples/libDaisy//src/hid/disp/display.h ****             {
ARM GAS  /var/folders/hp/45mn71hd0ps5f5pnytxy5bt00000gn/T//ccdvmoSj.s 			page 43


 1007              		.loc 8 416 19 view .LVU216
 1008 00bc 0023     		movs	r3, #0
 1009              	.LBB498:
 1010              	.LBB493:
 1011              	.LBB488:
 1012              	.LBB484:
 1013              	.LBB481:
 359:../../DaisyExamples/libDaisy//src/dev/oled_ssd130x.h ****     }
 1014              		.loc 7 359 42 view .LVU217
 1015 00be 6FEA0E08 		mvn	r8, lr
 1016 00c2 3244     		add	r2, r2, r6
 1017 00c4 0DE0     		b	.L73
 1018              	.LVL65:
 1019              	.L97:
 359:../../DaisyExamples/libDaisy//src/dev/oled_ssd130x.h ****     }
 1020              		.loc 7 359 42 view .LVU218
 1021              	.LBE481:
 1022              	.LBE484:
 1023              	.LBE488:
 1024              	.LBE493:
 1025              	.LBE498:
 1026              	.LBB499:
 1027              	.LBI499:
  42:../../DaisyExamples/libDaisy//src/hid/disp/oled_display.h ****     {
 1028              		.loc 6 42 10 is_stmt 1 view .LVU219
 1029              	.LBB500:
 1030              	.LBI500:
 352:../../DaisyExamples/libDaisy//src/dev/oled_ssd130x.h ****     {
 1031              		.loc 7 352 10 view .LVU220
 1032              	.LBB501:
 354:../../DaisyExamples/libDaisy//src/dev/oled_ssd130x.h ****             return;
 1033              		.loc 7 354 9 is_stmt 0 view .LVU221
 1034 00c6 7F29     		cmp	r1, #127
 1035 00c8 06D8     		bhi	.L69
 1036 00ca 1F2C     		cmp	r4, #31
 1037 00cc 04D8     		bhi	.L69
 357:../../DaisyExamples/libDaisy//src/dev/oled_ssd130x.h ****         else
 1038              		.loc 7 357 42 view .LVU222
 1039 00ce 1078     		ldrb	r0, [r2]	@ zero_extendqisi2
 356:../../DaisyExamples/libDaisy//src/dev/oled_ssd130x.h ****             buffer_[x + (y / 8) * width] |= (1 << (y % 8));
 1040              		.loc 7 356 9 view .LVU223
 1041 00d0 97B1     		cbz	r7, .L71
 1042              	.L94:
 356:../../DaisyExamples/libDaisy//src/dev/oled_ssd130x.h ****             buffer_[x + (y / 8) * width] |= (1 << (y % 8));
 1043              		.loc 7 356 9 view .LVU224
 1044              	.LBE501:
 1045              	.LBE500:
 1046              	.LBE499:
 1047              	.LBB502:
 1048              	.LBB494:
 1049              	.LBB489:
 357:../../DaisyExamples/libDaisy//src/dev/oled_ssd130x.h ****         else
 1050              		.loc 7 357 42 view .LVU225
 1051 00d2 4EEA0000 		orr	r0, lr, r0
 1052 00d6 1070     		strb	r0, [r2]
 1053              	.L69:
 1054              	.LBE489:
ARM GAS  /var/folders/hp/45mn71hd0ps5f5pnytxy5bt00000gn/T//ccdvmoSj.s 			page 44


 1055              	.LBE494:
 1056              	.LBE502:
 416:../../DaisyExamples/libDaisy//src/hid/disp/display.h ****             {
 1057              		.loc 8 416 13 is_stmt 1 view .LVU226
 1058 00d8 0133     		adds	r3, r3, #1
 1059              	.LVL66:
 416:../../DaisyExamples/libDaisy//src/hid/disp/display.h ****             {
 1060              		.loc 8 416 26 view .LVU227
 1061 00da 0132     		adds	r2, r2, #1
 1062 00dc 0131     		adds	r1, r1, #1
 1063 00de AB42     		cmp	r3, r5
 1064 00e0 13D0     		beq	.L72
 1065              	.LVL67:
 1066              	.L73:
 418:../../DaisyExamples/libDaisy//src/hid/disp/display.h ****                 {
 1067              		.loc 8 418 23 is_stmt 0 view .LVU228
 1068 00e2 0CFA03F0 		lsl	r0, ip, r3
 418:../../DaisyExamples/libDaisy//src/hid/disp/display.h ****                 {
 1069              		.loc 8 418 17 view .LVU229
 1070 00e6 0004     		lsls	r0, r0, #16
 1071 00e8 EDD4     		bmi	.L97
 1072              	.LVL68:
 1073              	.LBB503:
 1074              	.LBI476:
  42:../../DaisyExamples/libDaisy//src/hid/disp/oled_display.h ****     {
 1075              		.loc 6 42 10 is_stmt 1 view .LVU230
 1076              	.LBB495:
 1077              	.LBI477:
 352:../../DaisyExamples/libDaisy//src/dev/oled_ssd130x.h ****     {
 1078              		.loc 7 352 10 view .LVU231
 1079              	.LBB490:
 354:../../DaisyExamples/libDaisy//src/dev/oled_ssd130x.h ****             return;
 1080              		.loc 7 354 9 is_stmt 0 view .LVU232
 1081 00ea 7F29     		cmp	r1, #127
 1082 00ec F4D8     		bhi	.L69
 1083 00ee 1F2C     		cmp	r4, #31
 1084 00f0 F2D8     		bhi	.L69
 357:../../DaisyExamples/libDaisy//src/dev/oled_ssd130x.h ****         else
 1085              		.loc 7 357 42 view .LVU233
 1086 00f2 1078     		ldrb	r0, [r2]	@ zero_extendqisi2
 356:../../DaisyExamples/libDaisy//src/dev/oled_ssd130x.h ****             buffer_[x + (y / 8) * width] |= (1 << (y % 8));
 1087              		.loc 7 356 9 view .LVU234
 1088 00f4 002F     		cmp	r7, #0
 1089 00f6 ECD0     		beq	.L94
 1090              	.L71:
 1091              	.LVL69:
 1092              	.LBB485:
 1093              	.LBI479:
 352:../../DaisyExamples/libDaisy//src/dev/oled_ssd130x.h ****     {
 1094              		.loc 7 352 10 is_stmt 1 view .LVU235
 352:../../DaisyExamples/libDaisy//src/dev/oled_ssd130x.h ****     {
 1095              		.loc 7 352 10 is_stmt 0 view .LVU236
 1096              	.LBE485:
 1097              	.LBE490:
 1098              	.LBE495:
 1099              	.LBE503:
 416:../../DaisyExamples/libDaisy//src/hid/disp/display.h ****             {
ARM GAS  /var/folders/hp/45mn71hd0ps5f5pnytxy5bt00000gn/T//ccdvmoSj.s 			page 45


 1100              		.loc 8 416 13 view .LVU237
 1101 00f8 0133     		adds	r3, r3, #1
 1102              	.LVL70:
 1103              	.LBB504:
 1104              	.LBB496:
 1105              	.LBB491:
 1106              	.LBB486:
 1107              	.LBB482:
 359:../../DaisyExamples/libDaisy//src/dev/oled_ssd130x.h ****     }
 1108              		.loc 7 359 42 view .LVU238
 1109 00fa 08EA0000 		and	r0, r8, r0
 1110              	.LBE482:
 1111              	.LBE486:
 1112              	.LBE491:
 1113              	.LBE496:
 1114              	.LBE504:
 416:../../DaisyExamples/libDaisy//src/hid/disp/display.h ****             {
 1115              		.loc 8 416 26 view .LVU239
 1116 00fe 0132     		adds	r2, r2, #1
 1117 0100 0131     		adds	r1, r1, #1
 1118 0102 AB42     		cmp	r3, r5
 1119              	.LBB505:
 1120              	.LBB497:
 1121              	.LBB492:
 1122              	.LBB487:
 1123              	.LBB483:
 359:../../DaisyExamples/libDaisy//src/dev/oled_ssd130x.h ****     }
 1124              		.loc 7 359 42 view .LVU240
 1125 0104 02F8010C 		strb	r0, [r2, #-1]
 359:../../DaisyExamples/libDaisy//src/dev/oled_ssd130x.h ****     }
 1126              		.loc 7 359 42 view .LVU241
 1127              	.LBE483:
 1128              	.LBE487:
 1129              	.LBE492:
 1130              	.LBE497:
 1131              	.LBE505:
 416:../../DaisyExamples/libDaisy//src/hid/disp/display.h ****             {
 1132              		.loc 8 416 13 is_stmt 1 view .LVU242
 1133              	.LVL71:
 416:../../DaisyExamples/libDaisy//src/hid/disp/display.h ****             {
 1134              		.loc 8 416 26 view .LVU243
 1135 0108 EBD1     		bne	.L73
 1136              	.LVL72:
 1137              	.L72:
 413:../../DaisyExamples/libDaisy//src/hid/disp/display.h ****         {
 1138              		.loc 8 413 9 view .LVU244
 413:../../DaisyExamples/libDaisy//src/hid/disp/display.h ****         {
 1139              		.loc 8 413 22 view .LVU245
 1140 010a D145     		cmp	r9, r10
 1141 010c 04F10104 		add	r4, r4, #1
 1142 0110 C3D1     		bne	.L67
 1143 0112 DDF81080 		ldr	r8, [sp, #16]
 1144              	.LVL73:
 1145              	.L66:
 1146              	.LBB506:
 1147              	.LBB507:
 173:../../DaisyExamples/libDaisy//src/hid/disp/display.h ****         currentY_ = (y >= Height()) ? Height() - 1 : y;
ARM GAS  /var/folders/hp/45mn71hd0ps5f5pnytxy5bt00000gn/T//ccdvmoSj.s 			page 46


 1148              		.loc 8 173 33 is_stmt 0 view .LVU246
 1149 0116 3268     		ldr	r2, [r6]
 1150              	.LBE507:
 1151              	.LBE506:
 434:../../DaisyExamples/libDaisy//src/hid/disp/display.h **** 
 1152              		.loc 8 434 18 view .LVU247
 1153 0118 0BEB0504 		add	r4, fp, r5
 1154 011c 2649     		ldr	r1, .L102
 1155              	.LBB512:
 1156              	.LBB508:
 173:../../DaisyExamples/libDaisy//src/hid/disp/display.h ****         currentY_ = (y >= Height()) ? Height() - 1 : y;
 1157              		.loc 8 173 33 view .LVU248
 1158 011e D368     		ldr	r3, [r2, #12]
 1159              	.LBE508:
 1160              	.LBE512:
 434:../../DaisyExamples/libDaisy//src/hid/disp/display.h **** 
 1161              		.loc 8 434 18 view .LVU249
 1162 0120 A4B2     		uxth	r4, r4
 1163              	.LVL74:
 1164              	.LBB513:
 1165              	.LBI506:
 171:../../DaisyExamples/libDaisy//src/hid/disp/display.h ****     {
 1166              		.loc 8 171 10 is_stmt 1 view .LVU250
 1167              	.LBB509:
 173:../../DaisyExamples/libDaisy//src/hid/disp/display.h ****         currentY_ = (y >= Height()) ? Height() - 1 : y;
 1168              		.loc 8 173 9 view .LVU251
 1169 0122 8B42     		cmp	r3, r1
 1170 0124 34D1     		bne	.L98
 173:../../DaisyExamples/libDaisy//src/hid/disp/display.h ****         currentY_ = (y >= Height()) ? Height() - 1 : y;
 1171              		.loc 8 173 33 is_stmt 0 view .LVU252
 1172 0126 8020     		movs	r0, #128
 1173              	.L74:
 173:../../DaisyExamples/libDaisy//src/hid/disp/display.h ****         currentY_ = (y >= Height()) ? Height() - 1 : y;
 1174              		.loc 8 173 19 view .LVU253
 1175 0128 8442     		cmp	r4, r0
 1176 012a 04D3     		bcc	.L75
 173:../../DaisyExamples/libDaisy//src/hid/disp/display.h ****         currentY_ = (y >= Height()) ? Height() - 1 : y;
 1177              		.loc 8 173 44 view .LVU254
 1178 012c D368     		ldr	r3, [r2, #12]
 1179 012e 2249     		ldr	r1, .L102
 1180 0130 8B42     		cmp	r3, r1
 1181 0132 3AD1     		bne	.L99
 1182 0134 7F24     		movs	r4, #127
 1183              	.LVL75:
 1184              	.L75:
 174:../../DaisyExamples/libDaisy//src/hid/disp/display.h ****     }
 1185              		.loc 8 174 34 view .LVU255
 1186 0136 9368     		ldr	r3, [r2, #8]
 1187 0138 204A     		ldr	r2, .L102+4
 173:../../DaisyExamples/libDaisy//src/hid/disp/display.h ****         currentY_ = (y >= Height()) ? Height() - 1 : y;
 1188              		.loc 8 173 19 view .LVU256
 1189 013a B480     		strh	r4, [r6, #4]	@ movhi
 174:../../DaisyExamples/libDaisy//src/hid/disp/display.h ****     }
 1190              		.loc 8 174 9 is_stmt 1 view .LVU257
 1191 013c 9342     		cmp	r3, r2
 1192 013e 24D1     		bne	.L100
 174:../../DaisyExamples/libDaisy//src/hid/disp/display.h ****     }
ARM GAS  /var/folders/hp/45mn71hd0ps5f5pnytxy5bt00000gn/T//ccdvmoSj.s 			page 47


 1193              		.loc 8 174 34 is_stmt 0 view .LVU258
 1194 0140 2020     		movs	r0, #32
 1195              	.L77:
 174:../../DaisyExamples/libDaisy//src/hid/disp/display.h ****     }
 1196              		.loc 8 174 19 view .LVU259
 1197 0142 029B     		ldr	r3, [sp, #8]
 1198 0144 8342     		cmp	r3, r0
 1199 0146 06D3     		bcc	.L78
 174:../../DaisyExamples/libDaisy//src/hid/disp/display.h ****     }
 1200              		.loc 8 174 46 view .LVU260
 1201 0148 3368     		ldr	r3, [r6]
 1202 014a 1C4A     		ldr	r2, .L102+4
 1203 014c 9B68     		ldr	r3, [r3, #8]
 1204 014e 9342     		cmp	r3, r2
 1205 0150 25D1     		bne	.L101
 1206 0152 1F23     		movs	r3, #31
 1207 0154 0293     		str	r3, [sp, #8]
 1208              	.LVL76:
 1209              	.L78:
 174:../../DaisyExamples/libDaisy//src/hid/disp/display.h ****     }
 1210              		.loc 8 174 19 view .LVU261
 1211 0156 029B     		ldr	r3, [sp, #8]
 1212 0158 F380     		strh	r3, [r6, #6]	@ movhi
 1213              	.LVL77:
 1214              	.L60:
 174:../../DaisyExamples/libDaisy//src/hid/disp/display.h ****     }
 1215              		.loc 8 174 19 view .LVU262
 1216              	.LBE509:
 1217              	.LBE513:
 1218              	.LBE475:
 1219              	.LBE474:
 444:../../DaisyExamples/libDaisy//src/hid/disp/display.h ****         {
 445:../../DaisyExamples/libDaisy//src/hid/disp/display.h ****             if(((ChildType*)(this))->ChildType::WriteChar(*str, font, on)
 446:../../DaisyExamples/libDaisy//src/hid/disp/display.h ****                != *str)
 1220              		.loc 8 446 16 view .LVU263
 1221 015a 019B     		ldr	r3, [sp, #4]
 1222 015c 1878     		ldrb	r0, [r3]	@ zero_extendqisi2
 445:../../DaisyExamples/libDaisy//src/hid/disp/display.h ****                != *str)
 1223              		.loc 8 445 13 view .LVU264
 1224 015e 4045     		cmp	r0, r8
 1225 0160 07D1     		bne	.L58
 1226              	.LVL78:
 443:../../DaisyExamples/libDaisy//src/hid/disp/display.h ****         {
 1227              		.loc 8 443 9 is_stmt 1 view .LVU265
 1228 0162 13F8018F 		ldrb	r8, [r3, #1]!	@ zero_extendqisi2
 1229              	.LVL79:
 443:../../DaisyExamples/libDaisy//src/hid/disp/display.h ****         {
 1230              		.loc 8 443 9 is_stmt 0 view .LVU266
 1231 0166 0193     		str	r3, [sp, #4]
 1232 0168 B8F1000F 		cmp	r8, #0
 1233 016c 7FF460AF 		bne	.L81
 1234              	.LVL80:
 1235              	.L80:
 1236              	.LBB518:
 1237              	.LBB516:
 402:../../DaisyExamples/libDaisy//src/hid/disp/display.h **** 
 1238              		.loc 8 402 20 view .LVU267
ARM GAS  /var/folders/hp/45mn71hd0ps5f5pnytxy5bt00000gn/T//ccdvmoSj.s 			page 48


 1239 0170 0020     		movs	r0, #0
 1240              	.L58:
 1241              	.LBE516:
 1242              	.LBE518:
 447:../../DaisyExamples/libDaisy//src/hid/disp/display.h ****             {
 448:../../DaisyExamples/libDaisy//src/hid/disp/display.h ****                 // Char could not be written
 449:../../DaisyExamples/libDaisy//src/hid/disp/display.h ****                 return *str;
 450:../../DaisyExamples/libDaisy//src/hid/disp/display.h ****             }
 451:../../DaisyExamples/libDaisy//src/hid/disp/display.h **** 
 452:../../DaisyExamples/libDaisy//src/hid/disp/display.h ****             // Next char
 453:../../DaisyExamples/libDaisy//src/hid/disp/display.h ****             str++;
 454:../../DaisyExamples/libDaisy//src/hid/disp/display.h ****         }
 455:../../DaisyExamples/libDaisy//src/hid/disp/display.h **** 
 456:../../DaisyExamples/libDaisy//src/hid/disp/display.h ****         // Everything ok
 457:../../DaisyExamples/libDaisy//src/hid/disp/display.h ****         return *str;
 458:../../DaisyExamples/libDaisy//src/hid/disp/display.h ****     }
 1243              		.loc 8 458 5 view .LVU268
 1244 0172 09B0     		add	sp, sp, #36
 1245              		.cfi_remember_state
 1246              		.cfi_def_cfa_offset 36
 1247              		@ sp needed
 1248 0174 BDE8F08F 		pop	{r4, r5, r6, r7, r8, r9, r10, fp, pc}
 1249              	.LVL81:
 1250              	.L62:
 1251              		.cfi_restore_state
 1252              	.LBB519:
 1253              	.LBB517:
 402:../../DaisyExamples/libDaisy//src/hid/disp/display.h **** 
 1254              		.loc 8 402 20 view .LVU269
 1255 0178 4FF00008 		mov	r8, #0
 1256              	.LVL82:
 402:../../DaisyExamples/libDaisy//src/hid/disp/display.h **** 
 1257              		.loc 8 402 20 view .LVU270
 1258 017c EDE7     		b	.L60
 1259              	.LVL83:
 1260              	.L95:
 405:../../DaisyExamples/libDaisy//src/hid/disp/display.h ****            || Height() < (currentY_ + font.FontHeight))
 1261              		.loc 8 405 17 view .LVU271
 1262 017e 3046     		mov	r0, r6
 1263 0180 9847     		blx	r3
 1264              	.LVL84:
 1265 0182 62E7     		b	.L61
 1266              	.L96:
 406:../../DaisyExamples/libDaisy//src/hid/disp/display.h ****         {
 1267              		.loc 8 406 21 view .LVU272
 1268 0184 3046     		mov	r0, r6
 1269 0186 9847     		blx	r3
 1270              	.LVL85:
 1271 0188 6BE7     		b	.L63
 1272              	.LVL86:
 1273              	.L100:
 1274              	.LBB514:
 1275              	.LBB510:
 174:../../DaisyExamples/libDaisy//src/hid/disp/display.h ****     }
 1276              		.loc 8 174 33 view .LVU273
 1277 018a 3046     		mov	r0, r6
 1278 018c 9847     		blx	r3
ARM GAS  /var/folders/hp/45mn71hd0ps5f5pnytxy5bt00000gn/T//ccdvmoSj.s 			page 49


 1279              	.LVL87:
 1280 018e D8E7     		b	.L77
 1281              	.LVL88:
 1282              	.L98:
 173:../../DaisyExamples/libDaisy//src/hid/disp/display.h ****         currentY_ = (y >= Height()) ? Height() - 1 : y;
 1283              		.loc 8 173 32 view .LVU274
 1284 0190 3046     		mov	r0, r6
 1285 0192 9847     		blx	r3
 1286              	.LVL89:
 173:../../DaisyExamples/libDaisy//src/hid/disp/display.h ****         currentY_ = (y >= Height()) ? Height() - 1 : y;
 1287              		.loc 8 173 44 view .LVU275
 1288 0194 3268     		ldr	r2, [r6]
 1289 0196 C7E7     		b	.L74
 1290              	.LVL90:
 1291              	.L64:
 173:../../DaisyExamples/libDaisy//src/hid/disp/display.h ****         currentY_ = (y >= Height()) ? Height() - 1 : y;
 1292              		.loc 8 173 44 view .LVU276
 1293              	.LBE510:
 1294              	.LBE514:
 434:../../DaisyExamples/libDaisy//src/hid/disp/display.h **** 
 1295              		.loc 8 434 19 view .LVU277
 1296 0198 B6F804B0 		ldrh	fp, [r6, #4]
 1297 019c BBE7     		b	.L66
 1298              	.LVL91:
 1299              	.L101:
 1300              	.LBB515:
 1301              	.LBB511:
 174:../../DaisyExamples/libDaisy//src/hid/disp/display.h ****     }
 1302              		.loc 8 174 45 view .LVU278
 1303 019e 3046     		mov	r0, r6
 1304 01a0 9847     		blx	r3
 1305              	.LVL92:
 174:../../DaisyExamples/libDaisy//src/hid/disp/display.h ****     }
 1306              		.loc 8 174 19 view .LVU279
 1307 01a2 431E     		subs	r3, r0, #1
 1308 01a4 9BB2     		uxth	r3, r3
 1309 01a6 0293     		str	r3, [sp, #8]
 1310              	.LVL93:
 174:../../DaisyExamples/libDaisy//src/hid/disp/display.h ****     }
 1311              		.loc 8 174 19 view .LVU280
 1312 01a8 D5E7     		b	.L78
 1313              	.LVL94:
 1314              	.L99:
 173:../../DaisyExamples/libDaisy//src/hid/disp/display.h ****         currentY_ = (y >= Height()) ? Height() - 1 : y;
 1315              		.loc 8 173 43 view .LVU281
 1316 01aa 3046     		mov	r0, r6
 1317 01ac 9847     		blx	r3
 1318              	.LVL95:
 173:../../DaisyExamples/libDaisy//src/hid/disp/display.h ****         currentY_ = (y >= Height()) ? Height() - 1 : y;
 1319              		.loc 8 173 19 view .LVU282
 1320 01ae 0138     		subs	r0, r0, #1
 174:../../DaisyExamples/libDaisy//src/hid/disp/display.h ****     }
 1321              		.loc 8 174 34 view .LVU283
 1322 01b0 3268     		ldr	r2, [r6]
 173:../../DaisyExamples/libDaisy//src/hid/disp/display.h ****         currentY_ = (y >= Height()) ? Height() - 1 : y;
 1323              		.loc 8 173 19 view .LVU284
 1324 01b2 84B2     		uxth	r4, r0
ARM GAS  /var/folders/hp/45mn71hd0ps5f5pnytxy5bt00000gn/T//ccdvmoSj.s 			page 50


 1325              	.LVL96:
 173:../../DaisyExamples/libDaisy//src/hid/disp/display.h ****         currentY_ = (y >= Height()) ? Height() - 1 : y;
 1326              		.loc 8 173 19 view .LVU285
 1327 01b4 BFE7     		b	.L75
 1328              	.L103:
 1329 01b6 00BF     		.align	2
 1330              	.L102:
 1331 01b8 00000000 		.word	_ZNK5daisy11OledDisplayINS_13SSD130xDriverILj128ELj32ENS_19SSD130xI2CTransportEEEE5WidthEv
 1332 01bc 00000000 		.word	_ZNK5daisy11OledDisplayINS_13SSD130xDriverILj128ELj32ENS_19SSD130xI2CTransportEEEE6HeightEv
 1333              	.LBE511:
 1334              	.LBE515:
 1335              	.LBE517:
 1336              	.LBE519:
 1337              		.cfi_endproc
 1338              	.LFE2636:
 1340              		.section	.text._ZN5daisy11OledDisplayINS_13SSD130xDriverILj128ELj32ENS_19SSD130xI2CTransportEEEE9D
 1341              		.align	1
 1342              		.p2align 2,,3
 1343              		.weak	_ZN5daisy11OledDisplayINS_13SSD130xDriverILj128ELj32ENS_19SSD130xI2CTransportEEEE9DrawPixelE
 1344              		.syntax unified
 1345              		.thumb
 1346              		.thumb_func
 1348              	_ZN5daisy11OledDisplayINS_13SSD130xDriverILj128ELj32ENS_19SSD130xI2CTransportEEEE9DrawPixelEjjb:
 1349              	.LVL97:
 1350              	.LFB2665:
  42:../../DaisyExamples/libDaisy//src/hid/disp/oled_display.h ****     {
 1351              		.loc 6 42 10 is_stmt 1 view -0
 1352              		.cfi_startproc
 1353              		@ args = 0, pretend = 0, frame = 0
 1354              		@ frame_needed = 0, uses_anonymous_args = 0
 1355              		@ link register save eliminated.
 1356              	.LBB524:
 1357              	.LBI524:
 352:../../DaisyExamples/libDaisy//src/dev/oled_ssd130x.h ****     {
 1358              		.loc 7 352 10 view .LVU287
 1359              	.LBB525:
 354:../../DaisyExamples/libDaisy//src/dev/oled_ssd130x.h ****             return;
 1360              		.loc 7 354 9 is_stmt 0 view .LVU288
 1361 0000 7F29     		cmp	r1, #127
 1362 0002 1ED8     		bhi	.L104
 1363 0004 1F2A     		cmp	r2, #31
 1364 0006 1CD8     		bhi	.L104
 356:../../DaisyExamples/libDaisy//src/dev/oled_ssd130x.h ****             buffer_[x + (y / 8) * width] |= (1 << (y % 8));
 1365              		.loc 7 356 9 view .LVU289
 1366 0008 6BB1     		cbz	r3, .L106
 357:../../DaisyExamples/libDaisy//src/dev/oled_ssd130x.h ****         else
 1367              		.loc 7 357 28 view .LVU290
 1368 000a D308     		lsrs	r3, r2, #3
 1369              	.LVL98:
 357:../../DaisyExamples/libDaisy//src/dev/oled_ssd130x.h ****         else
 1370              		.loc 7 357 48 view .LVU291
 1371 000c 4FF0010C 		mov	ip, #1
 357:../../DaisyExamples/libDaisy//src/dev/oled_ssd130x.h ****         else
 1372              		.loc 7 357 54 view .LVU292
 1373 0010 02F00702 		and	r2, r2, #7
 1374              	.LVL99:
 357:../../DaisyExamples/libDaisy//src/dev/oled_ssd130x.h ****         else
ARM GAS  /var/folders/hp/45mn71hd0ps5f5pnytxy5bt00000gn/T//ccdvmoSj.s 			page 51


 1375              		.loc 7 357 42 view .LVU293
 1376 0014 01EBC313 		add	r3, r1, r3, lsl #7
 357:../../DaisyExamples/libDaisy//src/dev/oled_ssd130x.h ****         else
 1377              		.loc 7 357 48 view .LVU294
 1378 0018 0CFA02F2 		lsl	r2, ip, r2
 357:../../DaisyExamples/libDaisy//src/dev/oled_ssd130x.h ****         else
 1379              		.loc 7 357 42 view .LVU295
 1380 001c C118     		adds	r1, r0, r3
 1381              	.LVL100:
 357:../../DaisyExamples/libDaisy//src/dev/oled_ssd130x.h ****         else
 1382              		.loc 7 357 42 view .LVU296
 1383 001e 0B7C     		ldrb	r3, [r1, #16]	@ zero_extendqisi2
 1384 0020 1A43     		orrs	r2, r2, r3
 1385 0022 0A74     		strb	r2, [r1, #16]
 1386 0024 7047     		bx	lr
 1387              	.LVL101:
 1388              	.L106:
 1389              	.LBB526:
 1390              	.LBI526:
 352:../../DaisyExamples/libDaisy//src/dev/oled_ssd130x.h ****     {
 1391              		.loc 7 352 10 is_stmt 1 view .LVU297
 1392              	.LBB527:
 359:../../DaisyExamples/libDaisy//src/dev/oled_ssd130x.h ****     }
 1393              		.loc 7 359 28 is_stmt 0 view .LVU298
 1394 0026 D308     		lsrs	r3, r2, #3
 1395              	.LVL102:
 359:../../DaisyExamples/libDaisy//src/dev/oled_ssd130x.h ****     }
 1396              		.loc 7 359 49 view .LVU299
 1397 0028 4FF0010C 		mov	ip, #1
 359:../../DaisyExamples/libDaisy//src/dev/oled_ssd130x.h ****     }
 1398              		.loc 7 359 55 view .LVU300
 1399 002c 02F00702 		and	r2, r2, #7
 1400              	.LVL103:
 359:../../DaisyExamples/libDaisy//src/dev/oled_ssd130x.h ****     }
 1401              		.loc 7 359 42 view .LVU301
 1402 0030 01EBC313 		add	r3, r1, r3, lsl #7
 359:../../DaisyExamples/libDaisy//src/dev/oled_ssd130x.h ****     }
 1403              		.loc 7 359 49 view .LVU302
 1404 0034 0CFA02FC 		lsl	ip, ip, r2
 359:../../DaisyExamples/libDaisy//src/dev/oled_ssd130x.h ****     }
 1405              		.loc 7 359 42 view .LVU303
 1406 0038 C118     		adds	r1, r0, r3
 1407              	.LVL104:
 359:../../DaisyExamples/libDaisy//src/dev/oled_ssd130x.h ****     }
 1408              		.loc 7 359 42 view .LVU304
 1409 003a 0A7C     		ldrb	r2, [r1, #16]	@ zero_extendqisi2
 1410 003c 22EA0C02 		bic	r2, r2, ip
 1411 0040 0A74     		strb	r2, [r1, #16]
 1412              	.LVL105:
 1413              	.L104:
 359:../../DaisyExamples/libDaisy//src/dev/oled_ssd130x.h ****     }
 1414              		.loc 7 359 42 view .LVU305
 1415              	.LBE527:
 1416              	.LBE526:
 1417              	.LBE525:
 1418              	.LBE524:
  45:../../DaisyExamples/libDaisy//src/hid/disp/oled_display.h **** 
ARM GAS  /var/folders/hp/45mn71hd0ps5f5pnytxy5bt00000gn/T//ccdvmoSj.s 			page 52


 1419              		.loc 6 45 5 view .LVU306
 1420 0042 7047     		bx	lr
 1421              		.cfi_endproc
 1422              	.LFE2665:
 1424              		.section	.text._ZN5daisy25OneBitGraphicsDisplayImplINS_11OledDisplayINS_13SSD130xDriverILj128ELj32
 1425              		.align	1
 1426              		.p2align 2,,3
 1427              		.weak	_ZN5daisy25OneBitGraphicsDisplayImplINS_11OledDisplayINS_13SSD130xDriverILj128ELj32ENS_19SSD
 1428              		.syntax unified
 1429              		.thumb
 1430              		.thumb_func
 1432              	_ZN5daisy25OneBitGraphicsDisplayImplINS_11OledDisplayINS_13SSD130xDriverILj128ELj32ENS_19SSD130xI2C
 1433              	.LVL106:
 1434              	.LFB2674:
 221:../../DaisyExamples/libDaisy//src/hid/disp/display.h ****                   uint_fast8_t y1,
 1435              		.loc 8 221 10 is_stmt 1 view -0
 1436              		.cfi_startproc
 1437              		@ args = 8, pretend = 0, frame = 8
 1438              		@ frame_needed = 0, uses_anonymous_args = 0
 221:../../DaisyExamples/libDaisy//src/hid/disp/display.h ****                   uint_fast8_t y1,
 1439              		.loc 8 221 10 is_stmt 0 view .LVU308
 1440 0000 2DE9F04F 		push	{r4, r5, r6, r7, r8, r9, r10, fp, lr}
 1441              		.cfi_def_cfa_offset 36
 1442              		.cfi_offset 4, -36
 1443              		.cfi_offset 5, -32
 1444              		.cfi_offset 6, -28
 1445              		.cfi_offset 7, -24
 1446              		.cfi_offset 8, -20
 1447              		.cfi_offset 9, -16
 1448              		.cfi_offset 10, -12
 1449              		.cfi_offset 11, -8
 1450              		.cfi_offset 14, -4
 1451 0004 83B0     		sub	sp, sp, #12
 1452              		.cfi_def_cfa_offset 48
 227:../../DaisyExamples/libDaisy//src/hid/disp/display.h ****         int_fast16_t deltaY = abs((int_fast16_t)y2 - (int_fast16_t)y1);
 1453              		.loc 8 227 52 view .LVU309
 1454 0006 5C1A     		subs	r4, r3, r1
 221:../../DaisyExamples/libDaisy//src/hid/disp/display.h ****                   uint_fast8_t y1,
 1455              		.loc 8 221 10 view .LVU310
 1456 0008 0C9E     		ldr	r6, [sp, #48]
 227:../../DaisyExamples/libDaisy//src/hid/disp/display.h ****         int_fast16_t deltaY = abs((int_fast16_t)y2 - (int_fast16_t)y1);
 1457              		.loc 8 227 22 view .LVU311
 1458 000a 002C     		cmp	r4, #0
 221:../../DaisyExamples/libDaisy//src/hid/disp/display.h ****                   uint_fast8_t y1,
 1459              		.loc 8 221 10 view .LVU312
 1460 000c 9DF83490 		ldrb	r9, [sp, #52]	@ zero_extendqisi2
 228:../../DaisyExamples/libDaisy//src/hid/disp/display.h ****         int_fast16_t signX  = ((x1 < x2) ? 1 : -1);
 1461              		.loc 8 228 52 view .LVU313
 1462 0010 A6EB0208 		sub	r8, r6, r2
 227:../../DaisyExamples/libDaisy//src/hid/disp/display.h ****         int_fast16_t deltaY = abs((int_fast16_t)y2 - (int_fast16_t)y1);
 1463              		.loc 8 227 22 view .LVU314
 1464 0014 B8BF     		it	lt
 1465 0016 6442     		rsblt	r4, r4, #0
 1466              	.LVL107:
 228:../../DaisyExamples/libDaisy//src/hid/disp/display.h ****         int_fast16_t signX  = ((x1 < x2) ? 1 : -1);
 1467              		.loc 8 228 22 view .LVU315
 1468 0018 B8F1000F 		cmp	r8, #0
ARM GAS  /var/folders/hp/45mn71hd0ps5f5pnytxy5bt00000gn/T//ccdvmoSj.s 			page 53


 1469 001c B8BF     		it	lt
 1470 001e C8F10008 		rsblt	r8, r8, #0
 1471              	.LVL108:
 229:../../DaisyExamples/libDaisy//src/hid/disp/display.h ****         int_fast16_t signY  = ((y1 < y2) ? 1 : -1);
 1472              		.loc 8 229 42 view .LVU316
 1473 0022 8B42     		cmp	r3, r1
 1474 0024 8CBF     		ite	hi
 1475 0026 4FF0010A 		movhi	r10, #1
 1476 002a 4FF0FF3A 		movls	r10, #-1
 1477              	.LVL109:
 230:../../DaisyExamples/libDaisy//src/hid/disp/display.h ****         int_fast16_t error  = deltaX - deltaY;
 1478              		.loc 8 230 42 view .LVU317
 1479 002e 9642     		cmp	r6, r2
 231:../../DaisyExamples/libDaisy//src/hid/disp/display.h ****         int_fast16_t error2;
 1480              		.loc 8 231 22 view .LVU318
 1481 0030 A4EB080C 		sub	ip, r4, r8
 230:../../DaisyExamples/libDaisy//src/hid/disp/display.h ****         int_fast16_t error  = deltaX - deltaY;
 1482              		.loc 8 230 42 view .LVU319
 1483 0034 51D8     		bhi	.L109
 1484              	.LVL110:
 1485              	.LBB544:
 1486              	.LBI544:
  42:../../DaisyExamples/libDaisy//src/hid/disp/oled_display.h ****     {
 1487              		.loc 6 42 10 is_stmt 1 discriminator 4 view .LVU320
 1488              	.LBB545:
 1489              	.LBI545:
 352:../../DaisyExamples/libDaisy//src/dev/oled_ssd130x.h ****     {
 1490              		.loc 7 352 10 discriminator 4 view .LVU321
 1491              	.LBE545:
 1492              	.LBE544:
 230:../../DaisyExamples/libDaisy//src/hid/disp/display.h ****         int_fast16_t error  = deltaX - deltaY;
 1493              		.loc 8 230 42 is_stmt 0 discriminator 4 view .LVU322
 1494 0036 4FF0FF35 		mov	r5, #-1
 1495              	.LBB561:
 1496              	.LBB555:
 1497              	.LBB546:
 354:../../DaisyExamples/libDaisy//src/dev/oled_ssd130x.h ****             return;
 1498              		.loc 7 354 9 discriminator 4 view .LVU323
 1499 003a 7F2B     		cmp	r3, #127
 1500              	.LBE546:
 1501              	.LBE555:
 1502              	.LBE561:
 230:../../DaisyExamples/libDaisy//src/hid/disp/display.h ****         int_fast16_t error  = deltaX - deltaY;
 1503              		.loc 8 230 42 discriminator 4 view .LVU324
 1504 003c 0195     		str	r5, [sp, #4]
 1505              	.LBB562:
 1506              	.LBB556:
 1507              	.LBB551:
 354:../../DaisyExamples/libDaisy//src/dev/oled_ssd130x.h ****             return;
 1508              		.loc 7 354 9 discriminator 4 view .LVU325
 1509 003e 12D8     		bhi	.L110
 1510 0040 1F2E     		cmp	r6, #31
 1511 0042 10D8     		bhi	.L110
 1512              	.LVL111:
 1513              	.L121:
 357:../../DaisyExamples/libDaisy//src/dev/oled_ssd130x.h ****         else
 1514              		.loc 7 357 28 view .LVU326
ARM GAS  /var/folders/hp/45mn71hd0ps5f5pnytxy5bt00000gn/T//ccdvmoSj.s 			page 54


 1515 0044 F508     		lsrs	r5, r6, #3
 357:../../DaisyExamples/libDaisy//src/dev/oled_ssd130x.h ****         else
 1516              		.loc 7 357 54 view .LVU327
 1517 0046 06F0070E 		and	lr, r6, #7
 357:../../DaisyExamples/libDaisy//src/dev/oled_ssd130x.h ****         else
 1518              		.loc 7 357 48 view .LVU328
 1519 004a 0127     		movs	r7, #1
 357:../../DaisyExamples/libDaisy//src/dev/oled_ssd130x.h ****         else
 1520              		.loc 7 357 42 view .LVU329
 1521 004c 03EBC515 		add	r5, r3, r5, lsl #7
 1522 0050 0544     		add	r5, r5, r0
 356:../../DaisyExamples/libDaisy//src/dev/oled_ssd130x.h ****             buffer_[x + (y / 8) * width] |= (1 << (y % 8));
 1523              		.loc 7 356 9 view .LVU330
 1524 0052 B9F1000F 		cmp	r9, #0
 1525 0056 47D0     		beq	.L111
 357:../../DaisyExamples/libDaisy//src/dev/oled_ssd130x.h ****         else
 1526              		.loc 7 357 48 view .LVU331
 1527 0058 07FA0EF7 		lsl	r7, r7, lr
 357:../../DaisyExamples/libDaisy//src/dev/oled_ssd130x.h ****         else
 1528              		.loc 7 357 42 view .LVU332
 1529 005c 95F810E0 		ldrb	lr, [r5, #16]	@ zero_extendqisi2
 1530 0060 47EA0E07 		orr	r7, r7, lr
 1531 0064 2F74     		strb	r7, [r5, #16]
 1532              	.LVL112:
 1533              	.L110:
 357:../../DaisyExamples/libDaisy//src/dev/oled_ssd130x.h ****         else
 1534              		.loc 7 357 42 view .LVU333
 1535              	.LBE551:
 1536              	.LBE556:
 1537              	.LBE562:
 239:../../DaisyExamples/libDaisy//src/hid/disp/display.h ****         {
 1538              		.loc 8 239 26 is_stmt 1 view .LVU334
 1539 0066 9642     		cmp	r6, r2
 1540 0068 01D1     		bne	.L114
 1541              	.L133:
 239:../../DaisyExamples/libDaisy//src/hid/disp/display.h ****         {
 1542              		.loc 8 239 26 is_stmt 0 view .LVU335
 1543 006a 8B42     		cmp	r3, r1
 1544 006c 29D0     		beq	.L107
 1545              	.L114:
 1546              	.LVL113:
 243:../../DaisyExamples/libDaisy//src/hid/disp/display.h ****             {
 1547              		.loc 8 243 23 view .LVU336
 1548 006e C8F10007 		rsb	r7, r8, #0
 1549              	.L116:
 1550              	.LVL114:
 1551              	.LBB563:
 1552              	.LBI563:
  42:../../DaisyExamples/libDaisy//src/hid/disp/oled_display.h ****     {
 1553              		.loc 6 42 10 is_stmt 1 view .LVU337
 1554              	.LBB564:
 1555              	.LBI564:
 352:../../DaisyExamples/libDaisy//src/dev/oled_ssd130x.h ****     {
 1556              		.loc 7 352 10 view .LVU338
 1557              	.LBB565:
 354:../../DaisyExamples/libDaisy//src/dev/oled_ssd130x.h ****             return;
 1558              		.loc 7 354 9 is_stmt 0 view .LVU339
ARM GAS  /var/folders/hp/45mn71hd0ps5f5pnytxy5bt00000gn/T//ccdvmoSj.s 			page 55


 1559 0072 7F29     		cmp	r1, #127
 1560 0074 14D8     		bhi	.L117
 1561 0076 1F2A     		cmp	r2, #31
 1562 0078 12D8     		bhi	.L117
 357:../../DaisyExamples/libDaisy//src/dev/oled_ssd130x.h ****         else
 1563              		.loc 7 357 28 view .LVU340
 1564 007a D508     		lsrs	r5, r2, #3
 357:../../DaisyExamples/libDaisy//src/dev/oled_ssd130x.h ****         else
 1565              		.loc 7 357 54 view .LVU341
 1566 007c 02F0070B 		and	fp, r2, #7
 357:../../DaisyExamples/libDaisy//src/dev/oled_ssd130x.h ****         else
 1567              		.loc 7 357 48 view .LVU342
 1568 0080 4FF0010E 		mov	lr, #1
 357:../../DaisyExamples/libDaisy//src/dev/oled_ssd130x.h ****         else
 1569              		.loc 7 357 42 view .LVU343
 1570 0084 01EBC515 		add	r5, r1, r5, lsl #7
 1571 0088 0544     		add	r5, r5, r0
 356:../../DaisyExamples/libDaisy//src/dev/oled_ssd130x.h ****             buffer_[x + (y / 8) * width] |= (1 << (y % 8));
 1572              		.loc 7 356 9 view .LVU344
 1573 008a B9F1000F 		cmp	r9, #0
 1574 008e 1BD0     		beq	.L118
 357:../../DaisyExamples/libDaisy//src/dev/oled_ssd130x.h ****         else
 1575              		.loc 7 357 48 view .LVU345
 1576 0090 0EFA0BFE 		lsl	lr, lr, fp
 357:../../DaisyExamples/libDaisy//src/dev/oled_ssd130x.h ****         else
 1577              		.loc 7 357 42 view .LVU346
 1578 0094 95F810B0 		ldrb	fp, [r5, #16]	@ zero_extendqisi2
 1579 0098 4EEA0B0E 		orr	lr, lr, fp
 1580 009c 85F810E0 		strb	lr, [r5, #16]
 1581              	.L117:
 1582              	.LVL115:
 357:../../DaisyExamples/libDaisy//src/dev/oled_ssd130x.h ****         else
 1583              		.loc 7 357 42 view .LVU347
 1584              	.LBE565:
 1585              	.LBE564:
 1586              	.LBE563:
 243:../../DaisyExamples/libDaisy//src/hid/disp/display.h ****             {
 1587              		.loc 8 243 13 view .LVU348
 1588 00a0 B7EB4C0F 		cmp	r7, ip, lsl #1
 242:../../DaisyExamples/libDaisy//src/hid/disp/display.h ****             if(error2 > -deltaY)
 1589              		.loc 8 242 20 view .LVU349
 1590 00a4 4FEA4C05 		lsl	r5, ip, #1
 1591              	.LVL116:
 243:../../DaisyExamples/libDaisy//src/hid/disp/display.h ****             {
 1592              		.loc 8 243 13 view .LVU350
 1593 00a8 02DA     		bge	.L119
 245:../../DaisyExamples/libDaisy//src/hid/disp/display.h ****                 x1 += signX;
 1594              		.loc 8 245 23 view .LVU351
 1595 00aa ACEB080C 		sub	ip, ip, r8
 1596              	.LVL117:
 246:../../DaisyExamples/libDaisy//src/hid/disp/display.h ****             }
 1597              		.loc 8 246 20 view .LVU352
 1598 00ae 5144     		add	r1, r1, r10
 1599              	.LVL118:
 1600              	.L119:
 249:../../DaisyExamples/libDaisy//src/hid/disp/display.h ****             {
 1601              		.loc 8 249 13 view .LVU353
ARM GAS  /var/folders/hp/45mn71hd0ps5f5pnytxy5bt00000gn/T//ccdvmoSj.s 			page 56


 1602 00b0 AC42     		cmp	r4, r5
 1603 00b2 02DD     		ble	.L120
 252:../../DaisyExamples/libDaisy//src/hid/disp/display.h ****             }
 1604              		.loc 8 252 20 view .LVU354
 1605 00b4 019D     		ldr	r5, [sp, #4]
 1606              	.LVL119:
 251:../../DaisyExamples/libDaisy//src/hid/disp/display.h ****                 y1 += signY;
 1607              		.loc 8 251 23 view .LVU355
 1608 00b6 A444     		add	ip, ip, r4
 1609              	.LVL120:
 252:../../DaisyExamples/libDaisy//src/hid/disp/display.h ****             }
 1610              		.loc 8 252 20 view .LVU356
 1611 00b8 2A44     		add	r2, r2, r5
 1612              	.LVL121:
 1613              	.L120:
 239:../../DaisyExamples/libDaisy//src/hid/disp/display.h ****         {
 1614              		.loc 8 239 26 is_stmt 1 view .LVU357
 1615 00ba 9942     		cmp	r1, r3
 1616 00bc D9D1     		bne	.L116
 239:../../DaisyExamples/libDaisy//src/hid/disp/display.h ****         {
 1617              		.loc 8 239 26 is_stmt 0 view .LVU358
 1618 00be 9642     		cmp	r6, r2
 1619 00c0 D7D1     		bne	.L116
 1620              	.L107:
 255:../../DaisyExamples/libDaisy//src/hid/disp/display.h **** 
 1621              		.loc 8 255 5 view .LVU359
 1622 00c2 03B0     		add	sp, sp, #12
 1623              		.cfi_remember_state
 1624              		.cfi_def_cfa_offset 36
 1625              		@ sp needed
 1626 00c4 BDE8F08F 		pop	{r4, r5, r6, r7, r8, r9, r10, fp, pc}
 1627              	.LVL122:
 1628              	.L118:
 1629              		.cfi_restore_state
 1630              	.LBB570:
 1631              	.LBB569:
 1632              	.LBB568:
 1633              	.LBB566:
 1634              	.LBI566:
 352:../../DaisyExamples/libDaisy//src/dev/oled_ssd130x.h ****     {
 1635              		.loc 7 352 10 is_stmt 1 view .LVU360
 1636              	.LBB567:
 359:../../DaisyExamples/libDaisy//src/dev/oled_ssd130x.h ****     }
 1637              		.loc 7 359 49 is_stmt 0 view .LVU361
 1638 00c8 0EFA0BFB 		lsl	fp, lr, fp
 359:../../DaisyExamples/libDaisy//src/dev/oled_ssd130x.h ****     }
 1639              		.loc 7 359 42 view .LVU362
 1640 00cc 95F810E0 		ldrb	lr, [r5, #16]	@ zero_extendqisi2
 1641 00d0 2EEA0B0E 		bic	lr, lr, fp
 1642 00d4 85F810E0 		strb	lr, [r5, #16]
 1643 00d8 E2E7     		b	.L117
 1644              	.LVL123:
 1645              	.L109:
 359:../../DaisyExamples/libDaisy//src/dev/oled_ssd130x.h ****     }
 1646              		.loc 7 359 42 view .LVU363
 1647              	.LBE567:
 1648              	.LBE566:
ARM GAS  /var/folders/hp/45mn71hd0ps5f5pnytxy5bt00000gn/T//ccdvmoSj.s 			page 57


 1649              	.LBE568:
 1650              	.LBE569:
 1651              	.LBE570:
 1652              	.LBB571:
  42:../../DaisyExamples/libDaisy//src/hid/disp/oled_display.h ****     {
 1653              		.loc 6 42 10 is_stmt 1 view .LVU364
 1654              	.LBB557:
 352:../../DaisyExamples/libDaisy//src/dev/oled_ssd130x.h ****     {
 1655              		.loc 7 352 10 view .LVU365
 1656              	.LBE557:
 1657              	.LBE571:
 230:../../DaisyExamples/libDaisy//src/hid/disp/display.h ****         int_fast16_t error  = deltaX - deltaY;
 1658              		.loc 8 230 42 is_stmt 0 view .LVU366
 1659 00da 0125     		movs	r5, #1
 1660              	.LBB572:
 1661              	.LBB558:
 1662              	.LBB552:
 354:../../DaisyExamples/libDaisy//src/dev/oled_ssd130x.h ****             return;
 1663              		.loc 7 354 9 view .LVU367
 1664 00dc 7F2B     		cmp	r3, #127
 1665              	.LBE552:
 1666              	.LBE558:
 1667              	.LBE572:
 230:../../DaisyExamples/libDaisy//src/hid/disp/display.h ****         int_fast16_t error  = deltaX - deltaY;
 1668              		.loc 8 230 42 view .LVU368
 1669 00de 0195     		str	r5, [sp, #4]
 1670              	.LBB573:
 1671              	.LBB559:
 1672              	.LBB553:
 354:../../DaisyExamples/libDaisy//src/dev/oled_ssd130x.h ****             return;
 1673              		.loc 7 354 9 view .LVU369
 1674 00e0 C5D8     		bhi	.L114
 1675 00e2 1F2E     		cmp	r6, #31
 1676 00e4 AED9     		bls	.L121
 1677 00e6 C2E7     		b	.L114
 1678              	.LVL124:
 1679              	.L111:
 1680              	.LBB547:
 1681              	.LBI547:
 352:../../DaisyExamples/libDaisy//src/dev/oled_ssd130x.h ****     {
 1682              		.loc 7 352 10 is_stmt 1 view .LVU370
 1683              	.LBB548:
 359:../../DaisyExamples/libDaisy//src/dev/oled_ssd130x.h ****     }
 1684              		.loc 7 359 49 is_stmt 0 view .LVU371
 1685 00e8 07FA0EFE 		lsl	lr, r7, lr
 359:../../DaisyExamples/libDaisy//src/dev/oled_ssd130x.h ****     }
 1686              		.loc 7 359 42 view .LVU372
 1687 00ec 2F7C     		ldrb	r7, [r5, #16]	@ zero_extendqisi2
 1688              	.LBE548:
 1689              	.LBE547:
 1690              	.LBE553:
 1691              	.LBE559:
 1692              	.LBE573:
 239:../../DaisyExamples/libDaisy//src/hid/disp/display.h ****         {
 1693              		.loc 8 239 26 view .LVU373
 1694 00ee 9642     		cmp	r6, r2
 1695              	.LBB574:
ARM GAS  /var/folders/hp/45mn71hd0ps5f5pnytxy5bt00000gn/T//ccdvmoSj.s 			page 58


 1696              	.LBB560:
 1697              	.LBB554:
 1698              	.LBB550:
 1699              	.LBB549:
 359:../../DaisyExamples/libDaisy//src/dev/oled_ssd130x.h ****     }
 1700              		.loc 7 359 42 view .LVU374
 1701 00f0 27EA0E07 		bic	r7, r7, lr
 1702 00f4 2F74     		strb	r7, [r5, #16]
 1703              	.LVL125:
 359:../../DaisyExamples/libDaisy//src/dev/oled_ssd130x.h ****     }
 1704              		.loc 7 359 42 view .LVU375
 1705              	.LBE549:
 1706              	.LBE550:
 1707              	.LBE554:
 1708              	.LBE560:
 1709              	.LBE574:
 239:../../DaisyExamples/libDaisy//src/hid/disp/display.h ****         {
 1710              		.loc 8 239 26 is_stmt 1 view .LVU376
 1711 00f6 B8D0     		beq	.L133
 1712 00f8 B9E7     		b	.L114
 1713              		.cfi_endproc
 1714              	.LFE2674:
 1716 00fa 00BF     		.section	.text._ZN5daisy25OneBitGraphicsDisplayImplINS_11OledDisplayINS_13SSD130xDriverILj128ELj32
 1717              		.align	1
 1718              		.p2align 2,,3
 1719              		.weak	_ZN5daisy25OneBitGraphicsDisplayImplINS_11OledDisplayINS_13SSD130xDriverILj128ELj32ENS_19SSD
 1720              		.syntax unified
 1721              		.thumb
 1722              		.thumb_func
 1724              	_ZN5daisy25OneBitGraphicsDisplayImplINS_11OledDisplayINS_13SSD130xDriverILj128ELj32ENS_19SSD130xI2C
 1725              	.LVL126:
 1726              	.LFB2676:
 283:../../DaisyExamples/libDaisy//src/hid/disp/display.h ****                  uint_fast8_t y,
 1727              		.loc 8 283 10 view -0
 1728              		.cfi_startproc
 1729              		@ args = 12, pretend = 0, frame = 8
 1730              		@ frame_needed = 0, uses_anonymous_args = 0
 283:../../DaisyExamples/libDaisy//src/hid/disp/display.h ****                  uint_fast8_t y,
 1731              		.loc 8 283 10 is_stmt 0 view .LVU378
 1732 0000 2DE9F04F 		push	{r4, r5, r6, r7, r8, r9, r10, fp, lr}
 1733              		.cfi_def_cfa_offset 36
 1734              		.cfi_offset 4, -36
 1735              		.cfi_offset 5, -32
 1736              		.cfi_offset 6, -28
 1737              		.cfi_offset 7, -24
 1738              		.cfi_offset 8, -20
 1739              		.cfi_offset 9, -16
 1740              		.cfi_offset 10, -12
 1741              		.cfi_offset 11, -8
 1742              		.cfi_offset 14, -4
 1743 0004 2DED068B 		vpush.64	{d8, d9, d10}
 1744              		.cfi_def_cfa_offset 60
 1745              		.cfi_offset 80, -60
 1746              		.cfi_offset 81, -56
 1747              		.cfi_offset 82, -52
 1748              		.cfi_offset 83, -48
 1749              		.cfi_offset 84, -44
ARM GAS  /var/folders/hp/45mn71hd0ps5f5pnytxy5bt00000gn/T//ccdvmoSj.s 			page 59


 1750              		.cfi_offset 85, -40
 1751 0008 83B0     		sub	sp, sp, #12
 1752              		.cfi_def_cfa_offset 72
 283:../../DaisyExamples/libDaisy//src/hid/disp/display.h ****                  uint_fast8_t y,
 1753              		.loc 8 283 10 view .LVU379
 1754 000a 1F46     		mov	r7, r3
 1755 000c 8046     		mov	r8, r0
 1756 000e 0D46     		mov	r5, r1
 1757 0010 9DF85030 		ldrb	r3, [sp, #80]	@ zero_extendqisi2
 1758              	.LVL127:
 283:../../DaisyExamples/libDaisy//src/hid/disp/display.h ****                  uint_fast8_t y,
 1759              		.loc 8 283 10 view .LVU380
 1760 0014 1646     		mov	r6, r2
 1761 0016 0193     		str	r3, [sp, #4]
 306:../../DaisyExamples/libDaisy//src/hid/disp/display.h ****         {
 1762              		.loc 8 306 9 view .LVU381
 1763 0018 139B     		ldr	r3, [sp, #76]
 1764 001a 002B     		cmp	r3, #0
 1765 001c C0F22182 		blt	.L135
 313:../../DaisyExamples/libDaisy//src/hid/disp/display.h **** 
 1766              		.loc 8 313 27 view .LVU382
 1767 0020 129A     		ldr	r2, [sp, #72]
 1768              	.LVL128:
 313:../../DaisyExamples/libDaisy//src/hid/disp/display.h **** 
 1769              		.loc 8 313 27 view .LVU383
 1770 0022 1344     		add	r3, r3, r2
 1771 0024 06EE103A 		vmov	s12, r3	@ int
 1772              	.LVL129:
 1773              	.L136:
 312:../../DaisyExamples/libDaisy//src/hid/disp/display.h ****         end_angle_rad   = deg2rad(start_angle + sweep);
 1774              		.loc 8 312 27 view .LVU384
 1775 0028 DDED127A 		vldr.32	s15, [sp, #72]	@ int
 313:../../DaisyExamples/libDaisy//src/hid/disp/display.h **** 
 1776              		.loc 8 313 27 view .LVU385
 1777 002c B8EEC66B 		vcvt.f64.s32	d6, s12
 312:../../DaisyExamples/libDaisy//src/hid/disp/display.h ****         end_angle_rad   = deg2rad(start_angle + sweep);
 1778              		.loc 8 312 27 view .LVU386
 1779 0030 9FEDCD4B 		vldr.64	d4, .L211
 1780 0034 B8EEE77B 		vcvt.f64.s32	d7, s15
 1781 0038 9FEDCD5B 		vldr.64	d5, .L211+8
 1782 003c 27EE047B 		vmul.f64	d7, d7, d4
 313:../../DaisyExamples/libDaisy//src/hid/disp/display.h **** 
 1783              		.loc 8 313 27 view .LVU387
 1784 0040 26EE046B 		vmul.f64	d6, d6, d4
 312:../../DaisyExamples/libDaisy//src/hid/disp/display.h ****         end_angle_rad   = deg2rad(start_angle + sweep);
 1785              		.loc 8 312 27 view .LVU388
 1786 0044 87EE050B 		vdiv.f64	d0, d7, d5
 313:../../DaisyExamples/libDaisy//src/hid/disp/display.h **** 
 1787              		.loc 8 313 27 view .LVU389
 1788 0048 86EE05AB 		vdiv.f64	d10, d6, d5
 312:../../DaisyExamples/libDaisy//src/hid/disp/display.h ****         end_angle_rad   = deg2rad(start_angle + sweep);
 1789              		.loc 8 312 25 view .LVU390
 1790 004c F7EEC08B 		vcvt.f32.f64	s17, d0
 1791              	.LVL130:
 1792              	.LBB607:
 1793              	.LBB608:
 1794              		.file 9 "/Library/DaisyToolchain/0.2.0/arm/arm-none-eabi/include/c++/10.3.1/cmath"
ARM GAS  /var/folders/hp/45mn71hd0ps5f5pnytxy5bt00000gn/T//ccdvmoSj.s 			page 60


   1:/Library/DaisyToolchain/0.2.0/arm/arm-none-eabi/include/c++/10.3.1/cmath **** // -*- C++ -*- C forwarding header.
   2:/Library/DaisyToolchain/0.2.0/arm/arm-none-eabi/include/c++/10.3.1/cmath **** 
   3:/Library/DaisyToolchain/0.2.0/arm/arm-none-eabi/include/c++/10.3.1/cmath **** // Copyright (C) 1997-2020 Free Software Foundation, Inc.
   4:/Library/DaisyToolchain/0.2.0/arm/arm-none-eabi/include/c++/10.3.1/cmath **** //
   5:/Library/DaisyToolchain/0.2.0/arm/arm-none-eabi/include/c++/10.3.1/cmath **** // This file is part of the GNU ISO C++ Library.  This library is free
   6:/Library/DaisyToolchain/0.2.0/arm/arm-none-eabi/include/c++/10.3.1/cmath **** // software; you can redistribute it and/or modify it under the
   7:/Library/DaisyToolchain/0.2.0/arm/arm-none-eabi/include/c++/10.3.1/cmath **** // terms of the GNU General Public License as published by the
   8:/Library/DaisyToolchain/0.2.0/arm/arm-none-eabi/include/c++/10.3.1/cmath **** // Free Software Foundation; either version 3, or (at your option)
   9:/Library/DaisyToolchain/0.2.0/arm/arm-none-eabi/include/c++/10.3.1/cmath **** // any later version.
  10:/Library/DaisyToolchain/0.2.0/arm/arm-none-eabi/include/c++/10.3.1/cmath **** 
  11:/Library/DaisyToolchain/0.2.0/arm/arm-none-eabi/include/c++/10.3.1/cmath **** // This library is distributed in the hope that it will be useful,
  12:/Library/DaisyToolchain/0.2.0/arm/arm-none-eabi/include/c++/10.3.1/cmath **** // but WITHOUT ANY WARRANTY; without even the implied warranty of
  13:/Library/DaisyToolchain/0.2.0/arm/arm-none-eabi/include/c++/10.3.1/cmath **** // MERCHANTABILITY or FITNESS FOR A PARTICULAR PURPOSE.  See the
  14:/Library/DaisyToolchain/0.2.0/arm/arm-none-eabi/include/c++/10.3.1/cmath **** // GNU General Public License for more details.
  15:/Library/DaisyToolchain/0.2.0/arm/arm-none-eabi/include/c++/10.3.1/cmath **** 
  16:/Library/DaisyToolchain/0.2.0/arm/arm-none-eabi/include/c++/10.3.1/cmath **** // Under Section 7 of GPL version 3, you are granted additional
  17:/Library/DaisyToolchain/0.2.0/arm/arm-none-eabi/include/c++/10.3.1/cmath **** // permissions described in the GCC Runtime Library Exception, version
  18:/Library/DaisyToolchain/0.2.0/arm/arm-none-eabi/include/c++/10.3.1/cmath **** // 3.1, as published by the Free Software Foundation.
  19:/Library/DaisyToolchain/0.2.0/arm/arm-none-eabi/include/c++/10.3.1/cmath **** 
  20:/Library/DaisyToolchain/0.2.0/arm/arm-none-eabi/include/c++/10.3.1/cmath **** // You should have received a copy of the GNU General Public License and
  21:/Library/DaisyToolchain/0.2.0/arm/arm-none-eabi/include/c++/10.3.1/cmath **** // a copy of the GCC Runtime Library Exception along with this program;
  22:/Library/DaisyToolchain/0.2.0/arm/arm-none-eabi/include/c++/10.3.1/cmath **** // see the files COPYING3 and COPYING.RUNTIME respectively.  If not, see
  23:/Library/DaisyToolchain/0.2.0/arm/arm-none-eabi/include/c++/10.3.1/cmath **** // <http://www.gnu.org/licenses/>.
  24:/Library/DaisyToolchain/0.2.0/arm/arm-none-eabi/include/c++/10.3.1/cmath **** 
  25:/Library/DaisyToolchain/0.2.0/arm/arm-none-eabi/include/c++/10.3.1/cmath **** /** @file include/cmath
  26:/Library/DaisyToolchain/0.2.0/arm/arm-none-eabi/include/c++/10.3.1/cmath ****  *  This is a Standard C++ Library file.  You should @c \#include this file
  27:/Library/DaisyToolchain/0.2.0/arm/arm-none-eabi/include/c++/10.3.1/cmath ****  *  in your programs, rather than any of the @a *.h implementation files.
  28:/Library/DaisyToolchain/0.2.0/arm/arm-none-eabi/include/c++/10.3.1/cmath ****  *
  29:/Library/DaisyToolchain/0.2.0/arm/arm-none-eabi/include/c++/10.3.1/cmath ****  *  This is the C++ version of the Standard C Library header @c math.h,
  30:/Library/DaisyToolchain/0.2.0/arm/arm-none-eabi/include/c++/10.3.1/cmath ****  *  and its contents are (mostly) the same as that header, but are all
  31:/Library/DaisyToolchain/0.2.0/arm/arm-none-eabi/include/c++/10.3.1/cmath ****  *  contained in the namespace @c std (except for names which are defined
  32:/Library/DaisyToolchain/0.2.0/arm/arm-none-eabi/include/c++/10.3.1/cmath ****  *  as macros in C).
  33:/Library/DaisyToolchain/0.2.0/arm/arm-none-eabi/include/c++/10.3.1/cmath ****  */
  34:/Library/DaisyToolchain/0.2.0/arm/arm-none-eabi/include/c++/10.3.1/cmath **** 
  35:/Library/DaisyToolchain/0.2.0/arm/arm-none-eabi/include/c++/10.3.1/cmath **** //
  36:/Library/DaisyToolchain/0.2.0/arm/arm-none-eabi/include/c++/10.3.1/cmath **** // ISO C++ 14882: 26.5  C library
  37:/Library/DaisyToolchain/0.2.0/arm/arm-none-eabi/include/c++/10.3.1/cmath **** //
  38:/Library/DaisyToolchain/0.2.0/arm/arm-none-eabi/include/c++/10.3.1/cmath **** 
  39:/Library/DaisyToolchain/0.2.0/arm/arm-none-eabi/include/c++/10.3.1/cmath **** #pragma GCC system_header
  40:/Library/DaisyToolchain/0.2.0/arm/arm-none-eabi/include/c++/10.3.1/cmath **** 
  41:/Library/DaisyToolchain/0.2.0/arm/arm-none-eabi/include/c++/10.3.1/cmath **** #include <bits/c++config.h>
  42:/Library/DaisyToolchain/0.2.0/arm/arm-none-eabi/include/c++/10.3.1/cmath **** #include <bits/cpp_type_traits.h>
  43:/Library/DaisyToolchain/0.2.0/arm/arm-none-eabi/include/c++/10.3.1/cmath **** #include <ext/type_traits.h>
  44:/Library/DaisyToolchain/0.2.0/arm/arm-none-eabi/include/c++/10.3.1/cmath **** #define _GLIBCXX_INCLUDE_NEXT_C_HEADERS
  45:/Library/DaisyToolchain/0.2.0/arm/arm-none-eabi/include/c++/10.3.1/cmath **** #include_next <math.h>
  46:/Library/DaisyToolchain/0.2.0/arm/arm-none-eabi/include/c++/10.3.1/cmath **** #undef _GLIBCXX_INCLUDE_NEXT_C_HEADERS
  47:/Library/DaisyToolchain/0.2.0/arm/arm-none-eabi/include/c++/10.3.1/cmath **** #include <bits/std_abs.h>
  48:/Library/DaisyToolchain/0.2.0/arm/arm-none-eabi/include/c++/10.3.1/cmath **** 
  49:/Library/DaisyToolchain/0.2.0/arm/arm-none-eabi/include/c++/10.3.1/cmath **** #ifndef _GLIBCXX_CMATH
  50:/Library/DaisyToolchain/0.2.0/arm/arm-none-eabi/include/c++/10.3.1/cmath **** #define _GLIBCXX_CMATH 1
  51:/Library/DaisyToolchain/0.2.0/arm/arm-none-eabi/include/c++/10.3.1/cmath **** 
  52:/Library/DaisyToolchain/0.2.0/arm/arm-none-eabi/include/c++/10.3.1/cmath **** // Get rid of those macros defined in <math.h> in lieu of real functions.
  53:/Library/DaisyToolchain/0.2.0/arm/arm-none-eabi/include/c++/10.3.1/cmath **** #undef div
  54:/Library/DaisyToolchain/0.2.0/arm/arm-none-eabi/include/c++/10.3.1/cmath **** #undef acos
  55:/Library/DaisyToolchain/0.2.0/arm/arm-none-eabi/include/c++/10.3.1/cmath **** #undef asin
  56:/Library/DaisyToolchain/0.2.0/arm/arm-none-eabi/include/c++/10.3.1/cmath **** #undef atan
  57:/Library/DaisyToolchain/0.2.0/arm/arm-none-eabi/include/c++/10.3.1/cmath **** #undef atan2
ARM GAS  /var/folders/hp/45mn71hd0ps5f5pnytxy5bt00000gn/T//ccdvmoSj.s 			page 61


  58:/Library/DaisyToolchain/0.2.0/arm/arm-none-eabi/include/c++/10.3.1/cmath **** #undef ceil
  59:/Library/DaisyToolchain/0.2.0/arm/arm-none-eabi/include/c++/10.3.1/cmath **** #undef cos
  60:/Library/DaisyToolchain/0.2.0/arm/arm-none-eabi/include/c++/10.3.1/cmath **** #undef cosh
  61:/Library/DaisyToolchain/0.2.0/arm/arm-none-eabi/include/c++/10.3.1/cmath **** #undef exp
  62:/Library/DaisyToolchain/0.2.0/arm/arm-none-eabi/include/c++/10.3.1/cmath **** #undef fabs
  63:/Library/DaisyToolchain/0.2.0/arm/arm-none-eabi/include/c++/10.3.1/cmath **** #undef floor
  64:/Library/DaisyToolchain/0.2.0/arm/arm-none-eabi/include/c++/10.3.1/cmath **** #undef fmod
  65:/Library/DaisyToolchain/0.2.0/arm/arm-none-eabi/include/c++/10.3.1/cmath **** #undef frexp
  66:/Library/DaisyToolchain/0.2.0/arm/arm-none-eabi/include/c++/10.3.1/cmath **** #undef ldexp
  67:/Library/DaisyToolchain/0.2.0/arm/arm-none-eabi/include/c++/10.3.1/cmath **** #undef log
  68:/Library/DaisyToolchain/0.2.0/arm/arm-none-eabi/include/c++/10.3.1/cmath **** #undef log10
  69:/Library/DaisyToolchain/0.2.0/arm/arm-none-eabi/include/c++/10.3.1/cmath **** #undef modf
  70:/Library/DaisyToolchain/0.2.0/arm/arm-none-eabi/include/c++/10.3.1/cmath **** #undef pow
  71:/Library/DaisyToolchain/0.2.0/arm/arm-none-eabi/include/c++/10.3.1/cmath **** #undef sin
  72:/Library/DaisyToolchain/0.2.0/arm/arm-none-eabi/include/c++/10.3.1/cmath **** #undef sinh
  73:/Library/DaisyToolchain/0.2.0/arm/arm-none-eabi/include/c++/10.3.1/cmath **** #undef sqrt
  74:/Library/DaisyToolchain/0.2.0/arm/arm-none-eabi/include/c++/10.3.1/cmath **** #undef tan
  75:/Library/DaisyToolchain/0.2.0/arm/arm-none-eabi/include/c++/10.3.1/cmath **** #undef tanh
  76:/Library/DaisyToolchain/0.2.0/arm/arm-none-eabi/include/c++/10.3.1/cmath **** 
  77:/Library/DaisyToolchain/0.2.0/arm/arm-none-eabi/include/c++/10.3.1/cmath **** extern "C++"
  78:/Library/DaisyToolchain/0.2.0/arm/arm-none-eabi/include/c++/10.3.1/cmath **** {
  79:/Library/DaisyToolchain/0.2.0/arm/arm-none-eabi/include/c++/10.3.1/cmath **** namespace std _GLIBCXX_VISIBILITY(default)
  80:/Library/DaisyToolchain/0.2.0/arm/arm-none-eabi/include/c++/10.3.1/cmath **** {
  81:/Library/DaisyToolchain/0.2.0/arm/arm-none-eabi/include/c++/10.3.1/cmath **** _GLIBCXX_BEGIN_NAMESPACE_VERSION
  82:/Library/DaisyToolchain/0.2.0/arm/arm-none-eabi/include/c++/10.3.1/cmath **** 
  83:/Library/DaisyToolchain/0.2.0/arm/arm-none-eabi/include/c++/10.3.1/cmath ****   using ::acos;
  84:/Library/DaisyToolchain/0.2.0/arm/arm-none-eabi/include/c++/10.3.1/cmath **** 
  85:/Library/DaisyToolchain/0.2.0/arm/arm-none-eabi/include/c++/10.3.1/cmath **** #ifndef __CORRECT_ISO_CPP_MATH_H_PROTO
  86:/Library/DaisyToolchain/0.2.0/arm/arm-none-eabi/include/c++/10.3.1/cmath ****   inline _GLIBCXX_CONSTEXPR float
  87:/Library/DaisyToolchain/0.2.0/arm/arm-none-eabi/include/c++/10.3.1/cmath ****   acos(float __x)
  88:/Library/DaisyToolchain/0.2.0/arm/arm-none-eabi/include/c++/10.3.1/cmath ****   { return __builtin_acosf(__x); }
  89:/Library/DaisyToolchain/0.2.0/arm/arm-none-eabi/include/c++/10.3.1/cmath **** 
  90:/Library/DaisyToolchain/0.2.0/arm/arm-none-eabi/include/c++/10.3.1/cmath ****   inline _GLIBCXX_CONSTEXPR long double
  91:/Library/DaisyToolchain/0.2.0/arm/arm-none-eabi/include/c++/10.3.1/cmath ****   acos(long double __x)
  92:/Library/DaisyToolchain/0.2.0/arm/arm-none-eabi/include/c++/10.3.1/cmath ****   { return __builtin_acosl(__x); }
  93:/Library/DaisyToolchain/0.2.0/arm/arm-none-eabi/include/c++/10.3.1/cmath **** #endif
  94:/Library/DaisyToolchain/0.2.0/arm/arm-none-eabi/include/c++/10.3.1/cmath **** 
  95:/Library/DaisyToolchain/0.2.0/arm/arm-none-eabi/include/c++/10.3.1/cmath ****   template<typename _Tp>
  96:/Library/DaisyToolchain/0.2.0/arm/arm-none-eabi/include/c++/10.3.1/cmath ****     inline _GLIBCXX_CONSTEXPR
  97:/Library/DaisyToolchain/0.2.0/arm/arm-none-eabi/include/c++/10.3.1/cmath ****     typename __gnu_cxx::__enable_if<__is_integer<_Tp>::__value, 
  98:/Library/DaisyToolchain/0.2.0/arm/arm-none-eabi/include/c++/10.3.1/cmath ****                                     double>::__type
  99:/Library/DaisyToolchain/0.2.0/arm/arm-none-eabi/include/c++/10.3.1/cmath ****     acos(_Tp __x)
 100:/Library/DaisyToolchain/0.2.0/arm/arm-none-eabi/include/c++/10.3.1/cmath ****     { return __builtin_acos(__x); }
 101:/Library/DaisyToolchain/0.2.0/arm/arm-none-eabi/include/c++/10.3.1/cmath **** 
 102:/Library/DaisyToolchain/0.2.0/arm/arm-none-eabi/include/c++/10.3.1/cmath ****   using ::asin;
 103:/Library/DaisyToolchain/0.2.0/arm/arm-none-eabi/include/c++/10.3.1/cmath **** 
 104:/Library/DaisyToolchain/0.2.0/arm/arm-none-eabi/include/c++/10.3.1/cmath **** #ifndef __CORRECT_ISO_CPP_MATH_H_PROTO
 105:/Library/DaisyToolchain/0.2.0/arm/arm-none-eabi/include/c++/10.3.1/cmath ****   inline _GLIBCXX_CONSTEXPR float
 106:/Library/DaisyToolchain/0.2.0/arm/arm-none-eabi/include/c++/10.3.1/cmath ****   asin(float __x)
 107:/Library/DaisyToolchain/0.2.0/arm/arm-none-eabi/include/c++/10.3.1/cmath ****   { return __builtin_asinf(__x); }
 108:/Library/DaisyToolchain/0.2.0/arm/arm-none-eabi/include/c++/10.3.1/cmath **** 
 109:/Library/DaisyToolchain/0.2.0/arm/arm-none-eabi/include/c++/10.3.1/cmath ****   inline _GLIBCXX_CONSTEXPR long double
 110:/Library/DaisyToolchain/0.2.0/arm/arm-none-eabi/include/c++/10.3.1/cmath ****   asin(long double __x)
 111:/Library/DaisyToolchain/0.2.0/arm/arm-none-eabi/include/c++/10.3.1/cmath ****   { return __builtin_asinl(__x); }
 112:/Library/DaisyToolchain/0.2.0/arm/arm-none-eabi/include/c++/10.3.1/cmath **** #endif
 113:/Library/DaisyToolchain/0.2.0/arm/arm-none-eabi/include/c++/10.3.1/cmath **** 
 114:/Library/DaisyToolchain/0.2.0/arm/arm-none-eabi/include/c++/10.3.1/cmath ****   template<typename _Tp>
ARM GAS  /var/folders/hp/45mn71hd0ps5f5pnytxy5bt00000gn/T//ccdvmoSj.s 			page 62


 115:/Library/DaisyToolchain/0.2.0/arm/arm-none-eabi/include/c++/10.3.1/cmath ****     inline _GLIBCXX_CONSTEXPR
 116:/Library/DaisyToolchain/0.2.0/arm/arm-none-eabi/include/c++/10.3.1/cmath ****     typename __gnu_cxx::__enable_if<__is_integer<_Tp>::__value,
 117:/Library/DaisyToolchain/0.2.0/arm/arm-none-eabi/include/c++/10.3.1/cmath ****                                     double>::__type
 118:/Library/DaisyToolchain/0.2.0/arm/arm-none-eabi/include/c++/10.3.1/cmath ****     asin(_Tp __x)
 119:/Library/DaisyToolchain/0.2.0/arm/arm-none-eabi/include/c++/10.3.1/cmath ****     { return __builtin_asin(__x); }
 120:/Library/DaisyToolchain/0.2.0/arm/arm-none-eabi/include/c++/10.3.1/cmath **** 
 121:/Library/DaisyToolchain/0.2.0/arm/arm-none-eabi/include/c++/10.3.1/cmath ****   using ::atan;
 122:/Library/DaisyToolchain/0.2.0/arm/arm-none-eabi/include/c++/10.3.1/cmath **** 
 123:/Library/DaisyToolchain/0.2.0/arm/arm-none-eabi/include/c++/10.3.1/cmath **** #ifndef __CORRECT_ISO_CPP_MATH_H_PROTO
 124:/Library/DaisyToolchain/0.2.0/arm/arm-none-eabi/include/c++/10.3.1/cmath ****   inline _GLIBCXX_CONSTEXPR float
 125:/Library/DaisyToolchain/0.2.0/arm/arm-none-eabi/include/c++/10.3.1/cmath ****   atan(float __x)
 126:/Library/DaisyToolchain/0.2.0/arm/arm-none-eabi/include/c++/10.3.1/cmath ****   { return __builtin_atanf(__x); }
 127:/Library/DaisyToolchain/0.2.0/arm/arm-none-eabi/include/c++/10.3.1/cmath **** 
 128:/Library/DaisyToolchain/0.2.0/arm/arm-none-eabi/include/c++/10.3.1/cmath ****   inline _GLIBCXX_CONSTEXPR long double
 129:/Library/DaisyToolchain/0.2.0/arm/arm-none-eabi/include/c++/10.3.1/cmath ****   atan(long double __x)
 130:/Library/DaisyToolchain/0.2.0/arm/arm-none-eabi/include/c++/10.3.1/cmath ****   { return __builtin_atanl(__x); }
 131:/Library/DaisyToolchain/0.2.0/arm/arm-none-eabi/include/c++/10.3.1/cmath **** #endif
 132:/Library/DaisyToolchain/0.2.0/arm/arm-none-eabi/include/c++/10.3.1/cmath **** 
 133:/Library/DaisyToolchain/0.2.0/arm/arm-none-eabi/include/c++/10.3.1/cmath ****   template<typename _Tp>
 134:/Library/DaisyToolchain/0.2.0/arm/arm-none-eabi/include/c++/10.3.1/cmath ****     inline _GLIBCXX_CONSTEXPR
 135:/Library/DaisyToolchain/0.2.0/arm/arm-none-eabi/include/c++/10.3.1/cmath ****     typename __gnu_cxx::__enable_if<__is_integer<_Tp>::__value,
 136:/Library/DaisyToolchain/0.2.0/arm/arm-none-eabi/include/c++/10.3.1/cmath ****                                     double>::__type
 137:/Library/DaisyToolchain/0.2.0/arm/arm-none-eabi/include/c++/10.3.1/cmath ****     atan(_Tp __x)
 138:/Library/DaisyToolchain/0.2.0/arm/arm-none-eabi/include/c++/10.3.1/cmath ****     { return __builtin_atan(__x); }
 139:/Library/DaisyToolchain/0.2.0/arm/arm-none-eabi/include/c++/10.3.1/cmath **** 
 140:/Library/DaisyToolchain/0.2.0/arm/arm-none-eabi/include/c++/10.3.1/cmath ****   using ::atan2;
 141:/Library/DaisyToolchain/0.2.0/arm/arm-none-eabi/include/c++/10.3.1/cmath **** 
 142:/Library/DaisyToolchain/0.2.0/arm/arm-none-eabi/include/c++/10.3.1/cmath **** #ifndef __CORRECT_ISO_CPP_MATH_H_PROTO
 143:/Library/DaisyToolchain/0.2.0/arm/arm-none-eabi/include/c++/10.3.1/cmath ****   inline _GLIBCXX_CONSTEXPR float
 144:/Library/DaisyToolchain/0.2.0/arm/arm-none-eabi/include/c++/10.3.1/cmath ****   atan2(float __y, float __x)
 145:/Library/DaisyToolchain/0.2.0/arm/arm-none-eabi/include/c++/10.3.1/cmath ****   { return __builtin_atan2f(__y, __x); }
 146:/Library/DaisyToolchain/0.2.0/arm/arm-none-eabi/include/c++/10.3.1/cmath **** 
 147:/Library/DaisyToolchain/0.2.0/arm/arm-none-eabi/include/c++/10.3.1/cmath ****   inline _GLIBCXX_CONSTEXPR long double
 148:/Library/DaisyToolchain/0.2.0/arm/arm-none-eabi/include/c++/10.3.1/cmath ****   atan2(long double __y, long double __x)
 149:/Library/DaisyToolchain/0.2.0/arm/arm-none-eabi/include/c++/10.3.1/cmath ****   { return __builtin_atan2l(__y, __x); }
 150:/Library/DaisyToolchain/0.2.0/arm/arm-none-eabi/include/c++/10.3.1/cmath **** #endif
 151:/Library/DaisyToolchain/0.2.0/arm/arm-none-eabi/include/c++/10.3.1/cmath **** 
 152:/Library/DaisyToolchain/0.2.0/arm/arm-none-eabi/include/c++/10.3.1/cmath ****   template<typename _Tp, typename _Up>
 153:/Library/DaisyToolchain/0.2.0/arm/arm-none-eabi/include/c++/10.3.1/cmath ****     inline _GLIBCXX_CONSTEXPR
 154:/Library/DaisyToolchain/0.2.0/arm/arm-none-eabi/include/c++/10.3.1/cmath ****     typename __gnu_cxx::__promote_2<_Tp, _Up>::__type
 155:/Library/DaisyToolchain/0.2.0/arm/arm-none-eabi/include/c++/10.3.1/cmath ****     atan2(_Tp __y, _Up __x)
 156:/Library/DaisyToolchain/0.2.0/arm/arm-none-eabi/include/c++/10.3.1/cmath ****     {
 157:/Library/DaisyToolchain/0.2.0/arm/arm-none-eabi/include/c++/10.3.1/cmath ****       typedef typename __gnu_cxx::__promote_2<_Tp, _Up>::__type __type;
 158:/Library/DaisyToolchain/0.2.0/arm/arm-none-eabi/include/c++/10.3.1/cmath ****       return atan2(__type(__y), __type(__x));
 159:/Library/DaisyToolchain/0.2.0/arm/arm-none-eabi/include/c++/10.3.1/cmath ****     }
 160:/Library/DaisyToolchain/0.2.0/arm/arm-none-eabi/include/c++/10.3.1/cmath **** 
 161:/Library/DaisyToolchain/0.2.0/arm/arm-none-eabi/include/c++/10.3.1/cmath ****   using ::ceil;
 162:/Library/DaisyToolchain/0.2.0/arm/arm-none-eabi/include/c++/10.3.1/cmath **** 
 163:/Library/DaisyToolchain/0.2.0/arm/arm-none-eabi/include/c++/10.3.1/cmath **** #ifndef __CORRECT_ISO_CPP_MATH_H_PROTO
 164:/Library/DaisyToolchain/0.2.0/arm/arm-none-eabi/include/c++/10.3.1/cmath ****   inline _GLIBCXX_CONSTEXPR float
 165:/Library/DaisyToolchain/0.2.0/arm/arm-none-eabi/include/c++/10.3.1/cmath ****   ceil(float __x)
 166:/Library/DaisyToolchain/0.2.0/arm/arm-none-eabi/include/c++/10.3.1/cmath ****   { return __builtin_ceilf(__x); }
 167:/Library/DaisyToolchain/0.2.0/arm/arm-none-eabi/include/c++/10.3.1/cmath **** 
 168:/Library/DaisyToolchain/0.2.0/arm/arm-none-eabi/include/c++/10.3.1/cmath ****   inline _GLIBCXX_CONSTEXPR long double
 169:/Library/DaisyToolchain/0.2.0/arm/arm-none-eabi/include/c++/10.3.1/cmath ****   ceil(long double __x)
 170:/Library/DaisyToolchain/0.2.0/arm/arm-none-eabi/include/c++/10.3.1/cmath ****   { return __builtin_ceill(__x); }
 171:/Library/DaisyToolchain/0.2.0/arm/arm-none-eabi/include/c++/10.3.1/cmath **** #endif
ARM GAS  /var/folders/hp/45mn71hd0ps5f5pnytxy5bt00000gn/T//ccdvmoSj.s 			page 63


 172:/Library/DaisyToolchain/0.2.0/arm/arm-none-eabi/include/c++/10.3.1/cmath **** 
 173:/Library/DaisyToolchain/0.2.0/arm/arm-none-eabi/include/c++/10.3.1/cmath ****   template<typename _Tp>
 174:/Library/DaisyToolchain/0.2.0/arm/arm-none-eabi/include/c++/10.3.1/cmath ****     inline _GLIBCXX_CONSTEXPR
 175:/Library/DaisyToolchain/0.2.0/arm/arm-none-eabi/include/c++/10.3.1/cmath ****     typename __gnu_cxx::__enable_if<__is_integer<_Tp>::__value, 
 176:/Library/DaisyToolchain/0.2.0/arm/arm-none-eabi/include/c++/10.3.1/cmath ****                                     double>::__type
 177:/Library/DaisyToolchain/0.2.0/arm/arm-none-eabi/include/c++/10.3.1/cmath ****     ceil(_Tp __x)
 178:/Library/DaisyToolchain/0.2.0/arm/arm-none-eabi/include/c++/10.3.1/cmath ****     { return __builtin_ceil(__x); }
 179:/Library/DaisyToolchain/0.2.0/arm/arm-none-eabi/include/c++/10.3.1/cmath **** 
 180:/Library/DaisyToolchain/0.2.0/arm/arm-none-eabi/include/c++/10.3.1/cmath ****   using ::cos;
 181:/Library/DaisyToolchain/0.2.0/arm/arm-none-eabi/include/c++/10.3.1/cmath **** 
 182:/Library/DaisyToolchain/0.2.0/arm/arm-none-eabi/include/c++/10.3.1/cmath **** #ifndef __CORRECT_ISO_CPP_MATH_H_PROTO
 183:/Library/DaisyToolchain/0.2.0/arm/arm-none-eabi/include/c++/10.3.1/cmath ****   inline _GLIBCXX_CONSTEXPR float
 184:/Library/DaisyToolchain/0.2.0/arm/arm-none-eabi/include/c++/10.3.1/cmath ****   cos(float __x)
 185:/Library/DaisyToolchain/0.2.0/arm/arm-none-eabi/include/c++/10.3.1/cmath ****   { return __builtin_cosf(__x); }
 1795              		.loc 9 185 26 view .LVU391
 1796 0050 B0EE680A 		vmov.f32	s0, s17
 1797 0054 FFF7FEFF 		bl	cosf
 1798              	.LVL131:
 1799              		.loc 9 185 26 view .LVU392
 1800              	.LBE608:
 1801              	.LBE607:
 315:../../DaisyExamples/libDaisy//src/hid/disp/display.h ****         start_y = -sin(start_angle_rad) * radius;
 1802              		.loc 8 315 17 view .LVU393
 1803 0058 07EE907A 		vmov	s15, r7	@ int
 313:../../DaisyExamples/libDaisy//src/hid/disp/display.h **** 
 1804              		.loc 8 313 25 view .LVU394
 1805 005c B7EECAAB 		vcvt.f32.f64	s20, d10
 1806              	.LVL132:
 1807              	.LBB611:
 1808              	.LBI607:
 184:/Library/DaisyToolchain/0.2.0/arm/arm-none-eabi/include/c++/10.3.1/cmath ****   { return __builtin_cosf(__x); }
 1809              		.loc 9 184 3 is_stmt 1 view .LVU395
 1810              	.LBB609:
 1811              		.loc 9 185 5 view .LVU396
 1812              		.loc 9 185 5 is_stmt 0 view .LVU397
 1813              	.LBE609:
 1814              	.LBE611:
 315:../../DaisyExamples/libDaisy//src/hid/disp/display.h ****         start_y = -sin(start_angle_rad) * radius;
 1815              		.loc 8 315 17 view .LVU398
 1816 0060 F8EE679A 		vcvt.f32.u32	s19, s15
 1817              	.LBB612:
 1818              	.LBB610:
 1819              		.loc 9 185 26 view .LVU399
 1820 0064 B0EE408A 		vmov.f32	s16, s0
 1821              	.LBE610:
 1822              	.LBE612:
 1823              	.LBB613:
 1824              	.LBB614:
 186:/Library/DaisyToolchain/0.2.0/arm/arm-none-eabi/include/c++/10.3.1/cmath **** 
 187:/Library/DaisyToolchain/0.2.0/arm/arm-none-eabi/include/c++/10.3.1/cmath ****   inline _GLIBCXX_CONSTEXPR long double
 188:/Library/DaisyToolchain/0.2.0/arm/arm-none-eabi/include/c++/10.3.1/cmath ****   cos(long double __x)
 189:/Library/DaisyToolchain/0.2.0/arm/arm-none-eabi/include/c++/10.3.1/cmath ****   { return __builtin_cosl(__x); }
 190:/Library/DaisyToolchain/0.2.0/arm/arm-none-eabi/include/c++/10.3.1/cmath **** #endif
 191:/Library/DaisyToolchain/0.2.0/arm/arm-none-eabi/include/c++/10.3.1/cmath **** 
 192:/Library/DaisyToolchain/0.2.0/arm/arm-none-eabi/include/c++/10.3.1/cmath ****   template<typename _Tp>
 193:/Library/DaisyToolchain/0.2.0/arm/arm-none-eabi/include/c++/10.3.1/cmath ****     inline _GLIBCXX_CONSTEXPR
 194:/Library/DaisyToolchain/0.2.0/arm/arm-none-eabi/include/c++/10.3.1/cmath ****     typename __gnu_cxx::__enable_if<__is_integer<_Tp>::__value,
ARM GAS  /var/folders/hp/45mn71hd0ps5f5pnytxy5bt00000gn/T//ccdvmoSj.s 			page 64


 195:/Library/DaisyToolchain/0.2.0/arm/arm-none-eabi/include/c++/10.3.1/cmath ****                                     double>::__type
 196:/Library/DaisyToolchain/0.2.0/arm/arm-none-eabi/include/c++/10.3.1/cmath ****     cos(_Tp __x)
 197:/Library/DaisyToolchain/0.2.0/arm/arm-none-eabi/include/c++/10.3.1/cmath ****     { return __builtin_cos(__x); }
 198:/Library/DaisyToolchain/0.2.0/arm/arm-none-eabi/include/c++/10.3.1/cmath **** 
 199:/Library/DaisyToolchain/0.2.0/arm/arm-none-eabi/include/c++/10.3.1/cmath ****   using ::cosh;
 200:/Library/DaisyToolchain/0.2.0/arm/arm-none-eabi/include/c++/10.3.1/cmath **** 
 201:/Library/DaisyToolchain/0.2.0/arm/arm-none-eabi/include/c++/10.3.1/cmath **** #ifndef __CORRECT_ISO_CPP_MATH_H_PROTO
 202:/Library/DaisyToolchain/0.2.0/arm/arm-none-eabi/include/c++/10.3.1/cmath ****   inline _GLIBCXX_CONSTEXPR float
 203:/Library/DaisyToolchain/0.2.0/arm/arm-none-eabi/include/c++/10.3.1/cmath ****   cosh(float __x)
 204:/Library/DaisyToolchain/0.2.0/arm/arm-none-eabi/include/c++/10.3.1/cmath ****   { return __builtin_coshf(__x); }
 205:/Library/DaisyToolchain/0.2.0/arm/arm-none-eabi/include/c++/10.3.1/cmath **** 
 206:/Library/DaisyToolchain/0.2.0/arm/arm-none-eabi/include/c++/10.3.1/cmath ****   inline _GLIBCXX_CONSTEXPR long double
 207:/Library/DaisyToolchain/0.2.0/arm/arm-none-eabi/include/c++/10.3.1/cmath ****   cosh(long double __x)
 208:/Library/DaisyToolchain/0.2.0/arm/arm-none-eabi/include/c++/10.3.1/cmath ****   { return __builtin_coshl(__x); }
 209:/Library/DaisyToolchain/0.2.0/arm/arm-none-eabi/include/c++/10.3.1/cmath **** #endif
 210:/Library/DaisyToolchain/0.2.0/arm/arm-none-eabi/include/c++/10.3.1/cmath **** 
 211:/Library/DaisyToolchain/0.2.0/arm/arm-none-eabi/include/c++/10.3.1/cmath ****   template<typename _Tp>
 212:/Library/DaisyToolchain/0.2.0/arm/arm-none-eabi/include/c++/10.3.1/cmath ****     inline _GLIBCXX_CONSTEXPR
 213:/Library/DaisyToolchain/0.2.0/arm/arm-none-eabi/include/c++/10.3.1/cmath ****     typename __gnu_cxx::__enable_if<__is_integer<_Tp>::__value,
 214:/Library/DaisyToolchain/0.2.0/arm/arm-none-eabi/include/c++/10.3.1/cmath ****                                     double>::__type
 215:/Library/DaisyToolchain/0.2.0/arm/arm-none-eabi/include/c++/10.3.1/cmath ****     cosh(_Tp __x)
 216:/Library/DaisyToolchain/0.2.0/arm/arm-none-eabi/include/c++/10.3.1/cmath ****     { return __builtin_cosh(__x); }
 217:/Library/DaisyToolchain/0.2.0/arm/arm-none-eabi/include/c++/10.3.1/cmath **** 
 218:/Library/DaisyToolchain/0.2.0/arm/arm-none-eabi/include/c++/10.3.1/cmath ****   using ::exp;
 219:/Library/DaisyToolchain/0.2.0/arm/arm-none-eabi/include/c++/10.3.1/cmath **** 
 220:/Library/DaisyToolchain/0.2.0/arm/arm-none-eabi/include/c++/10.3.1/cmath **** #ifndef __CORRECT_ISO_CPP_MATH_H_PROTO
 221:/Library/DaisyToolchain/0.2.0/arm/arm-none-eabi/include/c++/10.3.1/cmath ****   inline _GLIBCXX_CONSTEXPR float
 222:/Library/DaisyToolchain/0.2.0/arm/arm-none-eabi/include/c++/10.3.1/cmath ****   exp(float __x)
 223:/Library/DaisyToolchain/0.2.0/arm/arm-none-eabi/include/c++/10.3.1/cmath ****   { return __builtin_expf(__x); }
 224:/Library/DaisyToolchain/0.2.0/arm/arm-none-eabi/include/c++/10.3.1/cmath **** 
 225:/Library/DaisyToolchain/0.2.0/arm/arm-none-eabi/include/c++/10.3.1/cmath ****   inline _GLIBCXX_CONSTEXPR long double
 226:/Library/DaisyToolchain/0.2.0/arm/arm-none-eabi/include/c++/10.3.1/cmath ****   exp(long double __x)
 227:/Library/DaisyToolchain/0.2.0/arm/arm-none-eabi/include/c++/10.3.1/cmath ****   { return __builtin_expl(__x); }
 228:/Library/DaisyToolchain/0.2.0/arm/arm-none-eabi/include/c++/10.3.1/cmath **** #endif
 229:/Library/DaisyToolchain/0.2.0/arm/arm-none-eabi/include/c++/10.3.1/cmath **** 
 230:/Library/DaisyToolchain/0.2.0/arm/arm-none-eabi/include/c++/10.3.1/cmath ****   template<typename _Tp>
 231:/Library/DaisyToolchain/0.2.0/arm/arm-none-eabi/include/c++/10.3.1/cmath ****     inline _GLIBCXX_CONSTEXPR
 232:/Library/DaisyToolchain/0.2.0/arm/arm-none-eabi/include/c++/10.3.1/cmath ****     typename __gnu_cxx::__enable_if<__is_integer<_Tp>::__value,
 233:/Library/DaisyToolchain/0.2.0/arm/arm-none-eabi/include/c++/10.3.1/cmath ****                                     double>::__type
 234:/Library/DaisyToolchain/0.2.0/arm/arm-none-eabi/include/c++/10.3.1/cmath ****     exp(_Tp __x)
 235:/Library/DaisyToolchain/0.2.0/arm/arm-none-eabi/include/c++/10.3.1/cmath ****     { return __builtin_exp(__x); }
 236:/Library/DaisyToolchain/0.2.0/arm/arm-none-eabi/include/c++/10.3.1/cmath **** 
 237:/Library/DaisyToolchain/0.2.0/arm/arm-none-eabi/include/c++/10.3.1/cmath ****   using ::fabs;
 238:/Library/DaisyToolchain/0.2.0/arm/arm-none-eabi/include/c++/10.3.1/cmath **** 
 239:/Library/DaisyToolchain/0.2.0/arm/arm-none-eabi/include/c++/10.3.1/cmath **** #ifndef __CORRECT_ISO_CPP_MATH_H_PROTO
 240:/Library/DaisyToolchain/0.2.0/arm/arm-none-eabi/include/c++/10.3.1/cmath ****   inline _GLIBCXX_CONSTEXPR float
 241:/Library/DaisyToolchain/0.2.0/arm/arm-none-eabi/include/c++/10.3.1/cmath ****   fabs(float __x)
 242:/Library/DaisyToolchain/0.2.0/arm/arm-none-eabi/include/c++/10.3.1/cmath ****   { return __builtin_fabsf(__x); }
 243:/Library/DaisyToolchain/0.2.0/arm/arm-none-eabi/include/c++/10.3.1/cmath **** 
 244:/Library/DaisyToolchain/0.2.0/arm/arm-none-eabi/include/c++/10.3.1/cmath ****   inline _GLIBCXX_CONSTEXPR long double
 245:/Library/DaisyToolchain/0.2.0/arm/arm-none-eabi/include/c++/10.3.1/cmath ****   fabs(long double __x)
 246:/Library/DaisyToolchain/0.2.0/arm/arm-none-eabi/include/c++/10.3.1/cmath ****   { return __builtin_fabsl(__x); }
 247:/Library/DaisyToolchain/0.2.0/arm/arm-none-eabi/include/c++/10.3.1/cmath **** #endif
 248:/Library/DaisyToolchain/0.2.0/arm/arm-none-eabi/include/c++/10.3.1/cmath **** 
 249:/Library/DaisyToolchain/0.2.0/arm/arm-none-eabi/include/c++/10.3.1/cmath ****   template<typename _Tp>
 250:/Library/DaisyToolchain/0.2.0/arm/arm-none-eabi/include/c++/10.3.1/cmath ****     inline _GLIBCXX_CONSTEXPR
 251:/Library/DaisyToolchain/0.2.0/arm/arm-none-eabi/include/c++/10.3.1/cmath ****     typename __gnu_cxx::__enable_if<__is_integer<_Tp>::__value,
ARM GAS  /var/folders/hp/45mn71hd0ps5f5pnytxy5bt00000gn/T//ccdvmoSj.s 			page 65


 252:/Library/DaisyToolchain/0.2.0/arm/arm-none-eabi/include/c++/10.3.1/cmath ****                                     double>::__type
 253:/Library/DaisyToolchain/0.2.0/arm/arm-none-eabi/include/c++/10.3.1/cmath ****     fabs(_Tp __x)
 254:/Library/DaisyToolchain/0.2.0/arm/arm-none-eabi/include/c++/10.3.1/cmath ****     { return __builtin_fabs(__x); }
 255:/Library/DaisyToolchain/0.2.0/arm/arm-none-eabi/include/c++/10.3.1/cmath **** 
 256:/Library/DaisyToolchain/0.2.0/arm/arm-none-eabi/include/c++/10.3.1/cmath ****   using ::floor;
 257:/Library/DaisyToolchain/0.2.0/arm/arm-none-eabi/include/c++/10.3.1/cmath **** 
 258:/Library/DaisyToolchain/0.2.0/arm/arm-none-eabi/include/c++/10.3.1/cmath **** #ifndef __CORRECT_ISO_CPP_MATH_H_PROTO
 259:/Library/DaisyToolchain/0.2.0/arm/arm-none-eabi/include/c++/10.3.1/cmath ****   inline _GLIBCXX_CONSTEXPR float
 260:/Library/DaisyToolchain/0.2.0/arm/arm-none-eabi/include/c++/10.3.1/cmath ****   floor(float __x)
 261:/Library/DaisyToolchain/0.2.0/arm/arm-none-eabi/include/c++/10.3.1/cmath ****   { return __builtin_floorf(__x); }
 262:/Library/DaisyToolchain/0.2.0/arm/arm-none-eabi/include/c++/10.3.1/cmath **** 
 263:/Library/DaisyToolchain/0.2.0/arm/arm-none-eabi/include/c++/10.3.1/cmath ****   inline _GLIBCXX_CONSTEXPR long double
 264:/Library/DaisyToolchain/0.2.0/arm/arm-none-eabi/include/c++/10.3.1/cmath ****   floor(long double __x)
 265:/Library/DaisyToolchain/0.2.0/arm/arm-none-eabi/include/c++/10.3.1/cmath ****   { return __builtin_floorl(__x); }
 266:/Library/DaisyToolchain/0.2.0/arm/arm-none-eabi/include/c++/10.3.1/cmath **** #endif
 267:/Library/DaisyToolchain/0.2.0/arm/arm-none-eabi/include/c++/10.3.1/cmath **** 
 268:/Library/DaisyToolchain/0.2.0/arm/arm-none-eabi/include/c++/10.3.1/cmath ****   template<typename _Tp>
 269:/Library/DaisyToolchain/0.2.0/arm/arm-none-eabi/include/c++/10.3.1/cmath ****     inline _GLIBCXX_CONSTEXPR
 270:/Library/DaisyToolchain/0.2.0/arm/arm-none-eabi/include/c++/10.3.1/cmath ****     typename __gnu_cxx::__enable_if<__is_integer<_Tp>::__value,
 271:/Library/DaisyToolchain/0.2.0/arm/arm-none-eabi/include/c++/10.3.1/cmath ****                                     double>::__type
 272:/Library/DaisyToolchain/0.2.0/arm/arm-none-eabi/include/c++/10.3.1/cmath ****     floor(_Tp __x)
 273:/Library/DaisyToolchain/0.2.0/arm/arm-none-eabi/include/c++/10.3.1/cmath ****     { return __builtin_floor(__x); }
 274:/Library/DaisyToolchain/0.2.0/arm/arm-none-eabi/include/c++/10.3.1/cmath **** 
 275:/Library/DaisyToolchain/0.2.0/arm/arm-none-eabi/include/c++/10.3.1/cmath ****   using ::fmod;
 276:/Library/DaisyToolchain/0.2.0/arm/arm-none-eabi/include/c++/10.3.1/cmath **** 
 277:/Library/DaisyToolchain/0.2.0/arm/arm-none-eabi/include/c++/10.3.1/cmath **** #ifndef __CORRECT_ISO_CPP_MATH_H_PROTO
 278:/Library/DaisyToolchain/0.2.0/arm/arm-none-eabi/include/c++/10.3.1/cmath ****   inline _GLIBCXX_CONSTEXPR float
 279:/Library/DaisyToolchain/0.2.0/arm/arm-none-eabi/include/c++/10.3.1/cmath ****   fmod(float __x, float __y)
 280:/Library/DaisyToolchain/0.2.0/arm/arm-none-eabi/include/c++/10.3.1/cmath ****   { return __builtin_fmodf(__x, __y); }
 281:/Library/DaisyToolchain/0.2.0/arm/arm-none-eabi/include/c++/10.3.1/cmath **** 
 282:/Library/DaisyToolchain/0.2.0/arm/arm-none-eabi/include/c++/10.3.1/cmath ****   inline _GLIBCXX_CONSTEXPR long double
 283:/Library/DaisyToolchain/0.2.0/arm/arm-none-eabi/include/c++/10.3.1/cmath ****   fmod(long double __x, long double __y)
 284:/Library/DaisyToolchain/0.2.0/arm/arm-none-eabi/include/c++/10.3.1/cmath ****   { return __builtin_fmodl(__x, __y); }
 285:/Library/DaisyToolchain/0.2.0/arm/arm-none-eabi/include/c++/10.3.1/cmath **** #endif
 286:/Library/DaisyToolchain/0.2.0/arm/arm-none-eabi/include/c++/10.3.1/cmath **** 
